
./build/pdsp_test.o:     file format pe-x86-64


Disassembly of section .text:

0000000000000000 <fprintf>:
       0:	55                   	push   %rbp
       1:	48 89 e5             	mov    %rsp,%rbp
       4:	48 83 ec 30          	sub    $0x30,%rsp
       8:	48 89 4d 10          	mov    %rcx,0x10(%rbp)
       c:	48 89 55 18          	mov    %rdx,0x18(%rbp)
      10:	4c 89 45 20          	mov    %r8,0x20(%rbp)
      14:	4c 89 4d 28          	mov    %r9,0x28(%rbp)
      18:	48 8d 45 20          	lea    0x20(%rbp),%rax
      1c:	48 89 45 f0          	mov    %rax,-0x10(%rbp)
      20:	48 8b 4d f0          	mov    -0x10(%rbp),%rcx
      24:	48 8b 55 18          	mov    0x18(%rbp),%rdx
      28:	48 8b 45 10          	mov    0x10(%rbp),%rax
      2c:	49 89 c8             	mov    %rcx,%r8
      2f:	48 89 c1             	mov    %rax,%rcx
      32:	e8 00 00 00 00       	call   37 <fprintf+0x37>
      37:	89 45 fc             	mov    %eax,-0x4(%rbp)
      3a:	8b 45 fc             	mov    -0x4(%rbp),%eax
      3d:	48 83 c4 30          	add    $0x30,%rsp
      41:	5d                   	pop    %rbp
      42:	c3                   	ret

0000000000000043 <printf>:
      43:	55                   	push   %rbp
      44:	53                   	push   %rbx
      45:	48 83 ec 38          	sub    $0x38,%rsp
      49:	48 8d 6c 24 30       	lea    0x30(%rsp),%rbp
      4e:	48 89 4d 20          	mov    %rcx,0x20(%rbp)
      52:	48 89 55 28          	mov    %rdx,0x28(%rbp)
      56:	4c 89 45 30          	mov    %r8,0x30(%rbp)
      5a:	4c 89 4d 38          	mov    %r9,0x38(%rbp)
      5e:	48 8d 45 28          	lea    0x28(%rbp),%rax
      62:	48 89 45 f0          	mov    %rax,-0x10(%rbp)
      66:	48 8b 5d f0          	mov    -0x10(%rbp),%rbx
      6a:	b9 01 00 00 00       	mov    $0x1,%ecx
      6f:	48 8b 05 00 00 00 00 	mov    0x0(%rip),%rax        # 76 <printf+0x33>
      76:	ff d0                	call   *%rax
      78:	48 89 c1             	mov    %rax,%rcx
      7b:	48 8b 45 20          	mov    0x20(%rbp),%rax
      7f:	49 89 d8             	mov    %rbx,%r8
      82:	48 89 c2             	mov    %rax,%rdx
      85:	e8 00 00 00 00       	call   8a <printf+0x47>
      8a:	89 45 fc             	mov    %eax,-0x4(%rbp)
      8d:	8b 45 fc             	mov    -0x4(%rbp),%eax
      90:	48 83 c4 38          	add    $0x38,%rsp
      94:	5b                   	pop    %rbx
      95:	5d                   	pop    %rbp
      96:	c3                   	ret

0000000000000097 <test_assert_true>:
      97:	55                   	push   %rbp
      98:	48 89 e5             	mov    %rsp,%rbp
      9b:	48 83 ec 20          	sub    $0x20,%rsp
      9f:	48 8d 05 00 00 00 00 	lea    0x0(%rip),%rax        # a6 <test_assert_true+0xf>
      a6:	48 89 c1             	mov    %rax,%rcx
      a9:	e8 95 ff ff ff       	call   43 <printf>
      ae:	90                   	nop
      af:	48 83 c4 20          	add    $0x20,%rsp
      b3:	5d                   	pop    %rbp
      b4:	c3                   	ret

00000000000000b5 <test_stopwatch>:
      b5:	55                   	push   %rbp
      b6:	48 89 e5             	mov    %rsp,%rbp
      b9:	48 83 ec 50          	sub    $0x50,%rsp
      bd:	48 8d 05 28 00 00 00 	lea    0x28(%rip),%rax        # ec <test_stopwatch+0x37>
      c4:	48 89 c1             	mov    %rax,%rcx
      c7:	e8 77 ff ff ff       	call   43 <printf>
      cc:	c7 45 f8 00 00 00 00 	movl   $0x0,-0x8(%rbp)
      d3:	48 8d 45 f8          	lea    -0x8(%rbp),%rax
      d7:	48 89 45 e0          	mov    %rax,-0x20(%rbp)
      db:	c7 45 e8 e8 03 00 00 	movl   $0x3e8,-0x18(%rbp)
      e2:	48 8d 45 e0          	lea    -0x20(%rbp),%rax
      e6:	ba 00 00 00 00       	mov    $0x0,%edx
      eb:	48 89 c1             	mov    %rax,%rcx
      ee:	e8 00 00 00 00       	call   f3 <test_stopwatch+0x3e>
      f3:	48 8d 45 e0          	lea    -0x20(%rbp),%rax
      f7:	ba 2b 02 00 00       	mov    $0x22b,%edx
      fc:	48 89 c1             	mov    %rax,%rcx
      ff:	e8 00 00 00 00       	call   104 <test_stopwatch+0x4f>
     104:	89 45 fc             	mov    %eax,-0x4(%rbp)
     107:	81 7d fc 2b 02 00 00 	cmpl   $0x22b,-0x4(%rbp)
     10e:	74 1f                	je     12f <test_stopwatch+0x7a>
     110:	41 b8 3f 00 00 00    	mov    $0x3f,%r8d
     116:	48 8d 05 49 00 00 00 	lea    0x49(%rip),%rax        # 166 <test_stopwatch+0xb1>
     11d:	48 89 c2             	mov    %rax,%rdx
     120:	48 8d 05 5a 00 00 00 	lea    0x5a(%rip),%rax        # 181 <test_stopwatch+0xcc>
     127:	48 89 c1             	mov    %rax,%rcx
     12a:	e8 14 ff ff ff       	call   43 <printf>
     12f:	48 8d 45 e0          	lea    -0x20(%rbp),%rax
     133:	ba 79 03 00 00       	mov    $0x379,%edx
     138:	48 89 c1             	mov    %rax,%rcx
     13b:	e8 00 00 00 00       	call   140 <test_stopwatch+0x8b>
     140:	48 8d 45 e0          	lea    -0x20(%rbp),%rax
     144:	ba bc 01 00 00       	mov    $0x1bc,%edx
     149:	48 89 c1             	mov    %rax,%rcx
     14c:	e8 00 00 00 00       	call   151 <test_stopwatch+0x9c>
     151:	89 45 fc             	mov    %eax,-0x4(%rbp)
     154:	81 7d fc 2b 02 00 00 	cmpl   $0x22b,-0x4(%rbp)
     15b:	74 1f                	je     17c <test_stopwatch+0xc7>
     15d:	41 b8 42 00 00 00    	mov    $0x42,%r8d
     163:	48 8d 05 49 00 00 00 	lea    0x49(%rip),%rax        # 1b3 <test_stopwatch+0xfe>
     16a:	48 89 c2             	mov    %rax,%rdx
     16d:	48 8d 05 5a 00 00 00 	lea    0x5a(%rip),%rax        # 1ce <test_stopwatch+0x119>
     174:	48 89 c1             	mov    %rax,%rcx
     177:	e8 c7 fe ff ff       	call   43 <printf>
     17c:	c7 45 d8 00 00 00 00 	movl   $0x0,-0x28(%rbp)
     183:	c7 45 dc e8 03 00 00 	movl   $0x3e8,-0x24(%rbp)
     18a:	c7 45 d8 00 00 00 00 	movl   $0x0,-0x28(%rbp)
     191:	8b 45 d8             	mov    -0x28(%rbp),%eax
     194:	3d 2a 02 00 00       	cmp    $0x22a,%eax
     199:	77 0c                	ja     1a7 <test_stopwatch+0xf2>
     19b:	8b 55 d8             	mov    -0x28(%rbp),%edx
     19e:	b8 2b 02 00 00       	mov    $0x22b,%eax
     1a3:	29 d0                	sub    %edx,%eax
     1a5:	eb 0e                	jmp    1b5 <test_stopwatch+0x100>
     1a7:	8b 55 dc             	mov    -0x24(%rbp),%edx
     1aa:	8b 45 d8             	mov    -0x28(%rbp),%eax
     1ad:	29 c2                	sub    %eax,%edx
     1af:	8d 82 2b 02 00 00    	lea    0x22b(%rdx),%eax
     1b5:	89 45 fc             	mov    %eax,-0x4(%rbp)
     1b8:	81 7d fc 2b 02 00 00 	cmpl   $0x22b,-0x4(%rbp)
     1bf:	74 1f                	je     1e0 <test_stopwatch+0x12b>
     1c1:	41 b8 47 00 00 00    	mov    $0x47,%r8d
     1c7:	48 8d 05 49 00 00 00 	lea    0x49(%rip),%rax        # 217 <test_stopwatch+0x162>
     1ce:	48 89 c2             	mov    %rax,%rdx
     1d1:	48 8d 05 5a 00 00 00 	lea    0x5a(%rip),%rax        # 232 <test_stopwatch+0x17d>
     1d8:	48 89 c1             	mov    %rax,%rcx
     1db:	e8 63 fe ff ff       	call   43 <printf>
     1e0:	c7 45 d8 79 03 00 00 	movl   $0x379,-0x28(%rbp)
     1e7:	8b 45 d8             	mov    -0x28(%rbp),%eax
     1ea:	3d bb 01 00 00       	cmp    $0x1bb,%eax
     1ef:	77 0c                	ja     1fd <test_stopwatch+0x148>
     1f1:	8b 55 d8             	mov    -0x28(%rbp),%edx
     1f4:	b8 bc 01 00 00       	mov    $0x1bc,%eax
     1f9:	29 d0                	sub    %edx,%eax
     1fb:	eb 0e                	jmp    20b <test_stopwatch+0x156>
     1fd:	8b 55 dc             	mov    -0x24(%rbp),%edx
     200:	8b 45 d8             	mov    -0x28(%rbp),%eax
     203:	29 c2                	sub    %eax,%edx
     205:	8d 82 bc 01 00 00    	lea    0x1bc(%rdx),%eax
     20b:	89 45 fc             	mov    %eax,-0x4(%rbp)
     20e:	81 7d fc 2b 02 00 00 	cmpl   $0x22b,-0x4(%rbp)
     215:	74 1f                	je     236 <test_stopwatch+0x181>
     217:	41 b8 4a 00 00 00    	mov    $0x4a,%r8d
     21d:	48 8d 05 49 00 00 00 	lea    0x49(%rip),%rax        # 26d <test_call_i16_func+0xf>
     224:	48 89 c2             	mov    %rax,%rdx
     227:	48 8d 05 5a 00 00 00 	lea    0x5a(%rip),%rax        # 288 <test_call_i16_func+0x2a>
     22e:	48 89 c1             	mov    %rax,%rcx
     231:	e8 0d fe ff ff       	call   43 <printf>
     236:	90                   	nop
     237:	48 83 c4 50          	add    $0x50,%rsp
     23b:	5d                   	pop    %rbp
     23c:	c3                   	ret

000000000000023d <func_nop>:
     23d:	55                   	push   %rbp
     23e:	48 89 e5             	mov    %rsp,%rbp
     241:	b8 00 00 00 00       	mov    $0x0,%eax
     246:	5d                   	pop    %rbp
     247:	c3                   	ret

0000000000000248 <func_start_converter>:
     248:	55                   	push   %rbp
     249:	48 89 e5             	mov    %rsp,%rbp
     24c:	b8 01 00 00 00       	mov    $0x1,%eax
     251:	5d                   	pop    %rbp
     252:	c3                   	ret

0000000000000253 <func_stop_converter>:
     253:	55                   	push   %rbp
     254:	48 89 e5             	mov    %rsp,%rbp
     257:	b8 02 00 00 00       	mov    $0x2,%eax
     25c:	5d                   	pop    %rbp
     25d:	c3                   	ret

000000000000025e <test_call_i16_func>:
     25e:	55                   	push   %rbp
     25f:	48 89 e5             	mov    %rsp,%rbp
     262:	48 83 ec 50          	sub    $0x50,%rsp
     266:	48 8d 05 70 00 00 00 	lea    0x70(%rip),%rax        # 2dd <test_call_i16_func+0x7f>
     26d:	48 89 c1             	mov    %rax,%rcx
     270:	e8 ce fd ff ff       	call   43 <printf>
     275:	48 8d 05 c1 ff ff ff 	lea    -0x3f(%rip),%rax        # 23d <func_nop>
     27c:	48 89 45 e0          	mov    %rax,-0x20(%rbp)
     280:	48 8d 05 c1 ff ff ff 	lea    -0x3f(%rip),%rax        # 248 <func_start_converter>
     287:	48 89 45 e8          	mov    %rax,-0x18(%rbp)
     28b:	48 8d 05 c1 ff ff ff 	lea    -0x3f(%rip),%rax        # 253 <func_stop_converter>
     292:	48 89 45 f0          	mov    %rax,-0x10(%rbp)
     296:	48 8d 55 de          	lea    -0x22(%rbp),%rdx
     29a:	48 8d 45 e0          	lea    -0x20(%rbp),%rax
     29e:	49 89 d1             	mov    %rdx,%r9
     2a1:	41 b8 01 00 00 00    	mov    $0x1,%r8d
     2a7:	ba 03 00 00 00       	mov    $0x3,%edx
     2ac:	48 89 c1             	mov    %rax,%rcx
     2af:	e8 00 00 00 00       	call   2b4 <test_call_i16_func+0x56>
     2b4:	0f b7 45 de          	movzwl -0x22(%rbp),%eax
     2b8:	66 83 f8 01          	cmp    $0x1,%ax
     2bc:	74 1f                	je     2dd <test_call_i16_func+0x7f>
     2be:	41 b8 5f 00 00 00    	mov    $0x5f,%r8d
     2c4:	48 8d 05 49 00 00 00 	lea    0x49(%rip),%rax        # 314 <test_call_i16_func+0xb6>
     2cb:	48 89 c2             	mov    %rax,%rdx
     2ce:	48 8d 05 5a 00 00 00 	lea    0x5a(%rip),%rax        # 32f <test_i16_to_string+0x4>
     2d5:	48 89 c1             	mov    %rax,%rcx
     2d8:	e8 66 fd ff ff       	call   43 <printf>
     2dd:	48 8d 55 de          	lea    -0x22(%rbp),%rdx
     2e1:	48 8d 45 e0          	lea    -0x20(%rbp),%rax
     2e5:	49 89 d1             	mov    %rdx,%r9
     2e8:	41 b8 02 00 00 00    	mov    $0x2,%r8d
     2ee:	ba 03 00 00 00       	mov    $0x3,%edx
     2f3:	48 89 c1             	mov    %rax,%rcx
     2f6:	e8 00 00 00 00       	call   2fb <test_call_i16_func+0x9d>
     2fb:	0f b7 45 de          	movzwl -0x22(%rbp),%eax
     2ff:	66 83 f8 02          	cmp    $0x2,%ax
     303:	74 1f                	je     324 <test_call_i16_func+0xc6>
     305:	41 b8 61 00 00 00    	mov    $0x61,%r8d
     30b:	48 8d 05 49 00 00 00 	lea    0x49(%rip),%rax        # 35b <test_i16_to_string+0x30>
     312:	48 89 c2             	mov    %rax,%rdx
     315:	48 8d 05 5a 00 00 00 	lea    0x5a(%rip),%rax        # 376 <test_i16_to_string+0x4b>
     31c:	48 89 c1             	mov    %rax,%rcx
     31f:	e8 1f fd ff ff       	call   43 <printf>
     324:	90                   	nop
     325:	48 83 c4 50          	add    $0x50,%rsp
     329:	5d                   	pop    %rbp
     32a:	c3                   	ret

000000000000032b <test_i16_to_string>:
     32b:	55                   	push   %rbp
     32c:	48 89 e5             	mov    %rsp,%rbp
     32f:	48 83 ec 40          	sub    $0x40,%rsp
     333:	48 8d 05 98 00 00 00 	lea    0x98(%rip),%rax        # 3d2 <test_i16_to_string+0xa7>
     33a:	48 89 c1             	mov    %rax,%rcx
     33d:	e8 01 fd ff ff       	call   43 <printf>
     342:	48 c7 45 e0 00 00 00 	movq   $0x0,-0x20(%rbp)
     349:	00 
     34a:	48 c7 45 e8 00 00 00 	movq   $0x0,-0x18(%rbp)
     351:	00 
     352:	48 8d 45 e0          	lea    -0x20(%rbp),%rax
     356:	48 89 45 f8          	mov    %rax,-0x8(%rbp)
     35a:	48 8b 45 f8          	mov    -0x8(%rbp),%rax
     35e:	48 8d 50 01          	lea    0x1(%rax),%rdx
     362:	48 89 55 f8          	mov    %rdx,-0x8(%rbp)
     366:	c6 00 3a             	movb   $0x3a,(%rax)
     369:	48 8b 45 f8          	mov    -0x8(%rbp),%rax
     36d:	48 89 c2             	mov    %rax,%rdx
     370:	b9 0a 1a 00 00       	mov    $0x1a0a,%ecx
     375:	e8 00 00 00 00       	call   37a <test_i16_to_string+0x4f>
     37a:	48 89 45 f8          	mov    %rax,-0x8(%rbp)
     37e:	48 8b 45 f8          	mov    -0x8(%rbp),%rax
     382:	48 8d 50 01          	lea    0x1(%rax),%rdx
     386:	48 89 55 f8          	mov    %rdx,-0x8(%rbp)
     38a:	c6 00 2c             	movb   $0x2c,(%rax)
     38d:	48 8b 45 f8          	mov    -0x8(%rbp),%rax
     391:	48 89 c2             	mov    %rax,%rdx
     394:	b9 a9 fb ff ff       	mov    $0xfffffba9,%ecx
     399:	e8 00 00 00 00       	call   39e <test_i16_to_string+0x73>
     39e:	48 89 45 f8          	mov    %rax,-0x8(%rbp)
     3a2:	48 8b 45 f8          	mov    -0x8(%rbp),%rax
     3a6:	48 8d 50 01          	lea    0x1(%rax),%rdx
     3aa:	48 89 55 f8          	mov    %rdx,-0x8(%rbp)
     3ae:	c6 00 3a             	movb   $0x3a,(%rax)
     3b1:	48 8d 45 e0          	lea    -0x20(%rbp),%rax
     3b5:	48 8d 15 bd 00 00 00 	lea    0xbd(%rip),%rdx        # 479 <test_u16_to_base16+0x8b>
     3bc:	48 89 c1             	mov    %rax,%rcx
     3bf:	e8 00 00 00 00       	call   3c4 <test_i16_to_string+0x99>
     3c4:	85 c0                	test   %eax,%eax
     3c6:	74 1f                	je     3e7 <test_i16_to_string+0xbc>
     3c8:	41 b8 6e 00 00 00    	mov    $0x6e,%r8d
     3ce:	48 8d 05 49 00 00 00 	lea    0x49(%rip),%rax        # 41e <test_u16_to_base16+0x30>
     3d5:	48 89 c2             	mov    %rax,%rdx
     3d8:	48 8d 05 5a 00 00 00 	lea    0x5a(%rip),%rax        # 439 <test_u16_to_base16+0x4b>
     3df:	48 89 c1             	mov    %rax,%rcx
     3e2:	e8 5c fc ff ff       	call   43 <printf>
     3e7:	90                   	nop
     3e8:	48 83 c4 40          	add    $0x40,%rsp
     3ec:	5d                   	pop    %rbp
     3ed:	c3                   	ret

00000000000003ee <test_u16_to_base16>:
     3ee:	55                   	push   %rbp
     3ef:	48 89 e5             	mov    %rsp,%rbp
     3f2:	48 83 ec 70          	sub    $0x70,%rsp
     3f6:	48 8d 05 d0 00 00 00 	lea    0xd0(%rip),%rax        # 4cd <test_u16_to_base16+0xdf>
     3fd:	48 89 c1             	mov    %rax,%rcx
     400:	e8 3e fc ff ff       	call   43 <printf>
     405:	48 c7 45 b0 00 00 00 	movq   $0x0,-0x50(%rbp)
     40c:	00 
     40d:	48 c7 45 b8 00 00 00 	movq   $0x0,-0x48(%rbp)
     414:	00 
     415:	48 c7 45 c0 00 00 00 	movq   $0x0,-0x40(%rbp)
     41c:	00 
     41d:	48 c7 45 c8 00 00 00 	movq   $0x0,-0x38(%rbp)
     424:	00 
     425:	48 c7 45 d0 00 00 00 	movq   $0x0,-0x30(%rbp)
     42c:	00 
     42d:	48 c7 45 d8 00 00 00 	movq   $0x0,-0x28(%rbp)
     434:	00 
     435:	48 c7 45 e0 00 00 00 	movq   $0x0,-0x20(%rbp)
     43c:	00 
     43d:	48 c7 45 e8 00 00 00 	movq   $0x0,-0x18(%rbp)
     444:	00 
     445:	48 8d 45 b0          	lea    -0x50(%rbp),%rax
     449:	48 89 45 f8          	mov    %rax,-0x8(%rbp)
     44d:	48 8b 45 f8          	mov    -0x8(%rbp),%rax
     451:	48 8d 50 01          	lea    0x1(%rax),%rdx
     455:	48 89 55 f8          	mov    %rdx,-0x8(%rbp)
     459:	c6 00 3a             	movb   $0x3a,(%rax)
     45c:	48 8b 45 f8          	mov    -0x8(%rbp),%rax
     460:	41 b8 00 00 00 00    	mov    $0x0,%r8d
     466:	48 89 c2             	mov    %rax,%rdx
     469:	b9 37 13 00 00       	mov    $0x1337,%ecx
     46e:	e8 00 00 00 00       	call   473 <test_u16_to_base16+0x85>
     473:	48 89 45 f8          	mov    %rax,-0x8(%rbp)
     477:	48 8b 45 f8          	mov    -0x8(%rbp),%rax
     47b:	48 8d 50 01          	lea    0x1(%rax),%rdx
     47f:	48 89 55 f8          	mov    %rdx,-0x8(%rbp)
     483:	c6 00 2c             	movb   $0x2c,(%rax)
     486:	48 8b 45 f8          	mov    -0x8(%rbp),%rax
     48a:	41 b8 00 00 00 00    	mov    $0x0,%r8d
     490:	48 89 c2             	mov    %rax,%rdx
     493:	b9 0b b0 00 00       	mov    $0xb00b,%ecx
     498:	e8 00 00 00 00       	call   49d <test_u16_to_base16+0xaf>
     49d:	48 89 45 f8          	mov    %rax,-0x8(%rbp)
     4a1:	48 8b 45 f8          	mov    -0x8(%rbp),%rax
     4a5:	48 8d 50 01          	lea    0x1(%rax),%rdx
     4a9:	48 89 55 f8          	mov    %rdx,-0x8(%rbp)
     4ad:	c6 00 2c             	movb   $0x2c,(%rax)
     4b0:	48 8b 45 f8          	mov    -0x8(%rbp),%rax
     4b4:	41 b8 00 00 00 00    	mov    $0x0,%r8d
     4ba:	48 89 c2             	mov    %rax,%rdx
     4bd:	b9 0b 00 00 00       	mov    $0xb,%ecx
     4c2:	e8 00 00 00 00       	call   4c7 <test_u16_to_base16+0xd9>
     4c7:	48 89 45 f8          	mov    %rax,-0x8(%rbp)
     4cb:	48 8b 45 f8          	mov    -0x8(%rbp),%rax
     4cf:	48 8d 50 01          	lea    0x1(%rax),%rdx
     4d3:	48 89 55 f8          	mov    %rdx,-0x8(%rbp)
     4d7:	c6 00 2c             	movb   $0x2c,(%rax)
     4da:	48 8b 45 f8          	mov    -0x8(%rbp),%rax
     4de:	41 b8 00 00 00 00    	mov    $0x0,%r8d
     4e4:	48 89 c2             	mov    %rax,%rdx
     4e7:	b9 bb 00 00 00       	mov    $0xbb,%ecx
     4ec:	e8 00 00 00 00       	call   4f1 <test_u16_to_base16+0x103>
     4f1:	48 89 45 f8          	mov    %rax,-0x8(%rbp)
     4f5:	48 8b 45 f8          	mov    -0x8(%rbp),%rax
     4f9:	48 8d 50 01          	lea    0x1(%rax),%rdx
     4fd:	48 89 55 f8          	mov    %rdx,-0x8(%rbp)
     501:	c6 00 2c             	movb   $0x2c,(%rax)
     504:	48 8b 45 f8          	mov    -0x8(%rbp),%rax
     508:	41 b8 00 00 00 00    	mov    $0x0,%r8d
     50e:	48 89 c2             	mov    %rax,%rdx
     511:	b9 0b 0b 00 00       	mov    $0xb0b,%ecx
     516:	e8 00 00 00 00       	call   51b <test_u16_to_base16+0x12d>
     51b:	48 89 45 f8          	mov    %rax,-0x8(%rbp)
     51f:	48 8b 45 f8          	mov    -0x8(%rbp),%rax
     523:	48 8d 50 01          	lea    0x1(%rax),%rdx
     527:	48 89 55 f8          	mov    %rdx,-0x8(%rbp)
     52b:	c6 00 3a             	movb   $0x3a,(%rax)
     52e:	48 8b 45 f8          	mov    -0x8(%rbp),%rax
     532:	48 8d 50 01          	lea    0x1(%rax),%rdx
     536:	48 89 55 f8          	mov    %rdx,-0x8(%rbp)
     53a:	c6 00 00             	movb   $0x0,(%rax)
     53d:	48 8d 45 b0          	lea    -0x50(%rbp),%rax
     541:	48 8d 15 f5 00 00 00 	lea    0xf5(%rip),%rdx        # 63d <test_u16_to_base16+0x24f>
     548:	48 89 c1             	mov    %rax,%rcx
     54b:	e8 00 00 00 00       	call   550 <test_u16_to_base16+0x162>
     550:	85 c0                	test   %eax,%eax
     552:	74 1f                	je     573 <test_u16_to_base16+0x185>
     554:	41 b8 82 00 00 00    	mov    $0x82,%r8d
     55a:	48 8d 05 49 00 00 00 	lea    0x49(%rip),%rax        # 5aa <test_u16_to_base16+0x1bc>
     561:	48 89 c2             	mov    %rax,%rdx
     564:	48 8d 05 5a 00 00 00 	lea    0x5a(%rip),%rax        # 5c5 <test_u16_to_base16+0x1d7>
     56b:	48 89 c1             	mov    %rax,%rcx
     56e:	e8 d0 fa ff ff       	call   43 <printf>
     573:	48 8d 45 b0          	lea    -0x50(%rbp),%rax
     577:	48 89 45 f8          	mov    %rax,-0x8(%rbp)
     57b:	48 8b 45 f8          	mov    -0x8(%rbp),%rax
     57f:	48 8d 50 01          	lea    0x1(%rax),%rdx
     583:	48 89 55 f8          	mov    %rdx,-0x8(%rbp)
     587:	c6 00 3a             	movb   $0x3a,(%rax)
     58a:	48 8b 45 f8          	mov    -0x8(%rbp),%rax
     58e:	ba 37 13 00 00       	mov    $0x1337,%edx
     593:	48 89 c1             	mov    %rax,%rcx
     596:	e8 00 00 00 00       	call   59b <test_u16_to_base16+0x1ad>
     59b:	48 89 45 f8          	mov    %rax,-0x8(%rbp)
     59f:	48 8b 45 f8          	mov    -0x8(%rbp),%rax
     5a3:	48 8d 50 01          	lea    0x1(%rax),%rdx
     5a7:	48 89 55 f8          	mov    %rdx,-0x8(%rbp)
     5ab:	c6 00 2c             	movb   $0x2c,(%rax)
     5ae:	48 8b 45 f8          	mov    -0x8(%rbp),%rax
     5b2:	ba 0b b0 00 00       	mov    $0xb00b,%edx
     5b7:	48 89 c1             	mov    %rax,%rcx
     5ba:	e8 00 00 00 00       	call   5bf <test_u16_to_base16+0x1d1>
     5bf:	48 89 45 f8          	mov    %rax,-0x8(%rbp)
     5c3:	48 8b 45 f8          	mov    -0x8(%rbp),%rax
     5c7:	48 8d 50 01          	lea    0x1(%rax),%rdx
     5cb:	48 89 55 f8          	mov    %rdx,-0x8(%rbp)
     5cf:	c6 00 2c             	movb   $0x2c,(%rax)
     5d2:	48 8b 45 f8          	mov    -0x8(%rbp),%rax
     5d6:	ba 0b 00 00 00       	mov    $0xb,%edx
     5db:	48 89 c1             	mov    %rax,%rcx
     5de:	e8 00 00 00 00       	call   5e3 <test_u16_to_base16+0x1f5>
     5e3:	48 89 45 f8          	mov    %rax,-0x8(%rbp)
     5e7:	48 8b 45 f8          	mov    -0x8(%rbp),%rax
     5eb:	48 8d 50 01          	lea    0x1(%rax),%rdx
     5ef:	48 89 55 f8          	mov    %rdx,-0x8(%rbp)
     5f3:	c6 00 2c             	movb   $0x2c,(%rax)
     5f6:	48 8b 45 f8          	mov    -0x8(%rbp),%rax
     5fa:	ba bb 00 00 00       	mov    $0xbb,%edx
     5ff:	48 89 c1             	mov    %rax,%rcx
     602:	e8 00 00 00 00       	call   607 <test_u16_to_base16+0x219>
     607:	48 89 45 f8          	mov    %rax,-0x8(%rbp)
     60b:	48 8b 45 f8          	mov    -0x8(%rbp),%rax
     60f:	48 8d 50 01          	lea    0x1(%rax),%rdx
     613:	48 89 55 f8          	mov    %rdx,-0x8(%rbp)
     617:	c6 00 2c             	movb   $0x2c,(%rax)
     61a:	48 8b 45 f8          	mov    -0x8(%rbp),%rax
     61e:	ba 0b 0b 00 00       	mov    $0xb0b,%edx
     623:	48 89 c1             	mov    %rax,%rcx
     626:	e8 00 00 00 00       	call   62b <test_u16_to_base16+0x23d>
     62b:	48 89 45 f8          	mov    %rax,-0x8(%rbp)
     62f:	48 8b 45 f8          	mov    -0x8(%rbp),%rax
     633:	48 8d 50 01          	lea    0x1(%rax),%rdx
     637:	48 89 55 f8          	mov    %rdx,-0x8(%rbp)
     63b:	c6 00 3a             	movb   $0x3a,(%rax)
     63e:	48 8b 45 f8          	mov    -0x8(%rbp),%rax
     642:	48 8d 50 01          	lea    0x1(%rax),%rdx
     646:	48 89 55 f8          	mov    %rdx,-0x8(%rbp)
     64a:	c6 00 00             	movb   $0x0,(%rax)
     64d:	48 8d 45 b0          	lea    -0x50(%rbp),%rax
     651:	48 8d 15 0a 01 00 00 	lea    0x10a(%rip),%rdx        # 762 <test_u32_to_base16+0xd8>
     658:	48 89 c1             	mov    %rax,%rcx
     65b:	e8 00 00 00 00       	call   660 <test_u16_to_base16+0x272>
     660:	85 c0                	test   %eax,%eax
     662:	74 1f                	je     683 <test_u16_to_base16+0x295>
     664:	41 b8 90 00 00 00    	mov    $0x90,%r8d
     66a:	48 8d 05 49 00 00 00 	lea    0x49(%rip),%rax        # 6ba <test_u32_to_base16+0x30>
     671:	48 89 c2             	mov    %rax,%rdx
     674:	48 8d 05 5a 00 00 00 	lea    0x5a(%rip),%rax        # 6d5 <test_u32_to_base16+0x4b>
     67b:	48 89 c1             	mov    %rax,%rcx
     67e:	e8 c0 f9 ff ff       	call   43 <printf>
     683:	90                   	nop
     684:	48 83 c4 70          	add    $0x70,%rsp
     688:	5d                   	pop    %rbp
     689:	c3                   	ret

000000000000068a <test_u32_to_base16>:
     68a:	55                   	push   %rbp
     68b:	48 89 e5             	mov    %rsp,%rbp
     68e:	48 83 ec 70          	sub    $0x70,%rsp
     692:	48 8d 05 28 01 00 00 	lea    0x128(%rip),%rax        # 7c1 <test_u32_to_base16+0x137>
     699:	48 89 c1             	mov    %rax,%rcx
     69c:	e8 a2 f9 ff ff       	call   43 <printf>
     6a1:	48 c7 45 b0 00 00 00 	movq   $0x0,-0x50(%rbp)
     6a8:	00 
     6a9:	48 c7 45 b8 00 00 00 	movq   $0x0,-0x48(%rbp)
     6b0:	00 
     6b1:	48 c7 45 c0 00 00 00 	movq   $0x0,-0x40(%rbp)
     6b8:	00 
     6b9:	48 c7 45 c8 00 00 00 	movq   $0x0,-0x38(%rbp)
     6c0:	00 
     6c1:	48 c7 45 d0 00 00 00 	movq   $0x0,-0x30(%rbp)
     6c8:	00 
     6c9:	48 c7 45 d8 00 00 00 	movq   $0x0,-0x28(%rbp)
     6d0:	00 
     6d1:	48 c7 45 e0 00 00 00 	movq   $0x0,-0x20(%rbp)
     6d8:	00 
     6d9:	48 c7 45 e8 00 00 00 	movq   $0x0,-0x18(%rbp)
     6e0:	00 
     6e1:	48 8d 45 b0          	lea    -0x50(%rbp),%rax
     6e5:	48 89 45 f8          	mov    %rax,-0x8(%rbp)
     6e9:	48 8b 45 f8          	mov    -0x8(%rbp),%rax
     6ed:	48 8d 50 01          	lea    0x1(%rax),%rdx
     6f1:	48 89 55 f8          	mov    %rdx,-0x8(%rbp)
     6f5:	c6 00 3a             	movb   $0x3a,(%rax)
     6f8:	48 8b 45 f8          	mov    -0x8(%rbp),%rax
     6fc:	ba 37 13 37 13       	mov    $0x13371337,%edx
     701:	48 89 c1             	mov    %rax,%rcx
     704:	e8 00 00 00 00       	call   709 <test_u32_to_base16+0x7f>
     709:	48 89 45 f8          	mov    %rax,-0x8(%rbp)
     70d:	48 8b 45 f8          	mov    -0x8(%rbp),%rax
     711:	48 8d 50 01          	lea    0x1(%rax),%rdx
     715:	48 89 55 f8          	mov    %rdx,-0x8(%rbp)
     719:	c6 00 2c             	movb   $0x2c,(%rax)
     71c:	48 8b 45 f8          	mov    -0x8(%rbp),%rax
     720:	ba 0b b0 00 00       	mov    $0xb00b,%edx
     725:	48 89 c1             	mov    %rax,%rcx
     728:	e8 00 00 00 00       	call   72d <test_u32_to_base16+0xa3>
     72d:	48 89 45 f8          	mov    %rax,-0x8(%rbp)
     731:	48 8b 45 f8          	mov    -0x8(%rbp),%rax
     735:	48 8d 50 01          	lea    0x1(%rax),%rdx
     739:	48 89 55 f8          	mov    %rdx,-0x8(%rbp)
     73d:	c6 00 2c             	movb   $0x2c,(%rax)
     740:	48 8b 45 f8          	mov    -0x8(%rbp),%rax
     744:	ba 0b 00 00 00       	mov    $0xb,%edx
     749:	48 89 c1             	mov    %rax,%rcx
     74c:	e8 00 00 00 00       	call   751 <test_u32_to_base16+0xc7>
     751:	48 89 45 f8          	mov    %rax,-0x8(%rbp)
     755:	48 8b 45 f8          	mov    -0x8(%rbp),%rax
     759:	48 8d 50 01          	lea    0x1(%rax),%rdx
     75d:	48 89 55 f8          	mov    %rdx,-0x8(%rbp)
     761:	c6 00 2c             	movb   $0x2c,(%rax)
     764:	48 8b 45 f8          	mov    -0x8(%rbp),%rax
     768:	ba bb 00 00 00       	mov    $0xbb,%edx
     76d:	48 89 c1             	mov    %rax,%rcx
     770:	e8 00 00 00 00       	call   775 <test_u32_to_base16+0xeb>
     775:	48 89 45 f8          	mov    %rax,-0x8(%rbp)
     779:	48 8b 45 f8          	mov    -0x8(%rbp),%rax
     77d:	48 8d 50 01          	lea    0x1(%rax),%rdx
     781:	48 89 55 f8          	mov    %rdx,-0x8(%rbp)
     785:	c6 00 2c             	movb   $0x2c,(%rax)
     788:	48 8b 45 f8          	mov    -0x8(%rbp),%rax
     78c:	ba 0b 0b 00 00       	mov    $0xb0b,%edx
     791:	48 89 c1             	mov    %rax,%rcx
     794:	e8 00 00 00 00       	call   799 <test_u32_to_base16+0x10f>
     799:	48 89 45 f8          	mov    %rax,-0x8(%rbp)
     79d:	48 8b 45 f8          	mov    -0x8(%rbp),%rax
     7a1:	48 8d 50 01          	lea    0x1(%rax),%rdx
     7a5:	48 89 55 f8          	mov    %rdx,-0x8(%rbp)
     7a9:	c6 00 3a             	movb   $0x3a,(%rax)
     7ac:	48 8b 45 f8          	mov    -0x8(%rbp),%rax
     7b0:	48 8d 50 01          	lea    0x1(%rax),%rdx
     7b4:	48 89 55 f8          	mov    %rdx,-0x8(%rbp)
     7b8:	c6 00 00             	movb   $0x0,(%rax)
     7bb:	48 8d 45 b0          	lea    -0x50(%rbp),%rax
     7bf:	48 8d 15 50 01 00 00 	lea    0x150(%rip),%rdx        # 916 <test_u64_to_base16+0x11e>
     7c6:	48 89 c1             	mov    %rax,%rcx
     7c9:	e8 00 00 00 00       	call   7ce <test_u32_to_base16+0x144>
     7ce:	85 c0                	test   %eax,%eax
     7d0:	74 1f                	je     7f1 <test_u32_to_base16+0x167>
     7d2:	41 b8 a4 00 00 00    	mov    $0xa4,%r8d
     7d8:	48 8d 05 49 00 00 00 	lea    0x49(%rip),%rax        # 828 <test_u64_to_base16+0x30>
     7df:	48 89 c2             	mov    %rax,%rdx
     7e2:	48 8d 05 5a 00 00 00 	lea    0x5a(%rip),%rax        # 843 <test_u64_to_base16+0x4b>
     7e9:	48 89 c1             	mov    %rax,%rcx
     7ec:	e8 52 f8 ff ff       	call   43 <printf>
     7f1:	90                   	nop
     7f2:	48 83 c4 70          	add    $0x70,%rsp
     7f6:	5d                   	pop    %rbp
     7f7:	c3                   	ret

00000000000007f8 <test_u64_to_base16>:
     7f8:	55                   	push   %rbp
     7f9:	48 89 e5             	mov    %rsp,%rbp
     7fc:	48 83 c4 80          	add    $0xffffffffffffff80,%rsp
     800:	48 8d 05 80 01 00 00 	lea    0x180(%rip),%rax        # 987 <test_u64_to_base16+0x18f>
     807:	48 89 c1             	mov    %rax,%rcx
     80a:	e8 34 f8 ff ff       	call   43 <printf>
     80f:	48 c7 45 b0 00 00 00 	movq   $0x0,-0x50(%rbp)
     816:	00 
     817:	48 c7 45 b8 00 00 00 	movq   $0x0,-0x48(%rbp)
     81e:	00 
     81f:	48 c7 45 c0 00 00 00 	movq   $0x0,-0x40(%rbp)
     826:	00 
     827:	48 c7 45 c8 00 00 00 	movq   $0x0,-0x38(%rbp)
     82e:	00 
     82f:	48 c7 45 d0 00 00 00 	movq   $0x0,-0x30(%rbp)
     836:	00 
     837:	48 c7 45 d8 00 00 00 	movq   $0x0,-0x28(%rbp)
     83e:	00 
     83f:	48 c7 45 e0 00 00 00 	movq   $0x0,-0x20(%rbp)
     846:	00 
     847:	48 c7 45 e8 00 00 00 	movq   $0x0,-0x18(%rbp)
     84e:	00 
     84f:	48 8d 45 b0          	lea    -0x50(%rbp),%rax
     853:	48 89 45 f8          	mov    %rax,-0x8(%rbp)
     857:	48 8b 45 f8          	mov    -0x8(%rbp),%rax
     85b:	48 8d 50 01          	lea    0x1(%rax),%rdx
     85f:	48 89 55 f8          	mov    %rdx,-0x8(%rbp)
     863:	c6 00 3a             	movb   $0x3a,(%rax)
     866:	48 8b 45 f8          	mov    -0x8(%rbp),%rax
     86a:	48 89 c2             	mov    %rax,%rdx
     86d:	48 b8 ef cd ab 89 67 	movabs $0x123456789abcdef,%rax
     874:	45 23 01 
     877:	48 89 c1             	mov    %rax,%rcx
     87a:	e8 00 00 00 00       	call   87f <test_u64_to_base16+0x87>
     87f:	48 89 45 f8          	mov    %rax,-0x8(%rbp)
     883:	48 8b 45 f8          	mov    -0x8(%rbp),%rax
     887:	48 8d 50 01          	lea    0x1(%rax),%rdx
     88b:	48 89 55 f8          	mov    %rdx,-0x8(%rbp)
     88f:	c6 00 2c             	movb   $0x2c,(%rax)
     892:	48 8b 45 f8          	mov    -0x8(%rbp),%rax
     896:	48 89 c2             	mov    %rax,%rdx
     899:	48 b8 fa af ff fa af 	movabs $0xaffaffaffaffaffa,%rax
     8a0:	ff fa af 
     8a3:	48 89 c1             	mov    %rax,%rcx
     8a6:	e8 00 00 00 00       	call   8ab <test_u64_to_base16+0xb3>
     8ab:	48 89 45 f8          	mov    %rax,-0x8(%rbp)
     8af:	48 8b 45 f8          	mov    -0x8(%rbp),%rax
     8b3:	48 8d 50 01          	lea    0x1(%rax),%rdx
     8b7:	48 89 55 f8          	mov    %rdx,-0x8(%rbp)
     8bb:	c6 00 3a             	movb   $0x3a,(%rax)
     8be:	48 8b 45 f8          	mov    -0x8(%rbp),%rax
     8c2:	48 8d 50 01          	lea    0x1(%rax),%rdx
     8c6:	48 89 55 f8          	mov    %rdx,-0x8(%rbp)
     8ca:	c6 00 00             	movb   $0x0,(%rax)
     8cd:	48 8d 45 b0          	lea    -0x50(%rbp),%rax
     8d1:	48 8d 15 a8 01 00 00 	lea    0x1a8(%rip),%rdx        # a80 <test_u64_to_base16+0x288>
     8d8:	48 89 c1             	mov    %rax,%rcx
     8db:	e8 00 00 00 00       	call   8e0 <test_u64_to_base16+0xe8>
     8e0:	85 c0                	test   %eax,%eax
     8e2:	74 1f                	je     903 <test_u64_to_base16+0x10b>
     8e4:	41 b8 b3 00 00 00    	mov    $0xb3,%r8d
     8ea:	48 8d 05 49 00 00 00 	lea    0x49(%rip),%rax        # 93a <test_u64_to_base16+0x142>
     8f1:	48 89 c2             	mov    %rax,%rdx
     8f4:	48 8d 05 5a 00 00 00 	lea    0x5a(%rip),%rax        # 955 <test_u64_to_base16+0x15d>
     8fb:	48 89 c1             	mov    %rax,%rcx
     8fe:	e8 40 f7 ff ff       	call   43 <printf>
     903:	48 8d 45 b0          	lea    -0x50(%rbp),%rax
     907:	48 89 45 f8          	mov    %rax,-0x8(%rbp)
     90b:	48 8b 45 f8          	mov    -0x8(%rbp),%rax
     90f:	48 8d 50 01          	lea    0x1(%rax),%rdx
     913:	48 89 55 f8          	mov    %rdx,-0x8(%rbp)
     917:	c6 00 3a             	movb   $0x3a,(%rax)
     91a:	48 8b 45 f8          	mov    -0x8(%rbp),%rax
     91e:	48 ba ef cd ab 89 67 	movabs $0x123456789abcdef,%rdx
     925:	45 23 01 
     928:	48 89 c1             	mov    %rax,%rcx
     92b:	e8 00 00 00 00       	call   930 <test_u64_to_base16+0x138>
     930:	48 89 45 f8          	mov    %rax,-0x8(%rbp)
     934:	48 8b 45 f8          	mov    -0x8(%rbp),%rax
     938:	48 8d 50 01          	lea    0x1(%rax),%rdx
     93c:	48 89 55 f8          	mov    %rdx,-0x8(%rbp)
     940:	c6 00 2c             	movb   $0x2c,(%rax)
     943:	48 8b 45 f8          	mov    -0x8(%rbp),%rax
     947:	48 ba fa af ff fa af 	movabs $0xaffaffaffaffaffa,%rdx
     94e:	ff fa af 
     951:	48 89 c1             	mov    %rax,%rcx
     954:	e8 00 00 00 00       	call   959 <test_u64_to_base16+0x161>
     959:	48 89 45 f8          	mov    %rax,-0x8(%rbp)
     95d:	48 8b 45 f8          	mov    -0x8(%rbp),%rax
     961:	48 8d 50 01          	lea    0x1(%rax),%rdx
     965:	48 89 55 f8          	mov    %rdx,-0x8(%rbp)
     969:	c6 00 3a             	movb   $0x3a,(%rax)
     96c:	48 8b 45 f8          	mov    -0x8(%rbp),%rax
     970:	48 8d 50 01          	lea    0x1(%rax),%rdx
     974:	48 89 55 f8          	mov    %rdx,-0x8(%rbp)
     978:	c6 00 00             	movb   $0x0,(%rax)
     97b:	48 8d 45 b0          	lea    -0x50(%rbp),%rax
     97f:	48 8d 15 a8 01 00 00 	lea    0x1a8(%rip),%rdx        # b2e <test_u16_to_base64+0xa8>
     986:	48 89 c1             	mov    %rax,%rcx
     989:	e8 00 00 00 00       	call   98e <test_u64_to_base16+0x196>
     98e:	85 c0                	test   %eax,%eax
     990:	74 1f                	je     9b1 <test_u64_to_base16+0x1b9>
     992:	41 b8 bb 00 00 00    	mov    $0xbb,%r8d
     998:	48 8d 05 49 00 00 00 	lea    0x49(%rip),%rax        # 9e8 <test_u64_to_base16+0x1f0>
     99f:	48 89 c2             	mov    %rax,%rdx
     9a2:	48 8d 05 5a 00 00 00 	lea    0x5a(%rip),%rax        # a03 <test_u64_to_base16+0x20b>
     9a9:	48 89 c1             	mov    %rax,%rcx
     9ac:	e8 92 f6 ff ff       	call   43 <printf>
     9b1:	48 b8 ef cd ab 89 67 	movabs $0x123456789abcdef,%rax
     9b8:	45 23 01 
     9bb:	48 89 45 a0          	mov    %rax,-0x60(%rbp)
     9bf:	48 b8 fa af ff fa af 	movabs $0xaffaffaffaffaffa,%rax
     9c6:	ff fa af 
     9c9:	48 89 45 a8          	mov    %rax,-0x58(%rbp)
     9cd:	48 8d 45 b0          	lea    -0x50(%rbp),%rax
     9d1:	48 89 45 f8          	mov    %rax,-0x8(%rbp)
     9d5:	48 8b 45 f8          	mov    -0x8(%rbp),%rax
     9d9:	48 8d 50 01          	lea    0x1(%rax),%rdx
     9dd:	48 89 55 f8          	mov    %rdx,-0x8(%rbp)
     9e1:	c6 00 3a             	movb   $0x3a,(%rax)
     9e4:	48 8d 55 a0          	lea    -0x60(%rbp),%rdx
     9e8:	48 8b 45 f8          	mov    -0x8(%rbp),%rax
     9ec:	41 b8 08 00 00 00    	mov    $0x8,%r8d
     9f2:	48 89 c1             	mov    %rax,%rcx
     9f5:	e8 00 00 00 00       	call   9fa <test_u64_to_base16+0x202>
     9fa:	48 89 45 f8          	mov    %rax,-0x8(%rbp)
     9fe:	48 8b 45 f8          	mov    -0x8(%rbp),%rax
     a02:	48 8d 50 01          	lea    0x1(%rax),%rdx
     a06:	48 89 55 f8          	mov    %rdx,-0x8(%rbp)
     a0a:	c6 00 2c             	movb   $0x2c,(%rax)
     a0d:	48 8d 45 a0          	lea    -0x60(%rbp),%rax
     a11:	48 8d 50 08          	lea    0x8(%rax),%rdx
     a15:	48 8b 45 f8          	mov    -0x8(%rbp),%rax
     a19:	41 b8 08 00 00 00    	mov    $0x8,%r8d
     a1f:	48 89 c1             	mov    %rax,%rcx
     a22:	e8 00 00 00 00       	call   a27 <test_u64_to_base16+0x22f>
     a27:	48 89 45 f8          	mov    %rax,-0x8(%rbp)
     a2b:	48 8b 45 f8          	mov    -0x8(%rbp),%rax
     a2f:	48 8d 50 01          	lea    0x1(%rax),%rdx
     a33:	48 89 55 f8          	mov    %rdx,-0x8(%rbp)
     a37:	c6 00 3a             	movb   $0x3a,(%rax)
     a3a:	48 8b 45 f8          	mov    -0x8(%rbp),%rax
     a3e:	48 8d 50 01          	lea    0x1(%rax),%rdx
     a42:	48 89 55 f8          	mov    %rdx,-0x8(%rbp)
     a46:	c6 00 00             	movb   $0x0,(%rax)
     a49:	48 8d 45 b0          	lea    -0x50(%rbp),%rax
     a4d:	48 8d 15 d0 01 00 00 	lea    0x1d0(%rip),%rdx        # c24 <test_u32_to_base64+0x30>
     a54:	48 89 c1             	mov    %rax,%rcx
     a57:	e8 00 00 00 00       	call   a5c <test_u64_to_base16+0x264>
     a5c:	85 c0                	test   %eax,%eax
     a5e:	74 1f                	je     a7f <test_u64_to_base16+0x287>
     a60:	41 b8 c4 00 00 00    	mov    $0xc4,%r8d
     a66:	48 8d 05 49 00 00 00 	lea    0x49(%rip),%rax        # ab6 <test_u16_to_base64+0x30>
     a6d:	48 89 c2             	mov    %rax,%rdx
     a70:	48 8d 05 5a 00 00 00 	lea    0x5a(%rip),%rax        # ad1 <test_u16_to_base64+0x4b>
     a77:	48 89 c1             	mov    %rax,%rcx
     a7a:	e8 c4 f5 ff ff       	call   43 <printf>
     a7f:	90                   	nop
     a80:	48 83 ec 80          	sub    $0xffffffffffffff80,%rsp
     a84:	5d                   	pop    %rbp
     a85:	c3                   	ret

0000000000000a86 <test_u16_to_base64>:
     a86:	55                   	push   %rbp
     a87:	48 89 e5             	mov    %rsp,%rbp
     a8a:	48 83 ec 70          	sub    $0x70,%rsp
     a8e:	48 8d 05 f8 01 00 00 	lea    0x1f8(%rip),%rax        # c8d <test_u32_to_base64+0x99>
     a95:	48 89 c1             	mov    %rax,%rcx
     a98:	e8 a6 f5 ff ff       	call   43 <printf>
     a9d:	48 c7 45 b0 00 00 00 	movq   $0x0,-0x50(%rbp)
     aa4:	00 
     aa5:	48 c7 45 b8 00 00 00 	movq   $0x0,-0x48(%rbp)
     aac:	00 
     aad:	48 c7 45 c0 00 00 00 	movq   $0x0,-0x40(%rbp)
     ab4:	00 
     ab5:	48 c7 45 c8 00 00 00 	movq   $0x0,-0x38(%rbp)
     abc:	00 
     abd:	48 c7 45 d0 00 00 00 	movq   $0x0,-0x30(%rbp)
     ac4:	00 
     ac5:	48 c7 45 d8 00 00 00 	movq   $0x0,-0x28(%rbp)
     acc:	00 
     acd:	48 c7 45 e0 00 00 00 	movq   $0x0,-0x20(%rbp)
     ad4:	00 
     ad5:	48 c7 45 e8 00 00 00 	movq   $0x0,-0x18(%rbp)
     adc:	00 
     add:	48 8d 45 b0          	lea    -0x50(%rbp),%rax
     ae1:	48 89 45 f8          	mov    %rax,-0x8(%rbp)
     ae5:	48 8b 45 f8          	mov    -0x8(%rbp),%rax
     ae9:	48 8d 50 01          	lea    0x1(%rax),%rdx
     aed:	48 89 55 f8          	mov    %rdx,-0x8(%rbp)
     af1:	c6 00 3a             	movb   $0x3a,(%rax)
     af4:	48 8b 45 f8          	mov    -0x8(%rbp),%rax
     af8:	ba 37 13 00 00       	mov    $0x1337,%edx
     afd:	48 89 c1             	mov    %rax,%rcx
     b00:	e8 00 00 00 00       	call   b05 <test_u16_to_base64+0x7f>
     b05:	48 89 45 f8          	mov    %rax,-0x8(%rbp)
     b09:	48 8b 45 f8          	mov    -0x8(%rbp),%rax
     b0d:	48 8d 50 01          	lea    0x1(%rax),%rdx
     b11:	48 89 55 f8          	mov    %rdx,-0x8(%rbp)
     b15:	c6 00 2c             	movb   $0x2c,(%rax)
     b18:	48 8b 45 f8          	mov    -0x8(%rbp),%rax
     b1c:	ba 0b b0 00 00       	mov    $0xb00b,%edx
     b21:	48 89 c1             	mov    %rax,%rcx
     b24:	e8 00 00 00 00       	call   b29 <test_u16_to_base64+0xa3>
     b29:	48 89 45 f8          	mov    %rax,-0x8(%rbp)
     b2d:	48 8b 45 f8          	mov    -0x8(%rbp),%rax
     b31:	48 8d 50 01          	lea    0x1(%rax),%rdx
     b35:	48 89 55 f8          	mov    %rdx,-0x8(%rbp)
     b39:	c6 00 2c             	movb   $0x2c,(%rax)
     b3c:	48 8b 45 f8          	mov    -0x8(%rbp),%rax
     b40:	ba 0b 00 00 00       	mov    $0xb,%edx
     b45:	48 89 c1             	mov    %rax,%rcx
     b48:	e8 00 00 00 00       	call   b4d <test_u16_to_base64+0xc7>
     b4d:	48 89 45 f8          	mov    %rax,-0x8(%rbp)
     b51:	48 8b 45 f8          	mov    -0x8(%rbp),%rax
     b55:	48 8d 50 01          	lea    0x1(%rax),%rdx
     b59:	48 89 55 f8          	mov    %rdx,-0x8(%rbp)
     b5d:	c6 00 2c             	movb   $0x2c,(%rax)
     b60:	48 8b 45 f8          	mov    -0x8(%rbp),%rax
     b64:	ba bb 00 00 00       	mov    $0xbb,%edx
     b69:	48 89 c1             	mov    %rax,%rcx
     b6c:	e8 00 00 00 00       	call   b71 <test_u16_to_base64+0xeb>
     b71:	48 89 45 f8          	mov    %rax,-0x8(%rbp)
     b75:	48 8b 45 f8          	mov    -0x8(%rbp),%rax
     b79:	48 8d 50 01          	lea    0x1(%rax),%rdx
     b7d:	48 89 55 f8          	mov    %rdx,-0x8(%rbp)
     b81:	c6 00 2c             	movb   $0x2c,(%rax)
     b84:	48 8b 45 f8          	mov    -0x8(%rbp),%rax
     b88:	ba 0b 0b 00 00       	mov    $0xb0b,%edx
     b8d:	48 89 c1             	mov    %rax,%rcx
     b90:	e8 00 00 00 00       	call   b95 <test_u16_to_base64+0x10f>
     b95:	48 89 45 f8          	mov    %rax,-0x8(%rbp)
     b99:	48 8b 45 f8          	mov    -0x8(%rbp),%rax
     b9d:	48 8d 50 01          	lea    0x1(%rax),%rdx
     ba1:	48 89 55 f8          	mov    %rdx,-0x8(%rbp)
     ba5:	c6 00 3a             	movb   $0x3a,(%rax)
     ba8:	48 8b 45 f8          	mov    -0x8(%rbp),%rax
     bac:	48 8d 50 01          	lea    0x1(%rax),%rdx
     bb0:	48 89 55 f8          	mov    %rdx,-0x8(%rbp)
     bb4:	c6 00 00             	movb   $0x0,(%rax)
     bb7:	48 8d 45 b0          	lea    -0x50(%rbp),%rax
     bbb:	48 8d 15 1d 02 00 00 	lea    0x21d(%rip),%rdx        # ddf <test_u64_to_base64+0x7d>
     bc2:	48 89 c1             	mov    %rax,%rcx
     bc5:	e8 00 00 00 00       	call   bca <test_u16_to_base64+0x144>
     bca:	85 c0                	test   %eax,%eax
     bcc:	74 1f                	je     bed <test_u16_to_base64+0x167>
     bce:	41 b8 d8 00 00 00    	mov    $0xd8,%r8d
     bd4:	48 8d 05 49 00 00 00 	lea    0x49(%rip),%rax        # c24 <test_u32_to_base64+0x30>
     bdb:	48 89 c2             	mov    %rax,%rdx
     bde:	48 8d 05 5a 00 00 00 	lea    0x5a(%rip),%rax        # c3f <test_u32_to_base64+0x4b>
     be5:	48 89 c1             	mov    %rax,%rcx
     be8:	e8 56 f4 ff ff       	call   43 <printf>
     bed:	90                   	nop
     bee:	48 83 c4 70          	add    $0x70,%rsp
     bf2:	5d                   	pop    %rbp
     bf3:	c3                   	ret

0000000000000bf4 <test_u32_to_base64>:
     bf4:	55                   	push   %rbp
     bf5:	48 89 e5             	mov    %rsp,%rbp
     bf8:	48 83 ec 70          	sub    $0x70,%rsp
     bfc:	48 8d 05 38 02 00 00 	lea    0x238(%rip),%rax        # e3b <test_u64_to_base64+0xd9>
     c03:	48 89 c1             	mov    %rax,%rcx
     c06:	e8 38 f4 ff ff       	call   43 <printf>
     c0b:	48 c7 45 b0 00 00 00 	movq   $0x0,-0x50(%rbp)
     c12:	00 
     c13:	48 c7 45 b8 00 00 00 	movq   $0x0,-0x48(%rbp)
     c1a:	00 
     c1b:	48 c7 45 c0 00 00 00 	movq   $0x0,-0x40(%rbp)
     c22:	00 
     c23:	48 c7 45 c8 00 00 00 	movq   $0x0,-0x38(%rbp)
     c2a:	00 
     c2b:	48 c7 45 d0 00 00 00 	movq   $0x0,-0x30(%rbp)
     c32:	00 
     c33:	48 c7 45 d8 00 00 00 	movq   $0x0,-0x28(%rbp)
     c3a:	00 
     c3b:	48 c7 45 e0 00 00 00 	movq   $0x0,-0x20(%rbp)
     c42:	00 
     c43:	48 c7 45 e8 00 00 00 	movq   $0x0,-0x18(%rbp)
     c4a:	00 
     c4b:	48 8d 45 b0          	lea    -0x50(%rbp),%rax
     c4f:	48 89 45 f8          	mov    %rax,-0x8(%rbp)
     c53:	48 8b 45 f8          	mov    -0x8(%rbp),%rax
     c57:	48 8d 50 01          	lea    0x1(%rax),%rdx
     c5b:	48 89 55 f8          	mov    %rdx,-0x8(%rbp)
     c5f:	c6 00 3a             	movb   $0x3a,(%rax)
     c62:	48 8b 45 f8          	mov    -0x8(%rbp),%rax
     c66:	ba 37 13 37 13       	mov    $0x13371337,%edx
     c6b:	48 89 c1             	mov    %rax,%rcx
     c6e:	e8 00 00 00 00       	call   c73 <test_u32_to_base64+0x7f>
     c73:	48 89 45 f8          	mov    %rax,-0x8(%rbp)
     c77:	48 8b 45 f8          	mov    -0x8(%rbp),%rax
     c7b:	48 8d 50 01          	lea    0x1(%rax),%rdx
     c7f:	48 89 55 f8          	mov    %rdx,-0x8(%rbp)
     c83:	c6 00 2c             	movb   $0x2c,(%rax)
     c86:	48 8b 45 f8          	mov    -0x8(%rbp),%rax
     c8a:	ba 0b b0 00 00       	mov    $0xb00b,%edx
     c8f:	48 89 c1             	mov    %rax,%rcx
     c92:	e8 00 00 00 00       	call   c97 <test_u32_to_base64+0xa3>
     c97:	48 89 45 f8          	mov    %rax,-0x8(%rbp)
     c9b:	48 8b 45 f8          	mov    -0x8(%rbp),%rax
     c9f:	48 8d 50 01          	lea    0x1(%rax),%rdx
     ca3:	48 89 55 f8          	mov    %rdx,-0x8(%rbp)
     ca7:	c6 00 2c             	movb   $0x2c,(%rax)
     caa:	48 8b 45 f8          	mov    -0x8(%rbp),%rax
     cae:	ba 0b 00 00 00       	mov    $0xb,%edx
     cb3:	48 89 c1             	mov    %rax,%rcx
     cb6:	e8 00 00 00 00       	call   cbb <test_u32_to_base64+0xc7>
     cbb:	48 89 45 f8          	mov    %rax,-0x8(%rbp)
     cbf:	48 8b 45 f8          	mov    -0x8(%rbp),%rax
     cc3:	48 8d 50 01          	lea    0x1(%rax),%rdx
     cc7:	48 89 55 f8          	mov    %rdx,-0x8(%rbp)
     ccb:	c6 00 2c             	movb   $0x2c,(%rax)
     cce:	48 8b 45 f8          	mov    -0x8(%rbp),%rax
     cd2:	ba bb 00 00 00       	mov    $0xbb,%edx
     cd7:	48 89 c1             	mov    %rax,%rcx
     cda:	e8 00 00 00 00       	call   cdf <test_u32_to_base64+0xeb>
     cdf:	48 89 45 f8          	mov    %rax,-0x8(%rbp)
     ce3:	48 8b 45 f8          	mov    -0x8(%rbp),%rax
     ce7:	48 8d 50 01          	lea    0x1(%rax),%rdx
     ceb:	48 89 55 f8          	mov    %rdx,-0x8(%rbp)
     cef:	c6 00 2c             	movb   $0x2c,(%rax)
     cf2:	48 8b 45 f8          	mov    -0x8(%rbp),%rax
     cf6:	ba 0b 0b 00 00       	mov    $0xb0b,%edx
     cfb:	48 89 c1             	mov    %rax,%rcx
     cfe:	e8 00 00 00 00       	call   d03 <test_u32_to_base64+0x10f>
     d03:	48 89 45 f8          	mov    %rax,-0x8(%rbp)
     d07:	48 8b 45 f8          	mov    -0x8(%rbp),%rax
     d0b:	48 8d 50 01          	lea    0x1(%rax),%rdx
     d0f:	48 89 55 f8          	mov    %rdx,-0x8(%rbp)
     d13:	c6 00 3a             	movb   $0x3a,(%rax)
     d16:	48 8b 45 f8          	mov    -0x8(%rbp),%rax
     d1a:	48 8d 50 01          	lea    0x1(%rax),%rdx
     d1e:	48 89 55 f8          	mov    %rdx,-0x8(%rbp)
     d22:	c6 00 00             	movb   $0x0,(%rax)
     d25:	48 8d 45 b0          	lea    -0x50(%rbp),%rax
     d29:	48 8d 15 60 02 00 00 	lea    0x260(%rip),%rdx        # f90 <test_map+0x122>
     d30:	48 89 c1             	mov    %rax,%rcx
     d33:	e8 00 00 00 00       	call   d38 <test_u32_to_base64+0x144>
     d38:	85 c0                	test   %eax,%eax
     d3a:	74 1f                	je     d5b <test_u32_to_base64+0x167>
     d3c:	41 b8 ec 00 00 00    	mov    $0xec,%r8d
     d42:	48 8d 05 49 00 00 00 	lea    0x49(%rip),%rax        # d92 <test_u64_to_base64+0x30>
     d49:	48 89 c2             	mov    %rax,%rdx
     d4c:	48 8d 05 5a 00 00 00 	lea    0x5a(%rip),%rax        # dad <test_u64_to_base64+0x4b>
     d53:	48 89 c1             	mov    %rax,%rcx
     d56:	e8 e8 f2 ff ff       	call   43 <printf>
     d5b:	90                   	nop
     d5c:	48 83 c4 70          	add    $0x70,%rsp
     d60:	5d                   	pop    %rbp
     d61:	c3                   	ret

0000000000000d62 <test_u64_to_base64>:
     d62:	55                   	push   %rbp
     d63:	48 89 e5             	mov    %rsp,%rbp
     d66:	48 83 ec 70          	sub    $0x70,%rsp
     d6a:	48 8d 05 88 02 00 00 	lea    0x288(%rip),%rax        # ff9 <test_map+0x18b>
     d71:	48 89 c1             	mov    %rax,%rcx
     d74:	e8 ca f2 ff ff       	call   43 <printf>
     d79:	48 c7 45 b0 00 00 00 	movq   $0x0,-0x50(%rbp)
     d80:	00 
     d81:	48 c7 45 b8 00 00 00 	movq   $0x0,-0x48(%rbp)
     d88:	00 
     d89:	48 c7 45 c0 00 00 00 	movq   $0x0,-0x40(%rbp)
     d90:	00 
     d91:	48 c7 45 c8 00 00 00 	movq   $0x0,-0x38(%rbp)
     d98:	00 
     d99:	48 c7 45 d0 00 00 00 	movq   $0x0,-0x30(%rbp)
     da0:	00 
     da1:	48 c7 45 d8 00 00 00 	movq   $0x0,-0x28(%rbp)
     da8:	00 
     da9:	48 c7 45 e0 00 00 00 	movq   $0x0,-0x20(%rbp)
     db0:	00 
     db1:	48 c7 45 e8 00 00 00 	movq   $0x0,-0x18(%rbp)
     db8:	00 
     db9:	48 8d 45 b0          	lea    -0x50(%rbp),%rax
     dbd:	48 89 45 f8          	mov    %rax,-0x8(%rbp)
     dc1:	48 8b 45 f8          	mov    -0x8(%rbp),%rax
     dc5:	48 8d 50 01          	lea    0x1(%rax),%rdx
     dc9:	48 89 55 f8          	mov    %rdx,-0x8(%rbp)
     dcd:	c6 00 3a             	movb   $0x3a,(%rax)
     dd0:	48 8b 45 f8          	mov    -0x8(%rbp),%rax
     dd4:	48 ba ef cd ab 89 67 	movabs $0x123456789abcdef,%rdx
     ddb:	45 23 01 
     dde:	48 89 c1             	mov    %rax,%rcx
     de1:	e8 00 00 00 00       	call   de6 <test_u64_to_base64+0x84>
     de6:	48 89 45 f8          	mov    %rax,-0x8(%rbp)
     dea:	48 8b 45 f8          	mov    -0x8(%rbp),%rax
     dee:	48 8d 50 01          	lea    0x1(%rax),%rdx
     df2:	48 89 55 f8          	mov    %rdx,-0x8(%rbp)
     df6:	c6 00 2c             	movb   $0x2c,(%rax)
     df9:	48 8b 45 f8          	mov    -0x8(%rbp),%rax
     dfd:	48 ba fa af ff fa af 	movabs $0xaffaffaffaffaffa,%rdx
     e04:	ff fa af 
     e07:	48 89 c1             	mov    %rax,%rcx
     e0a:	e8 00 00 00 00       	call   e0f <test_u64_to_base64+0xad>
     e0f:	48 89 45 f8          	mov    %rax,-0x8(%rbp)
     e13:	48 8b 45 f8          	mov    -0x8(%rbp),%rax
     e17:	48 8d 50 01          	lea    0x1(%rax),%rdx
     e1b:	48 89 55 f8          	mov    %rdx,-0x8(%rbp)
     e1f:	c6 00 3a             	movb   $0x3a,(%rax)
     e22:	48 8b 45 f8          	mov    -0x8(%rbp),%rax
     e26:	48 8d 50 01          	lea    0x1(%rax),%rdx
     e2a:	48 89 55 f8          	mov    %rdx,-0x8(%rbp)
     e2e:	c6 00 00             	movb   $0x0,(%rax)
     e31:	48 8d 45 b0          	lea    -0x50(%rbp),%rax
     e35:	48 8d 15 ad 02 00 00 	lea    0x2ad(%rip),%rdx        # 10e9 <test_map_idx+0x8d>
     e3c:	48 89 c1             	mov    %rax,%rcx
     e3f:	e8 00 00 00 00       	call   e44 <test_u64_to_base64+0xe2>
     e44:	85 c0                	test   %eax,%eax
     e46:	74 1f                	je     e67 <test_u64_to_base64+0x105>
     e48:	41 b8 fa 00 00 00    	mov    $0xfa,%r8d
     e4e:	48 8d 05 49 00 00 00 	lea    0x49(%rip),%rax        # e9e <test_map+0x30>
     e55:	48 89 c2             	mov    %rax,%rdx
     e58:	48 8d 05 5a 00 00 00 	lea    0x5a(%rip),%rax        # eb9 <test_map+0x4b>
     e5f:	48 89 c1             	mov    %rax,%rcx
     e62:	e8 dc f1 ff ff       	call   43 <printf>
     e67:	90                   	nop
     e68:	48 83 c4 70          	add    $0x70,%rsp
     e6c:	5d                   	pop    %rbp
     e6d:	c3                   	ret

0000000000000e6e <test_map>:
     e6e:	55                   	push   %rbp
     e6f:	48 89 e5             	mov    %rsp,%rbp
     e72:	48 83 ec 30          	sub    $0x30,%rsp
     e76:	48 8d 05 c7 02 00 00 	lea    0x2c7(%rip),%rax        # 1144 <test_map_idx+0xe8>
     e7d:	48 89 c1             	mov    %rax,%rcx
     e80:	e8 be f1 ff ff       	call   43 <printf>
     e85:	f3 0f 10 05 9c 07 00 	movss  0x79c(%rip),%xmm0        # 1629 <test_interpolate_2d+0x4cc>
     e8c:	00 
     e8d:	f3 0f 11 44 24 20    	movss  %xmm0,0x20(%rsp)
     e93:	f3 0f 10 1d a0 07 00 	movss  0x7a0(%rip),%xmm3        # 163b <test_interpolate_2d+0x4de>
     e9a:	00 
     e9b:	f3 0f 10 15 9c 07 00 	movss  0x79c(%rip),%xmm2        # 163f <test_interpolate_2d+0x4e2>
     ea2:	00 
     ea3:	f3 0f 10 0d a0 07 00 	movss  0x7a0(%rip),%xmm1        # 164b <test_interpolate_2d+0x4ee>
     eaa:	00 
     eab:	8b 05 a4 07 00 00    	mov    0x7a4(%rip),%eax        # 1655 <test_interpolate_2d+0x4f8>
     eb1:	66 0f 6e c0          	movd   %eax,%xmm0
     eb5:	e8 00 00 00 00       	call   eba <test_map+0x4c>
     eba:	66 0f 7e c0          	movd   %xmm0,%eax
     ebe:	66 0f 6e e0          	movd   %eax,%xmm4
     ec2:	0f 2e 25 a4 07 00 00 	ucomiss 0x7a4(%rip),%xmm4        # 166d <test_interpolate_2d+0x510>
     ec9:	7a 0d                	jp     ed8 <test_map+0x6a>
     ecb:	66 0f 6e e8          	movd   %eax,%xmm5
     ecf:	0f 2e 2d a4 07 00 00 	ucomiss 0x7a4(%rip),%xmm5        # 167a <test_array_set+0x4>
     ed6:	74 1f                	je     ef7 <test_map+0x89>
     ed8:	41 b8 00 01 00 00    	mov    $0x100,%r8d
     ede:	48 8d 05 49 00 00 00 	lea    0x49(%rip),%rax        # f2e <test_map+0xc0>
     ee5:	48 89 c2             	mov    %rax,%rdx
     ee8:	48 8d 05 5a 00 00 00 	lea    0x5a(%rip),%rax        # f49 <test_map+0xdb>
     eef:	48 89 c1             	mov    %rax,%rcx
     ef2:	e8 4c f1 ff ff       	call   43 <printf>
     ef7:	f3 0f 10 05 9c 07 00 	movss  0x79c(%rip),%xmm0        # 169b <test_array_set+0x25>
     efe:	00 
     eff:	f3 0f 11 44 24 20    	movss  %xmm0,0x20(%rsp)
     f05:	f3 0f 10 1d a0 07 00 	movss  0x7a0(%rip),%xmm3        # 16ad <test_array_set+0x37>
     f0c:	00 
     f0d:	f3 0f 10 15 a0 07 00 	movss  0x7a0(%rip),%xmm2        # 16b5 <test_array_set+0x3f>
     f14:	00 
     f15:	f3 0f 10 0d a0 07 00 	movss  0x7a0(%rip),%xmm1        # 16bd <test_array_set+0x47>
     f1c:	00 
     f1d:	8b 05 a4 07 00 00    	mov    0x7a4(%rip),%eax        # 16c7 <test_array_set+0x51>
     f23:	66 0f 6e c0          	movd   %eax,%xmm0
     f27:	e8 00 00 00 00       	call   f2c <test_map+0xbe>
     f2c:	66 0f 7e c0          	movd   %xmm0,%eax
     f30:	66 0f 6e e0          	movd   %eax,%xmm4
     f34:	0f 2e 25 a4 07 00 00 	ucomiss 0x7a4(%rip),%xmm4        # 16df <test_array_set+0x69>
     f3b:	7a 0d                	jp     f4a <test_map+0xdc>
     f3d:	66 0f 6e e8          	movd   %eax,%xmm5
     f41:	0f 2e 2d a4 07 00 00 	ucomiss 0x7a4(%rip),%xmm5        # 16ec <test_array_set+0x76>
     f48:	74 1f                	je     f69 <test_map+0xfb>
     f4a:	41 b8 01 01 00 00    	mov    $0x101,%r8d
     f50:	48 8d 05 49 00 00 00 	lea    0x49(%rip),%rax        # fa0 <test_map+0x132>
     f57:	48 89 c2             	mov    %rax,%rdx
     f5a:	48 8d 05 5a 00 00 00 	lea    0x5a(%rip),%rax        # fbb <test_map+0x14d>
     f61:	48 89 c1             	mov    %rax,%rcx
     f64:	e8 da f0 ff ff       	call   43 <printf>
     f69:	f3 0f 10 05 a0 07 00 	movss  0x7a0(%rip),%xmm0        # 1711 <test_array_set+0x9b>
     f70:	00 
     f71:	f3 0f 11 44 24 20    	movss  %xmm0,0x20(%rsp)
     f77:	f3 0f 10 1d a0 07 00 	movss  0x7a0(%rip),%xmm3        # 171f <test_array_set+0xa9>
     f7e:	00 
     f7f:	f3 0f 10 15 9c 07 00 	movss  0x79c(%rip),%xmm2        # 1723 <test_array_set+0xad>
     f86:	00 
     f87:	f3 0f 10 0d a0 07 00 	movss  0x7a0(%rip),%xmm1        # 172f <test_array_set+0xb9>
     f8e:	00 
     f8f:	8b 05 a4 07 00 00    	mov    0x7a4(%rip),%eax        # 1739 <test_array_set+0xc3>
     f95:	66 0f 6e c0          	movd   %eax,%xmm0
     f99:	e8 00 00 00 00       	call   f9e <test_map+0x130>
     f9e:	66 0f 7e c0          	movd   %xmm0,%eax
     fa2:	f3 0f 10 05 a0 07 00 	movss  0x7a0(%rip),%xmm0        # 174a <test_array_set+0xd4>
     fa9:	00 
     faa:	66 0f 6e c8          	movd   %eax,%xmm1
     fae:	0f 2e c8             	ucomiss %xmm0,%xmm1
     fb1:	7a 11                	jp     fc4 <test_map+0x156>
     fb3:	f3 0f 10 05 a0 07 00 	movss  0x7a0(%rip),%xmm0        # 175b <test_array_set+0xe5>
     fba:	00 
     fbb:	66 0f 6e d0          	movd   %eax,%xmm2
     fbf:	0f 2e d0             	ucomiss %xmm0,%xmm2
     fc2:	74 1f                	je     fe3 <test_map+0x175>
     fc4:	41 b8 02 01 00 00    	mov    $0x102,%r8d
     fca:	48 8d 05 49 00 00 00 	lea    0x49(%rip),%rax        # 101a <test_map+0x1ac>
     fd1:	48 89 c2             	mov    %rax,%rdx
     fd4:	48 8d 05 5a 00 00 00 	lea    0x5a(%rip),%rax        # 1035 <test_map+0x1c7>
     fdb:	48 89 c1             	mov    %rax,%rcx
     fde:	e8 60 f0 ff ff       	call   43 <printf>
     fe3:	f3 0f 10 05 a0 07 00 	movss  0x7a0(%rip),%xmm0        # 178b <test_array_set+0x115>
     fea:	00 
     feb:	f3 0f 11 44 24 20    	movss  %xmm0,0x20(%rsp)
     ff1:	66 0f ef db          	pxor   %xmm3,%xmm3
     ff5:	f3 0f 10 15 a0 07 00 	movss  0x7a0(%rip),%xmm2        # 179d <test_array_set+0x127>
     ffc:	00 
     ffd:	66 0f ef c9          	pxor   %xmm1,%xmm1
    1001:	8b 05 a8 07 00 00    	mov    0x7a8(%rip),%eax        # 17af <test_array_set+0x139>
    1007:	66 0f 6e c0          	movd   %eax,%xmm0
    100b:	e8 00 00 00 00       	call   1010 <test_map+0x1a2>
    1010:	66 0f 7e c0          	movd   %xmm0,%eax
    1014:	f3 0f 10 05 a8 07 00 	movss  0x7a8(%rip),%xmm0        # 17c4 <test_array_set+0x14e>
    101b:	00 
    101c:	66 0f 6e d8          	movd   %eax,%xmm3
    1020:	0f 2e d8             	ucomiss %xmm0,%xmm3
    1023:	7a 11                	jp     1036 <test_map+0x1c8>
    1025:	f3 0f 10 05 a8 07 00 	movss  0x7a8(%rip),%xmm0        # 17d5 <test_array_set+0x15f>
    102c:	00 
    102d:	66 0f 6e e0          	movd   %eax,%xmm4
    1031:	0f 2e e0             	ucomiss %xmm0,%xmm4
    1034:	74 1f                	je     1055 <test_map+0x1e7>
    1036:	41 b8 03 01 00 00    	mov    $0x103,%r8d
    103c:	48 8d 05 49 00 00 00 	lea    0x49(%rip),%rax        # 108c <test_map_idx+0x30>
    1043:	48 89 c2             	mov    %rax,%rdx
    1046:	48 8d 05 5a 00 00 00 	lea    0x5a(%rip),%rax        # 10a7 <test_map_idx+0x4b>
    104d:	48 89 c1             	mov    %rax,%rcx
    1050:	e8 ee ef ff ff       	call   43 <printf>
    1055:	90                   	nop
    1056:	48 83 c4 30          	add    $0x30,%rsp
    105a:	5d                   	pop    %rbp
    105b:	c3                   	ret

000000000000105c <test_map_idx>:
    105c:	55                   	push   %rbp
    105d:	48 89 e5             	mov    %rsp,%rbp
    1060:	48 83 ec 20          	sub    $0x20,%rsp
    1064:	48 8d 05 e8 02 00 00 	lea    0x2e8(%rip),%rax        # 1353 <test_interpolate_2d+0x1f6>
    106b:	48 89 c1             	mov    %rax,%rcx
    106e:	e8 d0 ef ff ff       	call   43 <printf>
    1073:	f3 0f 10 1d ac 07 00 	movss  0x7ac(%rip),%xmm3        # 1827 <test_array_set+0x1b1>
    107a:	00 
    107b:	f3 0f 10 15 9c 07 00 	movss  0x79c(%rip),%xmm2        # 181f <test_array_set+0x1a9>
    1082:	00 
    1083:	f3 0f 10 0d a0 07 00 	movss  0x7a0(%rip),%xmm1        # 182b <test_array_set+0x1b5>
    108a:	00 
    108b:	8b 05 a4 07 00 00    	mov    0x7a4(%rip),%eax        # 1835 <test_array_set+0x1bf>
    1091:	66 0f 6e c0          	movd   %eax,%xmm0
    1095:	e8 00 00 00 00       	call   109a <test_map_idx+0x3e>
    109a:	66 83 f8 05          	cmp    $0x5,%ax
    109e:	74 1f                	je     10bf <test_map_idx+0x63>
    10a0:	41 b8 11 01 00 00    	mov    $0x111,%r8d
    10a6:	48 8d 05 49 00 00 00 	lea    0x49(%rip),%rax        # 10f6 <test_map_idx+0x9a>
    10ad:	48 89 c2             	mov    %rax,%rdx
    10b0:	48 8d 05 5a 00 00 00 	lea    0x5a(%rip),%rax        # 1111 <test_map_idx+0xb5>
    10b7:	48 89 c1             	mov    %rax,%rcx
    10ba:	e8 84 ef ff ff       	call   43 <printf>
    10bf:	f3 0f 10 1d ac 07 00 	movss  0x7ac(%rip),%xmm3        # 1873 <test_array_set+0x1fd>
    10c6:	00 
    10c7:	f3 0f 10 15 9c 07 00 	movss  0x79c(%rip),%xmm2        # 186b <test_array_set+0x1f5>
    10ce:	00 
    10cf:	f3 0f 10 0d a0 07 00 	movss  0x7a0(%rip),%xmm1        # 1877 <test_array_set+0x201>
    10d6:	00 
    10d7:	8b 05 b0 07 00 00    	mov    0x7b0(%rip),%eax        # 188d <test_array_set+0x217>
    10dd:	66 0f 6e c0          	movd   %eax,%xmm0
    10e1:	e8 00 00 00 00       	call   10e6 <test_map_idx+0x8a>
    10e6:	66 85 c0             	test   %ax,%ax
    10e9:	74 1f                	je     110a <test_map_idx+0xae>
    10eb:	41 b8 12 01 00 00    	mov    $0x112,%r8d
    10f1:	48 8d 05 49 00 00 00 	lea    0x49(%rip),%rax        # 1141 <test_map_idx+0xe5>
    10f8:	48 89 c2             	mov    %rax,%rdx
    10fb:	48 8d 05 5a 00 00 00 	lea    0x5a(%rip),%rax        # 115c <test_map_idx+0x100>
    1102:	48 89 c1             	mov    %rax,%rcx
    1105:	e8 39 ef ff ff       	call   43 <printf>
    110a:	f3 0f 10 1d ac 07 00 	movss  0x7ac(%rip),%xmm3        # 18be <test_array_set+0x248>
    1111:	00 
    1112:	f3 0f 10 15 9c 07 00 	movss  0x79c(%rip),%xmm2        # 18b6 <test_array_set+0x240>
    1119:	00 
    111a:	f3 0f 10 0d a0 07 00 	movss  0x7a0(%rip),%xmm1        # 18c2 <test_array_set+0x24c>
    1121:	00 
    1122:	8b 05 b4 07 00 00    	mov    0x7b4(%rip),%eax        # 18dc <test_array_set+0x266>
    1128:	66 0f 6e c0          	movd   %eax,%xmm0
    112c:	e8 00 00 00 00       	call   1131 <test_map_idx+0xd5>
    1131:	66 83 f8 0a          	cmp    $0xa,%ax
    1135:	74 1f                	je     1156 <test_map_idx+0xfa>
    1137:	41 b8 13 01 00 00    	mov    $0x113,%r8d
    113d:	48 8d 05 49 00 00 00 	lea    0x49(%rip),%rax        # 118d <test_interpolate_2d+0x30>
    1144:	48 89 c2             	mov    %rax,%rdx
    1147:	48 8d 05 5a 00 00 00 	lea    0x5a(%rip),%rax        # 11a8 <test_interpolate_2d+0x4b>
    114e:	48 89 c1             	mov    %rax,%rcx
    1151:	e8 ed ee ff ff       	call   43 <printf>
    1156:	90                   	nop
    1157:	48 83 c4 20          	add    $0x20,%rsp
    115b:	5d                   	pop    %rbp
    115c:	c3                   	ret

000000000000115d <test_interpolate_2d>:
    115d:	55                   	push   %rbp
    115e:	48 89 e5             	mov    %rsp,%rbp
    1161:	48 83 c4 80          	add    $0xffffffffffffff80,%rsp
    1165:	48 8d 05 08 03 00 00 	lea    0x308(%rip),%rax        # 1474 <test_interpolate_2d+0x317>
    116c:	48 89 c1             	mov    %rax,%rcx
    116f:	e8 cf ee ff ff       	call   43 <printf>
    1174:	66 0f ef c0          	pxor   %xmm0,%xmm0
    1178:	f3 0f 11 45 e0       	movss  %xmm0,-0x20(%rbp)
    117d:	f3 0f 10 05 a0 07 00 	movss  0x7a0(%rip),%xmm0        # 1925 <test_array_set+0x2af>
    1184:	00 
    1185:	f3 0f 11 45 e4       	movss  %xmm0,-0x1c(%rbp)
    118a:	f3 0f 10 05 9c 07 00 	movss  0x79c(%rip),%xmm0        # 192e <test_array_set+0x2b8>
    1191:	00 
    1192:	f3 0f 11 45 e8       	movss  %xmm0,-0x18(%rbp)
    1197:	f3 0f 10 05 b4 07 00 	movss  0x7b4(%rip),%xmm0        # 1953 <test_array_set+0x2dd>
    119e:	00 
    119f:	f3 0f 11 45 ec       	movss  %xmm0,-0x14(%rbp)
    11a4:	f3 0f 10 05 b8 07 00 	movss  0x7b8(%rip),%xmm0        # 1964 <test_array_set+0x2ee>
    11ab:	00 
    11ac:	f3 0f 11 45 f0       	movss  %xmm0,-0x10(%rbp)
    11b1:	66 0f ef c0          	pxor   %xmm0,%xmm0
    11b5:	f3 0f 11 45 c0       	movss  %xmm0,-0x40(%rbp)
    11ba:	f3 0f 10 05 a0 07 00 	movss  0x7a0(%rip),%xmm0        # 1962 <test_array_set+0x2ec>
    11c1:	00 
    11c2:	f3 0f 11 45 c4       	movss  %xmm0,-0x3c(%rbp)
    11c7:	f3 0f 10 05 9c 07 00 	movss  0x79c(%rip),%xmm0        # 196b <test_array_set+0x2f5>
    11ce:	00 
    11cf:	f3 0f 11 45 c8       	movss  %xmm0,-0x38(%rbp)
    11d4:	f3 0f 10 05 b4 07 00 	movss  0x7b4(%rip),%xmm0        # 1990 <test_array_set+0x31a>
    11db:	00 
    11dc:	f3 0f 11 45 cc       	movss  %xmm0,-0x34(%rbp)
    11e1:	f3 0f 10 05 b8 07 00 	movss  0x7b8(%rip),%xmm0        # 19a1 <test_array_set+0x32b>
    11e8:	00 
    11e9:	f3 0f 11 45 d0       	movss  %xmm0,-0x30(%rbp)
    11ee:	66 0f ef c0          	pxor   %xmm0,%xmm0
    11f2:	f3 0f 11 45 a0       	movss  %xmm0,-0x60(%rbp)
    11f7:	f3 0f 10 05 a8 07 00 	movss  0x7a8(%rip),%xmm0        # 19a7 <test_array_set+0x331>
    11fe:	00 
    11ff:	f3 0f 11 45 a4       	movss  %xmm0,-0x5c(%rbp)
    1204:	f3 0f 10 05 bc 07 00 	movss  0x7bc(%rip),%xmm0        # 19c8 <test_array_set+0x352>
    120b:	00 
    120c:	f3 0f 11 45 a8       	movss  %xmm0,-0x58(%rbp)
    1211:	f3 0f 10 05 c0 07 00 	movss  0x7c0(%rip),%xmm0        # 19d9 <test_array_set+0x363>
    1218:	00 
    1219:	f3 0f 11 45 ac       	movss  %xmm0,-0x54(%rbp)
    121e:	f3 0f 10 05 c4 07 00 	movss  0x7c4(%rip),%xmm0        # 19ea <test_array_set+0x374>
    1225:	00 
    1226:	f3 0f 11 45 b0       	movss  %xmm0,-0x50(%rbp)
    122b:	48 8d 55 c0          	lea    -0x40(%rbp),%rdx
    122f:	48 8d 45 e0          	lea    -0x20(%rbp),%rax
    1233:	f3 0f 10 1d c8 07 00 	movss  0x7c8(%rip),%xmm3        # 1a03 <test_array_set+0x38d>
    123a:	00 
    123b:	41 b8 05 00 00 00    	mov    $0x5,%r8d
    1241:	48 89 c1             	mov    %rax,%rcx
    1244:	e8 00 00 00 00       	call   1249 <test_interpolate_2d+0xec>
    1249:	66 0f 7e c0          	movd   %xmm0,%eax
    124d:	66 0f 6e c8          	movd   %eax,%xmm1
    1251:	0f 2e 0d c8 07 00 00 	ucomiss 0x7c8(%rip),%xmm1        # 1a20 <test_array_set+0x3aa>
    1258:	7a 0d                	jp     1267 <test_interpolate_2d+0x10a>
    125a:	66 0f 6e d0          	movd   %eax,%xmm2
    125e:	0f 2e 15 c8 07 00 00 	ucomiss 0x7c8(%rip),%xmm2        # 1a2d <test_array_set+0x3b7>
    1265:	74 1f                	je     1286 <test_interpolate_2d+0x129>
    1267:	41 b8 1c 01 00 00    	mov    $0x11c,%r8d
    126d:	48 8d 05 49 00 00 00 	lea    0x49(%rip),%rax        # 12bd <test_interpolate_2d+0x160>
    1274:	48 89 c2             	mov    %rax,%rdx
    1277:	48 8d 05 5a 00 00 00 	lea    0x5a(%rip),%rax        # 12d8 <test_interpolate_2d+0x17b>
    127e:	48 89 c1             	mov    %rax,%rcx
    1281:	e8 bd ed ff ff       	call   43 <printf>
    1286:	48 8d 55 c0          	lea    -0x40(%rbp),%rdx
    128a:	48 8d 45 e0          	lea    -0x20(%rbp),%rax
    128e:	f3 0f 10 1d cc 07 00 	movss  0x7cc(%rip),%xmm3        # 1a62 <test_array_set+0x3ec>
    1295:	00 
    1296:	41 b8 05 00 00 00    	mov    $0x5,%r8d
    129c:	48 89 c1             	mov    %rax,%rcx
    129f:	e8 00 00 00 00       	call   12a4 <test_interpolate_2d+0x147>
    12a4:	66 0f 7e c0          	movd   %xmm0,%eax
    12a8:	66 0f 6e e0          	movd   %eax,%xmm4
    12ac:	0f 2e 25 cc 07 00 00 	ucomiss 0x7cc(%rip),%xmm4        # 1a7f <test_array_set+0x409>
    12b3:	7a 0d                	jp     12c2 <test_interpolate_2d+0x165>
    12b5:	66 0f 6e e8          	movd   %eax,%xmm5
    12b9:	0f 2e 2d cc 07 00 00 	ucomiss 0x7cc(%rip),%xmm5        # 1a8c <test_array_set+0x416>
    12c0:	74 1f                	je     12e1 <test_interpolate_2d+0x184>
    12c2:	41 b8 1d 01 00 00    	mov    $0x11d,%r8d
    12c8:	48 8d 05 49 00 00 00 	lea    0x49(%rip),%rax        # 1318 <test_interpolate_2d+0x1bb>
    12cf:	48 89 c2             	mov    %rax,%rdx
    12d2:	48 8d 05 5a 00 00 00 	lea    0x5a(%rip),%rax        # 1333 <test_interpolate_2d+0x1d6>
    12d9:	48 89 c1             	mov    %rax,%rcx
    12dc:	e8 62 ed ff ff       	call   43 <printf>
    12e1:	48 8d 55 c0          	lea    -0x40(%rbp),%rdx
    12e5:	48 8d 45 e0          	lea    -0x20(%rbp),%rax
    12e9:	f3 0f 10 1d a4 07 00 	movss  0x7a4(%rip),%xmm3        # 1a95 <test_array_set+0x41f>
    12f0:	00 
    12f1:	41 b8 05 00 00 00    	mov    $0x5,%r8d
    12f7:	48 89 c1             	mov    %rax,%rcx
    12fa:	e8 00 00 00 00       	call   12ff <test_interpolate_2d+0x1a2>
    12ff:	66 0f 7e c0          	movd   %xmm0,%eax
    1303:	66 0f 6e c8          	movd   %eax,%xmm1
    1307:	0f 2e 0d a4 07 00 00 	ucomiss 0x7a4(%rip),%xmm1        # 1ab2 <test_array_set+0x43c>
    130e:	7a 0d                	jp     131d <test_interpolate_2d+0x1c0>
    1310:	66 0f 6e d0          	movd   %eax,%xmm2
    1314:	0f 2e 15 a4 07 00 00 	ucomiss 0x7a4(%rip),%xmm2        # 1abf <test_array_set+0x449>
    131b:	74 1f                	je     133c <test_interpolate_2d+0x1df>
    131d:	41 b8 1e 01 00 00    	mov    $0x11e,%r8d
    1323:	48 8d 05 49 00 00 00 	lea    0x49(%rip),%rax        # 1373 <test_interpolate_2d+0x216>
    132a:	48 89 c2             	mov    %rax,%rdx
    132d:	48 8d 05 5a 00 00 00 	lea    0x5a(%rip),%rax        # 138e <test_interpolate_2d+0x231>
    1334:	48 89 c1             	mov    %rax,%rcx
    1337:	e8 07 ed ff ff       	call   43 <printf>
    133c:	48 8d 55 c0          	lea    -0x40(%rbp),%rdx
    1340:	48 8d 45 e0          	lea    -0x20(%rbp),%rax
    1344:	f3 0f 10 1d d0 07 00 	movss  0x7d0(%rip),%xmm3        # 1b1c <test_array_set+0x4a6>
    134b:	00 
    134c:	41 b8 05 00 00 00    	mov    $0x5,%r8d
    1352:	48 89 c1             	mov    %rax,%rcx
    1355:	e8 00 00 00 00       	call   135a <test_interpolate_2d+0x1fd>
    135a:	66 0f 7e c0          	movd   %xmm0,%eax
    135e:	66 0f 6e e0          	movd   %eax,%xmm4
    1362:	0f 2e 25 d0 07 00 00 	ucomiss 0x7d0(%rip),%xmm4        # 1b39 <app_i16+0x4>
    1369:	7a 0d                	jp     1378 <test_interpolate_2d+0x21b>
    136b:	66 0f 6e e8          	movd   %eax,%xmm5
    136f:	0f 2e 2d d0 07 00 00 	ucomiss 0x7d0(%rip),%xmm5        # 1b46 <app_i16+0x11>
    1376:	74 1f                	je     1397 <test_interpolate_2d+0x23a>
    1378:	41 b8 1f 01 00 00    	mov    $0x11f,%r8d
    137e:	48 8d 05 49 00 00 00 	lea    0x49(%rip),%rax        # 13ce <test_interpolate_2d+0x271>
    1385:	48 89 c2             	mov    %rax,%rdx
    1388:	48 8d 05 5a 00 00 00 	lea    0x5a(%rip),%rax        # 13e9 <test_interpolate_2d+0x28c>
    138f:	48 89 c1             	mov    %rax,%rcx
    1392:	e8 ac ec ff ff       	call   43 <printf>
    1397:	48 8d 55 c0          	lea    -0x40(%rbp),%rdx
    139b:	48 8d 45 e0          	lea    -0x20(%rbp),%rax
    139f:	f3 0f 10 1d d4 07 00 	movss  0x7d4(%rip),%xmm3        # 1b7b <test_array_apply+0x34>
    13a6:	00 
    13a7:	41 b8 05 00 00 00    	mov    $0x5,%r8d
    13ad:	48 89 c1             	mov    %rax,%rcx
    13b0:	e8 00 00 00 00       	call   13b5 <test_interpolate_2d+0x258>
    13b5:	66 0f 7e c0          	movd   %xmm0,%eax
    13b9:	66 0f 6e c8          	movd   %eax,%xmm1
    13bd:	0f 2e 0d d4 07 00 00 	ucomiss 0x7d4(%rip),%xmm1        # 1b98 <test_array_apply+0x51>
    13c4:	7a 0d                	jp     13d3 <test_interpolate_2d+0x276>
    13c6:	66 0f 6e d0          	movd   %eax,%xmm2
    13ca:	0f 2e 15 d4 07 00 00 	ucomiss 0x7d4(%rip),%xmm2        # 1ba5 <test_array_apply+0x5e>
    13d1:	74 1f                	je     13f2 <test_interpolate_2d+0x295>
    13d3:	41 b8 20 01 00 00    	mov    $0x120,%r8d
    13d9:	48 8d 05 49 00 00 00 	lea    0x49(%rip),%rax        # 1429 <test_interpolate_2d+0x2cc>
    13e0:	48 89 c2             	mov    %rax,%rdx
    13e3:	48 8d 05 5a 00 00 00 	lea    0x5a(%rip),%rax        # 1444 <test_interpolate_2d+0x2e7>
    13ea:	48 89 c1             	mov    %rax,%rcx
    13ed:	e8 51 ec ff ff       	call   43 <printf>
    13f2:	48 8d 55 c0          	lea    -0x40(%rbp),%rdx
    13f6:	48 8d 45 e0          	lea    -0x20(%rbp),%rax
    13fa:	f3 0f 10 1d d8 07 00 	movss  0x7d8(%rip),%xmm3        # 1bda <test_array_apply+0x93>
    1401:	00 
    1402:	41 b8 05 00 00 00    	mov    $0x5,%r8d
    1408:	48 89 c1             	mov    %rax,%rcx
    140b:	e8 00 00 00 00       	call   1410 <test_interpolate_2d+0x2b3>
    1410:	66 0f 7e c0          	movd   %xmm0,%eax
    1414:	66 0f 6e e0          	movd   %eax,%xmm4
    1418:	0f 2e 25 d8 07 00 00 	ucomiss 0x7d8(%rip),%xmm4        # 1bf7 <test_array_apply+0xb0>
    141f:	7a 0d                	jp     142e <test_interpolate_2d+0x2d1>
    1421:	66 0f 6e e8          	movd   %eax,%xmm5
    1425:	0f 2e 2d d8 07 00 00 	ucomiss 0x7d8(%rip),%xmm5        # 1c04 <test_array_apply+0xbd>
    142c:	74 1f                	je     144d <test_interpolate_2d+0x2f0>
    142e:	41 b8 21 01 00 00    	mov    $0x121,%r8d
    1434:	48 8d 05 49 00 00 00 	lea    0x49(%rip),%rax        # 1484 <test_interpolate_2d+0x327>
    143b:	48 89 c2             	mov    %rax,%rdx
    143e:	48 8d 05 5a 00 00 00 	lea    0x5a(%rip),%rax        # 149f <test_interpolate_2d+0x342>
    1445:	48 89 c1             	mov    %rax,%rcx
    1448:	e8 f6 eb ff ff       	call   43 <printf>
    144d:	48 8d 55 a0          	lea    -0x60(%rbp),%rdx
    1451:	48 8d 45 e0          	lea    -0x20(%rbp),%rax
    1455:	f3 0f 10 1d c8 07 00 	movss  0x7c8(%rip),%xmm3        # 1c25 <test_array_apply+0xde>
    145c:	00 
    145d:	41 b8 05 00 00 00    	mov    $0x5,%r8d
    1463:	48 89 c1             	mov    %rax,%rcx
    1466:	e8 00 00 00 00       	call   146b <test_interpolate_2d+0x30e>
    146b:	66 0f 7e c0          	movd   %xmm0,%eax
    146f:	66 0f 6e c8          	movd   %eax,%xmm1
    1473:	0f 2e 0d cc 07 00 00 	ucomiss 0x7cc(%rip),%xmm1        # 1c46 <test_array_apply+0xff>
    147a:	7a 0d                	jp     1489 <test_interpolate_2d+0x32c>
    147c:	66 0f 6e d0          	movd   %eax,%xmm2
    1480:	0f 2e 15 cc 07 00 00 	ucomiss 0x7cc(%rip),%xmm2        # 1c53 <test_array_apply+0x10c>
    1487:	74 1f                	je     14a8 <test_interpolate_2d+0x34b>
    1489:	41 b8 22 01 00 00    	mov    $0x122,%r8d
    148f:	48 8d 05 49 00 00 00 	lea    0x49(%rip),%rax        # 14df <test_interpolate_2d+0x382>
    1496:	48 89 c2             	mov    %rax,%rdx
    1499:	48 8d 05 5a 00 00 00 	lea    0x5a(%rip),%rax        # 14fa <test_interpolate_2d+0x39d>
    14a0:	48 89 c1             	mov    %rax,%rcx
    14a3:	e8 9b eb ff ff       	call   43 <printf>
    14a8:	48 8d 55 a0          	lea    -0x60(%rbp),%rdx
    14ac:	48 8d 45 e0          	lea    -0x20(%rbp),%rax
    14b0:	f3 0f 10 1d cc 07 00 	movss  0x7cc(%rip),%xmm3        # 1c84 <test_array_apply+0x13d>
    14b7:	00 
    14b8:	41 b8 05 00 00 00    	mov    $0x5,%r8d
    14be:	48 89 c1             	mov    %rax,%rcx
    14c1:	e8 00 00 00 00       	call   14c6 <test_interpolate_2d+0x369>
    14c6:	66 0f 7e c0          	movd   %xmm0,%eax
    14ca:	66 0f 6e e0          	movd   %eax,%xmm4
    14ce:	0f 2e 25 c8 07 00 00 	ucomiss 0x7c8(%rip),%xmm4        # 1c9d <test_array_apply+0x156>
    14d5:	7a 0d                	jp     14e4 <test_interpolate_2d+0x387>
    14d7:	66 0f 6e e8          	movd   %eax,%xmm5
    14db:	0f 2e 2d c8 07 00 00 	ucomiss 0x7c8(%rip),%xmm5        # 1caa <test_array_apply+0x163>
    14e2:	74 1f                	je     1503 <test_interpolate_2d+0x3a6>
    14e4:	41 b8 23 01 00 00    	mov    $0x123,%r8d
    14ea:	48 8d 05 49 00 00 00 	lea    0x49(%rip),%rax        # 153a <test_interpolate_2d+0x3dd>
    14f1:	48 89 c2             	mov    %rax,%rdx
    14f4:	48 8d 05 5a 00 00 00 	lea    0x5a(%rip),%rax        # 1555 <test_interpolate_2d+0x3f8>
    14fb:	48 89 c1             	mov    %rax,%rcx
    14fe:	e8 40 eb ff ff       	call   43 <printf>
    1503:	48 8d 55 a0          	lea    -0x60(%rbp),%rdx
    1507:	48 8d 45 e0          	lea    -0x20(%rbp),%rax
    150b:	f3 0f 10 1d a4 07 00 	movss  0x7a4(%rip),%xmm3        # 1cb7 <test_array_apply+0x170>
    1512:	00 
    1513:	41 b8 05 00 00 00    	mov    $0x5,%r8d
    1519:	48 89 c1             	mov    %rax,%rcx
    151c:	e8 00 00 00 00       	call   1521 <test_interpolate_2d+0x3c4>
    1521:	66 0f 7e c0          	movd   %xmm0,%eax
    1525:	66 0f 6e c8          	movd   %eax,%xmm1
    1529:	0f 2e 0d b0 07 00 00 	ucomiss 0x7b0(%rip),%xmm1        # 1ce0 <test_array_apply+0x199>
    1530:	7a 0d                	jp     153f <test_interpolate_2d+0x3e2>
    1532:	66 0f 6e d0          	movd   %eax,%xmm2
    1536:	0f 2e 15 b0 07 00 00 	ucomiss 0x7b0(%rip),%xmm2        # 1ced <test_array_apply+0x1a6>
    153d:	74 1f                	je     155e <test_interpolate_2d+0x401>
    153f:	41 b8 24 01 00 00    	mov    $0x124,%r8d
    1545:	48 8d 05 49 00 00 00 	lea    0x49(%rip),%rax        # 1595 <test_interpolate_2d+0x438>
    154c:	48 89 c2             	mov    %rax,%rdx
    154f:	48 8d 05 5a 00 00 00 	lea    0x5a(%rip),%rax        # 15b0 <test_interpolate_2d+0x453>
    1556:	48 89 c1             	mov    %rax,%rcx
    1559:	e8 e5 ea ff ff       	call   43 <printf>
    155e:	48 8d 55 a0          	lea    -0x60(%rbp),%rdx
    1562:	48 8d 45 e0          	lea    -0x20(%rbp),%rax
    1566:	f3 0f 10 1d d0 07 00 	movss  0x7d0(%rip),%xmm3        # 1d3e <test_array_apply+0x1f7>
    156d:	00 
    156e:	41 b8 05 00 00 00    	mov    $0x5,%r8d
    1574:	48 89 c1             	mov    %rax,%rcx
    1577:	e8 00 00 00 00       	call   157c <test_interpolate_2d+0x41f>
    157c:	66 0f 7e c0          	movd   %xmm0,%eax
    1580:	66 0f 6e e0          	movd   %eax,%xmm4
    1584:	0f 2e 25 dc 07 00 00 	ucomiss 0x7dc(%rip),%xmm4        # 1d67 <test_array_apply+0x220>
    158b:	7a 0d                	jp     159a <test_interpolate_2d+0x43d>
    158d:	66 0f 6e e8          	movd   %eax,%xmm5
    1591:	0f 2e 2d dc 07 00 00 	ucomiss 0x7dc(%rip),%xmm5        # 1d74 <test_array_apply+0x22d>
    1598:	74 1f                	je     15b9 <test_interpolate_2d+0x45c>
    159a:	41 b8 25 01 00 00    	mov    $0x125,%r8d
    15a0:	48 8d 05 49 00 00 00 	lea    0x49(%rip),%rax        # 15f0 <test_interpolate_2d+0x493>
    15a7:	48 89 c2             	mov    %rax,%rdx
    15aa:	48 8d 05 5a 00 00 00 	lea    0x5a(%rip),%rax        # 160b <test_interpolate_2d+0x4ae>
    15b1:	48 89 c1             	mov    %rax,%rcx
    15b4:	e8 8a ea ff ff       	call   43 <printf>
    15b9:	48 8d 55 a0          	lea    -0x60(%rbp),%rdx
    15bd:	48 8d 45 e0          	lea    -0x20(%rbp),%rax
    15c1:	f3 0f 10 1d d4 07 00 	movss  0x7d4(%rip),%xmm3        # 1d9d <test_array_apply+0x256>
    15c8:	00 
    15c9:	41 b8 05 00 00 00    	mov    $0x5,%r8d
    15cf:	48 89 c1             	mov    %rax,%rcx
    15d2:	e8 00 00 00 00       	call   15d7 <test_interpolate_2d+0x47a>
    15d7:	66 0f 7e c0          	movd   %xmm0,%eax
    15db:	66 0f 6e c8          	movd   %eax,%xmm1
    15df:	0f 2e 0d e0 07 00 00 	ucomiss 0x7e0(%rip),%xmm1        # 1dc6 <test_array_apply+0x27f>
    15e6:	7a 0d                	jp     15f5 <test_interpolate_2d+0x498>
    15e8:	66 0f 6e d0          	movd   %eax,%xmm2
    15ec:	0f 2e 15 e0 07 00 00 	ucomiss 0x7e0(%rip),%xmm2        # 1dd3 <test_array_apply+0x28c>
    15f3:	74 1f                	je     1614 <test_interpolate_2d+0x4b7>
    15f5:	41 b8 26 01 00 00    	mov    $0x126,%r8d
    15fb:	48 8d 05 49 00 00 00 	lea    0x49(%rip),%rax        # 164b <test_interpolate_2d+0x4ee>
    1602:	48 89 c2             	mov    %rax,%rdx
    1605:	48 8d 05 5a 00 00 00 	lea    0x5a(%rip),%rax        # 1666 <test_interpolate_2d+0x509>
    160c:	48 89 c1             	mov    %rax,%rcx
    160f:	e8 2f ea ff ff       	call   43 <printf>
    1614:	48 8d 55 a0          	lea    -0x60(%rbp),%rdx
    1618:	48 8d 45 e0          	lea    -0x20(%rbp),%rax
    161c:	f3 0f 10 1d d8 07 00 	movss  0x7d8(%rip),%xmm3        # 1dfc <test_array_apply+0x2b5>
    1623:	00 
    1624:	41 b8 05 00 00 00    	mov    $0x5,%r8d
    162a:	48 89 c1             	mov    %rax,%rcx
    162d:	e8 00 00 00 00       	call   1632 <test_interpolate_2d+0x4d5>
    1632:	66 0f 7e c0          	movd   %xmm0,%eax
    1636:	66 0f 6e e0          	movd   %eax,%xmm4
    163a:	0f 2e 25 e4 07 00 00 	ucomiss 0x7e4(%rip),%xmm4        # 1e25 <test_array_apply+0x2de>
    1641:	7a 0d                	jp     1650 <test_interpolate_2d+0x4f3>
    1643:	66 0f 6e e8          	movd   %eax,%xmm5
    1647:	0f 2e 2d e4 07 00 00 	ucomiss 0x7e4(%rip),%xmm5        # 1e32 <test_array_apply+0x2eb>
    164e:	74 1f                	je     166f <test_interpolate_2d+0x512>
    1650:	41 b8 27 01 00 00    	mov    $0x127,%r8d
    1656:	48 8d 05 49 00 00 00 	lea    0x49(%rip),%rax        # 16a6 <test_array_set+0x30>
    165d:	48 89 c2             	mov    %rax,%rdx
    1660:	48 8d 05 5a 00 00 00 	lea    0x5a(%rip),%rax        # 16c1 <test_array_set+0x4b>
    1667:	48 89 c1             	mov    %rax,%rcx
    166a:	e8 d4 e9 ff ff       	call   43 <printf>
    166f:	90                   	nop
    1670:	48 83 ec 80          	sub    $0xffffffffffffff80,%rsp
    1674:	5d                   	pop    %rbp
    1675:	c3                   	ret

0000000000001676 <test_array_set>:
    1676:	55                   	push   %rbp
    1677:	48 89 e5             	mov    %rsp,%rbp
    167a:	48 83 ec 50          	sub    $0x50,%rsp
    167e:	48 8d 05 30 03 00 00 	lea    0x330(%rip),%rax        # 19b5 <test_array_set+0x33f>
    1685:	48 89 c1             	mov    %rax,%rcx
    1688:	e8 b6 e9 ff ff       	call   43 <printf>
    168d:	f3 0f 10 05 a0 07 00 	movss  0x7a0(%rip),%xmm0        # 1e35 <test_array_linlogspace>
    1694:	00 
    1695:	f3 0f 11 45 e0       	movss  %xmm0,-0x20(%rbp)
    169a:	f3 0f 10 05 9c 07 00 	movss  0x79c(%rip),%xmm0        # 1e3e <test_array_linlogspace+0x9>
    16a1:	00 
    16a2:	f3 0f 11 45 e4       	movss  %xmm0,-0x1c(%rbp)
    16a7:	f3 0f 10 05 b4 07 00 	movss  0x7b4(%rip),%xmm0        # 1e63 <test_array_linlogspace+0x2e>
    16ae:	00 
    16af:	f3 0f 11 45 e8       	movss  %xmm0,-0x18(%rbp)
    16b4:	f3 0f 10 05 b8 07 00 	movss  0x7b8(%rip),%xmm0        # 1e74 <test_array_linlogspace+0x3f>
    16bb:	00 
    16bc:	f3 0f 11 45 ec       	movss  %xmm0,-0x14(%rbp)
    16c1:	f3 0f 10 05 e8 07 00 	movss  0x7e8(%rip),%xmm0        # 1eb1 <test_array_linlogspace+0x7c>
    16c8:	00 
    16c9:	f3 0f 11 45 f0       	movss  %xmm0,-0x10(%rbp)
    16ce:	66 c7 45 d6 01 00    	movw   $0x1,-0x2a(%rbp)
    16d4:	66 c7 45 d8 02 00    	movw   $0x2,-0x28(%rbp)
    16da:	66 c7 45 da 03 00    	movw   $0x3,-0x26(%rbp)
    16e0:	66 c7 45 dc 04 00    	movw   $0x4,-0x24(%rbp)
    16e6:	66 c7 45 de 05 00    	movw   $0x5,-0x22(%rbp)
    16ec:	48 8d 45 e0          	lea    -0x20(%rbp),%rax
    16f0:	66 0f ef d2          	pxor   %xmm2,%xmm2
    16f4:	ba 04 00 00 00       	mov    $0x4,%edx
    16f9:	48 89 c1             	mov    %rax,%rcx
    16fc:	e8 00 00 00 00       	call   1701 <test_array_set+0x8b>
    1701:	48 8d 45 d6          	lea    -0x2a(%rbp),%rax
    1705:	41 b8 00 00 00 00    	mov    $0x0,%r8d
    170b:	ba 04 00 00 00       	mov    $0x4,%edx
    1710:	48 89 c1             	mov    %rax,%rcx
    1713:	e8 00 00 00 00       	call   1718 <test_array_set+0xa2>
    1718:	f3 0f 10 45 e0       	movss  -0x20(%rbp),%xmm0
    171d:	66 0f ef c9          	pxor   %xmm1,%xmm1
    1721:	0f 2e c1             	ucomiss %xmm1,%xmm0
    1724:	7a 09                	jp     172f <test_array_set+0xb9>
    1726:	66 0f ef c9          	pxor   %xmm1,%xmm1
    172a:	0f 2e c1             	ucomiss %xmm1,%xmm0
    172d:	74 1f                	je     174e <test_array_set+0xd8>
    172f:	41 b8 31 01 00 00    	mov    $0x131,%r8d
    1735:	48 8d 05 49 00 00 00 	lea    0x49(%rip),%rax        # 1785 <test_array_set+0x10f>
    173c:	48 89 c2             	mov    %rax,%rdx
    173f:	48 8d 05 5a 00 00 00 	lea    0x5a(%rip),%rax        # 17a0 <test_array_set+0x12a>
    1746:	48 89 c1             	mov    %rax,%rcx
    1749:	e8 f5 e8 ff ff       	call   43 <printf>
    174e:	f3 0f 10 45 e4       	movss  -0x1c(%rbp),%xmm0
    1753:	66 0f ef c9          	pxor   %xmm1,%xmm1
    1757:	0f 2e c1             	ucomiss %xmm1,%xmm0
    175a:	7a 09                	jp     1765 <test_array_set+0xef>
    175c:	66 0f ef c9          	pxor   %xmm1,%xmm1
    1760:	0f 2e c1             	ucomiss %xmm1,%xmm0
    1763:	74 1f                	je     1784 <test_array_set+0x10e>
    1765:	41 b8 32 01 00 00    	mov    $0x132,%r8d
    176b:	48 8d 05 49 00 00 00 	lea    0x49(%rip),%rax        # 17bb <test_array_set+0x145>
    1772:	48 89 c2             	mov    %rax,%rdx
    1775:	48 8d 05 5a 00 00 00 	lea    0x5a(%rip),%rax        # 17d6 <test_array_set+0x160>
    177c:	48 89 c1             	mov    %rax,%rcx
    177f:	e8 bf e8 ff ff       	call   43 <printf>
    1784:	f3 0f 10 45 e8       	movss  -0x18(%rbp),%xmm0
    1789:	66 0f ef c9          	pxor   %xmm1,%xmm1
    178d:	0f 2e c1             	ucomiss %xmm1,%xmm0
    1790:	7a 09                	jp     179b <test_array_set+0x125>
    1792:	66 0f ef c9          	pxor   %xmm1,%xmm1
    1796:	0f 2e c1             	ucomiss %xmm1,%xmm0
    1799:	74 1f                	je     17ba <test_array_set+0x144>
    179b:	41 b8 33 01 00 00    	mov    $0x133,%r8d
    17a1:	48 8d 05 49 00 00 00 	lea    0x49(%rip),%rax        # 17f1 <test_array_set+0x17b>
    17a8:	48 89 c2             	mov    %rax,%rdx
    17ab:	48 8d 05 5a 00 00 00 	lea    0x5a(%rip),%rax        # 180c <test_array_set+0x196>
    17b2:	48 89 c1             	mov    %rax,%rcx
    17b5:	e8 89 e8 ff ff       	call   43 <printf>
    17ba:	f3 0f 10 45 ec       	movss  -0x14(%rbp),%xmm0
    17bf:	66 0f ef c9          	pxor   %xmm1,%xmm1
    17c3:	0f 2e c1             	ucomiss %xmm1,%xmm0
    17c6:	7a 09                	jp     17d1 <test_array_set+0x15b>
    17c8:	66 0f ef c9          	pxor   %xmm1,%xmm1
    17cc:	0f 2e c1             	ucomiss %xmm1,%xmm0
    17cf:	74 1f                	je     17f0 <test_array_set+0x17a>
    17d1:	41 b8 34 01 00 00    	mov    $0x134,%r8d
    17d7:	48 8d 05 49 00 00 00 	lea    0x49(%rip),%rax        # 1827 <test_array_set+0x1b1>
    17de:	48 89 c2             	mov    %rax,%rdx
    17e1:	48 8d 05 5a 00 00 00 	lea    0x5a(%rip),%rax        # 1842 <test_array_set+0x1cc>
    17e8:	48 89 c1             	mov    %rax,%rcx
    17eb:	e8 53 e8 ff ff       	call   43 <printf>
    17f0:	f3 0f 10 45 f0       	movss  -0x10(%rbp),%xmm0
    17f5:	0f 2e 05 e8 07 00 00 	ucomiss 0x7e8(%rip),%xmm0        # 1fe4 <test_array_linlogspace+0x1af>
    17fc:	7a 09                	jp     1807 <test_array_set+0x191>
    17fe:	0f 2e 05 e8 07 00 00 	ucomiss 0x7e8(%rip),%xmm0        # 1fed <test_array_linlogspace+0x1b8>
    1805:	74 1f                	je     1826 <test_array_set+0x1b0>
    1807:	41 b8 35 01 00 00    	mov    $0x135,%r8d
    180d:	48 8d 05 49 00 00 00 	lea    0x49(%rip),%rax        # 185d <test_array_set+0x1e7>
    1814:	48 89 c2             	mov    %rax,%rdx
    1817:	48 8d 05 5a 00 00 00 	lea    0x5a(%rip),%rax        # 1878 <test_array_set+0x202>
    181e:	48 89 c1             	mov    %rax,%rcx
    1821:	e8 1d e8 ff ff       	call   43 <printf>
    1826:	0f b7 45 d6          	movzwl -0x2a(%rbp),%eax
    182a:	66 85 c0             	test   %ax,%ax
    182d:	74 1f                	je     184e <test_array_set+0x1d8>
    182f:	41 b8 36 01 00 00    	mov    $0x136,%r8d
    1835:	48 8d 05 49 00 00 00 	lea    0x49(%rip),%rax        # 1885 <test_array_set+0x20f>
    183c:	48 89 c2             	mov    %rax,%rdx
    183f:	48 8d 05 5a 00 00 00 	lea    0x5a(%rip),%rax        # 18a0 <test_array_set+0x22a>
    1846:	48 89 c1             	mov    %rax,%rcx
    1849:	e8 f5 e7 ff ff       	call   43 <printf>
    184e:	0f b7 45 d8          	movzwl -0x28(%rbp),%eax
    1852:	66 85 c0             	test   %ax,%ax
    1855:	74 1f                	je     1876 <test_array_set+0x200>
    1857:	41 b8 37 01 00 00    	mov    $0x137,%r8d
    185d:	48 8d 05 49 00 00 00 	lea    0x49(%rip),%rax        # 18ad <test_array_set+0x237>
    1864:	48 89 c2             	mov    %rax,%rdx
    1867:	48 8d 05 5a 00 00 00 	lea    0x5a(%rip),%rax        # 18c8 <test_array_set+0x252>
    186e:	48 89 c1             	mov    %rax,%rcx
    1871:	e8 cd e7 ff ff       	call   43 <printf>
    1876:	0f b7 45 da          	movzwl -0x26(%rbp),%eax
    187a:	66 85 c0             	test   %ax,%ax
    187d:	74 1f                	je     189e <test_array_set+0x228>
    187f:	41 b8 38 01 00 00    	mov    $0x138,%r8d
    1885:	48 8d 05 49 00 00 00 	lea    0x49(%rip),%rax        # 18d5 <test_array_set+0x25f>
    188c:	48 89 c2             	mov    %rax,%rdx
    188f:	48 8d 05 5a 00 00 00 	lea    0x5a(%rip),%rax        # 18f0 <test_array_set+0x27a>
    1896:	48 89 c1             	mov    %rax,%rcx
    1899:	e8 a5 e7 ff ff       	call   43 <printf>
    189e:	0f b7 45 dc          	movzwl -0x24(%rbp),%eax
    18a2:	66 85 c0             	test   %ax,%ax
    18a5:	74 1f                	je     18c6 <test_array_set+0x250>
    18a7:	41 b8 39 01 00 00    	mov    $0x139,%r8d
    18ad:	48 8d 05 49 00 00 00 	lea    0x49(%rip),%rax        # 18fd <test_array_set+0x287>
    18b4:	48 89 c2             	mov    %rax,%rdx
    18b7:	48 8d 05 5a 00 00 00 	lea    0x5a(%rip),%rax        # 1918 <test_array_set+0x2a2>
    18be:	48 89 c1             	mov    %rax,%rcx
    18c1:	e8 7d e7 ff ff       	call   43 <printf>
    18c6:	0f b7 45 de          	movzwl -0x22(%rbp),%eax
    18ca:	66 83 f8 05          	cmp    $0x5,%ax
    18ce:	74 1f                	je     18ef <test_array_set+0x279>
    18d0:	41 b8 3a 01 00 00    	mov    $0x13a,%r8d
    18d6:	48 8d 05 49 00 00 00 	lea    0x49(%rip),%rax        # 1926 <test_array_set+0x2b0>
    18dd:	48 89 c2             	mov    %rax,%rdx
    18e0:	48 8d 05 5a 00 00 00 	lea    0x5a(%rip),%rax        # 1941 <test_array_set+0x2cb>
    18e7:	48 89 c1             	mov    %rax,%rcx
    18ea:	e8 54 e7 ff ff       	call   43 <printf>
    18ef:	48 8d 45 e0          	lea    -0x20(%rbp),%rax
    18f3:	f3 0f 10 15 a0 07 00 	movss  0x7a0(%rip),%xmm2        # 209b <test_array_linlogspace+0x266>
    18fa:	00 
    18fb:	ba 04 00 00 00       	mov    $0x4,%edx
    1900:	48 89 c1             	mov    %rax,%rcx
    1903:	e8 00 00 00 00       	call   1908 <test_array_set+0x292>
    1908:	48 8d 45 d6          	lea    -0x2a(%rbp),%rax
    190c:	41 b8 01 00 00 00    	mov    $0x1,%r8d
    1912:	ba 04 00 00 00       	mov    $0x4,%edx
    1917:	48 89 c1             	mov    %rax,%rcx
    191a:	e8 00 00 00 00       	call   191f <test_array_set+0x2a9>
    191f:	f3 0f 10 45 e0       	movss  -0x20(%rbp),%xmm0
    1924:	f3 0f 10 0d a0 07 00 	movss  0x7a0(%rip),%xmm1        # 20cc <test_array_linlogspace+0x297>
    192b:	00 
    192c:	0f 2e c1             	ucomiss %xmm1,%xmm0
    192f:	7a 0d                	jp     193e <test_array_set+0x2c8>
    1931:	f3 0f 10 0d a0 07 00 	movss  0x7a0(%rip),%xmm1        # 20d9 <test_array_linlogspace+0x2a4>
    1938:	00 
    1939:	0f 2e c1             	ucomiss %xmm1,%xmm0
    193c:	74 1f                	je     195d <test_array_set+0x2e7>
    193e:	41 b8 3d 01 00 00    	mov    $0x13d,%r8d
    1944:	48 8d 05 49 00 00 00 	lea    0x49(%rip),%rax        # 1994 <test_array_set+0x31e>
    194b:	48 89 c2             	mov    %rax,%rdx
    194e:	48 8d 05 5a 00 00 00 	lea    0x5a(%rip),%rax        # 19af <test_array_set+0x339>
    1955:	48 89 c1             	mov    %rax,%rcx
    1958:	e8 e6 e6 ff ff       	call   43 <printf>
    195d:	f3 0f 10 45 e4       	movss  -0x1c(%rbp),%xmm0
    1962:	f3 0f 10 0d a0 07 00 	movss  0x7a0(%rip),%xmm1        # 210a <test_array_linlogspace+0x2d5>
    1969:	00 
    196a:	0f 2e c1             	ucomiss %xmm1,%xmm0
    196d:	7a 0d                	jp     197c <test_array_set+0x306>
    196f:	f3 0f 10 0d a0 07 00 	movss  0x7a0(%rip),%xmm1        # 2117 <test_array_linlogspace+0x2e2>
    1976:	00 
    1977:	0f 2e c1             	ucomiss %xmm1,%xmm0
    197a:	74 1f                	je     199b <test_array_set+0x325>
    197c:	41 b8 3e 01 00 00    	mov    $0x13e,%r8d
    1982:	48 8d 05 49 00 00 00 	lea    0x49(%rip),%rax        # 19d2 <test_array_set+0x35c>
    1989:	48 89 c2             	mov    %rax,%rdx
    198c:	48 8d 05 5a 00 00 00 	lea    0x5a(%rip),%rax        # 19ed <test_array_set+0x377>
    1993:	48 89 c1             	mov    %rax,%rcx
    1996:	e8 a8 e6 ff ff       	call   43 <printf>
    199b:	f3 0f 10 45 e8       	movss  -0x18(%rbp),%xmm0
    19a0:	f3 0f 10 0d a0 07 00 	movss  0x7a0(%rip),%xmm1        # 2148 <test_array_linlogspace+0x313>
    19a7:	00 
    19a8:	0f 2e c1             	ucomiss %xmm1,%xmm0
    19ab:	7a 0d                	jp     19ba <test_array_set+0x344>
    19ad:	f3 0f 10 0d a0 07 00 	movss  0x7a0(%rip),%xmm1        # 2155 <test_array_linlogspace+0x320>
    19b4:	00 
    19b5:	0f 2e c1             	ucomiss %xmm1,%xmm0
    19b8:	74 1f                	je     19d9 <test_array_set+0x363>
    19ba:	41 b8 3f 01 00 00    	mov    $0x13f,%r8d
    19c0:	48 8d 05 49 00 00 00 	lea    0x49(%rip),%rax        # 1a10 <test_array_set+0x39a>
    19c7:	48 89 c2             	mov    %rax,%rdx
    19ca:	48 8d 05 5a 00 00 00 	lea    0x5a(%rip),%rax        # 1a2b <test_array_set+0x3b5>
    19d1:	48 89 c1             	mov    %rax,%rcx
    19d4:	e8 6a e6 ff ff       	call   43 <printf>
    19d9:	f3 0f 10 45 ec       	movss  -0x14(%rbp),%xmm0
    19de:	f3 0f 10 0d a0 07 00 	movss  0x7a0(%rip),%xmm1        # 2186 <test_array_linlogspace+0x351>
    19e5:	00 
    19e6:	0f 2e c1             	ucomiss %xmm1,%xmm0
    19e9:	7a 0d                	jp     19f8 <test_array_set+0x382>
    19eb:	f3 0f 10 0d a0 07 00 	movss  0x7a0(%rip),%xmm1        # 2193 <test_array_linlogspace+0x35e>
    19f2:	00 
    19f3:	0f 2e c1             	ucomiss %xmm1,%xmm0
    19f6:	74 1f                	je     1a17 <test_array_set+0x3a1>
    19f8:	41 b8 40 01 00 00    	mov    $0x140,%r8d
    19fe:	48 8d 05 49 00 00 00 	lea    0x49(%rip),%rax        # 1a4e <test_array_set+0x3d8>
    1a05:	48 89 c2             	mov    %rax,%rdx
    1a08:	48 8d 05 5a 00 00 00 	lea    0x5a(%rip),%rax        # 1a69 <test_array_set+0x3f3>
    1a0f:	48 89 c1             	mov    %rax,%rcx
    1a12:	e8 2c e6 ff ff       	call   43 <printf>
    1a17:	f3 0f 10 45 f0       	movss  -0x10(%rbp),%xmm0
    1a1c:	0f 2e 05 e8 07 00 00 	ucomiss 0x7e8(%rip),%xmm0        # 220b <test_hysteresis_value+0x1e>
    1a23:	7a 09                	jp     1a2e <test_array_set+0x3b8>
    1a25:	0f 2e 05 e8 07 00 00 	ucomiss 0x7e8(%rip),%xmm0        # 2214 <test_hysteresis_value+0x27>
    1a2c:	74 1f                	je     1a4d <test_array_set+0x3d7>
    1a2e:	41 b8 41 01 00 00    	mov    $0x141,%r8d
    1a34:	48 8d 05 49 00 00 00 	lea    0x49(%rip),%rax        # 1a84 <test_array_set+0x40e>
    1a3b:	48 89 c2             	mov    %rax,%rdx
    1a3e:	48 8d 05 5a 00 00 00 	lea    0x5a(%rip),%rax        # 1a9f <test_array_set+0x429>
    1a45:	48 89 c1             	mov    %rax,%rcx
    1a48:	e8 f6 e5 ff ff       	call   43 <printf>
    1a4d:	0f b7 45 d6          	movzwl -0x2a(%rbp),%eax
    1a51:	66 83 f8 01          	cmp    $0x1,%ax
    1a55:	74 1f                	je     1a76 <test_array_set+0x400>
    1a57:	41 b8 42 01 00 00    	mov    $0x142,%r8d
    1a5d:	48 8d 05 49 00 00 00 	lea    0x49(%rip),%rax        # 1aad <test_array_set+0x437>
    1a64:	48 89 c2             	mov    %rax,%rdx
    1a67:	48 8d 05 5a 00 00 00 	lea    0x5a(%rip),%rax        # 1ac8 <test_array_set+0x452>
    1a6e:	48 89 c1             	mov    %rax,%rcx
    1a71:	e8 cd e5 ff ff       	call   43 <printf>
    1a76:	0f b7 45 d8          	movzwl -0x28(%rbp),%eax
    1a7a:	66 83 f8 01          	cmp    $0x1,%ax
    1a7e:	74 1f                	je     1a9f <test_array_set+0x429>
    1a80:	41 b8 43 01 00 00    	mov    $0x143,%r8d
    1a86:	48 8d 05 49 00 00 00 	lea    0x49(%rip),%rax        # 1ad6 <test_array_set+0x460>
    1a8d:	48 89 c2             	mov    %rax,%rdx
    1a90:	48 8d 05 5a 00 00 00 	lea    0x5a(%rip),%rax        # 1af1 <test_array_set+0x47b>
    1a97:	48 89 c1             	mov    %rax,%rcx
    1a9a:	e8 a4 e5 ff ff       	call   43 <printf>
    1a9f:	0f b7 45 da          	movzwl -0x26(%rbp),%eax
    1aa3:	66 83 f8 01          	cmp    $0x1,%ax
    1aa7:	74 1f                	je     1ac8 <test_array_set+0x452>
    1aa9:	41 b8 44 01 00 00    	mov    $0x144,%r8d
    1aaf:	48 8d 05 49 00 00 00 	lea    0x49(%rip),%rax        # 1aff <test_array_set+0x489>
    1ab6:	48 89 c2             	mov    %rax,%rdx
    1ab9:	48 8d 05 5a 00 00 00 	lea    0x5a(%rip),%rax        # 1b1a <test_array_set+0x4a4>
    1ac0:	48 89 c1             	mov    %rax,%rcx
    1ac3:	e8 7b e5 ff ff       	call   43 <printf>
    1ac8:	0f b7 45 dc          	movzwl -0x24(%rbp),%eax
    1acc:	66 83 f8 01          	cmp    $0x1,%ax
    1ad0:	74 1f                	je     1af1 <test_array_set+0x47b>
    1ad2:	41 b8 45 01 00 00    	mov    $0x145,%r8d
    1ad8:	48 8d 05 49 00 00 00 	lea    0x49(%rip),%rax        # 1b28 <app_f32+0x7>
    1adf:	48 89 c2             	mov    %rax,%rdx
    1ae2:	48 8d 05 5a 00 00 00 	lea    0x5a(%rip),%rax        # 1b43 <app_i16+0xe>
    1ae9:	48 89 c1             	mov    %rax,%rcx
    1aec:	e8 52 e5 ff ff       	call   43 <printf>
    1af1:	0f b7 45 de          	movzwl -0x22(%rbp),%eax
    1af5:	66 83 f8 05          	cmp    $0x5,%ax
    1af9:	74 1f                	je     1b1a <test_array_set+0x4a4>
    1afb:	41 b8 46 01 00 00    	mov    $0x146,%r8d
    1b01:	48 8d 05 49 00 00 00 	lea    0x49(%rip),%rax        # 1b51 <test_array_apply+0xa>
    1b08:	48 89 c2             	mov    %rax,%rdx
    1b0b:	48 8d 05 5a 00 00 00 	lea    0x5a(%rip),%rax        # 1b6c <test_array_apply+0x25>
    1b12:	48 89 c1             	mov    %rax,%rcx
    1b15:	e8 29 e5 ff ff       	call   43 <printf>
    1b1a:	90                   	nop
    1b1b:	48 83 c4 50          	add    $0x50,%rsp
    1b1f:	5d                   	pop    %rbp
    1b20:	c3                   	ret

0000000000001b21 <app_f32>:
    1b21:	55                   	push   %rbp
    1b22:	48 89 e5             	mov    %rsp,%rbp
    1b25:	f3 0f 11 45 10       	movss  %xmm0,0x10(%rbp)
    1b2a:	f3 0f 10 45 10       	movss  0x10(%rbp),%xmm0
    1b2f:	f3 0f 58 c0          	addss  %xmm0,%xmm0
    1b33:	5d                   	pop    %rbp
    1b34:	c3                   	ret

0000000000001b35 <app_i16>:
    1b35:	55                   	push   %rbp
    1b36:	48 89 e5             	mov    %rsp,%rbp
    1b39:	89 c8                	mov    %ecx,%eax
    1b3b:	66 89 45 10          	mov    %ax,0x10(%rbp)
    1b3f:	0f b7 45 10          	movzwl 0x10(%rbp),%eax
    1b43:	01 c0                	add    %eax,%eax
    1b45:	5d                   	pop    %rbp
    1b46:	c3                   	ret

0000000000001b47 <test_array_apply>:
    1b47:	55                   	push   %rbp
    1b48:	48 89 e5             	mov    %rsp,%rbp
    1b4b:	48 83 c4 80          	add    $0xffffffffffffff80,%rsp
    1b4f:	48 8d 05 58 03 00 00 	lea    0x358(%rip),%rax        # 1eae <test_array_linlogspace+0x79>
    1b56:	48 89 c1             	mov    %rax,%rcx
    1b59:	e8 e5 e4 ff ff       	call   43 <printf>
    1b5e:	f3 0f 10 05 a0 07 00 	movss  0x7a0(%rip),%xmm0        # 2306 <test_hysteresis_value+0x119>
    1b65:	00 
    1b66:	f3 0f 11 45 e0       	movss  %xmm0,-0x20(%rbp)
    1b6b:	f3 0f 10 05 9c 07 00 	movss  0x79c(%rip),%xmm0        # 230f <test_hysteresis_value+0x122>
    1b72:	00 
    1b73:	f3 0f 11 45 e4       	movss  %xmm0,-0x1c(%rbp)
    1b78:	f3 0f 10 05 b4 07 00 	movss  0x7b4(%rip),%xmm0        # 2334 <test_hysteresis_value+0x147>
    1b7f:	00 
    1b80:	f3 0f 11 45 e8       	movss  %xmm0,-0x18(%rbp)
    1b85:	f3 0f 10 05 b8 07 00 	movss  0x7b8(%rip),%xmm0        # 2345 <test_hysteresis_value+0x158>
    1b8c:	00 
    1b8d:	f3 0f 11 45 ec       	movss  %xmm0,-0x14(%rbp)
    1b92:	f3 0f 10 05 e8 07 00 	movss  0x7e8(%rip),%xmm0        # 2382 <test_hysteresis_value+0x195>
    1b99:	00 
    1b9a:	f3 0f 11 45 f0       	movss  %xmm0,-0x10(%rbp)
    1b9f:	66 0f ef c0          	pxor   %xmm0,%xmm0
    1ba3:	0f 11 45 c0          	movups %xmm0,-0x40(%rbp)
    1ba7:	66 0f 7e 45 d0       	movd   %xmm0,-0x30(%rbp)
    1bac:	66 c7 45 b6 01 00    	movw   $0x1,-0x4a(%rbp)
    1bb2:	66 c7 45 b8 02 00    	movw   $0x2,-0x48(%rbp)
    1bb8:	66 c7 45 ba 03 00    	movw   $0x3,-0x46(%rbp)
    1bbe:	66 c7 45 bc 04 00    	movw   $0x4,-0x44(%rbp)
    1bc4:	66 c7 45 be 05 00    	movw   $0x5,-0x42(%rbp)
    1bca:	48 c7 45 ac 00 00 00 	movq   $0x0,-0x54(%rbp)
    1bd1:	00 
    1bd2:	66 c7 45 b4 00 00    	movw   $0x0,-0x4c(%rbp)
    1bd8:	48 8d 55 c0          	lea    -0x40(%rbp),%rdx
    1bdc:	48 8d 45 e0          	lea    -0x20(%rbp),%rax
    1be0:	4c 8d 0d 3a ff ff ff 	lea    -0xc6(%rip),%r9        # 1b21 <app_f32>
    1be7:	41 b8 04 00 00 00    	mov    $0x4,%r8d
    1bed:	48 89 c1             	mov    %rax,%rcx
    1bf0:	e8 00 00 00 00       	call   1bf5 <test_array_apply+0xae>
    1bf5:	48 8d 55 ac          	lea    -0x54(%rbp),%rdx
    1bf9:	48 8d 45 b6          	lea    -0x4a(%rbp),%rax
    1bfd:	4c 8d 0d 31 ff ff ff 	lea    -0xcf(%rip),%r9        # 1b35 <app_i16>
    1c04:	41 b8 04 00 00 00    	mov    $0x4,%r8d
    1c0a:	48 89 c1             	mov    %rax,%rcx
    1c0d:	e8 00 00 00 00       	call   1c12 <test_array_apply+0xcb>
    1c12:	f3 0f 10 45 c0       	movss  -0x40(%rbp),%xmm0
    1c17:	0f 2e 05 9c 07 00 00 	ucomiss 0x79c(%rip),%xmm0        # 23ba <test_hysteresis_value+0x1cd>
    1c1e:	7a 09                	jp     1c29 <test_array_apply+0xe2>
    1c20:	0f 2e 05 9c 07 00 00 	ucomiss 0x79c(%rip),%xmm0        # 23c3 <test_hysteresis_value+0x1d6>
    1c27:	74 1f                	je     1c48 <test_array_apply+0x101>
    1c29:	41 b8 55 01 00 00    	mov    $0x155,%r8d
    1c2f:	48 8d 05 49 00 00 00 	lea    0x49(%rip),%rax        # 1c7f <test_array_apply+0x138>
    1c36:	48 89 c2             	mov    %rax,%rdx
    1c39:	48 8d 05 5a 00 00 00 	lea    0x5a(%rip),%rax        # 1c9a <test_array_apply+0x153>
    1c40:	48 89 c1             	mov    %rax,%rcx
    1c43:	e8 fb e3 ff ff       	call   43 <printf>
    1c48:	f3 0f 10 45 c4       	movss  -0x3c(%rbp),%xmm0
    1c4d:	0f 2e 05 b8 07 00 00 	ucomiss 0x7b8(%rip),%xmm0        # 240c <test_hysteresis_value+0x21f>
    1c54:	7a 09                	jp     1c5f <test_array_apply+0x118>
    1c56:	0f 2e 05 b8 07 00 00 	ucomiss 0x7b8(%rip),%xmm0        # 2415 <test_hysteresis_value+0x228>
    1c5d:	74 1f                	je     1c7e <test_array_apply+0x137>
    1c5f:	41 b8 56 01 00 00    	mov    $0x156,%r8d
    1c65:	48 8d 05 49 00 00 00 	lea    0x49(%rip),%rax        # 1cb5 <test_array_apply+0x16e>
    1c6c:	48 89 c2             	mov    %rax,%rdx
    1c6f:	48 8d 05 5a 00 00 00 	lea    0x5a(%rip),%rax        # 1cd0 <test_array_apply+0x189>
    1c76:	48 89 c1             	mov    %rax,%rcx
    1c79:	e8 c5 e3 ff ff       	call   43 <printf>
    1c7e:	f3 0f 10 45 c8       	movss  -0x38(%rbp),%xmm0
    1c83:	0f 2e 05 ec 07 00 00 	ucomiss 0x7ec(%rip),%xmm0        # 2476 <test_hysteresis_value+0x289>
    1c8a:	7a 09                	jp     1c95 <test_array_apply+0x14e>
    1c8c:	0f 2e 05 ec 07 00 00 	ucomiss 0x7ec(%rip),%xmm0        # 247f <test_hysteresis_value+0x292>
    1c93:	74 1f                	je     1cb4 <test_array_apply+0x16d>
    1c95:	41 b8 57 01 00 00    	mov    $0x157,%r8d
    1c9b:	48 8d 05 49 00 00 00 	lea    0x49(%rip),%rax        # 1ceb <test_array_apply+0x1a4>
    1ca2:	48 89 c2             	mov    %rax,%rdx
    1ca5:	48 8d 05 5a 00 00 00 	lea    0x5a(%rip),%rax        # 1d06 <test_array_apply+0x1bf>
    1cac:	48 89 c1             	mov    %rax,%rcx
    1caf:	e8 8f e3 ff ff       	call   43 <printf>
    1cb4:	f3 0f 10 45 cc       	movss  -0x34(%rbp),%xmm0
    1cb9:	0f 2e 05 f0 07 00 00 	ucomiss 0x7f0(%rip),%xmm0        # 24b0 <test_hysteresis_value+0x2c3>
    1cc0:	7a 09                	jp     1ccb <test_array_apply+0x184>
    1cc2:	0f 2e 05 f0 07 00 00 	ucomiss 0x7f0(%rip),%xmm0        # 24b9 <test_hysteresis_value+0x2cc>
    1cc9:	74 1f                	je     1cea <test_array_apply+0x1a3>
    1ccb:	41 b8 58 01 00 00    	mov    $0x158,%r8d
    1cd1:	48 8d 05 49 00 00 00 	lea    0x49(%rip),%rax        # 1d21 <test_array_apply+0x1da>
    1cd8:	48 89 c2             	mov    %rax,%rdx
    1cdb:	48 8d 05 5a 00 00 00 	lea    0x5a(%rip),%rax        # 1d3c <test_array_apply+0x1f5>
    1ce2:	48 89 c1             	mov    %rax,%rcx
    1ce5:	e8 59 e3 ff ff       	call   43 <printf>
    1cea:	f3 0f 10 45 d0       	movss  -0x30(%rbp),%xmm0
    1cef:	66 0f ef c9          	pxor   %xmm1,%xmm1
    1cf3:	0f 2e c1             	ucomiss %xmm1,%xmm0
    1cf6:	7a 09                	jp     1d01 <test_array_apply+0x1ba>
    1cf8:	66 0f ef c9          	pxor   %xmm1,%xmm1
    1cfc:	0f 2e c1             	ucomiss %xmm1,%xmm0
    1cff:	74 1f                	je     1d20 <test_array_apply+0x1d9>
    1d01:	41 b8 59 01 00 00    	mov    $0x159,%r8d
    1d07:	48 8d 05 49 00 00 00 	lea    0x49(%rip),%rax        # 1d57 <test_array_apply+0x210>
    1d0e:	48 89 c2             	mov    %rax,%rdx
    1d11:	48 8d 05 5a 00 00 00 	lea    0x5a(%rip),%rax        # 1d72 <test_array_apply+0x22b>
    1d18:	48 89 c1             	mov    %rax,%rcx
    1d1b:	e8 23 e3 ff ff       	call   43 <printf>
    1d20:	f3 0f 10 45 c0       	movss  -0x40(%rbp),%xmm0
    1d25:	0f 2e 05 9c 07 00 00 	ucomiss 0x79c(%rip),%xmm0        # 24c8 <test_hysteresis_value+0x2db>
    1d2c:	7a 09                	jp     1d37 <test_array_apply+0x1f0>
    1d2e:	0f 2e 05 9c 07 00 00 	ucomiss 0x79c(%rip),%xmm0        # 24d1 <test_hysteresis_value+0x2e4>
    1d35:	74 1f                	je     1d56 <test_array_apply+0x20f>
    1d37:	41 b8 5a 01 00 00    	mov    $0x15a,%r8d
    1d3d:	48 8d 05 49 00 00 00 	lea    0x49(%rip),%rax        # 1d8d <test_array_apply+0x246>
    1d44:	48 89 c2             	mov    %rax,%rdx
    1d47:	48 8d 05 5a 00 00 00 	lea    0x5a(%rip),%rax        # 1da8 <test_array_apply+0x261>
    1d4e:	48 89 c1             	mov    %rax,%rcx
    1d51:	e8 ed e2 ff ff       	call   43 <printf>
    1d56:	f3 0f 10 45 c4       	movss  -0x3c(%rbp),%xmm0
    1d5b:	0f 2e 05 b8 07 00 00 	ucomiss 0x7b8(%rip),%xmm0        # 251a <test_hysteresis_value+0x32d>
    1d62:	7a 09                	jp     1d6d <test_array_apply+0x226>
    1d64:	0f 2e 05 b8 07 00 00 	ucomiss 0x7b8(%rip),%xmm0        # 2523 <test_hysteresis_value+0x336>
    1d6b:	74 1f                	je     1d8c <test_array_apply+0x245>
    1d6d:	41 b8 5b 01 00 00    	mov    $0x15b,%r8d
    1d73:	48 8d 05 49 00 00 00 	lea    0x49(%rip),%rax        # 1dc3 <test_array_apply+0x27c>
    1d7a:	48 89 c2             	mov    %rax,%rdx
    1d7d:	48 8d 05 5a 00 00 00 	lea    0x5a(%rip),%rax        # 1dde <test_array_apply+0x297>
    1d84:	48 89 c1             	mov    %rax,%rcx
    1d87:	e8 b7 e2 ff ff       	call   43 <printf>
    1d8c:	f3 0f 10 45 c8       	movss  -0x38(%rbp),%xmm0
    1d91:	0f 2e 05 ec 07 00 00 	ucomiss 0x7ec(%rip),%xmm0        # 2584 <test_hysteresis_value+0x397>
    1d98:	7a 09                	jp     1da3 <test_array_apply+0x25c>
    1d9a:	0f 2e 05 ec 07 00 00 	ucomiss 0x7ec(%rip),%xmm0        # 258d <test_hysteresis_value+0x3a0>
    1da1:	74 1f                	je     1dc2 <test_array_apply+0x27b>
    1da3:	41 b8 5c 01 00 00    	mov    $0x15c,%r8d
    1da9:	48 8d 05 49 00 00 00 	lea    0x49(%rip),%rax        # 1df9 <test_array_apply+0x2b2>
    1db0:	48 89 c2             	mov    %rax,%rdx
    1db3:	48 8d 05 5a 00 00 00 	lea    0x5a(%rip),%rax        # 1e14 <test_array_apply+0x2cd>
    1dba:	48 89 c1             	mov    %rax,%rcx
    1dbd:	e8 81 e2 ff ff       	call   43 <printf>
    1dc2:	f3 0f 10 45 cc       	movss  -0x34(%rbp),%xmm0
    1dc7:	0f 2e 05 f0 07 00 00 	ucomiss 0x7f0(%rip),%xmm0        # 25be <test_hysteresis_value+0x3d1>
    1dce:	7a 09                	jp     1dd9 <test_array_apply+0x292>
    1dd0:	0f 2e 05 f0 07 00 00 	ucomiss 0x7f0(%rip),%xmm0        # 25c7 <test_hysteresis_value+0x3da>
    1dd7:	74 1f                	je     1df8 <test_array_apply+0x2b1>
    1dd9:	41 b8 5d 01 00 00    	mov    $0x15d,%r8d
    1ddf:	48 8d 05 49 00 00 00 	lea    0x49(%rip),%rax        # 1e2f <test_array_apply+0x2e8>
    1de6:	48 89 c2             	mov    %rax,%rdx
    1de9:	48 8d 05 5a 00 00 00 	lea    0x5a(%rip),%rax        # 1e4a <test_array_linlogspace+0x15>
    1df0:	48 89 c1             	mov    %rax,%rcx
    1df3:	e8 4b e2 ff ff       	call   43 <printf>
    1df8:	f3 0f 10 45 d0       	movss  -0x30(%rbp),%xmm0
    1dfd:	66 0f ef c9          	pxor   %xmm1,%xmm1
    1e01:	0f 2e c1             	ucomiss %xmm1,%xmm0
    1e04:	7a 09                	jp     1e0f <test_array_apply+0x2c8>
    1e06:	66 0f ef c9          	pxor   %xmm1,%xmm1
    1e0a:	0f 2e c1             	ucomiss %xmm1,%xmm0
    1e0d:	74 1f                	je     1e2e <test_array_apply+0x2e7>
    1e0f:	41 b8 5e 01 00 00    	mov    $0x15e,%r8d
    1e15:	48 8d 05 49 00 00 00 	lea    0x49(%rip),%rax        # 1e65 <test_array_linlogspace+0x30>
    1e1c:	48 89 c2             	mov    %rax,%rdx
    1e1f:	48 8d 05 5a 00 00 00 	lea    0x5a(%rip),%rax        # 1e80 <test_array_linlogspace+0x4b>
    1e26:	48 89 c1             	mov    %rax,%rcx
    1e29:	e8 15 e2 ff ff       	call   43 <printf>
    1e2e:	90                   	nop
    1e2f:	48 83 ec 80          	sub    $0xffffffffffffff80,%rsp
    1e33:	5d                   	pop    %rbp
    1e34:	c3                   	ret

0000000000001e35 <test_array_linlogspace>:
    1e35:	55                   	push   %rbp
    1e36:	48 89 e5             	mov    %rsp,%rbp
    1e39:	48 83 ec 40          	sub    $0x40,%rsp
    1e3d:	48 8d 05 80 03 00 00 	lea    0x380(%rip),%rax        # 21c4 <test_array_linlogspace+0x38f>
    1e44:	48 89 c1             	mov    %rax,%rcx
    1e47:	e8 f7 e1 ff ff       	call   43 <printf>
    1e4c:	66 0f ef c0          	pxor   %xmm0,%xmm0
    1e50:	0f 11 45 e0          	movups %xmm0,-0x20(%rbp)
    1e54:	66 0f 7e 45 f0       	movd   %xmm0,-0x10(%rbp)
    1e59:	48 8d 45 e0          	lea    -0x20(%rbp),%rax
    1e5d:	f3 0f 10 1d f4 07 00 	movss  0x7f4(%rip),%xmm3        # 2659 <test_hysteresis_value+0x46c>
    1e64:	00 
    1e65:	f3 0f 10 15 ac 07 00 	movss  0x7ac(%rip),%xmm2        # 2619 <test_hysteresis_value+0x42c>
    1e6c:	00 
    1e6d:	ba 04 00 00 00       	mov    $0x4,%edx
    1e72:	48 89 c1             	mov    %rax,%rcx
    1e75:	e8 00 00 00 00       	call   1e7a <test_array_linlogspace+0x45>
    1e7a:	f3 0f 10 45 e0       	movss  -0x20(%rbp),%xmm0
    1e7f:	0f 2e 05 ac 07 00 00 	ucomiss 0x7ac(%rip),%xmm0        # 2632 <test_hysteresis_value+0x445>
    1e86:	7a 09                	jp     1e91 <test_array_linlogspace+0x5c>
    1e88:	0f 2e 05 ac 07 00 00 	ucomiss 0x7ac(%rip),%xmm0        # 263b <test_hysteresis_value+0x44e>
    1e8f:	74 1f                	je     1eb0 <test_array_linlogspace+0x7b>
    1e91:	41 b8 66 01 00 00    	mov    $0x166,%r8d
    1e97:	48 8d 05 49 00 00 00 	lea    0x49(%rip),%rax        # 1ee7 <test_array_linlogspace+0xb2>
    1e9e:	48 89 c2             	mov    %rax,%rdx
    1ea1:	48 8d 05 5a 00 00 00 	lea    0x5a(%rip),%rax        # 1f02 <test_array_linlogspace+0xcd>
    1ea8:	48 89 c1             	mov    %rax,%rcx
    1eab:	e8 93 e1 ff ff       	call   43 <printf>
    1eb0:	f3 0f 10 45 e4       	movss  -0x1c(%rbp),%xmm0
    1eb5:	0f 2e 05 f8 07 00 00 	ucomiss 0x7f8(%rip),%xmm0        # 26b4 <test_hysteresis_value+0x4c7>
    1ebc:	7a 09                	jp     1ec7 <test_array_linlogspace+0x92>
    1ebe:	0f 2e 05 f8 07 00 00 	ucomiss 0x7f8(%rip),%xmm0        # 26bd <test_hysteresis_value+0x4d0>
    1ec5:	74 1f                	je     1ee6 <test_array_linlogspace+0xb1>
    1ec7:	41 b8 67 01 00 00    	mov    $0x167,%r8d
    1ecd:	48 8d 05 49 00 00 00 	lea    0x49(%rip),%rax        # 1f1d <test_array_linlogspace+0xe8>
    1ed4:	48 89 c2             	mov    %rax,%rdx
    1ed7:	48 8d 05 5a 00 00 00 	lea    0x5a(%rip),%rax        # 1f38 <test_array_linlogspace+0x103>
    1ede:	48 89 c1             	mov    %rax,%rcx
    1ee1:	e8 5d e1 ff ff       	call   43 <printf>
    1ee6:	f3 0f 10 45 e8       	movss  -0x18(%rbp),%xmm0
    1eeb:	0f 2e 05 fc 07 00 00 	ucomiss 0x7fc(%rip),%xmm0        # 26ee <test_hysteresis_value+0x501>
    1ef2:	7a 09                	jp     1efd <test_array_linlogspace+0xc8>
    1ef4:	0f 2e 05 fc 07 00 00 	ucomiss 0x7fc(%rip),%xmm0        # 26f7 <test_hysteresis_value+0x50a>
    1efb:	74 1f                	je     1f1c <test_array_linlogspace+0xe7>
    1efd:	41 b8 68 01 00 00    	mov    $0x168,%r8d
    1f03:	48 8d 05 49 00 00 00 	lea    0x49(%rip),%rax        # 1f53 <test_array_linlogspace+0x11e>
    1f0a:	48 89 c2             	mov    %rax,%rdx
    1f0d:	48 8d 05 5a 00 00 00 	lea    0x5a(%rip),%rax        # 1f6e <test_array_linlogspace+0x139>
    1f14:	48 89 c1             	mov    %rax,%rcx
    1f17:	e8 27 e1 ff ff       	call   43 <printf>
    1f1c:	f3 0f 10 45 ec       	movss  -0x14(%rbp),%xmm0
    1f21:	0f 2e 05 f4 07 00 00 	ucomiss 0x7f4(%rip),%xmm0        # 271c <test_hysteresis_value+0x52f>
    1f28:	7a 09                	jp     1f33 <test_array_linlogspace+0xfe>
    1f2a:	0f 2e 05 f4 07 00 00 	ucomiss 0x7f4(%rip),%xmm0        # 2725 <test_hysteresis_value+0x538>
    1f31:	74 1f                	je     1f52 <test_array_linlogspace+0x11d>
    1f33:	41 b8 69 01 00 00    	mov    $0x169,%r8d
    1f39:	48 8d 05 49 00 00 00 	lea    0x49(%rip),%rax        # 1f89 <test_array_linlogspace+0x154>
    1f40:	48 89 c2             	mov    %rax,%rdx
    1f43:	48 8d 05 5a 00 00 00 	lea    0x5a(%rip),%rax        # 1fa4 <test_array_linlogspace+0x16f>
    1f4a:	48 89 c1             	mov    %rax,%rcx
    1f4d:	e8 f1 e0 ff ff       	call   43 <printf>
    1f52:	f3 0f 10 45 f0       	movss  -0x10(%rbp),%xmm0
    1f57:	66 0f ef c9          	pxor   %xmm1,%xmm1
    1f5b:	0f 2e c1             	ucomiss %xmm1,%xmm0
    1f5e:	7a 09                	jp     1f69 <test_array_linlogspace+0x134>
    1f60:	66 0f ef c9          	pxor   %xmm1,%xmm1
    1f64:	0f 2e c1             	ucomiss %xmm1,%xmm0
    1f67:	74 1f                	je     1f88 <test_array_linlogspace+0x153>
    1f69:	41 b8 6a 01 00 00    	mov    $0x16a,%r8d
    1f6f:	48 8d 05 49 00 00 00 	lea    0x49(%rip),%rax        # 1fbf <test_array_linlogspace+0x18a>
    1f76:	48 89 c2             	mov    %rax,%rdx
    1f79:	48 8d 05 5a 00 00 00 	lea    0x5a(%rip),%rax        # 1fda <test_array_linlogspace+0x1a5>
    1f80:	48 89 c1             	mov    %rax,%rcx
    1f83:	e8 bb e0 ff ff       	call   43 <printf>
    1f88:	48 8d 45 e0          	lea    -0x20(%rbp),%rax
    1f8c:	f3 0f 10 1d 00 08 00 	movss  0x800(%rip),%xmm3        # 2794 <test_hysteresis_value+0x5a7>
    1f93:	00 
    1f94:	f3 0f 10 15 ac 07 00 	movss  0x7ac(%rip),%xmm2        # 2748 <test_hysteresis_value+0x55b>
    1f9b:	00 
    1f9c:	ba 05 00 00 00       	mov    $0x5,%edx
    1fa1:	48 89 c1             	mov    %rax,%rcx
    1fa4:	e8 00 00 00 00       	call   1fa9 <test_array_linlogspace+0x174>
    1fa9:	f3 0f 10 45 e0       	movss  -0x20(%rbp),%xmm0
    1fae:	0f 2e 05 ac 07 00 00 	ucomiss 0x7ac(%rip),%xmm0        # 2761 <test_hysteresis_value+0x574>
    1fb5:	7a 09                	jp     1fc0 <test_array_linlogspace+0x18b>
    1fb7:	0f 2e 05 ac 07 00 00 	ucomiss 0x7ac(%rip),%xmm0        # 276a <test_hysteresis_value+0x57d>
    1fbe:	74 1f                	je     1fdf <test_array_linlogspace+0x1aa>
    1fc0:	41 b8 6c 01 00 00    	mov    $0x16c,%r8d
    1fc6:	48 8d 05 49 00 00 00 	lea    0x49(%rip),%rax        # 2016 <test_array_linlogspace+0x1e1>
    1fcd:	48 89 c2             	mov    %rax,%rdx
    1fd0:	48 8d 05 5a 00 00 00 	lea    0x5a(%rip),%rax        # 2031 <test_array_linlogspace+0x1fc>
    1fd7:	48 89 c1             	mov    %rax,%rcx
    1fda:	e8 64 e0 ff ff       	call   43 <printf>
    1fdf:	f3 0f 10 45 e4       	movss  -0x1c(%rbp),%xmm0
    1fe4:	0f 2e 05 f8 07 00 00 	ucomiss 0x7f8(%rip),%xmm0        # 27e3 <test_hysteresis_value+0x5f6>
    1feb:	7a 09                	jp     1ff6 <test_array_linlogspace+0x1c1>
    1fed:	0f 2e 05 f8 07 00 00 	ucomiss 0x7f8(%rip),%xmm0        # 27ec <test_hysteresis_value+0x5ff>
    1ff4:	74 1f                	je     2015 <test_array_linlogspace+0x1e0>
    1ff6:	41 b8 6d 01 00 00    	mov    $0x16d,%r8d
    1ffc:	48 8d 05 49 00 00 00 	lea    0x49(%rip),%rax        # 204c <test_array_linlogspace+0x217>
    2003:	48 89 c2             	mov    %rax,%rdx
    2006:	48 8d 05 5a 00 00 00 	lea    0x5a(%rip),%rax        # 2067 <test_array_linlogspace+0x232>
    200d:	48 89 c1             	mov    %rax,%rcx
    2010:	e8 2e e0 ff ff       	call   43 <printf>
    2015:	f3 0f 10 45 e8       	movss  -0x18(%rbp),%xmm0
    201a:	0f 2e 05 fc 07 00 00 	ucomiss 0x7fc(%rip),%xmm0        # 281d <test_hysteresis_value+0x630>
    2021:	7a 09                	jp     202c <test_array_linlogspace+0x1f7>
    2023:	0f 2e 05 fc 07 00 00 	ucomiss 0x7fc(%rip),%xmm0        # 2826 <test_hysteresis_value+0x639>
    202a:	74 1f                	je     204b <test_array_linlogspace+0x216>
    202c:	41 b8 6e 01 00 00    	mov    $0x16e,%r8d
    2032:	48 8d 05 49 00 00 00 	lea    0x49(%rip),%rax        # 2082 <test_array_linlogspace+0x24d>
    2039:	48 89 c2             	mov    %rax,%rdx
    203c:	48 8d 05 5a 00 00 00 	lea    0x5a(%rip),%rax        # 209d <test_array_linlogspace+0x268>
    2043:	48 89 c1             	mov    %rax,%rcx
    2046:	e8 f8 df ff ff       	call   43 <printf>
    204b:	f3 0f 10 45 ec       	movss  -0x14(%rbp),%xmm0
    2050:	0f 2e 05 f4 07 00 00 	ucomiss 0x7f4(%rip),%xmm0        # 284b <test_hysteresis_value+0x65e>
    2057:	7a 09                	jp     2062 <test_array_linlogspace+0x22d>
    2059:	0f 2e 05 f4 07 00 00 	ucomiss 0x7f4(%rip),%xmm0        # 2854 <test_hysteresis_value+0x667>
    2060:	74 1f                	je     2081 <test_array_linlogspace+0x24c>
    2062:	41 b8 6f 01 00 00    	mov    $0x16f,%r8d
    2068:	48 8d 05 49 00 00 00 	lea    0x49(%rip),%rax        # 20b8 <test_array_linlogspace+0x283>
    206f:	48 89 c2             	mov    %rax,%rdx
    2072:	48 8d 05 5a 00 00 00 	lea    0x5a(%rip),%rax        # 20d3 <test_array_linlogspace+0x29e>
    2079:	48 89 c1             	mov    %rax,%rcx
    207c:	e8 c2 df ff ff       	call   43 <printf>
    2081:	f3 0f 10 45 f0       	movss  -0x10(%rbp),%xmm0
    2086:	0f 2e 05 00 08 00 00 	ucomiss 0x800(%rip),%xmm0        # 288d <test_hysteresis_value+0x6a0>
    208d:	7a 09                	jp     2098 <test_array_linlogspace+0x263>
    208f:	0f 2e 05 00 08 00 00 	ucomiss 0x800(%rip),%xmm0        # 2896 <test_hysteresis_value+0x6a9>
    2096:	74 1f                	je     20b7 <test_array_linlogspace+0x282>
    2098:	41 b8 70 01 00 00    	mov    $0x170,%r8d
    209e:	48 8d 05 49 00 00 00 	lea    0x49(%rip),%rax        # 20ee <test_array_linlogspace+0x2b9>
    20a5:	48 89 c2             	mov    %rax,%rdx
    20a8:	48 8d 05 5a 00 00 00 	lea    0x5a(%rip),%rax        # 2109 <test_array_linlogspace+0x2d4>
    20af:	48 89 c1             	mov    %rax,%rcx
    20b2:	e8 8c df ff ff       	call   43 <printf>
    20b7:	48 8d 45 e0          	lea    -0x20(%rbp),%rax
    20bb:	f3 0f 10 1d 9c 07 00 	movss  0x79c(%rip),%xmm3        # 285f <test_hysteresis_value+0x672>
    20c2:	00 
    20c3:	f3 0f 10 15 a0 07 00 	movss  0x7a0(%rip),%xmm2        # 286b <test_hysteresis_value+0x67e>
    20ca:	00 
    20cb:	ba 05 00 00 00       	mov    $0x5,%edx
    20d0:	48 89 c1             	mov    %rax,%rcx
    20d3:	e8 00 00 00 00       	call   20d8 <test_array_linlogspace+0x2a3>
    20d8:	f3 0f 10 45 e0       	movss  -0x20(%rbp),%xmm0
    20dd:	0f 2e 05 ac 07 00 00 	ucomiss 0x7ac(%rip),%xmm0        # 2890 <test_hysteresis_value+0x6a3>
    20e4:	7a 09                	jp     20ef <test_array_linlogspace+0x2ba>
    20e6:	0f 2e 05 ac 07 00 00 	ucomiss 0x7ac(%rip),%xmm0        # 2899 <test_hysteresis_value+0x6ac>
    20ed:	74 1f                	je     210e <test_array_linlogspace+0x2d9>
    20ef:	41 b8 72 01 00 00    	mov    $0x172,%r8d
    20f5:	48 8d 05 49 00 00 00 	lea    0x49(%rip),%rax        # 2145 <test_array_linlogspace+0x310>
    20fc:	48 89 c2             	mov    %rax,%rdx
    20ff:	48 8d 05 5a 00 00 00 	lea    0x5a(%rip),%rax        # 2160 <test_array_linlogspace+0x32b>
    2106:	48 89 c1             	mov    %rax,%rcx
    2109:	e8 35 df ff ff       	call   43 <printf>
    210e:	f3 0f 10 45 e4       	movss  -0x1c(%rbp),%xmm0
    2113:	0f 2e 05 04 08 00 00 	ucomiss 0x804(%rip),%xmm0        # 291e <test_hysteresis_list+0x4d>
    211a:	7a 09                	jp     2125 <test_array_linlogspace+0x2f0>
    211c:	0f 2e 05 04 08 00 00 	ucomiss 0x804(%rip),%xmm0        # 2927 <test_hysteresis_list+0x56>
    2123:	74 1f                	je     2144 <test_array_linlogspace+0x30f>
    2125:	41 b8 73 01 00 00    	mov    $0x173,%r8d
    212b:	48 8d 05 49 00 00 00 	lea    0x49(%rip),%rax        # 217b <test_array_linlogspace+0x346>
    2132:	48 89 c2             	mov    %rax,%rdx
    2135:	48 8d 05 5a 00 00 00 	lea    0x5a(%rip),%rax        # 2196 <test_array_linlogspace+0x361>
    213c:	48 89 c1             	mov    %rax,%rcx
    213f:	e8 ff de ff ff       	call   43 <printf>
    2144:	f3 0f 10 45 e8       	movss  -0x18(%rbp),%xmm0
    2149:	0f 2e 05 08 08 00 00 	ucomiss 0x808(%rip),%xmm0        # 2958 <test_hysteresis_list+0x87>
    2150:	7a 09                	jp     215b <test_array_linlogspace+0x326>
    2152:	0f 2e 05 08 08 00 00 	ucomiss 0x808(%rip),%xmm0        # 2961 <test_hysteresis_list+0x90>
    2159:	74 1f                	je     217a <test_array_linlogspace+0x345>
    215b:	41 b8 74 01 00 00    	mov    $0x174,%r8d
    2161:	48 8d 05 49 00 00 00 	lea    0x49(%rip),%rax        # 21b1 <test_array_linlogspace+0x37c>
    2168:	48 89 c2             	mov    %rax,%rdx
    216b:	48 8d 05 5a 00 00 00 	lea    0x5a(%rip),%rax        # 21cc <test_array_linlogspace+0x397>
    2172:	48 89 c1             	mov    %rax,%rcx
    2175:	e8 c9 de ff ff       	call   43 <printf>
    217a:	f3 0f 10 45 ec       	movss  -0x14(%rbp),%xmm0
    217f:	0f 2e 05 0c 08 00 00 	ucomiss 0x80c(%rip),%xmm0        # 2992 <test_hysteresis_list+0xc1>
    2186:	7a 09                	jp     2191 <test_array_linlogspace+0x35c>
    2188:	0f 2e 05 0c 08 00 00 	ucomiss 0x80c(%rip),%xmm0        # 299b <test_hysteresis_list+0xca>
    218f:	74 1f                	je     21b0 <test_array_linlogspace+0x37b>
    2191:	41 b8 75 01 00 00    	mov    $0x175,%r8d
    2197:	48 8d 05 49 00 00 00 	lea    0x49(%rip),%rax        # 21e7 <test_array_linlogspace+0x3b2>
    219e:	48 89 c2             	mov    %rax,%rdx
    21a1:	48 8d 05 5a 00 00 00 	lea    0x5a(%rip),%rax        # 2202 <test_hysteresis_value+0x15>
    21a8:	48 89 c1             	mov    %rax,%rcx
    21ab:	e8 93 de ff ff       	call   43 <printf>
    21b0:	f3 0f 10 45 f0       	movss  -0x10(%rbp),%xmm0
    21b5:	0f 2e 05 10 08 00 00 	ucomiss 0x810(%rip),%xmm0        # 29cc <test_hysteresis_list+0xfb>
    21bc:	7a 09                	jp     21c7 <test_array_linlogspace+0x392>
    21be:	0f 2e 05 10 08 00 00 	ucomiss 0x810(%rip),%xmm0        # 29d5 <test_hysteresis_list+0x104>
    21c5:	74 1f                	je     21e6 <test_array_linlogspace+0x3b1>
    21c7:	41 b8 76 01 00 00    	mov    $0x176,%r8d
    21cd:	48 8d 05 49 00 00 00 	lea    0x49(%rip),%rax        # 221d <test_hysteresis_value+0x30>
    21d4:	48 89 c2             	mov    %rax,%rdx
    21d7:	48 8d 05 5a 00 00 00 	lea    0x5a(%rip),%rax        # 2238 <test_hysteresis_value+0x4b>
    21de:	48 89 c1             	mov    %rax,%rcx
    21e1:	e8 5d de ff ff       	call   43 <printf>
    21e6:	90                   	nop
    21e7:	48 83 c4 40          	add    $0x40,%rsp
    21eb:	5d                   	pop    %rbp
    21ec:	c3                   	ret

00000000000021ed <test_hysteresis_value>:
    21ed:	55                   	push   %rbp
    21ee:	48 89 e5             	mov    %rsp,%rbp
    21f1:	48 83 ec 40          	sub    $0x40,%rsp
    21f5:	48 8d 05 b0 03 00 00 	lea    0x3b0(%rip),%rax        # 25ac <test_hysteresis_value+0x3bf>
    21fc:	48 89 c1             	mov    %rax,%rcx
    21ff:	e8 3f de ff ff       	call   43 <printf>
    2204:	c6 45 f4 00          	movb   $0x0,-0xc(%rbp)
    2208:	f3 0f 10 05 a8 07 00 	movss  0x7a8(%rip),%xmm0        # 29b8 <test_hysteresis_list+0xe7>
    220f:	00 
    2210:	f3 0f 11 45 f8       	movss  %xmm0,-0x8(%rbp)
    2215:	f3 0f 10 05 a0 07 00 	movss  0x7a0(%rip),%xmm0        # 29bd <test_hysteresis_list+0xec>
    221c:	00 
    221d:	f3 0f 11 45 fc       	movss  %xmm0,-0x4(%rbp)
    2222:	48 8d 45 f4          	lea    -0xc(%rbp),%rax
    2226:	48 89 c1             	mov    %rax,%rcx
    2229:	e8 00 00 00 00       	call   222e <test_hysteresis_value+0x41>
    222e:	48 8d 45 f4          	lea    -0xc(%rbp),%rax
    2232:	f3 0f 10 0d bc 07 00 	movss  0x7bc(%rip),%xmm1        # 29f6 <test_hysteresis_list+0x125>
    2239:	00 
    223a:	48 89 c1             	mov    %rax,%rcx
    223d:	e8 00 00 00 00       	call   2242 <test_hysteresis_value+0x55>
    2242:	84 c0                	test   %al,%al
    2244:	74 1f                	je     2265 <test_hysteresis_value+0x78>
    2246:	41 b8 7e 01 00 00    	mov    $0x17e,%r8d
    224c:	48 8d 05 49 00 00 00 	lea    0x49(%rip),%rax        # 229c <test_hysteresis_value+0xaf>
    2253:	48 89 c2             	mov    %rax,%rdx
    2256:	48 8d 05 5a 00 00 00 	lea    0x5a(%rip),%rax        # 22b7 <test_hysteresis_value+0xca>
    225d:	48 89 c1             	mov    %rax,%rcx
    2260:	e8 de dd ff ff       	call   43 <printf>
    2265:	48 8d 45 f4          	lea    -0xc(%rbp),%rax
    2269:	f3 0f 10 0d bc 07 00 	movss  0x7bc(%rip),%xmm1        # 2a2d <test_hysteresis_list+0x15c>
    2270:	00 
    2271:	48 89 c1             	mov    %rax,%rcx
    2274:	e8 00 00 00 00       	call   2279 <test_hysteresis_value+0x8c>
    2279:	84 c0                	test   %al,%al
    227b:	74 1f                	je     229c <test_hysteresis_value+0xaf>
    227d:	41 b8 7f 01 00 00    	mov    $0x17f,%r8d
    2283:	48 8d 05 49 00 00 00 	lea    0x49(%rip),%rax        # 22d3 <test_hysteresis_value+0xe6>
    228a:	48 89 c2             	mov    %rax,%rdx
    228d:	48 8d 05 5a 00 00 00 	lea    0x5a(%rip),%rax        # 22ee <test_hysteresis_value+0x101>
    2294:	48 89 c1             	mov    %rax,%rcx
    2297:	e8 a7 dd ff ff       	call   43 <printf>
    229c:	48 8d 45 f4          	lea    -0xc(%rbp),%rax
    22a0:	f3 0f 10 0d a8 07 00 	movss  0x7a8(%rip),%xmm1        # 2a50 <test_hysteresis_list+0x17f>
    22a7:	00 
    22a8:	48 89 c1             	mov    %rax,%rcx
    22ab:	e8 00 00 00 00       	call   22b0 <test_hysteresis_value+0xc3>
    22b0:	84 c0                	test   %al,%al
    22b2:	74 1f                	je     22d3 <test_hysteresis_value+0xe6>
    22b4:	41 b8 80 01 00 00    	mov    $0x180,%r8d
    22ba:	48 8d 05 49 00 00 00 	lea    0x49(%rip),%rax        # 230a <test_hysteresis_value+0x11d>
    22c1:	48 89 c2             	mov    %rax,%rdx
    22c4:	48 8d 05 5a 00 00 00 	lea    0x5a(%rip),%rax        # 2325 <test_hysteresis_value+0x138>
    22cb:	48 89 c1             	mov    %rax,%rcx
    22ce:	e8 70 dd ff ff       	call   43 <printf>
    22d3:	48 8d 45 f4          	lea    -0xc(%rbp),%rax
    22d7:	66 0f ef c9          	pxor   %xmm1,%xmm1
    22db:	48 89 c1             	mov    %rax,%rcx
    22de:	e8 00 00 00 00       	call   22e3 <test_hysteresis_value+0xf6>
    22e3:	84 c0                	test   %al,%al
    22e5:	74 1f                	je     2306 <test_hysteresis_value+0x119>
    22e7:	41 b8 81 01 00 00    	mov    $0x181,%r8d
    22ed:	48 8d 05 49 00 00 00 	lea    0x49(%rip),%rax        # 233d <test_hysteresis_value+0x150>
    22f4:	48 89 c2             	mov    %rax,%rdx
    22f7:	48 8d 05 5a 00 00 00 	lea    0x5a(%rip),%rax        # 2358 <test_hysteresis_value+0x16b>
    22fe:	48 89 c1             	mov    %rax,%rcx
    2301:	e8 3d dd ff ff       	call   43 <printf>
    2306:	48 8d 45 f4          	lea    -0xc(%rbp),%rax
    230a:	f3 0f 10 0d a0 07 00 	movss  0x7a0(%rip),%xmm1        # 2ab2 <test_hysteresis_list+0x1e1>
    2311:	00 
    2312:	48 89 c1             	mov    %rax,%rcx
    2315:	e8 00 00 00 00       	call   231a <test_hysteresis_value+0x12d>
    231a:	84 c0                	test   %al,%al
    231c:	74 1f                	je     233d <test_hysteresis_value+0x150>
    231e:	41 b8 82 01 00 00    	mov    $0x182,%r8d
    2324:	48 8d 05 49 00 00 00 	lea    0x49(%rip),%rax        # 2374 <test_hysteresis_value+0x187>
    232b:	48 89 c2             	mov    %rax,%rdx
    232e:	48 8d 05 5a 00 00 00 	lea    0x5a(%rip),%rax        # 238f <test_hysteresis_value+0x1a2>
    2335:	48 89 c1             	mov    %rax,%rcx
    2338:	e8 06 dd ff ff       	call   43 <printf>
    233d:	48 8d 45 f4          	lea    -0xc(%rbp),%rax
    2341:	f3 0f 10 0d 9c 07 00 	movss  0x79c(%rip),%xmm1        # 2ae5 <test_hysteresis_list+0x214>
    2348:	00 
    2349:	48 89 c1             	mov    %rax,%rcx
    234c:	e8 00 00 00 00       	call   2351 <test_hysteresis_value+0x164>
    2351:	83 f0 01             	xor    $0x1,%eax
    2354:	84 c0                	test   %al,%al
    2356:	74 1f                	je     2377 <test_hysteresis_value+0x18a>
    2358:	41 b8 83 01 00 00    	mov    $0x183,%r8d
    235e:	48 8d 05 49 00 00 00 	lea    0x49(%rip),%rax        # 23ae <test_hysteresis_value+0x1c1>
    2365:	48 89 c2             	mov    %rax,%rdx
    2368:	48 8d 05 5a 00 00 00 	lea    0x5a(%rip),%rax        # 23c9 <test_hysteresis_value+0x1dc>
    236f:	48 89 c1             	mov    %rax,%rcx
    2372:	e8 cc dc ff ff       	call   43 <printf>
    2377:	48 8d 45 f4          	lea    -0xc(%rbp),%rax
    237b:	f3 0f 10 0d 9c 07 00 	movss  0x79c(%rip),%xmm1        # 2b1f <test_hysteresis_list+0x24e>
    2382:	00 
    2383:	48 89 c1             	mov    %rax,%rcx
    2386:	e8 00 00 00 00       	call   238b <test_hysteresis_value+0x19e>
    238b:	83 f0 01             	xor    $0x1,%eax
    238e:	84 c0                	test   %al,%al
    2390:	74 1f                	je     23b1 <test_hysteresis_value+0x1c4>
    2392:	41 b8 84 01 00 00    	mov    $0x184,%r8d
    2398:	48 8d 05 49 00 00 00 	lea    0x49(%rip),%rax        # 23e8 <test_hysteresis_value+0x1fb>
    239f:	48 89 c2             	mov    %rax,%rdx
    23a2:	48 8d 05 5a 00 00 00 	lea    0x5a(%rip),%rax        # 2403 <test_hysteresis_value+0x216>
    23a9:	48 89 c1             	mov    %rax,%rcx
    23ac:	e8 92 dc ff ff       	call   43 <printf>
    23b1:	48 8d 45 f4          	lea    -0xc(%rbp),%rax
    23b5:	f3 0f 10 0d a0 07 00 	movss  0x7a0(%rip),%xmm1        # 2b5d <test_hysteresis_list+0x28c>
    23bc:	00 
    23bd:	48 89 c1             	mov    %rax,%rcx
    23c0:	e8 00 00 00 00       	call   23c5 <test_hysteresis_value+0x1d8>
    23c5:	83 f0 01             	xor    $0x1,%eax
    23c8:	84 c0                	test   %al,%al
    23ca:	74 1f                	je     23eb <test_hysteresis_value+0x1fe>
    23cc:	41 b8 85 01 00 00    	mov    $0x185,%r8d
    23d2:	48 8d 05 49 00 00 00 	lea    0x49(%rip),%rax        # 2422 <test_hysteresis_value+0x235>
    23d9:	48 89 c2             	mov    %rax,%rdx
    23dc:	48 8d 05 5a 00 00 00 	lea    0x5a(%rip),%rax        # 243d <test_hysteresis_value+0x250>
    23e3:	48 89 c1             	mov    %rax,%rcx
    23e6:	e8 58 dc ff ff       	call   43 <printf>
    23eb:	48 8d 45 f4          	lea    -0xc(%rbp),%rax
    23ef:	66 0f ef c9          	pxor   %xmm1,%xmm1
    23f3:	48 89 c1             	mov    %rax,%rcx
    23f6:	e8 00 00 00 00       	call   23fb <test_hysteresis_value+0x20e>
    23fb:	83 f0 01             	xor    $0x1,%eax
    23fe:	84 c0                	test   %al,%al
    2400:	74 1f                	je     2421 <test_hysteresis_value+0x234>
    2402:	41 b8 86 01 00 00    	mov    $0x186,%r8d
    2408:	48 8d 05 49 00 00 00 	lea    0x49(%rip),%rax        # 2458 <test_hysteresis_value+0x26b>
    240f:	48 89 c2             	mov    %rax,%rdx
    2412:	48 8d 05 5a 00 00 00 	lea    0x5a(%rip),%rax        # 2473 <test_hysteresis_value+0x286>
    2419:	48 89 c1             	mov    %rax,%rcx
    241c:	e8 22 dc ff ff       	call   43 <printf>
    2421:	48 8d 45 f4          	lea    -0xc(%rbp),%rax
    2425:	f3 0f 10 0d a8 07 00 	movss  0x7a8(%rip),%xmm1        # 2bd5 <test_hysteresis_list+0x304>
    242c:	00 
    242d:	48 89 c1             	mov    %rax,%rcx
    2430:	e8 00 00 00 00       	call   2435 <test_hysteresis_value+0x248>
    2435:	83 f0 01             	xor    $0x1,%eax
    2438:	84 c0                	test   %al,%al
    243a:	74 1f                	je     245b <test_hysteresis_value+0x26e>
    243c:	41 b8 87 01 00 00    	mov    $0x187,%r8d
    2442:	48 8d 05 49 00 00 00 	lea    0x49(%rip),%rax        # 2492 <test_hysteresis_value+0x2a5>
    2449:	48 89 c2             	mov    %rax,%rdx
    244c:	48 8d 05 5a 00 00 00 	lea    0x5a(%rip),%rax        # 24ad <test_hysteresis_value+0x2c0>
    2453:	48 89 c1             	mov    %rax,%rcx
    2456:	e8 e8 db ff ff       	call   43 <printf>
    245b:	48 8d 45 f4          	lea    -0xc(%rbp),%rax
    245f:	f3 0f 10 0d bc 07 00 	movss  0x7bc(%rip),%xmm1        # 2c23 <test_hysteresis_list+0x352>
    2466:	00 
    2467:	48 89 c1             	mov    %rax,%rcx
    246a:	e8 00 00 00 00       	call   246f <test_hysteresis_value+0x282>
    246f:	84 c0                	test   %al,%al
    2471:	74 1f                	je     2492 <test_hysteresis_value+0x2a5>
    2473:	41 b8 88 01 00 00    	mov    $0x188,%r8d
    2479:	48 8d 05 49 00 00 00 	lea    0x49(%rip),%rax        # 24c9 <test_hysteresis_value+0x2dc>
    2480:	48 89 c2             	mov    %rax,%rdx
    2483:	48 8d 05 5a 00 00 00 	lea    0x5a(%rip),%rax        # 24e4 <test_hysteresis_value+0x2f7>
    248a:	48 89 c1             	mov    %rax,%rcx
    248d:	e8 b1 db ff ff       	call   43 <printf>
    2492:	48 8d 45 f4          	lea    -0xc(%rbp),%rax
    2496:	f3 0f 10 0d bc 07 00 	movss  0x7bc(%rip),%xmm1        # 2c5a <test_hysteresis_list+0x389>
    249d:	00 
    249e:	48 89 c1             	mov    %rax,%rcx
    24a1:	e8 00 00 00 00       	call   24a6 <test_hysteresis_value+0x2b9>
    24a6:	84 c0                	test   %al,%al
    24a8:	74 1f                	je     24c9 <test_hysteresis_value+0x2dc>
    24aa:	41 b8 89 01 00 00    	mov    $0x189,%r8d
    24b0:	48 8d 05 49 00 00 00 	lea    0x49(%rip),%rax        # 2500 <test_hysteresis_value+0x313>
    24b7:	48 89 c2             	mov    %rax,%rdx
    24ba:	48 8d 05 5a 00 00 00 	lea    0x5a(%rip),%rax        # 251b <test_hysteresis_value+0x32e>
    24c1:	48 89 c1             	mov    %rax,%rcx
    24c4:	e8 7a db ff ff       	call   43 <printf>
    24c9:	c6 45 e8 00          	movb   $0x0,-0x18(%rbp)
    24cd:	f3 0f 10 05 a8 07 00 	movss  0x7a8(%rip),%xmm0        # 2c7d <test_hysteresis_list+0x3ac>
    24d4:	00 
    24d5:	f3 0f 11 45 ec       	movss  %xmm0,-0x14(%rbp)
    24da:	f3 0f 10 05 a0 07 00 	movss  0x7a0(%rip),%xmm0        # 2c82 <test_hysteresis_list+0x3b1>
    24e1:	00 
    24e2:	f3 0f 11 45 f0       	movss  %xmm0,-0x10(%rbp)
    24e7:	f3 0f 10 4d f0       	movss  -0x10(%rbp),%xmm1
    24ec:	f3 0f 10 05 bc 07 00 	movss  0x7bc(%rip),%xmm0        # 2cb0 <test_hysteresis_list+0x3df>
    24f3:	00 
    24f4:	0f 2f c1             	comiss %xmm1,%xmm0
    24f7:	76 06                	jbe    24ff <test_hysteresis_value+0x312>
    24f9:	c6 45 e8 01          	movb   $0x1,-0x18(%rbp)
    24fd:	eb 12                	jmp    2511 <test_hysteresis_value+0x324>
    24ff:	f3 0f 10 45 ec       	movss  -0x14(%rbp),%xmm0
    2504:	0f 2f 05 bc 07 00 00 	comiss 0x7bc(%rip),%xmm0        # 2cc7 <test_debounce+0x5>
    250b:	76 04                	jbe    2511 <test_hysteresis_value+0x324>
    250d:	c6 45 e8 00          	movb   $0x0,-0x18(%rbp)
    2511:	0f b6 45 e8          	movzbl -0x18(%rbp),%eax
    2515:	84 c0                	test   %al,%al
    2517:	74 1f                	je     2538 <test_hysteresis_value+0x34b>
    2519:	41 b8 8e 01 00 00    	mov    $0x18e,%r8d
    251f:	48 8d 05 49 00 00 00 	lea    0x49(%rip),%rax        # 256f <test_hysteresis_value+0x382>
    2526:	48 89 c2             	mov    %rax,%rdx
    2529:	48 8d 05 5a 00 00 00 	lea    0x5a(%rip),%rax        # 258a <test_hysteresis_value+0x39d>
    2530:	48 89 c1             	mov    %rax,%rcx
    2533:	e8 0b db ff ff       	call   43 <printf>
    2538:	f3 0f 10 4d f0       	movss  -0x10(%rbp),%xmm1
    253d:	f3 0f 10 05 bc 07 00 	movss  0x7bc(%rip),%xmm0        # 2d01 <test_debounce+0x3f>
    2544:	00 
    2545:	0f 2f c1             	comiss %xmm1,%xmm0
    2548:	76 06                	jbe    2550 <test_hysteresis_value+0x363>
    254a:	c6 45 e8 01          	movb   $0x1,-0x18(%rbp)
    254e:	eb 12                	jmp    2562 <test_hysteresis_value+0x375>
    2550:	f3 0f 10 45 ec       	movss  -0x14(%rbp),%xmm0
    2555:	0f 2f 05 bc 07 00 00 	comiss 0x7bc(%rip),%xmm0        # 2d18 <test_debounce+0x56>
    255c:	76 04                	jbe    2562 <test_hysteresis_value+0x375>
    255e:	c6 45 e8 00          	movb   $0x0,-0x18(%rbp)
    2562:	0f b6 45 e8          	movzbl -0x18(%rbp),%eax
    2566:	84 c0                	test   %al,%al
    2568:	74 1f                	je     2589 <test_hysteresis_value+0x39c>
    256a:	41 b8 90 01 00 00    	mov    $0x190,%r8d
    2570:	48 8d 05 49 00 00 00 	lea    0x49(%rip),%rax        # 25c0 <test_hysteresis_value+0x3d3>
    2577:	48 89 c2             	mov    %rax,%rdx
    257a:	48 8d 05 5a 00 00 00 	lea    0x5a(%rip),%rax        # 25db <test_hysteresis_value+0x3ee>
    2581:	48 89 c1             	mov    %rax,%rcx
    2584:	e8 ba da ff ff       	call   43 <printf>
    2589:	f3 0f 10 4d f0       	movss  -0x10(%rbp),%xmm1
    258e:	f3 0f 10 05 a8 07 00 	movss  0x7a8(%rip),%xmm0        # 2d3e <test_debounce+0x7c>
    2595:	00 
    2596:	0f 2f c1             	comiss %xmm1,%xmm0
    2599:	76 06                	jbe    25a1 <test_hysteresis_value+0x3b4>
    259b:	c6 45 e8 01          	movb   $0x1,-0x18(%rbp)
    259f:	eb 16                	jmp    25b7 <test_hysteresis_value+0x3ca>
    25a1:	f3 0f 10 45 ec       	movss  -0x14(%rbp),%xmm0
    25a6:	f3 0f 10 0d a8 07 00 	movss  0x7a8(%rip),%xmm1        # 2d56 <test_debounce+0x94>
    25ad:	00 
    25ae:	0f 2f c1             	comiss %xmm1,%xmm0
    25b1:	76 04                	jbe    25b7 <test_hysteresis_value+0x3ca>
    25b3:	c6 45 e8 00          	movb   $0x0,-0x18(%rbp)
    25b7:	0f b6 45 e8          	movzbl -0x18(%rbp),%eax
    25bb:	84 c0                	test   %al,%al
    25bd:	74 1f                	je     25de <test_hysteresis_value+0x3f1>
    25bf:	41 b8 92 01 00 00    	mov    $0x192,%r8d
    25c5:	48 8d 05 49 00 00 00 	lea    0x49(%rip),%rax        # 2615 <test_hysteresis_value+0x428>
    25cc:	48 89 c2             	mov    %rax,%rdx
    25cf:	48 8d 05 5a 00 00 00 	lea    0x5a(%rip),%rax        # 2630 <test_hysteresis_value+0x443>
    25d6:	48 89 c1             	mov    %rax,%rcx
    25d9:	e8 65 da ff ff       	call   43 <printf>
    25de:	f3 0f 10 4d f0       	movss  -0x10(%rbp),%xmm1
    25e3:	66 0f ef c0          	pxor   %xmm0,%xmm0
    25e7:	0f 2f c1             	comiss %xmm1,%xmm0
    25ea:	76 06                	jbe    25f2 <test_hysteresis_value+0x405>
    25ec:	c6 45 e8 01          	movb   $0x1,-0x18(%rbp)
    25f0:	eb 12                	jmp    2604 <test_hysteresis_value+0x417>
    25f2:	f3 0f 10 45 ec       	movss  -0x14(%rbp),%xmm0
    25f7:	66 0f ef c9          	pxor   %xmm1,%xmm1
    25fb:	0f 2f c1             	comiss %xmm1,%xmm0
    25fe:	76 04                	jbe    2604 <test_hysteresis_value+0x417>
    2600:	c6 45 e8 00          	movb   $0x0,-0x18(%rbp)
    2604:	0f b6 45 e8          	movzbl -0x18(%rbp),%eax
    2608:	84 c0                	test   %al,%al
    260a:	74 1f                	je     262b <test_hysteresis_value+0x43e>
    260c:	41 b8 94 01 00 00    	mov    $0x194,%r8d
    2612:	48 8d 05 49 00 00 00 	lea    0x49(%rip),%rax        # 2662 <test_hysteresis_value+0x475>
    2619:	48 89 c2             	mov    %rax,%rdx
    261c:	48 8d 05 5a 00 00 00 	lea    0x5a(%rip),%rax        # 267d <test_hysteresis_value+0x490>
    2623:	48 89 c1             	mov    %rax,%rcx
    2626:	e8 18 da ff ff       	call   43 <printf>
    262b:	f3 0f 10 4d f0       	movss  -0x10(%rbp),%xmm1
    2630:	f3 0f 10 05 a0 07 00 	movss  0x7a0(%rip),%xmm0        # 2dd8 <test_debounce+0x116>
    2637:	00 
    2638:	0f 2f c1             	comiss %xmm1,%xmm0
    263b:	76 06                	jbe    2643 <test_hysteresis_value+0x456>
    263d:	c6 45 e8 01          	movb   $0x1,-0x18(%rbp)
    2641:	eb 16                	jmp    2659 <test_hysteresis_value+0x46c>
    2643:	f3 0f 10 45 ec       	movss  -0x14(%rbp),%xmm0
    2648:	f3 0f 10 0d a0 07 00 	movss  0x7a0(%rip),%xmm1        # 2df0 <test_debounce+0x12e>
    264f:	00 
    2650:	0f 2f c1             	comiss %xmm1,%xmm0
    2653:	76 04                	jbe    2659 <test_hysteresis_value+0x46c>
    2655:	c6 45 e8 00          	movb   $0x0,-0x18(%rbp)
    2659:	0f b6 45 e8          	movzbl -0x18(%rbp),%eax
    265d:	84 c0                	test   %al,%al
    265f:	74 1f                	je     2680 <test_hysteresis_value+0x493>
    2661:	41 b8 96 01 00 00    	mov    $0x196,%r8d
    2667:	48 8d 05 49 00 00 00 	lea    0x49(%rip),%rax        # 26b7 <test_hysteresis_value+0x4ca>
    266e:	48 89 c2             	mov    %rax,%rdx
    2671:	48 8d 05 5a 00 00 00 	lea    0x5a(%rip),%rax        # 26d2 <test_hysteresis_value+0x4e5>
    2678:	48 89 c1             	mov    %rax,%rcx
    267b:	e8 c3 d9 ff ff       	call   43 <printf>
    2680:	f3 0f 10 4d f0       	movss  -0x10(%rbp),%xmm1
    2685:	f3 0f 10 05 9c 07 00 	movss  0x79c(%rip),%xmm0        # 2e29 <test_debounce+0x167>
    268c:	00 
    268d:	0f 2f c1             	comiss %xmm1,%xmm0
    2690:	76 06                	jbe    2698 <test_hysteresis_value+0x4ab>
    2692:	c6 45 e8 01          	movb   $0x1,-0x18(%rbp)
    2696:	eb 12                	jmp    26aa <test_hysteresis_value+0x4bd>
    2698:	f3 0f 10 45 ec       	movss  -0x14(%rbp),%xmm0
    269d:	0f 2f 05 9c 07 00 00 	comiss 0x79c(%rip),%xmm0        # 2e40 <test_debounce+0x17e>
    26a4:	76 04                	jbe    26aa <test_hysteresis_value+0x4bd>
    26a6:	c6 45 e8 00          	movb   $0x0,-0x18(%rbp)
    26aa:	0f b6 45 e8          	movzbl -0x18(%rbp),%eax
    26ae:	83 f0 01             	xor    $0x1,%eax
    26b1:	84 c0                	test   %al,%al
    26b3:	74 1f                	je     26d4 <test_hysteresis_value+0x4e7>
    26b5:	41 b8 98 01 00 00    	mov    $0x198,%r8d
    26bb:	48 8d 05 49 00 00 00 	lea    0x49(%rip),%rax        # 270b <test_hysteresis_value+0x51e>
    26c2:	48 89 c2             	mov    %rax,%rdx
    26c5:	48 8d 05 5a 00 00 00 	lea    0x5a(%rip),%rax        # 2726 <test_hysteresis_value+0x539>
    26cc:	48 89 c1             	mov    %rax,%rcx
    26cf:	e8 6f d9 ff ff       	call   43 <printf>
    26d4:	f3 0f 10 4d f0       	movss  -0x10(%rbp),%xmm1
    26d9:	f3 0f 10 05 9c 07 00 	movss  0x79c(%rip),%xmm0        # 2e7d <test_debounce+0x1bb>
    26e0:	00 
    26e1:	0f 2f c1             	comiss %xmm1,%xmm0
    26e4:	76 06                	jbe    26ec <test_hysteresis_value+0x4ff>
    26e6:	c6 45 e8 01          	movb   $0x1,-0x18(%rbp)
    26ea:	eb 12                	jmp    26fe <test_hysteresis_value+0x511>
    26ec:	f3 0f 10 45 ec       	movss  -0x14(%rbp),%xmm0
    26f1:	0f 2f 05 9c 07 00 00 	comiss 0x79c(%rip),%xmm0        # 2e94 <test_debounce+0x1d2>
    26f8:	76 04                	jbe    26fe <test_hysteresis_value+0x511>
    26fa:	c6 45 e8 00          	movb   $0x0,-0x18(%rbp)
    26fe:	0f b6 45 e8          	movzbl -0x18(%rbp),%eax
    2702:	83 f0 01             	xor    $0x1,%eax
    2705:	84 c0                	test   %al,%al
    2707:	74 1f                	je     2728 <test_hysteresis_value+0x53b>
    2709:	41 b8 9a 01 00 00    	mov    $0x19a,%r8d
    270f:	48 8d 05 49 00 00 00 	lea    0x49(%rip),%rax        # 275f <test_hysteresis_value+0x572>
    2716:	48 89 c2             	mov    %rax,%rdx
    2719:	48 8d 05 5a 00 00 00 	lea    0x5a(%rip),%rax        # 277a <test_hysteresis_value+0x58d>
    2720:	48 89 c1             	mov    %rax,%rcx
    2723:	e8 1b d9 ff ff       	call   43 <printf>
    2728:	f3 0f 10 4d f0       	movss  -0x10(%rbp),%xmm1
    272d:	f3 0f 10 05 a0 07 00 	movss  0x7a0(%rip),%xmm0        # 2ed5 <test_debounce+0x213>
    2734:	00 
    2735:	0f 2f c1             	comiss %xmm1,%xmm0
    2738:	76 06                	jbe    2740 <test_hysteresis_value+0x553>
    273a:	c6 45 e8 01          	movb   $0x1,-0x18(%rbp)
    273e:	eb 16                	jmp    2756 <test_hysteresis_value+0x569>
    2740:	f3 0f 10 45 ec       	movss  -0x14(%rbp),%xmm0
    2745:	f3 0f 10 0d a0 07 00 	movss  0x7a0(%rip),%xmm1        # 2eed <test_debounce+0x22b>
    274c:	00 
    274d:	0f 2f c1             	comiss %xmm1,%xmm0
    2750:	76 04                	jbe    2756 <test_hysteresis_value+0x569>
    2752:	c6 45 e8 00          	movb   $0x0,-0x18(%rbp)
    2756:	0f b6 45 e8          	movzbl -0x18(%rbp),%eax
    275a:	83 f0 01             	xor    $0x1,%eax
    275d:	84 c0                	test   %al,%al
    275f:	74 1f                	je     2780 <test_hysteresis_value+0x593>
    2761:	41 b8 9c 01 00 00    	mov    $0x19c,%r8d
    2767:	48 8d 05 49 00 00 00 	lea    0x49(%rip),%rax        # 27b7 <test_hysteresis_value+0x5ca>
    276e:	48 89 c2             	mov    %rax,%rdx
    2771:	48 8d 05 5a 00 00 00 	lea    0x5a(%rip),%rax        # 27d2 <test_hysteresis_value+0x5e5>
    2778:	48 89 c1             	mov    %rax,%rcx
    277b:	e8 c3 d8 ff ff       	call   43 <printf>
    2780:	f3 0f 10 4d f0       	movss  -0x10(%rbp),%xmm1
    2785:	66 0f ef c0          	pxor   %xmm0,%xmm0
    2789:	0f 2f c1             	comiss %xmm1,%xmm0
    278c:	76 06                	jbe    2794 <test_hysteresis_value+0x5a7>
    278e:	c6 45 e8 01          	movb   $0x1,-0x18(%rbp)
    2792:	eb 12                	jmp    27a6 <test_hysteresis_value+0x5b9>
    2794:	f3 0f 10 45 ec       	movss  -0x14(%rbp),%xmm0
    2799:	66 0f ef c9          	pxor   %xmm1,%xmm1
    279d:	0f 2f c1             	comiss %xmm1,%xmm0
    27a0:	76 04                	jbe    27a6 <test_hysteresis_value+0x5b9>
    27a2:	c6 45 e8 00          	movb   $0x0,-0x18(%rbp)
    27a6:	0f b6 45 e8          	movzbl -0x18(%rbp),%eax
    27aa:	83 f0 01             	xor    $0x1,%eax
    27ad:	84 c0                	test   %al,%al
    27af:	74 1f                	je     27d0 <test_hysteresis_value+0x5e3>
    27b1:	41 b8 9e 01 00 00    	mov    $0x19e,%r8d
    27b7:	48 8d 05 49 00 00 00 	lea    0x49(%rip),%rax        # 2807 <test_hysteresis_value+0x61a>
    27be:	48 89 c2             	mov    %rax,%rdx
    27c1:	48 8d 05 5a 00 00 00 	lea    0x5a(%rip),%rax        # 2822 <test_hysteresis_value+0x635>
    27c8:	48 89 c1             	mov    %rax,%rcx
    27cb:	e8 73 d8 ff ff       	call   43 <printf>
    27d0:	f3 0f 10 4d f0       	movss  -0x10(%rbp),%xmm1
    27d5:	f3 0f 10 05 a8 07 00 	movss  0x7a8(%rip),%xmm0        # 2f85 <test_debounce+0x2c3>
    27dc:	00 
    27dd:	0f 2f c1             	comiss %xmm1,%xmm0
    27e0:	76 06                	jbe    27e8 <test_hysteresis_value+0x5fb>
    27e2:	c6 45 e8 01          	movb   $0x1,-0x18(%rbp)
    27e6:	eb 16                	jmp    27fe <test_hysteresis_value+0x611>
    27e8:	f3 0f 10 45 ec       	movss  -0x14(%rbp),%xmm0
    27ed:	f3 0f 10 0d a8 07 00 	movss  0x7a8(%rip),%xmm1        # 2f9d <test_debounce+0x2db>
    27f4:	00 
    27f5:	0f 2f c1             	comiss %xmm1,%xmm0
    27f8:	76 04                	jbe    27fe <test_hysteresis_value+0x611>
    27fa:	c6 45 e8 00          	movb   $0x0,-0x18(%rbp)
    27fe:	0f b6 45 e8          	movzbl -0x18(%rbp),%eax
    2802:	83 f0 01             	xor    $0x1,%eax
    2805:	84 c0                	test   %al,%al
    2807:	74 1f                	je     2828 <test_hysteresis_value+0x63b>
    2809:	41 b8 a0 01 00 00    	mov    $0x1a0,%r8d
    280f:	48 8d 05 49 00 00 00 	lea    0x49(%rip),%rax        # 285f <test_hysteresis_value+0x672>
    2816:	48 89 c2             	mov    %rax,%rdx
    2819:	48 8d 05 5a 00 00 00 	lea    0x5a(%rip),%rax        # 287a <test_hysteresis_value+0x68d>
    2820:	48 89 c1             	mov    %rax,%rcx
    2823:	e8 1b d8 ff ff       	call   43 <printf>
    2828:	f3 0f 10 4d f0       	movss  -0x10(%rbp),%xmm1
    282d:	f3 0f 10 05 bc 07 00 	movss  0x7bc(%rip),%xmm0        # 2ff1 <test_debounce+0x32f>
    2834:	00 
    2835:	0f 2f c1             	comiss %xmm1,%xmm0
    2838:	76 06                	jbe    2840 <test_hysteresis_value+0x653>
    283a:	c6 45 e8 01          	movb   $0x1,-0x18(%rbp)
    283e:	eb 12                	jmp    2852 <test_hysteresis_value+0x665>
    2840:	f3 0f 10 45 ec       	movss  -0x14(%rbp),%xmm0
    2845:	0f 2f 05 bc 07 00 00 	comiss 0x7bc(%rip),%xmm0        # 3008 <test_debounce+0x346>
    284c:	76 04                	jbe    2852 <test_hysteresis_value+0x665>
    284e:	c6 45 e8 00          	movb   $0x0,-0x18(%rbp)
    2852:	0f b6 45 e8          	movzbl -0x18(%rbp),%eax
    2856:	84 c0                	test   %al,%al
    2858:	74 1f                	je     2879 <test_hysteresis_value+0x68c>
    285a:	41 b8 a2 01 00 00    	mov    $0x1a2,%r8d
    2860:	48 8d 05 49 00 00 00 	lea    0x49(%rip),%rax        # 28b0 <test_hysteresis_value+0x6c3>
    2867:	48 89 c2             	mov    %rax,%rdx
    286a:	48 8d 05 5a 00 00 00 	lea    0x5a(%rip),%rax        # 28cb <test_hysteresis_value+0x6de>
    2871:	48 89 c1             	mov    %rax,%rcx
    2874:	e8 ca d7 ff ff       	call   43 <printf>
    2879:	f3 0f 10 4d f0       	movss  -0x10(%rbp),%xmm1
    287e:	f3 0f 10 05 bc 07 00 	movss  0x7bc(%rip),%xmm0        # 3042 <test_debounce+0x380>
    2885:	00 
    2886:	0f 2f c1             	comiss %xmm1,%xmm0
    2889:	76 06                	jbe    2891 <test_hysteresis_value+0x6a4>
    288b:	c6 45 e8 01          	movb   $0x1,-0x18(%rbp)
    288f:	eb 12                	jmp    28a3 <test_hysteresis_value+0x6b6>
    2891:	f3 0f 10 45 ec       	movss  -0x14(%rbp),%xmm0
    2896:	0f 2f 05 bc 07 00 00 	comiss 0x7bc(%rip),%xmm0        # 3059 <test_debounce+0x397>
    289d:	76 04                	jbe    28a3 <test_hysteresis_value+0x6b6>
    289f:	c6 45 e8 00          	movb   $0x0,-0x18(%rbp)
    28a3:	0f b6 45 e8          	movzbl -0x18(%rbp),%eax
    28a7:	84 c0                	test   %al,%al
    28a9:	74 1f                	je     28ca <test_hysteresis_value+0x6dd>
    28ab:	41 b8 a4 01 00 00    	mov    $0x1a4,%r8d
    28b1:	48 8d 05 49 00 00 00 	lea    0x49(%rip),%rax        # 2901 <test_hysteresis_list+0x30>
    28b8:	48 89 c2             	mov    %rax,%rdx
    28bb:	48 8d 05 5a 00 00 00 	lea    0x5a(%rip),%rax        # 291c <test_hysteresis_list+0x4b>
    28c2:	48 89 c1             	mov    %rax,%rcx
    28c5:	e8 79 d7 ff ff       	call   43 <printf>
    28ca:	90                   	nop
    28cb:	48 83 c4 40          	add    $0x40,%rsp
    28cf:	5d                   	pop    %rbp
    28d0:	c3                   	ret

00000000000028d1 <test_hysteresis_list>:
    28d1:	55                   	push   %rbp
    28d2:	48 89 e5             	mov    %rsp,%rbp
    28d5:	48 83 ec 60          	sub    $0x60,%rsp
    28d9:	48 8d 05 d8 03 00 00 	lea    0x3d8(%rip),%rax        # 2cb8 <test_hysteresis_list+0x3e7>
    28e0:	48 89 c1             	mov    %rax,%rcx
    28e3:	e8 5b d7 ff ff       	call   43 <printf>
    28e8:	66 0f ef c0          	pxor   %xmm0,%xmm0
    28ec:	f3 0f 11 45 f0       	movss  %xmm0,-0x10(%rbp)
    28f1:	f3 0f 10 05 14 08 00 	movss  0x814(%rip),%xmm0        # 310d <test_debounce+0x44b>
    28f8:	00 
    28f9:	f3 0f 11 45 f4       	movss  %xmm0,-0xc(%rbp)
    28fe:	f3 0f 10 05 18 08 00 	movss  0x818(%rip),%xmm0        # 311e <test_debounce+0x45c>
    2905:	00 
    2906:	f3 0f 11 45 f8       	movss  %xmm0,-0x8(%rbp)
    290b:	f3 0f 10 05 1c 08 00 	movss  0x81c(%rip),%xmm0        # 312f <test_debounce+0x46d>
    2912:	00 
    2913:	f3 0f 11 45 fc       	movss  %xmm0,-0x4(%rbp)
    2918:	f3 0f 10 05 20 08 00 	movss  0x820(%rip),%xmm0        # 3140 <test_debounce+0x47e>
    291f:	00 
    2920:	f3 0f 11 45 e0       	movss  %xmm0,-0x20(%rbp)
    2925:	f3 0f 10 05 24 08 00 	movss  0x824(%rip),%xmm0        # 3151 <test_debounce+0x48f>
    292c:	00 
    292d:	f3 0f 11 45 e4       	movss  %xmm0,-0x1c(%rbp)
    2932:	f3 0f 10 05 28 08 00 	movss  0x828(%rip),%xmm0        # 3162 <test_debounce+0x4a0>
    2939:	00 
    293a:	f3 0f 11 45 e8       	movss  %xmm0,-0x18(%rbp)
    293f:	f3 0f 10 05 b8 07 00 	movss  0x7b8(%rip),%xmm0        # 30ff <test_debounce+0x43d>
    2946:	00 
    2947:	f3 0f 11 45 ec       	movss  %xmm0,-0x14(%rbp)
    294c:	66 c7 45 c0 00 00    	movw   $0x0,-0x40(%rbp)
    2952:	48 8d 45 e0          	lea    -0x20(%rbp),%rax
    2956:	48 89 45 c8          	mov    %rax,-0x38(%rbp)
    295a:	48 8d 45 f0          	lea    -0x10(%rbp),%rax
    295e:	48 89 45 d0          	mov    %rax,-0x30(%rbp)
    2962:	66 c7 45 d8 04 00    	movw   $0x4,-0x28(%rbp)
    2968:	48 8d 45 c0          	lea    -0x40(%rbp),%rax
    296c:	48 89 c1             	mov    %rax,%rcx
    296f:	e8 00 00 00 00       	call   2974 <test_hysteresis_list+0xa3>
    2974:	48 8d 45 c0          	lea    -0x40(%rbp),%rax
    2978:	66 0f ef c9          	pxor   %xmm1,%xmm1
    297c:	48 89 c1             	mov    %rax,%rcx
    297f:	e8 00 00 00 00       	call   2984 <test_hysteresis_list+0xb3>
    2984:	66 85 c0             	test   %ax,%ax
    2987:	74 1f                	je     29a8 <test_hysteresis_list+0xd7>
    2989:	41 b8 b1 01 00 00    	mov    $0x1b1,%r8d
    298f:	48 8d 05 49 00 00 00 	lea    0x49(%rip),%rax        # 29df <test_hysteresis_list+0x10e>
    2996:	48 89 c2             	mov    %rax,%rdx
    2999:	48 8d 05 5a 00 00 00 	lea    0x5a(%rip),%rax        # 29fa <test_hysteresis_list+0x129>
    29a0:	48 89 c1             	mov    %rax,%rcx
    29a3:	e8 9b d6 ff ff       	call   43 <printf>
    29a8:	48 8d 45 c0          	lea    -0x40(%rbp),%rax
    29ac:	f3 0f 10 0d a0 07 00 	movss  0x7a0(%rip),%xmm1        # 3154 <test_debounce+0x492>
    29b3:	00 
    29b4:	48 89 c1             	mov    %rax,%rcx
    29b7:	e8 00 00 00 00       	call   29bc <test_hysteresis_list+0xeb>
    29bc:	66 85 c0             	test   %ax,%ax
    29bf:	74 1f                	je     29e0 <test_hysteresis_list+0x10f>
    29c1:	41 b8 b2 01 00 00    	mov    $0x1b2,%r8d
    29c7:	48 8d 05 49 00 00 00 	lea    0x49(%rip),%rax        # 2a17 <test_hysteresis_list+0x146>
    29ce:	48 89 c2             	mov    %rax,%rdx
    29d1:	48 8d 05 5a 00 00 00 	lea    0x5a(%rip),%rax        # 2a32 <test_hysteresis_list+0x161>
    29d8:	48 89 c1             	mov    %rax,%rcx
    29db:	e8 63 d6 ff ff       	call   43 <printf>
    29e0:	48 8d 45 c0          	lea    -0x40(%rbp),%rax
    29e4:	f3 0f 10 0d 2c 08 00 	movss  0x82c(%rip),%xmm1        # 3218 <test_debounce+0x556>
    29eb:	00 
    29ec:	48 89 c1             	mov    %rax,%rcx
    29ef:	e8 00 00 00 00       	call   29f4 <test_hysteresis_list+0x123>
    29f4:	66 83 f8 01          	cmp    $0x1,%ax
    29f8:	74 1f                	je     2a19 <test_hysteresis_list+0x148>
    29fa:	41 b8 b3 01 00 00    	mov    $0x1b3,%r8d
    2a00:	48 8d 05 49 00 00 00 	lea    0x49(%rip),%rax        # 2a50 <test_hysteresis_list+0x17f>
    2a07:	48 89 c2             	mov    %rax,%rdx
    2a0a:	48 8d 05 5a 00 00 00 	lea    0x5a(%rip),%rax        # 2a6b <test_hysteresis_list+0x19a>
    2a11:	48 89 c1             	mov    %rax,%rcx
    2a14:	e8 2a d6 ff ff       	call   43 <printf>
    2a19:	48 8d 45 c0          	lea    -0x40(%rbp),%rax
    2a1d:	f3 0f 10 0d a0 07 00 	movss  0x7a0(%rip),%xmm1        # 31c5 <test_debounce+0x503>
    2a24:	00 
    2a25:	48 89 c1             	mov    %rax,%rcx
    2a28:	e8 00 00 00 00       	call   2a2d <test_hysteresis_list+0x15c>
    2a2d:	66 83 f8 01          	cmp    $0x1,%ax
    2a31:	74 1f                	je     2a52 <test_hysteresis_list+0x181>
    2a33:	41 b8 b4 01 00 00    	mov    $0x1b4,%r8d
    2a39:	48 8d 05 49 00 00 00 	lea    0x49(%rip),%rax        # 2a89 <test_hysteresis_list+0x1b8>
    2a40:	48 89 c2             	mov    %rax,%rdx
    2a43:	48 8d 05 5a 00 00 00 	lea    0x5a(%rip),%rax        # 2aa4 <test_hysteresis_list+0x1d3>
    2a4a:	48 89 c1             	mov    %rax,%rcx
    2a4d:	e8 f1 d5 ff ff       	call   43 <printf>
    2a52:	48 8d 45 c0          	lea    -0x40(%rbp),%rax
    2a56:	f3 0f 10 0d 9c 07 00 	movss  0x79c(%rip),%xmm1        # 31fa <test_debounce+0x538>
    2a5d:	00 
    2a5e:	48 89 c1             	mov    %rax,%rcx
    2a61:	e8 00 00 00 00       	call   2a66 <test_hysteresis_list+0x195>
    2a66:	66 83 f8 01          	cmp    $0x1,%ax
    2a6a:	74 1f                	je     2a8b <test_hysteresis_list+0x1ba>
    2a6c:	41 b8 b5 01 00 00    	mov    $0x1b5,%r8d
    2a72:	48 8d 05 49 00 00 00 	lea    0x49(%rip),%rax        # 2ac2 <test_hysteresis_list+0x1f1>
    2a79:	48 89 c2             	mov    %rax,%rdx
    2a7c:	48 8d 05 5a 00 00 00 	lea    0x5a(%rip),%rax        # 2add <test_hysteresis_list+0x20c>
    2a83:	48 89 c1             	mov    %rax,%rcx
    2a86:	e8 b8 d5 ff ff       	call   43 <printf>
    2a8b:	48 8d 45 c0          	lea    -0x40(%rbp),%rax
    2a8f:	f3 0f 10 0d 30 08 00 	movss  0x830(%rip),%xmm1        # 32c7 <test_debounce+0x605>
    2a96:	00 
    2a97:	48 89 c1             	mov    %rax,%rcx
    2a9a:	e8 00 00 00 00       	call   2a9f <test_hysteresis_list+0x1ce>
    2a9f:	66 83 f8 02          	cmp    $0x2,%ax
    2aa3:	74 1f                	je     2ac4 <test_hysteresis_list+0x1f3>
    2aa5:	41 b8 b6 01 00 00    	mov    $0x1b6,%r8d
    2aab:	48 8d 05 49 00 00 00 	lea    0x49(%rip),%rax        # 2afb <test_hysteresis_list+0x22a>
    2ab2:	48 89 c2             	mov    %rax,%rdx
    2ab5:	48 8d 05 5a 00 00 00 	lea    0x5a(%rip),%rax        # 2b16 <test_hysteresis_list+0x245>
    2abc:	48 89 c1             	mov    %rax,%rcx
    2abf:	e8 7f d5 ff ff       	call   43 <printf>
    2ac4:	48 8d 45 c0          	lea    -0x40(%rbp),%rax
    2ac8:	f3 0f 10 0d b8 07 00 	movss  0x7b8(%rip),%xmm1        # 3288 <test_debounce+0x5c6>
    2acf:	00 
    2ad0:	48 89 c1             	mov    %rax,%rcx
    2ad3:	e8 00 00 00 00       	call   2ad8 <test_hysteresis_list+0x207>
    2ad8:	66 83 f8 02          	cmp    $0x2,%ax
    2adc:	74 1f                	je     2afd <test_hysteresis_list+0x22c>
    2ade:	41 b8 b7 01 00 00    	mov    $0x1b7,%r8d
    2ae4:	48 8d 05 49 00 00 00 	lea    0x49(%rip),%rax        # 2b34 <test_hysteresis_list+0x263>
    2aeb:	48 89 c2             	mov    %rax,%rdx
    2aee:	48 8d 05 5a 00 00 00 	lea    0x5a(%rip),%rax        # 2b4f <test_hysteresis_list+0x27e>
    2af5:	48 89 c1             	mov    %rax,%rcx
    2af8:	e8 46 d5 ff ff       	call   43 <printf>
    2afd:	48 8d 45 c0          	lea    -0x40(%rbp),%rax
    2b01:	66 0f ef c9          	pxor   %xmm1,%xmm1
    2b05:	48 89 c1             	mov    %rax,%rcx
    2b08:	e8 00 00 00 00       	call   2b0d <test_hysteresis_list+0x23c>
    2b0d:	66 83 f8 01          	cmp    $0x1,%ax
    2b11:	74 1f                	je     2b32 <test_hysteresis_list+0x261>
    2b13:	41 b8 b8 01 00 00    	mov    $0x1b8,%r8d
    2b19:	48 8d 05 49 00 00 00 	lea    0x49(%rip),%rax        # 2b69 <test_hysteresis_list+0x298>
    2b20:	48 89 c2             	mov    %rax,%rdx
    2b23:	48 8d 05 5a 00 00 00 	lea    0x5a(%rip),%rax        # 2b84 <test_hysteresis_list+0x2b3>
    2b2a:	48 89 c1             	mov    %rax,%rcx
    2b2d:	e8 11 d5 ff ff       	call   43 <printf>
    2b32:	48 8d 45 c0          	lea    -0x40(%rbp),%rax
    2b36:	66 0f ef c9          	pxor   %xmm1,%xmm1
    2b3a:	48 89 c1             	mov    %rax,%rcx
    2b3d:	e8 00 00 00 00       	call   2b42 <test_hysteresis_list+0x271>
    2b42:	66 85 c0             	test   %ax,%ax
    2b45:	74 1f                	je     2b66 <test_hysteresis_list+0x295>
    2b47:	41 b8 b9 01 00 00    	mov    $0x1b9,%r8d
    2b4d:	48 8d 05 49 00 00 00 	lea    0x49(%rip),%rax        # 2b9d <test_hysteresis_list+0x2cc>
    2b54:	48 89 c2             	mov    %rax,%rdx
    2b57:	48 8d 05 5a 00 00 00 	lea    0x5a(%rip),%rax        # 2bb8 <test_hysteresis_list+0x2e7>
    2b5e:	48 89 c1             	mov    %rax,%rcx
    2b61:	e8 dd d4 ff ff       	call   43 <printf>
    2b66:	48 8d 45 c0          	lea    -0x40(%rbp),%rax
    2b6a:	f3 0f 10 0d 2c 08 00 	movss  0x82c(%rip),%xmm1        # 339e <test_debounce+0x6dc>
    2b71:	00 
    2b72:	48 89 c1             	mov    %rax,%rcx
    2b75:	e8 00 00 00 00       	call   2b7a <test_hysteresis_list+0x2a9>
    2b7a:	66 83 f8 01          	cmp    $0x1,%ax
    2b7e:	74 1f                	je     2b9f <test_hysteresis_list+0x2ce>
    2b80:	41 b8 ba 01 00 00    	mov    $0x1ba,%r8d
    2b86:	48 8d 05 49 00 00 00 	lea    0x49(%rip),%rax        # 2bd6 <test_hysteresis_list+0x305>
    2b8d:	48 89 c2             	mov    %rax,%rdx
    2b90:	48 8d 05 5a 00 00 00 	lea    0x5a(%rip),%rax        # 2bf1 <test_hysteresis_list+0x320>
    2b97:	48 89 c1             	mov    %rax,%rcx
    2b9a:	e8 a4 d4 ff ff       	call   43 <printf>
    2b9f:	48 8d 45 c0          	lea    -0x40(%rbp),%rax
    2ba3:	f3 0f 10 0d 34 08 00 	movss  0x834(%rip),%xmm1        # 33df <test_debounce+0x71d>
    2baa:	00 
    2bab:	48 89 c1             	mov    %rax,%rcx
    2bae:	e8 00 00 00 00       	call   2bb3 <test_hysteresis_list+0x2e2>
    2bb3:	66 85 c0             	test   %ax,%ax
    2bb6:	74 1f                	je     2bd7 <test_hysteresis_list+0x306>
    2bb8:	41 b8 bb 01 00 00    	mov    $0x1bb,%r8d
    2bbe:	48 8d 05 49 00 00 00 	lea    0x49(%rip),%rax        # 2c0e <test_hysteresis_list+0x33d>
    2bc5:	48 89 c2             	mov    %rax,%rdx
    2bc8:	48 8d 05 5a 00 00 00 	lea    0x5a(%rip),%rax        # 2c29 <test_hysteresis_list+0x358>
    2bcf:	48 89 c1             	mov    %rax,%rcx
    2bd2:	e8 6c d4 ff ff       	call   43 <printf>
    2bd7:	48 8d 45 c0          	lea    -0x40(%rbp),%rax
    2bdb:	f3 0f 10 0d ac 07 00 	movss  0x7ac(%rip),%xmm1        # 338f <test_debounce+0x6cd>
    2be2:	00 
    2be3:	48 89 c1             	mov    %rax,%rcx
    2be6:	e8 00 00 00 00       	call   2beb <test_hysteresis_list+0x31a>
    2beb:	66 83 f8 01          	cmp    $0x1,%ax
    2bef:	74 1f                	je     2c10 <test_hysteresis_list+0x33f>
    2bf1:	41 b8 bc 01 00 00    	mov    $0x1bc,%r8d
    2bf7:	48 8d 05 49 00 00 00 	lea    0x49(%rip),%rax        # 2c47 <test_hysteresis_list+0x376>
    2bfe:	48 89 c2             	mov    %rax,%rdx
    2c01:	48 8d 05 5a 00 00 00 	lea    0x5a(%rip),%rax        # 2c62 <test_hysteresis_list+0x391>
    2c08:	48 89 c1             	mov    %rax,%rcx
    2c0b:	e8 33 d4 ff ff       	call   43 <printf>
    2c10:	48 8d 45 c0          	lea    -0x40(%rbp),%rax
    2c14:	f3 0f 10 0d ac 07 00 	movss  0x7ac(%rip),%xmm1        # 33c8 <test_debounce+0x706>
    2c1b:	00 
    2c1c:	48 89 c1             	mov    %rax,%rcx
    2c1f:	e8 00 00 00 00       	call   2c24 <test_hysteresis_list+0x353>
    2c24:	66 83 f8 02          	cmp    $0x2,%ax
    2c28:	74 1f                	je     2c49 <test_hysteresis_list+0x378>
    2c2a:	41 b8 bd 01 00 00    	mov    $0x1bd,%r8d
    2c30:	48 8d 05 49 00 00 00 	lea    0x49(%rip),%rax        # 2c80 <test_hysteresis_list+0x3af>
    2c37:	48 89 c2             	mov    %rax,%rdx
    2c3a:	48 8d 05 5a 00 00 00 	lea    0x5a(%rip),%rax        # 2c9b <test_hysteresis_list+0x3ca>
    2c41:	48 89 c1             	mov    %rax,%rcx
    2c44:	e8 fa d3 ff ff       	call   43 <printf>
    2c49:	48 8d 45 c0          	lea    -0x40(%rbp),%rax
    2c4d:	f3 0f 10 0d ac 07 00 	movss  0x7ac(%rip),%xmm1        # 3401 <test_debounce+0x73f>
    2c54:	00 
    2c55:	48 89 c1             	mov    %rax,%rcx
    2c58:	e8 00 00 00 00       	call   2c5d <test_hysteresis_list+0x38c>
    2c5d:	66 83 f8 02          	cmp    $0x2,%ax
    2c61:	74 1f                	je     2c82 <test_hysteresis_list+0x3b1>
    2c63:	41 b8 be 01 00 00    	mov    $0x1be,%r8d
    2c69:	48 8d 05 49 00 00 00 	lea    0x49(%rip),%rax        # 2cb9 <test_hysteresis_list+0x3e8>
    2c70:	48 89 c2             	mov    %rax,%rdx
    2c73:	48 8d 05 5a 00 00 00 	lea    0x5a(%rip),%rax        # 2cd4 <test_debounce+0x12>
    2c7a:	48 89 c1             	mov    %rax,%rcx
    2c7d:	e8 c1 d3 ff ff       	call   43 <printf>
    2c82:	48 8d 45 c0          	lea    -0x40(%rbp),%rax
    2c86:	f3 0f 10 0d 38 08 00 	movss  0x838(%rip),%xmm1        # 34c6 <test_debounce+0x804>
    2c8d:	00 
    2c8e:	48 89 c1             	mov    %rax,%rcx
    2c91:	e8 00 00 00 00       	call   2c96 <test_hysteresis_list+0x3c5>
    2c96:	66 83 f8 01          	cmp    $0x1,%ax
    2c9a:	74 1f                	je     2cbb <test_hysteresis_list+0x3ea>
    2c9c:	41 b8 bf 01 00 00    	mov    $0x1bf,%r8d
    2ca2:	48 8d 05 49 00 00 00 	lea    0x49(%rip),%rax        # 2cf2 <test_debounce+0x30>
    2ca9:	48 89 c2             	mov    %rax,%rdx
    2cac:	48 8d 05 5a 00 00 00 	lea    0x5a(%rip),%rax        # 2d0d <test_debounce+0x4b>
    2cb3:	48 89 c1             	mov    %rax,%rcx
    2cb6:	e8 88 d3 ff ff       	call   43 <printf>
    2cbb:	90                   	nop
    2cbc:	48 83 c4 60          	add    $0x60,%rsp
    2cc0:	5d                   	pop    %rbp
    2cc1:	c3                   	ret

0000000000002cc2 <test_debounce>:
    2cc2:	55                   	push   %rbp
    2cc3:	48 89 e5             	mov    %rsp,%rbp
    2cc6:	48 83 ec 50          	sub    $0x50,%rsp
    2cca:	48 8d 05 00 04 00 00 	lea    0x400(%rip),%rax        # 30d1 <test_debounce+0x40f>
    2cd1:	48 89 c1             	mov    %rax,%rcx
    2cd4:	e8 6a d3 ff ff       	call   43 <printf>
    2cd9:	c6 45 e0 00          	movb   $0x0,-0x20(%rbp)
    2cdd:	66 0f ef c0          	pxor   %xmm0,%xmm0
    2ce1:	f3 0f 11 45 e4       	movss  %xmm0,-0x1c(%rbp)
    2ce6:	f3 0f 10 05 a0 07 00 	movss  0x7a0(%rip),%xmm0        # 348e <test_debounce+0x7cc>
    2ced:	00 
    2cee:	f3 0f 11 45 e8       	movss  %xmm0,-0x18(%rbp)
    2cf3:	f3 0f 10 05 9c 07 00 	movss  0x79c(%rip),%xmm0        # 3497 <test_debounce+0x7d5>
    2cfa:	00 
    2cfb:	f3 0f 11 45 ec       	movss  %xmm0,-0x14(%rbp)
    2d00:	f3 0f 10 05 9c 07 00 	movss  0x79c(%rip),%xmm0        # 34a4 <test_debounce+0x7e2>
    2d07:	00 
    2d08:	f3 0f 11 45 f0       	movss  %xmm0,-0x10(%rbp)
    2d0d:	48 8d 45 e0          	lea    -0x20(%rbp),%rax
    2d11:	48 89 c1             	mov    %rax,%rcx
    2d14:	e8 00 00 00 00       	call   2d19 <test_debounce+0x57>
    2d19:	48 8d 45 e0          	lea    -0x20(%rbp),%rax
    2d1d:	ba 00 00 00 00       	mov    $0x0,%edx
    2d22:	48 89 c1             	mov    %rax,%rcx
    2d25:	e8 00 00 00 00       	call   2d2a <test_debounce+0x68>
    2d2a:	84 c0                	test   %al,%al
    2d2c:	74 1f                	je     2d4d <test_debounce+0x8b>
    2d2e:	41 b8 cb 01 00 00    	mov    $0x1cb,%r8d
    2d34:	48 8d 05 49 00 00 00 	lea    0x49(%rip),%rax        # 2d84 <test_debounce+0xc2>
    2d3b:	48 89 c2             	mov    %rax,%rdx
    2d3e:	48 8d 05 5a 00 00 00 	lea    0x5a(%rip),%rax        # 2d9f <test_debounce+0xdd>
    2d45:	48 89 c1             	mov    %rax,%rcx
    2d48:	e8 f6 d2 ff ff       	call   43 <printf>
    2d4d:	48 8d 45 e0          	lea    -0x20(%rbp),%rax
    2d51:	ba 00 00 00 00       	mov    $0x0,%edx
    2d56:	48 89 c1             	mov    %rax,%rcx
    2d59:	e8 00 00 00 00       	call   2d5e <test_debounce+0x9c>
    2d5e:	84 c0                	test   %al,%al
    2d60:	74 1f                	je     2d81 <test_debounce+0xbf>
    2d62:	41 b8 cc 01 00 00    	mov    $0x1cc,%r8d
    2d68:	48 8d 05 49 00 00 00 	lea    0x49(%rip),%rax        # 2db8 <test_debounce+0xf6>
    2d6f:	48 89 c2             	mov    %rax,%rdx
    2d72:	48 8d 05 5a 00 00 00 	lea    0x5a(%rip),%rax        # 2dd3 <test_debounce+0x111>
    2d79:	48 89 c1             	mov    %rax,%rcx
    2d7c:	e8 c2 d2 ff ff       	call   43 <printf>
    2d81:	48 8d 45 e0          	lea    -0x20(%rbp),%rax
    2d85:	ba 01 00 00 00       	mov    $0x1,%edx
    2d8a:	48 89 c1             	mov    %rax,%rcx
    2d8d:	e8 00 00 00 00       	call   2d92 <test_debounce+0xd0>
    2d92:	84 c0                	test   %al,%al
    2d94:	74 1f                	je     2db5 <test_debounce+0xf3>
    2d96:	41 b8 cd 01 00 00    	mov    $0x1cd,%r8d
    2d9c:	48 8d 05 49 00 00 00 	lea    0x49(%rip),%rax        # 2dec <test_debounce+0x12a>
    2da3:	48 89 c2             	mov    %rax,%rdx
    2da6:	48 8d 05 5a 00 00 00 	lea    0x5a(%rip),%rax        # 2e07 <test_debounce+0x145>
    2dad:	48 89 c1             	mov    %rax,%rcx
    2db0:	e8 8e d2 ff ff       	call   43 <printf>
    2db5:	48 8d 45 e0          	lea    -0x20(%rbp),%rax
    2db9:	ba 01 00 00 00       	mov    $0x1,%edx
    2dbe:	48 89 c1             	mov    %rax,%rcx
    2dc1:	e8 00 00 00 00       	call   2dc6 <test_debounce+0x104>
    2dc6:	84 c0                	test   %al,%al
    2dc8:	74 1f                	je     2de9 <test_debounce+0x127>
    2dca:	41 b8 ce 01 00 00    	mov    $0x1ce,%r8d
    2dd0:	48 8d 05 49 00 00 00 	lea    0x49(%rip),%rax        # 2e20 <test_debounce+0x15e>
    2dd7:	48 89 c2             	mov    %rax,%rdx
    2dda:	48 8d 05 5a 00 00 00 	lea    0x5a(%rip),%rax        # 2e3b <test_debounce+0x179>
    2de1:	48 89 c1             	mov    %rax,%rcx
    2de4:	e8 5a d2 ff ff       	call   43 <printf>
    2de9:	48 8d 45 e0          	lea    -0x20(%rbp),%rax
    2ded:	ba 01 00 00 00       	mov    $0x1,%edx
    2df2:	48 89 c1             	mov    %rax,%rcx
    2df5:	e8 00 00 00 00       	call   2dfa <test_debounce+0x138>
    2dfa:	83 f0 01             	xor    $0x1,%eax
    2dfd:	84 c0                	test   %al,%al
    2dff:	74 1f                	je     2e20 <test_debounce+0x15e>
    2e01:	41 b8 cf 01 00 00    	mov    $0x1cf,%r8d
    2e07:	48 8d 05 49 00 00 00 	lea    0x49(%rip),%rax        # 2e57 <test_debounce+0x195>
    2e0e:	48 89 c2             	mov    %rax,%rdx
    2e11:	48 8d 05 5a 00 00 00 	lea    0x5a(%rip),%rax        # 2e72 <test_debounce+0x1b0>
    2e18:	48 89 c1             	mov    %rax,%rcx
    2e1b:	e8 23 d2 ff ff       	call   43 <printf>
    2e20:	48 8d 45 e0          	lea    -0x20(%rbp),%rax
    2e24:	ba 01 00 00 00       	mov    $0x1,%edx
    2e29:	48 89 c1             	mov    %rax,%rcx
    2e2c:	e8 00 00 00 00       	call   2e31 <test_debounce+0x16f>
    2e31:	83 f0 01             	xor    $0x1,%eax
    2e34:	84 c0                	test   %al,%al
    2e36:	74 1f                	je     2e57 <test_debounce+0x195>
    2e38:	41 b8 d0 01 00 00    	mov    $0x1d0,%r8d
    2e3e:	48 8d 05 49 00 00 00 	lea    0x49(%rip),%rax        # 2e8e <test_debounce+0x1cc>
    2e45:	48 89 c2             	mov    %rax,%rdx
    2e48:	48 8d 05 5a 00 00 00 	lea    0x5a(%rip),%rax        # 2ea9 <test_debounce+0x1e7>
    2e4f:	48 89 c1             	mov    %rax,%rcx
    2e52:	e8 ec d1 ff ff       	call   43 <printf>
    2e57:	48 8d 45 e0          	lea    -0x20(%rbp),%rax
    2e5b:	ba 00 00 00 00       	mov    $0x0,%edx
    2e60:	48 89 c1             	mov    %rax,%rcx
    2e63:	e8 00 00 00 00       	call   2e68 <test_debounce+0x1a6>
    2e68:	83 f0 01             	xor    $0x1,%eax
    2e6b:	84 c0                	test   %al,%al
    2e6d:	74 1f                	je     2e8e <test_debounce+0x1cc>
    2e6f:	41 b8 d1 01 00 00    	mov    $0x1d1,%r8d
    2e75:	48 8d 05 49 00 00 00 	lea    0x49(%rip),%rax        # 2ec5 <test_debounce+0x203>
    2e7c:	48 89 c2             	mov    %rax,%rdx
    2e7f:	48 8d 05 5a 00 00 00 	lea    0x5a(%rip),%rax        # 2ee0 <test_debounce+0x21e>
    2e86:	48 89 c1             	mov    %rax,%rcx
    2e89:	e8 b5 d1 ff ff       	call   43 <printf>
    2e8e:	48 8d 45 e0          	lea    -0x20(%rbp),%rax
    2e92:	ba 00 00 00 00       	mov    $0x0,%edx
    2e97:	48 89 c1             	mov    %rax,%rcx
    2e9a:	e8 00 00 00 00       	call   2e9f <test_debounce+0x1dd>
    2e9f:	83 f0 01             	xor    $0x1,%eax
    2ea2:	84 c0                	test   %al,%al
    2ea4:	74 1f                	je     2ec5 <test_debounce+0x203>
    2ea6:	41 b8 d2 01 00 00    	mov    $0x1d2,%r8d
    2eac:	48 8d 05 49 00 00 00 	lea    0x49(%rip),%rax        # 2efc <test_debounce+0x23a>
    2eb3:	48 89 c2             	mov    %rax,%rdx
    2eb6:	48 8d 05 5a 00 00 00 	lea    0x5a(%rip),%rax        # 2f17 <test_debounce+0x255>
    2ebd:	48 89 c1             	mov    %rax,%rcx
    2ec0:	e8 7e d1 ff ff       	call   43 <printf>
    2ec5:	48 8d 45 e0          	lea    -0x20(%rbp),%rax
    2ec9:	ba 00 00 00 00       	mov    $0x0,%edx
    2ece:	48 89 c1             	mov    %rax,%rcx
    2ed1:	e8 00 00 00 00       	call   2ed6 <test_debounce+0x214>
    2ed6:	84 c0                	test   %al,%al
    2ed8:	74 1f                	je     2ef9 <test_debounce+0x237>
    2eda:	41 b8 d3 01 00 00    	mov    $0x1d3,%r8d
    2ee0:	48 8d 05 49 00 00 00 	lea    0x49(%rip),%rax        # 2f30 <test_debounce+0x26e>
    2ee7:	48 89 c2             	mov    %rax,%rdx
    2eea:	48 8d 05 5a 00 00 00 	lea    0x5a(%rip),%rax        # 2f4b <test_debounce+0x289>
    2ef1:	48 89 c1             	mov    %rax,%rcx
    2ef4:	e8 4a d1 ff ff       	call   43 <printf>
    2ef9:	48 8d 45 e0          	lea    -0x20(%rbp),%rax
    2efd:	ba 00 00 00 00       	mov    $0x0,%edx
    2f02:	48 89 c1             	mov    %rax,%rcx
    2f05:	e8 00 00 00 00       	call   2f0a <test_debounce+0x248>
    2f0a:	84 c0                	test   %al,%al
    2f0c:	74 1f                	je     2f2d <test_debounce+0x26b>
    2f0e:	41 b8 d4 01 00 00    	mov    $0x1d4,%r8d
    2f14:	48 8d 05 49 00 00 00 	lea    0x49(%rip),%rax        # 2f64 <test_debounce+0x2a2>
    2f1b:	48 89 c2             	mov    %rax,%rdx
    2f1e:	48 8d 05 5a 00 00 00 	lea    0x5a(%rip),%rax        # 2f7f <test_debounce+0x2bd>
    2f25:	48 89 c1             	mov    %rax,%rcx
    2f28:	e8 16 d1 ff ff       	call   43 <printf>
    2f2d:	48 8d 45 e0          	lea    -0x20(%rbp),%rax
    2f31:	ba 01 00 00 00       	mov    $0x1,%edx
    2f36:	48 89 c1             	mov    %rax,%rcx
    2f39:	e8 00 00 00 00       	call   2f3e <test_debounce+0x27c>
    2f3e:	84 c0                	test   %al,%al
    2f40:	74 1f                	je     2f61 <test_debounce+0x29f>
    2f42:	41 b8 d5 01 00 00    	mov    $0x1d5,%r8d
    2f48:	48 8d 05 49 00 00 00 	lea    0x49(%rip),%rax        # 2f98 <test_debounce+0x2d6>
    2f4f:	48 89 c2             	mov    %rax,%rdx
    2f52:	48 8d 05 5a 00 00 00 	lea    0x5a(%rip),%rax        # 2fb3 <test_debounce+0x2f1>
    2f59:	48 89 c1             	mov    %rax,%rcx
    2f5c:	e8 e2 d0 ff ff       	call   43 <printf>
    2f61:	48 8d 45 e0          	lea    -0x20(%rbp),%rax
    2f65:	ba 01 00 00 00       	mov    $0x1,%edx
    2f6a:	48 89 c1             	mov    %rax,%rcx
    2f6d:	e8 00 00 00 00       	call   2f72 <test_debounce+0x2b0>
    2f72:	84 c0                	test   %al,%al
    2f74:	74 1f                	je     2f95 <test_debounce+0x2d3>
    2f76:	41 b8 d6 01 00 00    	mov    $0x1d6,%r8d
    2f7c:	48 8d 05 49 00 00 00 	lea    0x49(%rip),%rax        # 2fcc <test_debounce+0x30a>
    2f83:	48 89 c2             	mov    %rax,%rdx
    2f86:	48 8d 05 5a 00 00 00 	lea    0x5a(%rip),%rax        # 2fe7 <test_debounce+0x325>
    2f8d:	48 89 c1             	mov    %rax,%rcx
    2f90:	e8 ae d0 ff ff       	call   43 <printf>
    2f95:	48 8d 45 e0          	lea    -0x20(%rbp),%rax
    2f99:	ba 01 00 00 00       	mov    $0x1,%edx
    2f9e:	48 89 c1             	mov    %rax,%rcx
    2fa1:	e8 00 00 00 00       	call   2fa6 <test_debounce+0x2e4>
    2fa6:	83 f0 01             	xor    $0x1,%eax
    2fa9:	84 c0                	test   %al,%al
    2fab:	74 1f                	je     2fcc <test_debounce+0x30a>
    2fad:	41 b8 d7 01 00 00    	mov    $0x1d7,%r8d
    2fb3:	48 8d 05 49 00 00 00 	lea    0x49(%rip),%rax        # 3003 <test_debounce+0x341>
    2fba:	48 89 c2             	mov    %rax,%rdx
    2fbd:	48 8d 05 5a 00 00 00 	lea    0x5a(%rip),%rax        # 301e <test_debounce+0x35c>
    2fc4:	48 89 c1             	mov    %rax,%rcx
    2fc7:	e8 77 d0 ff ff       	call   43 <printf>
    2fcc:	c6 45 d8 00          	movb   $0x0,-0x28(%rbp)
    2fd0:	66 c7 45 da 00 00    	movw   $0x0,-0x26(%rbp)
    2fd6:	66 c7 45 dc 02 00    	movw   $0x2,-0x24(%rbp)
    2fdc:	66 c7 45 de 02 00    	movw   $0x2,-0x22(%rbp)
    2fe2:	48 8d 45 d8          	lea    -0x28(%rbp),%rax
    2fe6:	48 89 c1             	mov    %rax,%rcx
    2fe9:	e8 00 00 00 00       	call   2fee <test_debounce+0x32c>
    2fee:	48 8d 45 d8          	lea    -0x28(%rbp),%rax
    2ff2:	ba 00 00 00 00       	mov    $0x0,%edx
    2ff7:	48 89 c1             	mov    %rax,%rcx
    2ffa:	e8 00 00 00 00       	call   2fff <test_debounce+0x33d>
    2fff:	84 c0                	test   %al,%al
    3001:	74 1f                	je     3022 <test_debounce+0x360>
    3003:	41 b8 dc 01 00 00    	mov    $0x1dc,%r8d
    3009:	48 8d 05 49 00 00 00 	lea    0x49(%rip),%rax        # 3059 <test_debounce+0x397>
    3010:	48 89 c2             	mov    %rax,%rdx
    3013:	48 8d 05 5a 00 00 00 	lea    0x5a(%rip),%rax        # 3074 <test_debounce+0x3b2>
    301a:	48 89 c1             	mov    %rax,%rcx
    301d:	e8 21 d0 ff ff       	call   43 <printf>
    3022:	48 8d 45 d8          	lea    -0x28(%rbp),%rax
    3026:	ba 00 00 00 00       	mov    $0x0,%edx
    302b:	48 89 c1             	mov    %rax,%rcx
    302e:	e8 00 00 00 00       	call   3033 <test_debounce+0x371>
    3033:	84 c0                	test   %al,%al
    3035:	74 1f                	je     3056 <test_debounce+0x394>
    3037:	41 b8 dd 01 00 00    	mov    $0x1dd,%r8d
    303d:	48 8d 05 49 00 00 00 	lea    0x49(%rip),%rax        # 308d <test_debounce+0x3cb>
    3044:	48 89 c2             	mov    %rax,%rdx
    3047:	48 8d 05 5a 00 00 00 	lea    0x5a(%rip),%rax        # 30a8 <test_debounce+0x3e6>
    304e:	48 89 c1             	mov    %rax,%rcx
    3051:	e8 ed cf ff ff       	call   43 <printf>
    3056:	48 8d 45 d8          	lea    -0x28(%rbp),%rax
    305a:	ba 01 00 00 00       	mov    $0x1,%edx
    305f:	48 89 c1             	mov    %rax,%rcx
    3062:	e8 00 00 00 00       	call   3067 <test_debounce+0x3a5>
    3067:	84 c0                	test   %al,%al
    3069:	74 1f                	je     308a <test_debounce+0x3c8>
    306b:	41 b8 de 01 00 00    	mov    $0x1de,%r8d
    3071:	48 8d 05 49 00 00 00 	lea    0x49(%rip),%rax        # 30c1 <test_debounce+0x3ff>
    3078:	48 89 c2             	mov    %rax,%rdx
    307b:	48 8d 05 5a 00 00 00 	lea    0x5a(%rip),%rax        # 30dc <test_debounce+0x41a>
    3082:	48 89 c1             	mov    %rax,%rcx
    3085:	e8 b9 cf ff ff       	call   43 <printf>
    308a:	48 8d 45 d8          	lea    -0x28(%rbp),%rax
    308e:	ba 01 00 00 00       	mov    $0x1,%edx
    3093:	48 89 c1             	mov    %rax,%rcx
    3096:	e8 00 00 00 00       	call   309b <test_debounce+0x3d9>
    309b:	84 c0                	test   %al,%al
    309d:	74 1f                	je     30be <test_debounce+0x3fc>
    309f:	41 b8 df 01 00 00    	mov    $0x1df,%r8d
    30a5:	48 8d 05 49 00 00 00 	lea    0x49(%rip),%rax        # 30f5 <test_debounce+0x433>
    30ac:	48 89 c2             	mov    %rax,%rdx
    30af:	48 8d 05 5a 00 00 00 	lea    0x5a(%rip),%rax        # 3110 <test_debounce+0x44e>
    30b6:	48 89 c1             	mov    %rax,%rcx
    30b9:	e8 85 cf ff ff       	call   43 <printf>
    30be:	48 8d 45 d8          	lea    -0x28(%rbp),%rax
    30c2:	ba 01 00 00 00       	mov    $0x1,%edx
    30c7:	48 89 c1             	mov    %rax,%rcx
    30ca:	e8 00 00 00 00       	call   30cf <test_debounce+0x40d>
    30cf:	83 f0 01             	xor    $0x1,%eax
    30d2:	84 c0                	test   %al,%al
    30d4:	74 1f                	je     30f5 <test_debounce+0x433>
    30d6:	41 b8 e0 01 00 00    	mov    $0x1e0,%r8d
    30dc:	48 8d 05 49 00 00 00 	lea    0x49(%rip),%rax        # 312c <test_debounce+0x46a>
    30e3:	48 89 c2             	mov    %rax,%rdx
    30e6:	48 8d 05 5a 00 00 00 	lea    0x5a(%rip),%rax        # 3147 <test_debounce+0x485>
    30ed:	48 89 c1             	mov    %rax,%rcx
    30f0:	e8 4e cf ff ff       	call   43 <printf>
    30f5:	48 8d 45 d8          	lea    -0x28(%rbp),%rax
    30f9:	ba 01 00 00 00       	mov    $0x1,%edx
    30fe:	48 89 c1             	mov    %rax,%rcx
    3101:	e8 00 00 00 00       	call   3106 <test_debounce+0x444>
    3106:	83 f0 01             	xor    $0x1,%eax
    3109:	84 c0                	test   %al,%al
    310b:	74 1f                	je     312c <test_debounce+0x46a>
    310d:	41 b8 e1 01 00 00    	mov    $0x1e1,%r8d
    3113:	48 8d 05 49 00 00 00 	lea    0x49(%rip),%rax        # 3163 <test_debounce+0x4a1>
    311a:	48 89 c2             	mov    %rax,%rdx
    311d:	48 8d 05 5a 00 00 00 	lea    0x5a(%rip),%rax        # 317e <test_debounce+0x4bc>
    3124:	48 89 c1             	mov    %rax,%rcx
    3127:	e8 17 cf ff ff       	call   43 <printf>
    312c:	48 8d 45 d8          	lea    -0x28(%rbp),%rax
    3130:	ba 00 00 00 00       	mov    $0x0,%edx
    3135:	48 89 c1             	mov    %rax,%rcx
    3138:	e8 00 00 00 00       	call   313d <test_debounce+0x47b>
    313d:	83 f0 01             	xor    $0x1,%eax
    3140:	84 c0                	test   %al,%al
    3142:	74 1f                	je     3163 <test_debounce+0x4a1>
    3144:	41 b8 e2 01 00 00    	mov    $0x1e2,%r8d
    314a:	48 8d 05 49 00 00 00 	lea    0x49(%rip),%rax        # 319a <test_debounce+0x4d8>
    3151:	48 89 c2             	mov    %rax,%rdx
    3154:	48 8d 05 5a 00 00 00 	lea    0x5a(%rip),%rax        # 31b5 <test_debounce+0x4f3>
    315b:	48 89 c1             	mov    %rax,%rcx
    315e:	e8 e0 ce ff ff       	call   43 <printf>
    3163:	48 8d 45 d8          	lea    -0x28(%rbp),%rax
    3167:	ba 00 00 00 00       	mov    $0x0,%edx
    316c:	48 89 c1             	mov    %rax,%rcx
    316f:	e8 00 00 00 00       	call   3174 <test_debounce+0x4b2>
    3174:	83 f0 01             	xor    $0x1,%eax
    3177:	84 c0                	test   %al,%al
    3179:	74 1f                	je     319a <test_debounce+0x4d8>
    317b:	41 b8 e3 01 00 00    	mov    $0x1e3,%r8d
    3181:	48 8d 05 49 00 00 00 	lea    0x49(%rip),%rax        # 31d1 <test_debounce+0x50f>
    3188:	48 89 c2             	mov    %rax,%rdx
    318b:	48 8d 05 5a 00 00 00 	lea    0x5a(%rip),%rax        # 31ec <test_debounce+0x52a>
    3192:	48 89 c1             	mov    %rax,%rcx
    3195:	e8 a9 ce ff ff       	call   43 <printf>
    319a:	48 8d 45 d8          	lea    -0x28(%rbp),%rax
    319e:	ba 00 00 00 00       	mov    $0x0,%edx
    31a3:	48 89 c1             	mov    %rax,%rcx
    31a6:	e8 00 00 00 00       	call   31ab <test_debounce+0x4e9>
    31ab:	84 c0                	test   %al,%al
    31ad:	74 1f                	je     31ce <test_debounce+0x50c>
    31af:	41 b8 e4 01 00 00    	mov    $0x1e4,%r8d
    31b5:	48 8d 05 49 00 00 00 	lea    0x49(%rip),%rax        # 3205 <test_debounce+0x543>
    31bc:	48 89 c2             	mov    %rax,%rdx
    31bf:	48 8d 05 5a 00 00 00 	lea    0x5a(%rip),%rax        # 3220 <test_debounce+0x55e>
    31c6:	48 89 c1             	mov    %rax,%rcx
    31c9:	e8 75 ce ff ff       	call   43 <printf>
    31ce:	48 8d 45 d8          	lea    -0x28(%rbp),%rax
    31d2:	ba 00 00 00 00       	mov    $0x0,%edx
    31d7:	48 89 c1             	mov    %rax,%rcx
    31da:	e8 00 00 00 00       	call   31df <test_debounce+0x51d>
    31df:	84 c0                	test   %al,%al
    31e1:	74 1f                	je     3202 <test_debounce+0x540>
    31e3:	41 b8 e5 01 00 00    	mov    $0x1e5,%r8d
    31e9:	48 8d 05 49 00 00 00 	lea    0x49(%rip),%rax        # 3239 <test_debounce+0x577>
    31f0:	48 89 c2             	mov    %rax,%rdx
    31f3:	48 8d 05 5a 00 00 00 	lea    0x5a(%rip),%rax        # 3254 <test_debounce+0x592>
    31fa:	48 89 c1             	mov    %rax,%rcx
    31fd:	e8 41 ce ff ff       	call   43 <printf>
    3202:	48 8d 45 d8          	lea    -0x28(%rbp),%rax
    3206:	ba 01 00 00 00       	mov    $0x1,%edx
    320b:	48 89 c1             	mov    %rax,%rcx
    320e:	e8 00 00 00 00       	call   3213 <test_debounce+0x551>
    3213:	84 c0                	test   %al,%al
    3215:	74 1f                	je     3236 <test_debounce+0x574>
    3217:	41 b8 e6 01 00 00    	mov    $0x1e6,%r8d
    321d:	48 8d 05 49 00 00 00 	lea    0x49(%rip),%rax        # 326d <test_debounce+0x5ab>
    3224:	48 89 c2             	mov    %rax,%rdx
    3227:	48 8d 05 5a 00 00 00 	lea    0x5a(%rip),%rax        # 3288 <test_debounce+0x5c6>
    322e:	48 89 c1             	mov    %rax,%rcx
    3231:	e8 0d ce ff ff       	call   43 <printf>
    3236:	48 8d 45 d8          	lea    -0x28(%rbp),%rax
    323a:	ba 01 00 00 00       	mov    $0x1,%edx
    323f:	48 89 c1             	mov    %rax,%rcx
    3242:	e8 00 00 00 00       	call   3247 <test_debounce+0x585>
    3247:	84 c0                	test   %al,%al
    3249:	74 1f                	je     326a <test_debounce+0x5a8>
    324b:	41 b8 e7 01 00 00    	mov    $0x1e7,%r8d
    3251:	48 8d 05 49 00 00 00 	lea    0x49(%rip),%rax        # 32a1 <test_debounce+0x5df>
    3258:	48 89 c2             	mov    %rax,%rdx
    325b:	48 8d 05 5a 00 00 00 	lea    0x5a(%rip),%rax        # 32bc <test_debounce+0x5fa>
    3262:	48 89 c1             	mov    %rax,%rcx
    3265:	e8 d9 cd ff ff       	call   43 <printf>
    326a:	48 8d 45 d8          	lea    -0x28(%rbp),%rax
    326e:	ba 01 00 00 00       	mov    $0x1,%edx
    3273:	48 89 c1             	mov    %rax,%rcx
    3276:	e8 00 00 00 00       	call   327b <test_debounce+0x5b9>
    327b:	83 f0 01             	xor    $0x1,%eax
    327e:	84 c0                	test   %al,%al
    3280:	74 1f                	je     32a1 <test_debounce+0x5df>
    3282:	41 b8 e8 01 00 00    	mov    $0x1e8,%r8d
    3288:	48 8d 05 49 00 00 00 	lea    0x49(%rip),%rax        # 32d8 <test_debounce+0x616>
    328f:	48 89 c2             	mov    %rax,%rdx
    3292:	48 8d 05 5a 00 00 00 	lea    0x5a(%rip),%rax        # 32f3 <test_debounce+0x631>
    3299:	48 89 c1             	mov    %rax,%rcx
    329c:	e8 a2 cd ff ff       	call   43 <printf>
    32a1:	c6 45 d0 00          	movb   $0x0,-0x30(%rbp)
    32a5:	66 c7 45 d2 00 00    	movw   $0x0,-0x2e(%rbp)
    32ab:	66 c7 45 d4 02 00    	movw   $0x2,-0x2c(%rbp)
    32b1:	66 c7 45 d6 02 00    	movw   $0x2,-0x2a(%rbp)
    32b7:	c6 45 d0 00          	movb   $0x0,-0x30(%rbp)
    32bb:	66 c7 45 d2 00 00    	movw   $0x0,-0x2e(%rbp)
    32c1:	0f b6 45 d0          	movzbl -0x30(%rbp),%eax
    32c5:	84 c0                	test   %al,%al
    32c7:	74 24                	je     32ed <test_debounce+0x62b>
    32c9:	0f b7 45 d2          	movzwl -0x2e(%rbp),%eax
    32cd:	83 c0 01             	add    $0x1,%eax
    32d0:	66 89 45 d2          	mov    %ax,-0x2e(%rbp)
    32d4:	0f b7 45 d2          	movzwl -0x2e(%rbp),%eax
    32d8:	0f b7 55 d6          	movzwl -0x2a(%rbp),%edx
    32dc:	66 39 c2             	cmp    %ax,%dx
    32df:	73 12                	jae    32f3 <test_debounce+0x631>
    32e1:	c6 45 d0 00          	movb   $0x0,-0x30(%rbp)
    32e5:	66 c7 45 d2 00 00    	movw   $0x0,-0x2e(%rbp)
    32eb:	eb 06                	jmp    32f3 <test_debounce+0x631>
    32ed:	66 c7 45 d2 00 00    	movw   $0x0,-0x2e(%rbp)
    32f3:	0f b6 45 d0          	movzbl -0x30(%rbp),%eax
    32f7:	84 c0                	test   %al,%al
    32f9:	74 1f                	je     331a <test_debounce+0x658>
    32fb:	41 b8 ee 01 00 00    	mov    $0x1ee,%r8d
    3301:	48 8d 05 49 00 00 00 	lea    0x49(%rip),%rax        # 3351 <test_debounce+0x68f>
    3308:	48 89 c2             	mov    %rax,%rdx
    330b:	48 8d 05 5a 00 00 00 	lea    0x5a(%rip),%rax        # 336c <test_debounce+0x6aa>
    3312:	48 89 c1             	mov    %rax,%rcx
    3315:	e8 29 cd ff ff       	call   43 <printf>
    331a:	0f b6 45 d0          	movzbl -0x30(%rbp),%eax
    331e:	84 c0                	test   %al,%al
    3320:	74 24                	je     3346 <test_debounce+0x684>
    3322:	0f b7 45 d2          	movzwl -0x2e(%rbp),%eax
    3326:	83 c0 01             	add    $0x1,%eax
    3329:	66 89 45 d2          	mov    %ax,-0x2e(%rbp)
    332d:	0f b7 45 d2          	movzwl -0x2e(%rbp),%eax
    3331:	0f b7 55 d6          	movzwl -0x2a(%rbp),%edx
    3335:	66 39 c2             	cmp    %ax,%dx
    3338:	73 12                	jae    334c <test_debounce+0x68a>
    333a:	c6 45 d0 00          	movb   $0x0,-0x30(%rbp)
    333e:	66 c7 45 d2 00 00    	movw   $0x0,-0x2e(%rbp)
    3344:	eb 06                	jmp    334c <test_debounce+0x68a>
    3346:	66 c7 45 d2 00 00    	movw   $0x0,-0x2e(%rbp)
    334c:	0f b6 45 d0          	movzbl -0x30(%rbp),%eax
    3350:	84 c0                	test   %al,%al
    3352:	74 1f                	je     3373 <test_debounce+0x6b1>
    3354:	41 b8 f0 01 00 00    	mov    $0x1f0,%r8d
    335a:	48 8d 05 49 00 00 00 	lea    0x49(%rip),%rax        # 33aa <test_debounce+0x6e8>
    3361:	48 89 c2             	mov    %rax,%rdx
    3364:	48 8d 05 5a 00 00 00 	lea    0x5a(%rip),%rax        # 33c5 <test_debounce+0x703>
    336b:	48 89 c1             	mov    %rax,%rcx
    336e:	e8 d0 cc ff ff       	call   43 <printf>
    3373:	0f b6 45 d0          	movzbl -0x30(%rbp),%eax
    3377:	83 f0 01             	xor    $0x1,%eax
    337a:	84 c0                	test   %al,%al
    337c:	74 24                	je     33a2 <test_debounce+0x6e0>
    337e:	0f b7 45 d2          	movzwl -0x2e(%rbp),%eax
    3382:	83 c0 01             	add    $0x1,%eax
    3385:	66 89 45 d2          	mov    %ax,-0x2e(%rbp)
    3389:	0f b7 45 d2          	movzwl -0x2e(%rbp),%eax
    338d:	0f b7 55 d4          	movzwl -0x2c(%rbp),%edx
    3391:	66 39 c2             	cmp    %ax,%dx
    3394:	73 12                	jae    33a8 <test_debounce+0x6e6>
    3396:	c6 45 d0 01          	movb   $0x1,-0x30(%rbp)
    339a:	66 c7 45 d2 00 00    	movw   $0x0,-0x2e(%rbp)
    33a0:	eb 06                	jmp    33a8 <test_debounce+0x6e6>
    33a2:	66 c7 45 d2 00 00    	movw   $0x0,-0x2e(%rbp)
    33a8:	0f b6 45 d0          	movzbl -0x30(%rbp),%eax
    33ac:	84 c0                	test   %al,%al
    33ae:	74 1f                	je     33cf <test_debounce+0x70d>
    33b0:	41 b8 f2 01 00 00    	mov    $0x1f2,%r8d
    33b6:	48 8d 05 49 00 00 00 	lea    0x49(%rip),%rax        # 3406 <test_debounce+0x744>
    33bd:	48 89 c2             	mov    %rax,%rdx
    33c0:	48 8d 05 5a 00 00 00 	lea    0x5a(%rip),%rax        # 3421 <test_debounce+0x75f>
    33c7:	48 89 c1             	mov    %rax,%rcx
    33ca:	e8 74 cc ff ff       	call   43 <printf>
    33cf:	0f b6 45 d0          	movzbl -0x30(%rbp),%eax
    33d3:	83 f0 01             	xor    $0x1,%eax
    33d6:	84 c0                	test   %al,%al
    33d8:	74 24                	je     33fe <test_debounce+0x73c>
    33da:	0f b7 45 d2          	movzwl -0x2e(%rbp),%eax
    33de:	83 c0 01             	add    $0x1,%eax
    33e1:	66 89 45 d2          	mov    %ax,-0x2e(%rbp)
    33e5:	0f b7 45 d2          	movzwl -0x2e(%rbp),%eax
    33e9:	0f b7 55 d4          	movzwl -0x2c(%rbp),%edx
    33ed:	66 39 c2             	cmp    %ax,%dx
    33f0:	73 12                	jae    3404 <test_debounce+0x742>
    33f2:	c6 45 d0 01          	movb   $0x1,-0x30(%rbp)
    33f6:	66 c7 45 d2 00 00    	movw   $0x0,-0x2e(%rbp)
    33fc:	eb 06                	jmp    3404 <test_debounce+0x742>
    33fe:	66 c7 45 d2 00 00    	movw   $0x0,-0x2e(%rbp)
    3404:	0f b6 45 d0          	movzbl -0x30(%rbp),%eax
    3408:	84 c0                	test   %al,%al
    340a:	74 1f                	je     342b <test_debounce+0x769>
    340c:	41 b8 f4 01 00 00    	mov    $0x1f4,%r8d
    3412:	48 8d 05 49 00 00 00 	lea    0x49(%rip),%rax        # 3462 <test_debounce+0x7a0>
    3419:	48 89 c2             	mov    %rax,%rdx
    341c:	48 8d 05 5a 00 00 00 	lea    0x5a(%rip),%rax        # 347d <test_debounce+0x7bb>
    3423:	48 89 c1             	mov    %rax,%rcx
    3426:	e8 18 cc ff ff       	call   43 <printf>
    342b:	0f b6 45 d0          	movzbl -0x30(%rbp),%eax
    342f:	83 f0 01             	xor    $0x1,%eax
    3432:	84 c0                	test   %al,%al
    3434:	74 24                	je     345a <test_debounce+0x798>
    3436:	0f b7 45 d2          	movzwl -0x2e(%rbp),%eax
    343a:	83 c0 01             	add    $0x1,%eax
    343d:	66 89 45 d2          	mov    %ax,-0x2e(%rbp)
    3441:	0f b7 45 d2          	movzwl -0x2e(%rbp),%eax
    3445:	0f b7 55 d4          	movzwl -0x2c(%rbp),%edx
    3449:	66 39 c2             	cmp    %ax,%dx
    344c:	73 12                	jae    3460 <test_debounce+0x79e>
    344e:	c6 45 d0 01          	movb   $0x1,-0x30(%rbp)
    3452:	66 c7 45 d2 00 00    	movw   $0x0,-0x2e(%rbp)
    3458:	eb 06                	jmp    3460 <test_debounce+0x79e>
    345a:	66 c7 45 d2 00 00    	movw   $0x0,-0x2e(%rbp)
    3460:	0f b6 45 d0          	movzbl -0x30(%rbp),%eax
    3464:	83 f0 01             	xor    $0x1,%eax
    3467:	84 c0                	test   %al,%al
    3469:	74 1f                	je     348a <test_debounce+0x7c8>
    346b:	41 b8 f6 01 00 00    	mov    $0x1f6,%r8d
    3471:	48 8d 05 49 00 00 00 	lea    0x49(%rip),%rax        # 34c1 <test_debounce+0x7ff>
    3478:	48 89 c2             	mov    %rax,%rdx
    347b:	48 8d 05 5a 00 00 00 	lea    0x5a(%rip),%rax        # 34dc <test_debounce+0x81a>
    3482:	48 89 c1             	mov    %rax,%rcx
    3485:	e8 b9 cb ff ff       	call   43 <printf>
    348a:	0f b6 45 d0          	movzbl -0x30(%rbp),%eax
    348e:	83 f0 01             	xor    $0x1,%eax
    3491:	84 c0                	test   %al,%al
    3493:	74 24                	je     34b9 <test_debounce+0x7f7>
    3495:	0f b7 45 d2          	movzwl -0x2e(%rbp),%eax
    3499:	83 c0 01             	add    $0x1,%eax
    349c:	66 89 45 d2          	mov    %ax,-0x2e(%rbp)
    34a0:	0f b7 45 d2          	movzwl -0x2e(%rbp),%eax
    34a4:	0f b7 55 d4          	movzwl -0x2c(%rbp),%edx
    34a8:	66 39 c2             	cmp    %ax,%dx
    34ab:	73 12                	jae    34bf <test_debounce+0x7fd>
    34ad:	c6 45 d0 01          	movb   $0x1,-0x30(%rbp)
    34b1:	66 c7 45 d2 00 00    	movw   $0x0,-0x2e(%rbp)
    34b7:	eb 06                	jmp    34bf <test_debounce+0x7fd>
    34b9:	66 c7 45 d2 00 00    	movw   $0x0,-0x2e(%rbp)
    34bf:	0f b6 45 d0          	movzbl -0x30(%rbp),%eax
    34c3:	83 f0 01             	xor    $0x1,%eax
    34c6:	84 c0                	test   %al,%al
    34c8:	74 1f                	je     34e9 <test_debounce+0x827>
    34ca:	41 b8 f8 01 00 00    	mov    $0x1f8,%r8d
    34d0:	48 8d 05 49 00 00 00 	lea    0x49(%rip),%rax        # 3520 <test_debounce+0x85e>
    34d7:	48 89 c2             	mov    %rax,%rdx
    34da:	48 8d 05 5a 00 00 00 	lea    0x5a(%rip),%rax        # 353b <test_debounce+0x879>
    34e1:	48 89 c1             	mov    %rax,%rcx
    34e4:	e8 5a cb ff ff       	call   43 <printf>
    34e9:	0f b6 45 d0          	movzbl -0x30(%rbp),%eax
    34ed:	84 c0                	test   %al,%al
    34ef:	74 24                	je     3515 <test_debounce+0x853>
    34f1:	0f b7 45 d2          	movzwl -0x2e(%rbp),%eax
    34f5:	83 c0 01             	add    $0x1,%eax
    34f8:	66 89 45 d2          	mov    %ax,-0x2e(%rbp)
    34fc:	0f b7 45 d2          	movzwl -0x2e(%rbp),%eax
    3500:	0f b7 55 d6          	movzwl -0x2a(%rbp),%edx
    3504:	66 39 c2             	cmp    %ax,%dx
    3507:	73 12                	jae    351b <test_debounce+0x859>
    3509:	c6 45 d0 00          	movb   $0x0,-0x30(%rbp)
    350d:	66 c7 45 d2 00 00    	movw   $0x0,-0x2e(%rbp)
    3513:	eb 06                	jmp    351b <test_debounce+0x859>
    3515:	66 c7 45 d2 00 00    	movw   $0x0,-0x2e(%rbp)
    351b:	0f b6 45 d0          	movzbl -0x30(%rbp),%eax
    351f:	83 f0 01             	xor    $0x1,%eax
    3522:	84 c0                	test   %al,%al
    3524:	74 1f                	je     3545 <test_debounce+0x883>
    3526:	41 b8 fa 01 00 00    	mov    $0x1fa,%r8d
    352c:	48 8d 05 49 00 00 00 	lea    0x49(%rip),%rax        # 357c <test_debounce+0x8ba>
    3533:	48 89 c2             	mov    %rax,%rdx
    3536:	48 8d 05 5a 00 00 00 	lea    0x5a(%rip),%rax        # 3597 <test_debounce+0x8d5>
    353d:	48 89 c1             	mov    %rax,%rcx
    3540:	e8 fe ca ff ff       	call   43 <printf>
    3545:	0f b6 45 d0          	movzbl -0x30(%rbp),%eax
    3549:	84 c0                	test   %al,%al
    354b:	74 24                	je     3571 <test_debounce+0x8af>
    354d:	0f b7 45 d2          	movzwl -0x2e(%rbp),%eax
    3551:	83 c0 01             	add    $0x1,%eax
    3554:	66 89 45 d2          	mov    %ax,-0x2e(%rbp)
    3558:	0f b7 45 d2          	movzwl -0x2e(%rbp),%eax
    355c:	0f b7 55 d6          	movzwl -0x2a(%rbp),%edx
    3560:	66 39 c2             	cmp    %ax,%dx
    3563:	73 12                	jae    3577 <test_debounce+0x8b5>
    3565:	c6 45 d0 00          	movb   $0x0,-0x30(%rbp)
    3569:	66 c7 45 d2 00 00    	movw   $0x0,-0x2e(%rbp)
    356f:	eb 06                	jmp    3577 <test_debounce+0x8b5>
    3571:	66 c7 45 d2 00 00    	movw   $0x0,-0x2e(%rbp)
    3577:	0f b6 45 d0          	movzbl -0x30(%rbp),%eax
    357b:	83 f0 01             	xor    $0x1,%eax
    357e:	84 c0                	test   %al,%al
    3580:	74 1f                	je     35a1 <test_debounce+0x8df>
    3582:	41 b8 fc 01 00 00    	mov    $0x1fc,%r8d
    3588:	48 8d 05 49 00 00 00 	lea    0x49(%rip),%rax        # 35d8 <test_debounce+0x916>
    358f:	48 89 c2             	mov    %rax,%rdx
    3592:	48 8d 05 5a 00 00 00 	lea    0x5a(%rip),%rax        # 35f3 <test_debounce+0x931>
    3599:	48 89 c1             	mov    %rax,%rcx
    359c:	e8 a2 ca ff ff       	call   43 <printf>
    35a1:	0f b6 45 d0          	movzbl -0x30(%rbp),%eax
    35a5:	84 c0                	test   %al,%al
    35a7:	74 24                	je     35cd <test_debounce+0x90b>
    35a9:	0f b7 45 d2          	movzwl -0x2e(%rbp),%eax
    35ad:	83 c0 01             	add    $0x1,%eax
    35b0:	66 89 45 d2          	mov    %ax,-0x2e(%rbp)
    35b4:	0f b7 45 d2          	movzwl -0x2e(%rbp),%eax
    35b8:	0f b7 55 d6          	movzwl -0x2a(%rbp),%edx
    35bc:	66 39 c2             	cmp    %ax,%dx
    35bf:	73 12                	jae    35d3 <test_debounce+0x911>
    35c1:	c6 45 d0 00          	movb   $0x0,-0x30(%rbp)
    35c5:	66 c7 45 d2 00 00    	movw   $0x0,-0x2e(%rbp)
    35cb:	eb 06                	jmp    35d3 <test_debounce+0x911>
    35cd:	66 c7 45 d2 00 00    	movw   $0x0,-0x2e(%rbp)
    35d3:	0f b6 45 d0          	movzbl -0x30(%rbp),%eax
    35d7:	84 c0                	test   %al,%al
    35d9:	74 1f                	je     35fa <test_debounce+0x938>
    35db:	41 b8 fe 01 00 00    	mov    $0x1fe,%r8d
    35e1:	48 8d 05 49 00 00 00 	lea    0x49(%rip),%rax        # 3631 <test_debounce+0x96f>
    35e8:	48 89 c2             	mov    %rax,%rdx
    35eb:	48 8d 05 5a 00 00 00 	lea    0x5a(%rip),%rax        # 364c <test_debounce+0x98a>
    35f2:	48 89 c1             	mov    %rax,%rcx
    35f5:	e8 49 ca ff ff       	call   43 <printf>
    35fa:	0f b6 45 d0          	movzbl -0x30(%rbp),%eax
    35fe:	84 c0                	test   %al,%al
    3600:	74 24                	je     3626 <test_debounce+0x964>
    3602:	0f b7 45 d2          	movzwl -0x2e(%rbp),%eax
    3606:	83 c0 01             	add    $0x1,%eax
    3609:	66 89 45 d2          	mov    %ax,-0x2e(%rbp)
    360d:	0f b7 45 d2          	movzwl -0x2e(%rbp),%eax
    3611:	0f b7 55 d6          	movzwl -0x2a(%rbp),%edx
    3615:	66 39 c2             	cmp    %ax,%dx
    3618:	73 12                	jae    362c <test_debounce+0x96a>
    361a:	c6 45 d0 00          	movb   $0x0,-0x30(%rbp)
    361e:	66 c7 45 d2 00 00    	movw   $0x0,-0x2e(%rbp)
    3624:	eb 06                	jmp    362c <test_debounce+0x96a>
    3626:	66 c7 45 d2 00 00    	movw   $0x0,-0x2e(%rbp)
    362c:	0f b6 45 d0          	movzbl -0x30(%rbp),%eax
    3630:	84 c0                	test   %al,%al
    3632:	74 1f                	je     3653 <test_debounce+0x991>
    3634:	41 b8 00 02 00 00    	mov    $0x200,%r8d
    363a:	48 8d 05 49 00 00 00 	lea    0x49(%rip),%rax        # 368a <test_debounce+0x9c8>
    3641:	48 89 c2             	mov    %rax,%rdx
    3644:	48 8d 05 5a 00 00 00 	lea    0x5a(%rip),%rax        # 36a5 <test_debounce+0x9e3>
    364b:	48 89 c1             	mov    %rax,%rcx
    364e:	e8 f0 c9 ff ff       	call   43 <printf>
    3653:	0f b6 45 d0          	movzbl -0x30(%rbp),%eax
    3657:	83 f0 01             	xor    $0x1,%eax
    365a:	84 c0                	test   %al,%al
    365c:	74 24                	je     3682 <test_debounce+0x9c0>
    365e:	0f b7 45 d2          	movzwl -0x2e(%rbp),%eax
    3662:	83 c0 01             	add    $0x1,%eax
    3665:	66 89 45 d2          	mov    %ax,-0x2e(%rbp)
    3669:	0f b7 45 d2          	movzwl -0x2e(%rbp),%eax
    366d:	0f b7 55 d4          	movzwl -0x2c(%rbp),%edx
    3671:	66 39 c2             	cmp    %ax,%dx
    3674:	73 12                	jae    3688 <test_debounce+0x9c6>
    3676:	c6 45 d0 01          	movb   $0x1,-0x30(%rbp)
    367a:	66 c7 45 d2 00 00    	movw   $0x0,-0x2e(%rbp)
    3680:	eb 06                	jmp    3688 <test_debounce+0x9c6>
    3682:	66 c7 45 d2 00 00    	movw   $0x0,-0x2e(%rbp)
    3688:	0f b6 45 d0          	movzbl -0x30(%rbp),%eax
    368c:	84 c0                	test   %al,%al
    368e:	74 1f                	je     36af <test_debounce+0x9ed>
    3690:	41 b8 02 02 00 00    	mov    $0x202,%r8d
    3696:	48 8d 05 49 00 00 00 	lea    0x49(%rip),%rax        # 36e6 <test_debounce+0xa24>
    369d:	48 89 c2             	mov    %rax,%rdx
    36a0:	48 8d 05 5a 00 00 00 	lea    0x5a(%rip),%rax        # 3701 <test_debounce+0xa3f>
    36a7:	48 89 c1             	mov    %rax,%rcx
    36aa:	e8 94 c9 ff ff       	call   43 <printf>
    36af:	0f b6 45 d0          	movzbl -0x30(%rbp),%eax
    36b3:	83 f0 01             	xor    $0x1,%eax
    36b6:	84 c0                	test   %al,%al
    36b8:	74 24                	je     36de <test_debounce+0xa1c>
    36ba:	0f b7 45 d2          	movzwl -0x2e(%rbp),%eax
    36be:	83 c0 01             	add    $0x1,%eax
    36c1:	66 89 45 d2          	mov    %ax,-0x2e(%rbp)
    36c5:	0f b7 45 d2          	movzwl -0x2e(%rbp),%eax
    36c9:	0f b7 55 d4          	movzwl -0x2c(%rbp),%edx
    36cd:	66 39 c2             	cmp    %ax,%dx
    36d0:	73 12                	jae    36e4 <test_debounce+0xa22>
    36d2:	c6 45 d0 01          	movb   $0x1,-0x30(%rbp)
    36d6:	66 c7 45 d2 00 00    	movw   $0x0,-0x2e(%rbp)
    36dc:	eb 06                	jmp    36e4 <test_debounce+0xa22>
    36de:	66 c7 45 d2 00 00    	movw   $0x0,-0x2e(%rbp)
    36e4:	0f b6 45 d0          	movzbl -0x30(%rbp),%eax
    36e8:	84 c0                	test   %al,%al
    36ea:	74 1f                	je     370b <test_debounce+0xa49>
    36ec:	41 b8 04 02 00 00    	mov    $0x204,%r8d
    36f2:	48 8d 05 49 00 00 00 	lea    0x49(%rip),%rax        # 3742 <test_debounce+0xa80>
    36f9:	48 89 c2             	mov    %rax,%rdx
    36fc:	48 8d 05 5a 00 00 00 	lea    0x5a(%rip),%rax        # 375d <test_debounce+0xa9b>
    3703:	48 89 c1             	mov    %rax,%rcx
    3706:	e8 38 c9 ff ff       	call   43 <printf>
    370b:	0f b6 45 d0          	movzbl -0x30(%rbp),%eax
    370f:	83 f0 01             	xor    $0x1,%eax
    3712:	84 c0                	test   %al,%al
    3714:	74 24                	je     373a <test_debounce+0xa78>
    3716:	0f b7 45 d2          	movzwl -0x2e(%rbp),%eax
    371a:	83 c0 01             	add    $0x1,%eax
    371d:	66 89 45 d2          	mov    %ax,-0x2e(%rbp)
    3721:	0f b7 45 d2          	movzwl -0x2e(%rbp),%eax
    3725:	0f b7 55 d4          	movzwl -0x2c(%rbp),%edx
    3729:	66 39 c2             	cmp    %ax,%dx
    372c:	73 12                	jae    3740 <test_debounce+0xa7e>
    372e:	c6 45 d0 01          	movb   $0x1,-0x30(%rbp)
    3732:	66 c7 45 d2 00 00    	movw   $0x0,-0x2e(%rbp)
    3738:	eb 06                	jmp    3740 <test_debounce+0xa7e>
    373a:	66 c7 45 d2 00 00    	movw   $0x0,-0x2e(%rbp)
    3740:	0f b6 45 d0          	movzbl -0x30(%rbp),%eax
    3744:	83 f0 01             	xor    $0x1,%eax
    3747:	84 c0                	test   %al,%al
    3749:	74 1f                	je     376a <test_debounce+0xaa8>
    374b:	41 b8 06 02 00 00    	mov    $0x206,%r8d
    3751:	48 8d 05 49 00 00 00 	lea    0x49(%rip),%rax        # 37a1 <test_robust+0x30>
    3758:	48 89 c2             	mov    %rax,%rdx
    375b:	48 8d 05 5a 00 00 00 	lea    0x5a(%rip),%rax        # 37bc <test_robust+0x4b>
    3762:	48 89 c1             	mov    %rax,%rcx
    3765:	e8 d9 c8 ff ff       	call   43 <printf>
    376a:	90                   	nop
    376b:	48 83 c4 50          	add    $0x50,%rsp
    376f:	5d                   	pop    %rbp
    3770:	c3                   	ret

0000000000003771 <test_robust>:
    3771:	55                   	push   %rbp
    3772:	48 89 e5             	mov    %rsp,%rbp
    3775:	48 81 ec a0 00 00 00 	sub    $0xa0,%rsp
    377c:	48 8d 05 20 04 00 00 	lea    0x420(%rip),%rax        # 3ba3 <test_robust+0x432>
    3783:	48 89 c1             	mov    %rax,%rcx
    3786:	e8 b8 c8 ff ff       	call   43 <printf>
    378b:	f3 0f 10 05 a0 07 00 	movss  0x7a0(%rip),%xmm0        # 3f33 <test_robust+0x7c2>
    3792:	00 
    3793:	f3 0f 11 45 f0       	movss  %xmm0,-0x10(%rbp)
    3798:	f3 0f 10 05 9c 07 00 	movss  0x79c(%rip),%xmm0        # 3f3c <test_robust+0x7cb>
    379f:	00 
    37a0:	f3 0f 11 45 f4       	movss  %xmm0,-0xc(%rbp)
    37a5:	f3 0f 10 05 d0 07 00 	movss  0x7d0(%rip),%xmm0        # 3f7d <test_robust+0x80c>
    37ac:	00 
    37ad:	f3 0f 11 45 f8       	movss  %xmm0,-0x8(%rbp)
    37b2:	f3 0f 10 05 b4 07 00 	movss  0x7b4(%rip),%xmm0        # 3f6e <test_robust+0x7fd>
    37b9:	00 
    37ba:	f3 0f 11 45 fc       	movss  %xmm0,-0x4(%rbp)
    37bf:	66 0f ef c0          	pxor   %xmm0,%xmm0
    37c3:	f3 0f 11 45 e0       	movss  %xmm0,-0x20(%rbp)
    37c8:	f3 0f 10 05 cc 07 00 	movss  0x7cc(%rip),%xmm0        # 3f9c <test_robust+0x82b>
    37cf:	00 
    37d0:	f3 0f 11 45 e4       	movss  %xmm0,-0x1c(%rbp)
    37d5:	f3 0f 10 05 a4 07 00 	movss  0x7a4(%rip),%xmm0        # 3f81 <test_robust+0x810>
    37dc:	00 
    37dd:	f3 0f 11 45 e8       	movss  %xmm0,-0x18(%rbp)
    37e2:	f3 0f 10 05 9c 07 00 	movss  0x79c(%rip),%xmm0        # 3f86 <test_robust+0x815>
    37e9:	00 
    37ea:	f3 0f 11 45 ec       	movss  %xmm0,-0x14(%rbp)
    37ef:	f3 0f 10 05 9c 07 00 	movss  0x79c(%rip),%xmm0        # 3f93 <test_robust+0x822>
    37f6:	00 
    37f7:	f3 0f 11 45 d0       	movss  %xmm0,-0x30(%rbp)
    37fc:	f3 0f 10 05 9c 07 00 	movss  0x79c(%rip),%xmm0        # 3fa0 <test_robust+0x82f>
    3803:	00 
    3804:	f3 0f 11 45 d4       	movss  %xmm0,-0x2c(%rbp)
    3809:	f3 0f 10 05 9c 07 00 	movss  0x79c(%rip),%xmm0        # 3fad <test_robust+0x83c>
    3810:	00 
    3811:	f3 0f 11 45 d8       	movss  %xmm0,-0x28(%rbp)
    3816:	f3 0f 10 05 9c 07 00 	movss  0x79c(%rip),%xmm0        # 3fba <test_robust+0x849>
    381d:	00 
    381e:	f3 0f 11 45 dc       	movss  %xmm0,-0x24(%rbp)
    3823:	f3 0f 10 05 9c 07 00 	movss  0x79c(%rip),%xmm0        # 3fc7 <test_robust+0x856>
    382a:	00 
    382b:	f3 0f 11 45 c0       	movss  %xmm0,-0x40(%rbp)
    3830:	f3 0f 10 05 9c 07 00 	movss  0x79c(%rip),%xmm0        # 3fd4 <test_robust+0x863>
    3837:	00 
    3838:	f3 0f 11 45 c4       	movss  %xmm0,-0x3c(%rbp)
    383d:	f3 0f 10 05 9c 07 00 	movss  0x79c(%rip),%xmm0        # 3fe1 <test_robust+0x870>
    3844:	00 
    3845:	f3 0f 11 45 c8       	movss  %xmm0,-0x38(%rbp)
    384a:	f3 0f 10 05 9c 07 00 	movss  0x79c(%rip),%xmm0        # 3fee <test_robust+0x87d>
    3851:	00 
    3852:	f3 0f 11 45 cc       	movss  %xmm0,-0x34(%rbp)
    3857:	66 c7 45 80 00 00    	movw   $0x0,-0x80(%rbp)
    385d:	66 0f ef c0          	pxor   %xmm0,%xmm0
    3861:	f3 0f 11 45 84       	movss  %xmm0,-0x7c(%rbp)
    3866:	f3 0f 10 05 a0 07 00 	movss  0x7a0(%rip),%xmm0        # 400e <test_robust+0x89d>
    386d:	00 
    386e:	f3 0f 11 45 88       	movss  %xmm0,-0x78(%rbp)
    3873:	48 8d 45 f0          	lea    -0x10(%rbp),%rax
    3877:	48 89 45 90          	mov    %rax,-0x70(%rbp)
    387b:	48 8d 45 e0          	lea    -0x20(%rbp),%rax
    387f:	48 89 45 98          	mov    %rax,-0x68(%rbp)
    3883:	48 8d 45 d0          	lea    -0x30(%rbp),%rax
    3887:	48 89 45 a0          	mov    %rax,-0x60(%rbp)
    388b:	48 8d 45 c0          	lea    -0x40(%rbp),%rax
    388f:	48 89 45 a8          	mov    %rax,-0x58(%rbp)
    3893:	66 c7 45 b0 04 00    	movw   $0x4,-0x50(%rbp)
    3899:	48 8d 45 80          	lea    -0x80(%rbp),%rax
    389d:	48 89 c1             	mov    %rax,%rcx
    38a0:	e8 00 00 00 00       	call   38a5 <test_robust+0x134>
    38a5:	48 8d 45 80          	lea    -0x80(%rbp),%rax
    38a9:	f3 0f 10 0d ac 07 00 	movss  0x7ac(%rip),%xmm1        # 405d <test_robust+0x8ec>
    38b0:	00 
    38b1:	48 89 c1             	mov    %rax,%rcx
    38b4:	e8 00 00 00 00       	call   38b9 <test_robust+0x148>
    38b9:	66 85 c0             	test   %ax,%ax
    38bc:	74 1f                	je     38dd <test_robust+0x16c>
    38be:	41 b8 19 02 00 00    	mov    $0x219,%r8d
    38c4:	48 8d 05 49 00 00 00 	lea    0x49(%rip),%rax        # 3914 <test_robust+0x1a3>
    38cb:	48 89 c2             	mov    %rax,%rdx
    38ce:	48 8d 05 5a 00 00 00 	lea    0x5a(%rip),%rax        # 392f <test_robust+0x1be>
    38d5:	48 89 c1             	mov    %rax,%rcx
    38d8:	e8 66 c7 ff ff       	call   43 <printf>
    38dd:	48 8d 45 80          	lea    -0x80(%rbp),%rax
    38e1:	f3 0f 10 0d ac 07 00 	movss  0x7ac(%rip),%xmm1        # 4095 <test_robust+0x924>
    38e8:	00 
    38e9:	48 89 c1             	mov    %rax,%rcx
    38ec:	e8 00 00 00 00       	call   38f1 <test_robust+0x180>
    38f1:	66 85 c0             	test   %ax,%ax
    38f4:	74 1f                	je     3915 <test_robust+0x1a4>
    38f6:	41 b8 1a 02 00 00    	mov    $0x21a,%r8d
    38fc:	48 8d 05 49 00 00 00 	lea    0x49(%rip),%rax        # 394c <test_robust+0x1db>
    3903:	48 89 c2             	mov    %rax,%rdx
    3906:	48 8d 05 5a 00 00 00 	lea    0x5a(%rip),%rax        # 3967 <test_robust+0x1f6>
    390d:	48 89 c1             	mov    %rax,%rcx
    3910:	e8 2e c7 ff ff       	call   43 <printf>
    3915:	48 8d 45 80          	lea    -0x80(%rbp),%rax
    3919:	f3 0f 10 0d ac 07 00 	movss  0x7ac(%rip),%xmm1        # 40cd <test_robust+0x95c>
    3920:	00 
    3921:	48 89 c1             	mov    %rax,%rcx
    3924:	e8 00 00 00 00       	call   3929 <test_robust+0x1b8>
    3929:	66 83 f8 01          	cmp    $0x1,%ax
    392d:	74 1f                	je     394e <test_robust+0x1dd>
    392f:	41 b8 1b 02 00 00    	mov    $0x21b,%r8d
    3935:	48 8d 05 49 00 00 00 	lea    0x49(%rip),%rax        # 3985 <test_robust+0x214>
    393c:	48 89 c2             	mov    %rax,%rdx
    393f:	48 8d 05 5a 00 00 00 	lea    0x5a(%rip),%rax        # 39a0 <test_robust+0x22f>
    3946:	48 89 c1             	mov    %rax,%rcx
    3949:	e8 f5 c6 ff ff       	call   43 <printf>
    394e:	48 8d 45 80          	lea    -0x80(%rbp),%rax
    3952:	f3 0f 10 0d ac 07 00 	movss  0x7ac(%rip),%xmm1        # 4106 <test_robust+0x995>
    3959:	00 
    395a:	48 89 c1             	mov    %rax,%rcx
    395d:	e8 00 00 00 00       	call   3962 <test_robust+0x1f1>
    3962:	66 83 f8 01          	cmp    $0x1,%ax
    3966:	74 1f                	je     3987 <test_robust+0x216>
    3968:	41 b8 1c 02 00 00    	mov    $0x21c,%r8d
    396e:	48 8d 05 49 00 00 00 	lea    0x49(%rip),%rax        # 39be <test_robust+0x24d>
    3975:	48 89 c2             	mov    %rax,%rdx
    3978:	48 8d 05 5a 00 00 00 	lea    0x5a(%rip),%rax        # 39d9 <test_robust+0x268>
    397f:	48 89 c1             	mov    %rax,%rcx
    3982:	e8 bc c6 ff ff       	call   43 <printf>
    3987:	48 8d 45 80          	lea    -0x80(%rbp),%rax
    398b:	f3 0f 10 0d ac 07 00 	movss  0x7ac(%rip),%xmm1        # 413f <test_robust+0x9ce>
    3992:	00 
    3993:	48 89 c1             	mov    %rax,%rcx
    3996:	e8 00 00 00 00       	call   399b <test_robust+0x22a>
    399b:	66 83 f8 01          	cmp    $0x1,%ax
    399f:	74 1f                	je     39c0 <test_robust+0x24f>
    39a1:	41 b8 1d 02 00 00    	mov    $0x21d,%r8d
    39a7:	48 8d 05 49 00 00 00 	lea    0x49(%rip),%rax        # 39f7 <test_robust+0x286>
    39ae:	48 89 c2             	mov    %rax,%rdx
    39b1:	48 8d 05 5a 00 00 00 	lea    0x5a(%rip),%rax        # 3a12 <test_robust+0x2a1>
    39b8:	48 89 c1             	mov    %rax,%rcx
    39bb:	e8 83 c6 ff ff       	call   43 <printf>
    39c0:	48 8d 45 80          	lea    -0x80(%rbp),%rax
    39c4:	f3 0f 10 0d ac 07 00 	movss  0x7ac(%rip),%xmm1        # 4178 <test_robust+0xa07>
    39cb:	00 
    39cc:	48 89 c1             	mov    %rax,%rcx
    39cf:	e8 00 00 00 00       	call   39d4 <test_robust+0x263>
    39d4:	66 83 f8 02          	cmp    $0x2,%ax
    39d8:	74 1f                	je     39f9 <test_robust+0x288>
    39da:	41 b8 1e 02 00 00    	mov    $0x21e,%r8d
    39e0:	48 8d 05 49 00 00 00 	lea    0x49(%rip),%rax        # 3a30 <test_robust+0x2bf>
    39e7:	48 89 c2             	mov    %rax,%rdx
    39ea:	48 8d 05 5a 00 00 00 	lea    0x5a(%rip),%rax        # 3a4b <test_robust+0x2da>
    39f1:	48 89 c1             	mov    %rax,%rcx
    39f4:	e8 4a c6 ff ff       	call   43 <printf>
    39f9:	48 8d 45 80          	lea    -0x80(%rbp),%rax
    39fd:	f3 0f 10 0d ac 07 00 	movss  0x7ac(%rip),%xmm1        # 41b1 <test_robust+0xa40>
    3a04:	00 
    3a05:	48 89 c1             	mov    %rax,%rcx
    3a08:	e8 00 00 00 00       	call   3a0d <test_robust+0x29c>
    3a0d:	66 83 f8 02          	cmp    $0x2,%ax
    3a11:	74 1f                	je     3a32 <test_robust+0x2c1>
    3a13:	41 b8 1f 02 00 00    	mov    $0x21f,%r8d
    3a19:	48 8d 05 49 00 00 00 	lea    0x49(%rip),%rax        # 3a69 <test_robust+0x2f8>
    3a20:	48 89 c2             	mov    %rax,%rdx
    3a23:	48 8d 05 5a 00 00 00 	lea    0x5a(%rip),%rax        # 3a84 <test_robust+0x313>
    3a2a:	48 89 c1             	mov    %rax,%rcx
    3a2d:	e8 11 c6 ff ff       	call   43 <printf>
    3a32:	48 8d 45 80          	lea    -0x80(%rbp),%rax
    3a36:	f3 0f 10 0d ac 07 00 	movss  0x7ac(%rip),%xmm1        # 41ea <test_robust+0xa79>
    3a3d:	00 
    3a3e:	48 89 c1             	mov    %rax,%rcx
    3a41:	e8 00 00 00 00       	call   3a46 <test_robust+0x2d5>
    3a46:	66 83 f8 02          	cmp    $0x2,%ax
    3a4a:	74 1f                	je     3a6b <test_robust+0x2fa>
    3a4c:	41 b8 20 02 00 00    	mov    $0x220,%r8d
    3a52:	48 8d 05 49 00 00 00 	lea    0x49(%rip),%rax        # 3aa2 <test_robust+0x331>
    3a59:	48 89 c2             	mov    %rax,%rdx
    3a5c:	48 8d 05 5a 00 00 00 	lea    0x5a(%rip),%rax        # 3abd <test_robust+0x34c>
    3a63:	48 89 c1             	mov    %rax,%rcx
    3a66:	e8 d8 c5 ff ff       	call   43 <printf>
    3a6b:	48 8d 45 80          	lea    -0x80(%rbp),%rax
    3a6f:	f3 0f 10 0d ac 07 00 	movss  0x7ac(%rip),%xmm1        # 4223 <test_robust+0xab2>
    3a76:	00 
    3a77:	48 89 c1             	mov    %rax,%rcx
    3a7a:	e8 00 00 00 00       	call   3a7f <test_robust+0x30e>
    3a7f:	66 83 f8 03          	cmp    $0x3,%ax
    3a83:	74 1f                	je     3aa4 <test_robust+0x333>
    3a85:	41 b8 21 02 00 00    	mov    $0x221,%r8d
    3a8b:	48 8d 05 49 00 00 00 	lea    0x49(%rip),%rax        # 3adb <test_robust+0x36a>
    3a92:	48 89 c2             	mov    %rax,%rdx
    3a95:	48 8d 05 5a 00 00 00 	lea    0x5a(%rip),%rax        # 3af6 <test_robust+0x385>
    3a9c:	48 89 c1             	mov    %rax,%rcx
    3a9f:	e8 9f c5 ff ff       	call   43 <printf>
    3aa4:	48 8d 45 80          	lea    -0x80(%rbp),%rax
    3aa8:	f3 0f 10 0d ac 07 00 	movss  0x7ac(%rip),%xmm1        # 425c <test_robust+0xaeb>
    3aaf:	00 
    3ab0:	48 89 c1             	mov    %rax,%rcx
    3ab3:	e8 00 00 00 00       	call   3ab8 <test_robust+0x347>
    3ab8:	66 83 f8 03          	cmp    $0x3,%ax
    3abc:	74 1f                	je     3add <test_robust+0x36c>
    3abe:	41 b8 22 02 00 00    	mov    $0x222,%r8d
    3ac4:	48 8d 05 49 00 00 00 	lea    0x49(%rip),%rax        # 3b14 <test_robust+0x3a3>
    3acb:	48 89 c2             	mov    %rax,%rdx
    3ace:	48 8d 05 5a 00 00 00 	lea    0x5a(%rip),%rax        # 3b2f <test_robust+0x3be>
    3ad5:	48 89 c1             	mov    %rax,%rcx
    3ad8:	e8 66 c5 ff ff       	call   43 <printf>
    3add:	48 8d 45 80          	lea    -0x80(%rbp),%rax
    3ae1:	f3 0f 10 0d ac 07 00 	movss  0x7ac(%rip),%xmm1        # 4295 <test_robust+0xb24>
    3ae8:	00 
    3ae9:	48 89 c1             	mov    %rax,%rcx
    3aec:	e8 00 00 00 00       	call   3af1 <test_robust+0x380>
    3af1:	66 83 f8 03          	cmp    $0x3,%ax
    3af5:	74 1f                	je     3b16 <test_robust+0x3a5>
    3af7:	41 b8 23 02 00 00    	mov    $0x223,%r8d
    3afd:	48 8d 05 49 00 00 00 	lea    0x49(%rip),%rax        # 3b4d <test_robust+0x3dc>
    3b04:	48 89 c2             	mov    %rax,%rdx
    3b07:	48 8d 05 5a 00 00 00 	lea    0x5a(%rip),%rax        # 3b68 <test_robust+0x3f7>
    3b0e:	48 89 c1             	mov    %rax,%rcx
    3b11:	e8 2d c5 ff ff       	call   43 <printf>
    3b16:	48 8d 45 80          	lea    -0x80(%rbp),%rax
    3b1a:	f3 0f 10 0d ac 07 00 	movss  0x7ac(%rip),%xmm1        # 42ce <test_robust+0xb5d>
    3b21:	00 
    3b22:	48 89 c1             	mov    %rax,%rcx
    3b25:	e8 00 00 00 00       	call   3b2a <test_robust+0x3b9>
    3b2a:	66 83 f8 03          	cmp    $0x3,%ax
    3b2e:	74 1f                	je     3b4f <test_robust+0x3de>
    3b30:	41 b8 24 02 00 00    	mov    $0x224,%r8d
    3b36:	48 8d 05 49 00 00 00 	lea    0x49(%rip),%rax        # 3b86 <test_robust+0x415>
    3b3d:	48 89 c2             	mov    %rax,%rdx
    3b40:	48 8d 05 5a 00 00 00 	lea    0x5a(%rip),%rax        # 3ba1 <test_robust+0x430>
    3b47:	48 89 c1             	mov    %rax,%rcx
    3b4a:	e8 f4 c4 ff ff       	call   43 <printf>
    3b4f:	48 8d 45 80          	lea    -0x80(%rbp),%rax
    3b53:	f3 0f 10 0d ac 07 00 	movss  0x7ac(%rip),%xmm1        # 4307 <test_robust+0xb96>
    3b5a:	00 
    3b5b:	48 89 c1             	mov    %rax,%rcx
    3b5e:	e8 00 00 00 00       	call   3b63 <test_robust+0x3f2>
    3b63:	66 83 f8 03          	cmp    $0x3,%ax
    3b67:	74 1f                	je     3b88 <test_robust+0x417>
    3b69:	41 b8 25 02 00 00    	mov    $0x225,%r8d
    3b6f:	48 8d 05 49 00 00 00 	lea    0x49(%rip),%rax        # 3bbf <test_robust+0x44e>
    3b76:	48 89 c2             	mov    %rax,%rdx
    3b79:	48 8d 05 5a 00 00 00 	lea    0x5a(%rip),%rax        # 3bda <test_robust+0x469>
    3b80:	48 89 c1             	mov    %rax,%rcx
    3b83:	e8 bb c4 ff ff       	call   43 <printf>
    3b88:	48 8d 45 80          	lea    -0x80(%rbp),%rax
    3b8c:	f3 0f 10 0d ac 07 00 	movss  0x7ac(%rip),%xmm1        # 4340 <test_robust+0xbcf>
    3b93:	00 
    3b94:	48 89 c1             	mov    %rax,%rcx
    3b97:	e8 00 00 00 00       	call   3b9c <test_robust+0x42b>
    3b9c:	66 83 f8 03          	cmp    $0x3,%ax
    3ba0:	74 1f                	je     3bc1 <test_robust+0x450>
    3ba2:	41 b8 26 02 00 00    	mov    $0x226,%r8d
    3ba8:	48 8d 05 49 00 00 00 	lea    0x49(%rip),%rax        # 3bf8 <test_robust+0x487>
    3baf:	48 89 c2             	mov    %rax,%rdx
    3bb2:	48 8d 05 5a 00 00 00 	lea    0x5a(%rip),%rax        # 3c13 <test_robust+0x4a2>
    3bb9:	48 89 c1             	mov    %rax,%rcx
    3bbc:	e8 82 c4 ff ff       	call   43 <printf>
    3bc1:	48 8d 45 80          	lea    -0x80(%rbp),%rax
    3bc5:	f3 0f 10 0d 3c 08 00 	movss  0x83c(%rip),%xmm1        # 4409 <test_robust+0xc98>
    3bcc:	00 
    3bcd:	48 89 c1             	mov    %rax,%rcx
    3bd0:	e8 00 00 00 00       	call   3bd5 <test_robust+0x464>
    3bd5:	66 83 f8 03          	cmp    $0x3,%ax
    3bd9:	74 1f                	je     3bfa <test_robust+0x489>
    3bdb:	41 b8 27 02 00 00    	mov    $0x227,%r8d
    3be1:	48 8d 05 49 00 00 00 	lea    0x49(%rip),%rax        # 3c31 <test_robust+0x4c0>
    3be8:	48 89 c2             	mov    %rax,%rdx
    3beb:	48 8d 05 5a 00 00 00 	lea    0x5a(%rip),%rax        # 3c4c <test_robust+0x4db>
    3bf2:	48 89 c1             	mov    %rax,%rcx
    3bf5:	e8 49 c4 ff ff       	call   43 <printf>
    3bfa:	48 8d 45 80          	lea    -0x80(%rbp),%rax
    3bfe:	f3 0f 10 0d 3c 08 00 	movss  0x83c(%rip),%xmm1        # 4442 <test_robust+0xcd1>
    3c05:	00 
    3c06:	48 89 c1             	mov    %rax,%rcx
    3c09:	e8 00 00 00 00       	call   3c0e <test_robust+0x49d>
    3c0e:	66 83 f8 03          	cmp    $0x3,%ax
    3c12:	74 1f                	je     3c33 <test_robust+0x4c2>
    3c14:	41 b8 28 02 00 00    	mov    $0x228,%r8d
    3c1a:	48 8d 05 49 00 00 00 	lea    0x49(%rip),%rax        # 3c6a <test_robust+0x4f9>
    3c21:	48 89 c2             	mov    %rax,%rdx
    3c24:	48 8d 05 5a 00 00 00 	lea    0x5a(%rip),%rax        # 3c85 <test_robust+0x514>
    3c2b:	48 89 c1             	mov    %rax,%rcx
    3c2e:	e8 10 c4 ff ff       	call   43 <printf>
    3c33:	48 8d 45 80          	lea    -0x80(%rbp),%rax
    3c37:	f3 0f 10 0d 3c 08 00 	movss  0x83c(%rip),%xmm1        # 447b <test_robust+0xd0a>
    3c3e:	00 
    3c3f:	48 89 c1             	mov    %rax,%rcx
    3c42:	e8 00 00 00 00       	call   3c47 <test_robust+0x4d6>
    3c47:	66 83 f8 02          	cmp    $0x2,%ax
    3c4b:	74 1f                	je     3c6c <test_robust+0x4fb>
    3c4d:	41 b8 29 02 00 00    	mov    $0x229,%r8d
    3c53:	48 8d 05 49 00 00 00 	lea    0x49(%rip),%rax        # 3ca3 <test_robust+0x532>
    3c5a:	48 89 c2             	mov    %rax,%rdx
    3c5d:	48 8d 05 5a 00 00 00 	lea    0x5a(%rip),%rax        # 3cbe <test_robust+0x54d>
    3c64:	48 89 c1             	mov    %rax,%rcx
    3c67:	e8 d7 c3 ff ff       	call   43 <printf>
    3c6c:	48 8d 45 80          	lea    -0x80(%rbp),%rax
    3c70:	f3 0f 10 0d 3c 08 00 	movss  0x83c(%rip),%xmm1        # 44b4 <test_robust+0xd43>
    3c77:	00 
    3c78:	48 89 c1             	mov    %rax,%rcx
    3c7b:	e8 00 00 00 00       	call   3c80 <test_robust+0x50f>
    3c80:	66 83 f8 02          	cmp    $0x2,%ax
    3c84:	74 1f                	je     3ca5 <test_robust+0x534>
    3c86:	41 b8 2a 02 00 00    	mov    $0x22a,%r8d
    3c8c:	48 8d 05 49 00 00 00 	lea    0x49(%rip),%rax        # 3cdc <test_robust+0x56b>
    3c93:	48 89 c2             	mov    %rax,%rdx
    3c96:	48 8d 05 5a 00 00 00 	lea    0x5a(%rip),%rax        # 3cf7 <test_robust+0x586>
    3c9d:	48 89 c1             	mov    %rax,%rcx
    3ca0:	e8 9e c3 ff ff       	call   43 <printf>
    3ca5:	48 8d 45 80          	lea    -0x80(%rbp),%rax
    3ca9:	f3 0f 10 0d 3c 08 00 	movss  0x83c(%rip),%xmm1        # 44ed <test_robust+0xd7c>
    3cb0:	00 
    3cb1:	48 89 c1             	mov    %rax,%rcx
    3cb4:	e8 00 00 00 00       	call   3cb9 <test_robust+0x548>
    3cb9:	66 83 f8 02          	cmp    $0x2,%ax
    3cbd:	74 1f                	je     3cde <test_robust+0x56d>
    3cbf:	41 b8 2b 02 00 00    	mov    $0x22b,%r8d
    3cc5:	48 8d 05 49 00 00 00 	lea    0x49(%rip),%rax        # 3d15 <test_robust+0x5a4>
    3ccc:	48 89 c2             	mov    %rax,%rdx
    3ccf:	48 8d 05 5a 00 00 00 	lea    0x5a(%rip),%rax        # 3d30 <test_robust+0x5bf>
    3cd6:	48 89 c1             	mov    %rax,%rcx
    3cd9:	e8 65 c3 ff ff       	call   43 <printf>
    3cde:	48 8d 45 80          	lea    -0x80(%rbp),%rax
    3ce2:	f3 0f 10 0d 3c 08 00 	movss  0x83c(%rip),%xmm1        # 4526 <test_robust+0xdb5>
    3ce9:	00 
    3cea:	48 89 c1             	mov    %rax,%rcx
    3ced:	e8 00 00 00 00       	call   3cf2 <test_robust+0x581>
    3cf2:	66 83 f8 01          	cmp    $0x1,%ax
    3cf6:	74 1f                	je     3d17 <test_robust+0x5a6>
    3cf8:	41 b8 2c 02 00 00    	mov    $0x22c,%r8d
    3cfe:	48 8d 05 49 00 00 00 	lea    0x49(%rip),%rax        # 3d4e <test_robust+0x5dd>
    3d05:	48 89 c2             	mov    %rax,%rdx
    3d08:	48 8d 05 5a 00 00 00 	lea    0x5a(%rip),%rax        # 3d69 <test_robust+0x5f8>
    3d0f:	48 89 c1             	mov    %rax,%rcx
    3d12:	e8 2c c3 ff ff       	call   43 <printf>
    3d17:	48 8d 45 80          	lea    -0x80(%rbp),%rax
    3d1b:	f3 0f 10 0d 3c 08 00 	movss  0x83c(%rip),%xmm1        # 455f <test_robust+0xdee>
    3d22:	00 
    3d23:	48 89 c1             	mov    %rax,%rcx
    3d26:	e8 00 00 00 00       	call   3d2b <test_robust+0x5ba>
    3d2b:	66 83 f8 01          	cmp    $0x1,%ax
    3d2f:	74 1f                	je     3d50 <test_robust+0x5df>
    3d31:	41 b8 2d 02 00 00    	mov    $0x22d,%r8d
    3d37:	48 8d 05 49 00 00 00 	lea    0x49(%rip),%rax        # 3d87 <test_robust+0x616>
    3d3e:	48 89 c2             	mov    %rax,%rdx
    3d41:	48 8d 05 5a 00 00 00 	lea    0x5a(%rip),%rax        # 3da2 <test_robust+0x631>
    3d48:	48 89 c1             	mov    %rax,%rcx
    3d4b:	e8 f3 c2 ff ff       	call   43 <printf>
    3d50:	48 8d 45 80          	lea    -0x80(%rbp),%rax
    3d54:	f3 0f 10 0d 3c 08 00 	movss  0x83c(%rip),%xmm1        # 4598 <test_robust+0xe27>
    3d5b:	00 
    3d5c:	48 89 c1             	mov    %rax,%rcx
    3d5f:	e8 00 00 00 00       	call   3d64 <test_robust+0x5f3>
    3d64:	66 83 f8 01          	cmp    $0x1,%ax
    3d68:	74 1f                	je     3d89 <test_robust+0x618>
    3d6a:	41 b8 2e 02 00 00    	mov    $0x22e,%r8d
    3d70:	48 8d 05 49 00 00 00 	lea    0x49(%rip),%rax        # 3dc0 <test_robust+0x64f>
    3d77:	48 89 c2             	mov    %rax,%rdx
    3d7a:	48 8d 05 5a 00 00 00 	lea    0x5a(%rip),%rax        # 3ddb <test_robust+0x66a>
    3d81:	48 89 c1             	mov    %rax,%rcx
    3d84:	e8 ba c2 ff ff       	call   43 <printf>
    3d89:	48 8d 45 80          	lea    -0x80(%rbp),%rax
    3d8d:	f3 0f 10 0d 3c 08 00 	movss  0x83c(%rip),%xmm1        # 45d1 <test_robust+0xe60>
    3d94:	00 
    3d95:	48 89 c1             	mov    %rax,%rcx
    3d98:	e8 00 00 00 00       	call   3d9d <test_robust+0x62c>
    3d9d:	66 85 c0             	test   %ax,%ax
    3da0:	74 1f                	je     3dc1 <test_robust+0x650>
    3da2:	41 b8 2f 02 00 00    	mov    $0x22f,%r8d
    3da8:	48 8d 05 49 00 00 00 	lea    0x49(%rip),%rax        # 3df8 <test_robust+0x687>
    3daf:	48 89 c2             	mov    %rax,%rdx
    3db2:	48 8d 05 5a 00 00 00 	lea    0x5a(%rip),%rax        # 3e13 <test_robust+0x6a2>
    3db9:	48 89 c1             	mov    %rax,%rcx
    3dbc:	e8 82 c2 ff ff       	call   43 <printf>
    3dc1:	48 8d 45 80          	lea    -0x80(%rbp),%rax
    3dc5:	f3 0f 10 0d 3c 08 00 	movss  0x83c(%rip),%xmm1        # 4609 <test_robust+0xe98>
    3dcc:	00 
    3dcd:	48 89 c1             	mov    %rax,%rcx
    3dd0:	e8 00 00 00 00       	call   3dd5 <test_robust+0x664>
    3dd5:	66 85 c0             	test   %ax,%ax
    3dd8:	74 1f                	je     3df9 <test_robust+0x688>
    3dda:	41 b8 30 02 00 00    	mov    $0x230,%r8d
    3de0:	48 8d 05 49 00 00 00 	lea    0x49(%rip),%rax        # 3e30 <test_robust+0x6bf>
    3de7:	48 89 c2             	mov    %rax,%rdx
    3dea:	48 8d 05 5a 00 00 00 	lea    0x5a(%rip),%rax        # 3e4b <test_robust+0x6da>
    3df1:	48 89 c1             	mov    %rax,%rcx
    3df4:	e8 4a c2 ff ff       	call   43 <printf>
    3df9:	48 8d 45 80          	lea    -0x80(%rbp),%rax
    3dfd:	f3 0f 10 0d 3c 08 00 	movss  0x83c(%rip),%xmm1        # 4641 <test_robust+0xed0>
    3e04:	00 
    3e05:	48 89 c1             	mov    %rax,%rcx
    3e08:	e8 00 00 00 00       	call   3e0d <test_robust+0x69c>
    3e0d:	66 85 c0             	test   %ax,%ax
    3e10:	74 1f                	je     3e31 <test_robust+0x6c0>
    3e12:	41 b8 31 02 00 00    	mov    $0x231,%r8d
    3e18:	48 8d 05 49 00 00 00 	lea    0x49(%rip),%rax        # 3e68 <test_robust+0x6f7>
    3e1f:	48 89 c2             	mov    %rax,%rdx
    3e22:	48 8d 05 5a 00 00 00 	lea    0x5a(%rip),%rax        # 3e83 <test_robust+0x712>
    3e29:	48 89 c1             	mov    %rax,%rcx
    3e2c:	e8 12 c2 ff ff       	call   43 <printf>
    3e31:	48 8d 45 80          	lea    -0x80(%rbp),%rax
    3e35:	f3 0f 10 0d 3c 08 00 	movss  0x83c(%rip),%xmm1        # 4679 <test_robust+0xf08>
    3e3c:	00 
    3e3d:	48 89 c1             	mov    %rax,%rcx
    3e40:	e8 00 00 00 00       	call   3e45 <test_robust+0x6d4>
    3e45:	66 85 c0             	test   %ax,%ax
    3e48:	74 1f                	je     3e69 <test_robust+0x6f8>
    3e4a:	41 b8 32 02 00 00    	mov    $0x232,%r8d
    3e50:	48 8d 05 49 00 00 00 	lea    0x49(%rip),%rax        # 3ea0 <test_robust+0x72f>
    3e57:	48 89 c2             	mov    %rax,%rdx
    3e5a:	48 8d 05 5a 00 00 00 	lea    0x5a(%rip),%rax        # 3ebb <test_robust+0x74a>
    3e61:	48 89 c1             	mov    %rax,%rcx
    3e64:	e8 da c1 ff ff       	call   43 <printf>
    3e69:	48 8d 45 80          	lea    -0x80(%rbp),%rax
    3e6d:	48 89 c1             	mov    %rax,%rcx
    3e70:	e8 00 00 00 00       	call   3e75 <test_robust+0x704>
    3e75:	48 8d 45 80          	lea    -0x80(%rbp),%rax
    3e79:	f3 0f 10 0d 40 08 00 	movss  0x840(%rip),%xmm1        # 46c1 <test_robust+0xf50>
    3e80:	00 
    3e81:	48 89 c1             	mov    %rax,%rcx
    3e84:	e8 00 00 00 00       	call   3e89 <test_robust+0x718>
    3e89:	66 85 c0             	test   %ax,%ax
    3e8c:	74 1f                	je     3ead <test_robust+0x73c>
    3e8e:	41 b8 34 02 00 00    	mov    $0x234,%r8d
    3e94:	48 8d 05 49 00 00 00 	lea    0x49(%rip),%rax        # 3ee4 <test_robust+0x773>
    3e9b:	48 89 c2             	mov    %rax,%rdx
    3e9e:	48 8d 05 5a 00 00 00 	lea    0x5a(%rip),%rax        # 3eff <test_robust+0x78e>
    3ea5:	48 89 c1             	mov    %rax,%rcx
    3ea8:	e8 96 c1 ff ff       	call   43 <printf>
    3ead:	48 8d 45 80          	lea    -0x80(%rbp),%rax
    3eb1:	f3 0f 10 0d 40 08 00 	movss  0x840(%rip),%xmm1        # 46f9 <test_robust+0xf88>
    3eb8:	00 
    3eb9:	48 89 c1             	mov    %rax,%rcx
    3ebc:	e8 00 00 00 00       	call   3ec1 <test_robust+0x750>
    3ec1:	66 85 c0             	test   %ax,%ax
    3ec4:	74 1f                	je     3ee5 <test_robust+0x774>
    3ec6:	41 b8 35 02 00 00    	mov    $0x235,%r8d
    3ecc:	48 8d 05 49 00 00 00 	lea    0x49(%rip),%rax        # 3f1c <test_robust+0x7ab>
    3ed3:	48 89 c2             	mov    %rax,%rdx
    3ed6:	48 8d 05 5a 00 00 00 	lea    0x5a(%rip),%rax        # 3f37 <test_robust+0x7c6>
    3edd:	48 89 c1             	mov    %rax,%rcx
    3ee0:	e8 5e c1 ff ff       	call   43 <printf>
    3ee5:	48 8d 45 80          	lea    -0x80(%rbp),%rax
    3ee9:	f3 0f 10 0d 40 08 00 	movss  0x840(%rip),%xmm1        # 4731 <test_robust+0xfc0>
    3ef0:	00 
    3ef1:	48 89 c1             	mov    %rax,%rcx
    3ef4:	e8 00 00 00 00       	call   3ef9 <test_robust+0x788>
    3ef9:	66 83 f8 01          	cmp    $0x1,%ax
    3efd:	74 1f                	je     3f1e <test_robust+0x7ad>
    3eff:	41 b8 36 02 00 00    	mov    $0x236,%r8d
    3f05:	48 8d 05 49 00 00 00 	lea    0x49(%rip),%rax        # 3f55 <test_robust+0x7e4>
    3f0c:	48 89 c2             	mov    %rax,%rdx
    3f0f:	48 8d 05 5a 00 00 00 	lea    0x5a(%rip),%rax        # 3f70 <test_robust+0x7ff>
    3f16:	48 89 c1             	mov    %rax,%rcx
    3f19:	e8 25 c1 ff ff       	call   43 <printf>
    3f1e:	48 8d 45 80          	lea    -0x80(%rbp),%rax
    3f22:	f3 0f 10 0d 40 08 00 	movss  0x840(%rip),%xmm1        # 476a <test_robust+0xff9>
    3f29:	00 
    3f2a:	48 89 c1             	mov    %rax,%rcx
    3f2d:	e8 00 00 00 00       	call   3f32 <test_robust+0x7c1>
    3f32:	66 83 f8 01          	cmp    $0x1,%ax
    3f36:	74 1f                	je     3f57 <test_robust+0x7e6>
    3f38:	41 b8 37 02 00 00    	mov    $0x237,%r8d
    3f3e:	48 8d 05 49 00 00 00 	lea    0x49(%rip),%rax        # 3f8e <test_robust+0x81d>
    3f45:	48 89 c2             	mov    %rax,%rdx
    3f48:	48 8d 05 5a 00 00 00 	lea    0x5a(%rip),%rax        # 3fa9 <test_robust+0x838>
    3f4f:	48 89 c1             	mov    %rax,%rcx
    3f52:	e8 ec c0 ff ff       	call   43 <printf>
    3f57:	48 8d 45 80          	lea    -0x80(%rbp),%rax
    3f5b:	f3 0f 10 0d 40 08 00 	movss  0x840(%rip),%xmm1        # 47a3 <test_robust+0x1032>
    3f62:	00 
    3f63:	48 89 c1             	mov    %rax,%rcx
    3f66:	e8 00 00 00 00       	call   3f6b <test_robust+0x7fa>
    3f6b:	66 83 f8 01          	cmp    $0x1,%ax
    3f6f:	74 1f                	je     3f90 <test_robust+0x81f>
    3f71:	41 b8 38 02 00 00    	mov    $0x238,%r8d
    3f77:	48 8d 05 49 00 00 00 	lea    0x49(%rip),%rax        # 3fc7 <test_robust+0x856>
    3f7e:	48 89 c2             	mov    %rax,%rdx
    3f81:	48 8d 05 5a 00 00 00 	lea    0x5a(%rip),%rax        # 3fe2 <test_robust+0x871>
    3f88:	48 89 c1             	mov    %rax,%rcx
    3f8b:	e8 b3 c0 ff ff       	call   43 <printf>
    3f90:	48 8d 45 80          	lea    -0x80(%rbp),%rax
    3f94:	f3 0f 10 0d 40 08 00 	movss  0x840(%rip),%xmm1        # 47dc <test_robust+0x106b>
    3f9b:	00 
    3f9c:	48 89 c1             	mov    %rax,%rcx
    3f9f:	e8 00 00 00 00       	call   3fa4 <test_robust+0x833>
    3fa4:	66 83 f8 02          	cmp    $0x2,%ax
    3fa8:	74 1f                	je     3fc9 <test_robust+0x858>
    3faa:	41 b8 39 02 00 00    	mov    $0x239,%r8d
    3fb0:	48 8d 05 49 00 00 00 	lea    0x49(%rip),%rax        # 4000 <test_robust+0x88f>
    3fb7:	48 89 c2             	mov    %rax,%rdx
    3fba:	48 8d 05 5a 00 00 00 	lea    0x5a(%rip),%rax        # 401b <test_robust+0x8aa>
    3fc1:	48 89 c1             	mov    %rax,%rcx
    3fc4:	e8 7a c0 ff ff       	call   43 <printf>
    3fc9:	48 8d 45 80          	lea    -0x80(%rbp),%rax
    3fcd:	f3 0f 10 0d 40 08 00 	movss  0x840(%rip),%xmm1        # 4815 <test_robust+0x10a4>
    3fd4:	00 
    3fd5:	48 89 c1             	mov    %rax,%rcx
    3fd8:	e8 00 00 00 00       	call   3fdd <test_robust+0x86c>
    3fdd:	66 83 f8 02          	cmp    $0x2,%ax
    3fe1:	74 1f                	je     4002 <test_robust+0x891>
    3fe3:	41 b8 3a 02 00 00    	mov    $0x23a,%r8d
    3fe9:	48 8d 05 49 00 00 00 	lea    0x49(%rip),%rax        # 4039 <test_robust+0x8c8>
    3ff0:	48 89 c2             	mov    %rax,%rdx
    3ff3:	48 8d 05 5a 00 00 00 	lea    0x5a(%rip),%rax        # 4054 <test_robust+0x8e3>
    3ffa:	48 89 c1             	mov    %rax,%rcx
    3ffd:	e8 41 c0 ff ff       	call   43 <printf>
    4002:	48 8d 45 80          	lea    -0x80(%rbp),%rax
    4006:	f3 0f 10 0d 40 08 00 	movss  0x840(%rip),%xmm1        # 484e <test_robust+0x10dd>
    400d:	00 
    400e:	48 89 c1             	mov    %rax,%rcx
    4011:	e8 00 00 00 00       	call   4016 <test_robust+0x8a5>
    4016:	66 83 f8 02          	cmp    $0x2,%ax
    401a:	74 1f                	je     403b <test_robust+0x8ca>
    401c:	41 b8 3b 02 00 00    	mov    $0x23b,%r8d
    4022:	48 8d 05 49 00 00 00 	lea    0x49(%rip),%rax        # 4072 <test_robust+0x901>
    4029:	48 89 c2             	mov    %rax,%rdx
    402c:	48 8d 05 5a 00 00 00 	lea    0x5a(%rip),%rax        # 408d <test_robust+0x91c>
    4033:	48 89 c1             	mov    %rax,%rcx
    4036:	e8 08 c0 ff ff       	call   43 <printf>
    403b:	48 8d 45 80          	lea    -0x80(%rbp),%rax
    403f:	f3 0f 10 0d 40 08 00 	movss  0x840(%rip),%xmm1        # 4887 <test_robust+0x1116>
    4046:	00 
    4047:	48 89 c1             	mov    %rax,%rcx
    404a:	e8 00 00 00 00       	call   404f <test_robust+0x8de>
    404f:	66 83 f8 02          	cmp    $0x2,%ax
    4053:	74 1f                	je     4074 <test_robust+0x903>
    4055:	41 b8 3c 02 00 00    	mov    $0x23c,%r8d
    405b:	48 8d 05 49 00 00 00 	lea    0x49(%rip),%rax        # 40ab <test_robust+0x93a>
    4062:	48 89 c2             	mov    %rax,%rdx
    4065:	48 8d 05 5a 00 00 00 	lea    0x5a(%rip),%rax        # 40c6 <test_robust+0x955>
    406c:	48 89 c1             	mov    %rax,%rcx
    406f:	e8 cf bf ff ff       	call   43 <printf>
    4074:	48 8d 45 80          	lea    -0x80(%rbp),%rax
    4078:	48 89 c1             	mov    %rax,%rcx
    407b:	e8 00 00 00 00       	call   4080 <test_robust+0x90f>
    4080:	48 8d 45 80          	lea    -0x80(%rbp),%rax
    4084:	f3 0f 10 0d ac 07 00 	movss  0x7ac(%rip),%xmm1        # 4838 <test_robust+0x10c7>
    408b:	00 
    408c:	48 89 c1             	mov    %rax,%rcx
    408f:	e8 00 00 00 00       	call   4094 <test_robust+0x923>
    4094:	66 85 c0             	test   %ax,%ax
    4097:	74 1f                	je     40b8 <test_robust+0x947>
    4099:	41 b8 3e 02 00 00    	mov    $0x23e,%r8d
    409f:	48 8d 05 49 00 00 00 	lea    0x49(%rip),%rax        # 40ef <test_robust+0x97e>
    40a6:	48 89 c2             	mov    %rax,%rdx
    40a9:	48 8d 05 5a 00 00 00 	lea    0x5a(%rip),%rax        # 410a <test_robust+0x999>
    40b0:	48 89 c1             	mov    %rax,%rcx
    40b3:	e8 8b bf ff ff       	call   43 <printf>
    40b8:	48 8d 45 80          	lea    -0x80(%rbp),%rax
    40bc:	f3 0f 10 0d ac 07 00 	movss  0x7ac(%rip),%xmm1        # 4870 <test_robust+0x10ff>
    40c3:	00 
    40c4:	48 89 c1             	mov    %rax,%rcx
    40c7:	e8 00 00 00 00       	call   40cc <test_robust+0x95b>
    40cc:	66 85 c0             	test   %ax,%ax
    40cf:	74 1f                	je     40f0 <test_robust+0x97f>
    40d1:	41 b8 3f 02 00 00    	mov    $0x23f,%r8d
    40d7:	48 8d 05 49 00 00 00 	lea    0x49(%rip),%rax        # 4127 <test_robust+0x9b6>
    40de:	48 89 c2             	mov    %rax,%rdx
    40e1:	48 8d 05 5a 00 00 00 	lea    0x5a(%rip),%rax        # 4142 <test_robust+0x9d1>
    40e8:	48 89 c1             	mov    %rax,%rcx
    40eb:	e8 53 bf ff ff       	call   43 <printf>
    40f0:	48 8d 45 80          	lea    -0x80(%rbp),%rax
    40f4:	66 0f ef c9          	pxor   %xmm1,%xmm1
    40f8:	48 89 c1             	mov    %rax,%rcx
    40fb:	e8 00 00 00 00       	call   4100 <test_robust+0x98f>
    4100:	66 85 c0             	test   %ax,%ax
    4103:	74 1f                	je     4124 <test_robust+0x9b3>
    4105:	41 b8 40 02 00 00    	mov    $0x240,%r8d
    410b:	48 8d 05 49 00 00 00 	lea    0x49(%rip),%rax        # 415b <test_robust+0x9ea>
    4112:	48 89 c2             	mov    %rax,%rdx
    4115:	48 8d 05 5a 00 00 00 	lea    0x5a(%rip),%rax        # 4176 <test_robust+0xa05>
    411c:	48 89 c1             	mov    %rax,%rcx
    411f:	e8 1f bf ff ff       	call   43 <printf>
    4124:	48 8d 45 80          	lea    -0x80(%rbp),%rax
    4128:	f3 0f 10 0d ac 07 00 	movss  0x7ac(%rip),%xmm1        # 48dc <test_robust+0x116b>
    412f:	00 
    4130:	48 89 c1             	mov    %rax,%rcx
    4133:	e8 00 00 00 00       	call   4138 <test_robust+0x9c7>
    4138:	66 85 c0             	test   %ax,%ax
    413b:	74 1f                	je     415c <test_robust+0x9eb>
    413d:	41 b8 41 02 00 00    	mov    $0x241,%r8d
    4143:	48 8d 05 49 00 00 00 	lea    0x49(%rip),%rax        # 4193 <test_robust+0xa22>
    414a:	48 89 c2             	mov    %rax,%rdx
    414d:	48 8d 05 5a 00 00 00 	lea    0x5a(%rip),%rax        # 41ae <test_robust+0xa3d>
    4154:	48 89 c1             	mov    %rax,%rcx
    4157:	e8 e7 be ff ff       	call   43 <printf>
    415c:	48 8d 45 80          	lea    -0x80(%rbp),%rax
    4160:	f3 0f 10 0d ac 07 00 	movss  0x7ac(%rip),%xmm1        # 4914 <test_robust+0x11a3>
    4167:	00 
    4168:	48 89 c1             	mov    %rax,%rcx
    416b:	e8 00 00 00 00       	call   4170 <test_robust+0x9ff>
    4170:	66 85 c0             	test   %ax,%ax
    4173:	74 1f                	je     4194 <test_robust+0xa23>
    4175:	41 b8 42 02 00 00    	mov    $0x242,%r8d
    417b:	48 8d 05 49 00 00 00 	lea    0x49(%rip),%rax        # 41cb <test_robust+0xa5a>
    4182:	48 89 c2             	mov    %rax,%rdx
    4185:	48 8d 05 5a 00 00 00 	lea    0x5a(%rip),%rax        # 41e6 <test_robust+0xa75>
    418c:	48 89 c1             	mov    %rax,%rcx
    418f:	e8 af be ff ff       	call   43 <printf>
    4194:	48 8d 45 80          	lea    -0x80(%rbp),%rax
    4198:	66 0f ef c9          	pxor   %xmm1,%xmm1
    419c:	48 89 c1             	mov    %rax,%rcx
    419f:	e8 00 00 00 00       	call   41a4 <test_robust+0xa33>
    41a4:	66 85 c0             	test   %ax,%ax
    41a7:	74 1f                	je     41c8 <test_robust+0xa57>
    41a9:	41 b8 43 02 00 00    	mov    $0x243,%r8d
    41af:	48 8d 05 49 00 00 00 	lea    0x49(%rip),%rax        # 41ff <test_robust+0xa8e>
    41b6:	48 89 c2             	mov    %rax,%rdx
    41b9:	48 8d 05 5a 00 00 00 	lea    0x5a(%rip),%rax        # 421a <test_robust+0xaa9>
    41c0:	48 89 c1             	mov    %rax,%rcx
    41c3:	e8 7b be ff ff       	call   43 <printf>
    41c8:	48 8d 45 80          	lea    -0x80(%rbp),%rax
    41cc:	f3 0f 10 0d 40 08 00 	movss  0x840(%rip),%xmm1        # 4a14 <test_robust+0x12a3>
    41d3:	00 
    41d4:	48 89 c1             	mov    %rax,%rcx
    41d7:	e8 00 00 00 00       	call   41dc <test_robust+0xa6b>
    41dc:	66 85 c0             	test   %ax,%ax
    41df:	74 1f                	je     4200 <test_robust+0xa8f>
    41e1:	41 b8 44 02 00 00    	mov    $0x244,%r8d
    41e7:	48 8d 05 49 00 00 00 	lea    0x49(%rip),%rax        # 4237 <test_robust+0xac6>
    41ee:	48 89 c2             	mov    %rax,%rdx
    41f1:	48 8d 05 5a 00 00 00 	lea    0x5a(%rip),%rax        # 4252 <test_robust+0xae1>
    41f8:	48 89 c1             	mov    %rax,%rcx
    41fb:	e8 43 be ff ff       	call   43 <printf>
    4200:	48 8d 45 80          	lea    -0x80(%rbp),%rax
    4204:	f3 0f 10 0d 40 08 00 	movss  0x840(%rip),%xmm1        # 4a4c <test_robust+0x12db>
    420b:	00 
    420c:	48 89 c1             	mov    %rax,%rcx
    420f:	e8 00 00 00 00       	call   4214 <test_robust+0xaa3>
    4214:	66 85 c0             	test   %ax,%ax
    4217:	74 1f                	je     4238 <test_robust+0xac7>
    4219:	41 b8 45 02 00 00    	mov    $0x245,%r8d
    421f:	48 8d 05 49 00 00 00 	lea    0x49(%rip),%rax        # 426f <test_robust+0xafe>
    4226:	48 89 c2             	mov    %rax,%rdx
    4229:	48 8d 05 5a 00 00 00 	lea    0x5a(%rip),%rax        # 428a <test_robust+0xb19>
    4230:	48 89 c1             	mov    %rax,%rcx
    4233:	e8 0b be ff ff       	call   43 <printf>
    4238:	48 8d 45 80          	lea    -0x80(%rbp),%rax
    423c:	f3 0f 10 0d 40 08 00 	movss  0x840(%rip),%xmm1        # 4a84 <test_robust+0x1313>
    4243:	00 
    4244:	48 89 c1             	mov    %rax,%rcx
    4247:	e8 00 00 00 00       	call   424c <test_robust+0xadb>
    424c:	66 83 f8 01          	cmp    $0x1,%ax
    4250:	74 1f                	je     4271 <test_robust+0xb00>
    4252:	41 b8 46 02 00 00    	mov    $0x246,%r8d
    4258:	48 8d 05 49 00 00 00 	lea    0x49(%rip),%rax        # 42a8 <test_robust+0xb37>
    425f:	48 89 c2             	mov    %rax,%rdx
    4262:	48 8d 05 5a 00 00 00 	lea    0x5a(%rip),%rax        # 42c3 <test_robust+0xb52>
    4269:	48 89 c1             	mov    %rax,%rcx
    426c:	e8 d2 bd ff ff       	call   43 <printf>
    4271:	48 8d 45 80          	lea    -0x80(%rbp),%rax
    4275:	f3 0f 10 0d 40 08 00 	movss  0x840(%rip),%xmm1        # 4abd <test_robust+0x134c>
    427c:	00 
    427d:	48 89 c1             	mov    %rax,%rcx
    4280:	e8 00 00 00 00       	call   4285 <test_robust+0xb14>
    4285:	66 83 f8 01          	cmp    $0x1,%ax
    4289:	74 1f                	je     42aa <test_robust+0xb39>
    428b:	41 b8 47 02 00 00    	mov    $0x247,%r8d
    4291:	48 8d 05 49 00 00 00 	lea    0x49(%rip),%rax        # 42e1 <test_robust+0xb70>
    4298:	48 89 c2             	mov    %rax,%rdx
    429b:	48 8d 05 5a 00 00 00 	lea    0x5a(%rip),%rax        # 42fc <test_robust+0xb8b>
    42a2:	48 89 c1             	mov    %rax,%rcx
    42a5:	e8 99 bd ff ff       	call   43 <printf>
    42aa:	48 8d 45 80          	lea    -0x80(%rbp),%rax
    42ae:	f3 0f 10 0d 40 08 00 	movss  0x840(%rip),%xmm1        # 4af6 <test_backlash+0x10>
    42b5:	00 
    42b6:	48 89 c1             	mov    %rax,%rcx
    42b9:	e8 00 00 00 00       	call   42be <test_robust+0xb4d>
    42be:	66 83 f8 01          	cmp    $0x1,%ax
    42c2:	74 1f                	je     42e3 <test_robust+0xb72>
    42c4:	41 b8 48 02 00 00    	mov    $0x248,%r8d
    42ca:	48 8d 05 49 00 00 00 	lea    0x49(%rip),%rax        # 431a <test_robust+0xba9>
    42d1:	48 89 c2             	mov    %rax,%rdx
    42d4:	48 8d 05 5a 00 00 00 	lea    0x5a(%rip),%rax        # 4335 <test_robust+0xbc4>
    42db:	48 89 c1             	mov    %rax,%rcx
    42de:	e8 60 bd ff ff       	call   43 <printf>
    42e3:	48 8d 45 80          	lea    -0x80(%rbp),%rax
    42e7:	f3 0f 10 0d 40 08 00 	movss  0x840(%rip),%xmm1        # 4b2f <test_backlash+0x49>
    42ee:	00 
    42ef:	48 89 c1             	mov    %rax,%rcx
    42f2:	e8 00 00 00 00       	call   42f7 <test_robust+0xb86>
    42f7:	66 83 f8 02          	cmp    $0x2,%ax
    42fb:	74 1f                	je     431c <test_robust+0xbab>
    42fd:	41 b8 49 02 00 00    	mov    $0x249,%r8d
    4303:	48 8d 05 49 00 00 00 	lea    0x49(%rip),%rax        # 4353 <test_robust+0xbe2>
    430a:	48 89 c2             	mov    %rax,%rdx
    430d:	48 8d 05 5a 00 00 00 	lea    0x5a(%rip),%rax        # 436e <test_robust+0xbfd>
    4314:	48 89 c1             	mov    %rax,%rcx
    4317:	e8 27 bd ff ff       	call   43 <printf>
    431c:	48 8d 45 80          	lea    -0x80(%rbp),%rax
    4320:	f3 0f 10 0d 40 08 00 	movss  0x840(%rip),%xmm1        # 4b68 <test_backlash+0x82>
    4327:	00 
    4328:	48 89 c1             	mov    %rax,%rcx
    432b:	e8 00 00 00 00       	call   4330 <test_robust+0xbbf>
    4330:	66 83 f8 02          	cmp    $0x2,%ax
    4334:	74 1f                	je     4355 <test_robust+0xbe4>
    4336:	41 b8 4a 02 00 00    	mov    $0x24a,%r8d
    433c:	48 8d 05 49 00 00 00 	lea    0x49(%rip),%rax        # 438c <test_robust+0xc1b>
    4343:	48 89 c2             	mov    %rax,%rdx
    4346:	48 8d 05 5a 00 00 00 	lea    0x5a(%rip),%rax        # 43a7 <test_robust+0xc36>
    434d:	48 89 c1             	mov    %rax,%rcx
    4350:	e8 ee bc ff ff       	call   43 <printf>
    4355:	48 8d 45 80          	lea    -0x80(%rbp),%rax
    4359:	f3 0f 10 0d 40 08 00 	movss  0x840(%rip),%xmm1        # 4ba1 <test_backlash+0xbb>
    4360:	00 
    4361:	48 89 c1             	mov    %rax,%rcx
    4364:	e8 00 00 00 00       	call   4369 <test_robust+0xbf8>
    4369:	66 83 f8 02          	cmp    $0x2,%ax
    436d:	74 1f                	je     438e <test_robust+0xc1d>
    436f:	41 b8 4b 02 00 00    	mov    $0x24b,%r8d
    4375:	48 8d 05 49 00 00 00 	lea    0x49(%rip),%rax        # 43c5 <test_robust+0xc54>
    437c:	48 89 c2             	mov    %rax,%rdx
    437f:	48 8d 05 5a 00 00 00 	lea    0x5a(%rip),%rax        # 43e0 <test_robust+0xc6f>
    4386:	48 89 c1             	mov    %rax,%rcx
    4389:	e8 b5 bc ff ff       	call   43 <printf>
    438e:	48 8d 45 80          	lea    -0x80(%rbp),%rax
    4392:	f3 0f 10 0d 40 08 00 	movss  0x840(%rip),%xmm1        # 4bda <test_backlash+0xf4>
    4399:	00 
    439a:	48 89 c1             	mov    %rax,%rcx
    439d:	e8 00 00 00 00       	call   43a2 <test_robust+0xc31>
    43a2:	66 83 f8 02          	cmp    $0x2,%ax
    43a6:	74 1f                	je     43c7 <test_robust+0xc56>
    43a8:	41 b8 4c 02 00 00    	mov    $0x24c,%r8d
    43ae:	48 8d 05 49 00 00 00 	lea    0x49(%rip),%rax        # 43fe <test_robust+0xc8d>
    43b5:	48 89 c2             	mov    %rax,%rdx
    43b8:	48 8d 05 5a 00 00 00 	lea    0x5a(%rip),%rax        # 4419 <test_robust+0xca8>
    43bf:	48 89 c1             	mov    %rax,%rcx
    43c2:	e8 7c bc ff ff       	call   43 <printf>
    43c7:	48 8d 45 80          	lea    -0x80(%rbp),%rax
    43cb:	f3 0f 10 0d 44 08 00 	movss  0x844(%rip),%xmm1        # 4c17 <test_backlash+0x131>
    43d2:	00 
    43d3:	48 89 c1             	mov    %rax,%rcx
    43d6:	e8 00 00 00 00       	call   43db <test_robust+0xc6a>
    43db:	66 83 f8 02          	cmp    $0x2,%ax
    43df:	74 1f                	je     4400 <test_robust+0xc8f>
    43e1:	41 b8 4d 02 00 00    	mov    $0x24d,%r8d
    43e7:	48 8d 05 49 00 00 00 	lea    0x49(%rip),%rax        # 4437 <test_robust+0xcc6>
    43ee:	48 89 c2             	mov    %rax,%rdx
    43f1:	48 8d 05 5a 00 00 00 	lea    0x5a(%rip),%rax        # 4452 <test_robust+0xce1>
    43f8:	48 89 c1             	mov    %rax,%rcx
    43fb:	e8 43 bc ff ff       	call   43 <printf>
    4400:	48 8d 45 80          	lea    -0x80(%rbp),%rax
    4404:	f3 0f 10 0d 44 08 00 	movss  0x844(%rip),%xmm1        # 4c50 <test_backlash+0x16a>
    440b:	00 
    440c:	48 89 c1             	mov    %rax,%rcx
    440f:	e8 00 00 00 00       	call   4414 <test_robust+0xca3>
    4414:	66 83 f8 02          	cmp    $0x2,%ax
    4418:	74 1f                	je     4439 <test_robust+0xcc8>
    441a:	41 b8 4e 02 00 00    	mov    $0x24e,%r8d
    4420:	48 8d 05 49 00 00 00 	lea    0x49(%rip),%rax        # 4470 <test_robust+0xcff>
    4427:	48 89 c2             	mov    %rax,%rdx
    442a:	48 8d 05 5a 00 00 00 	lea    0x5a(%rip),%rax        # 448b <test_robust+0xd1a>
    4431:	48 89 c1             	mov    %rax,%rcx
    4434:	e8 0a bc ff ff       	call   43 <printf>
    4439:	48 8d 45 80          	lea    -0x80(%rbp),%rax
    443d:	f3 0f 10 0d 44 08 00 	movss  0x844(%rip),%xmm1        # 4c89 <test_backlash+0x1a3>
    4444:	00 
    4445:	48 89 c1             	mov    %rax,%rcx
    4448:	e8 00 00 00 00       	call   444d <test_robust+0xcdc>
    444d:	66 83 f8 01          	cmp    $0x1,%ax
    4451:	74 1f                	je     4472 <test_robust+0xd01>
    4453:	41 b8 4f 02 00 00    	mov    $0x24f,%r8d
    4459:	48 8d 05 49 00 00 00 	lea    0x49(%rip),%rax        # 44a9 <test_robust+0xd38>
    4460:	48 89 c2             	mov    %rax,%rdx
    4463:	48 8d 05 5a 00 00 00 	lea    0x5a(%rip),%rax        # 44c4 <test_robust+0xd53>
    446a:	48 89 c1             	mov    %rax,%rcx
    446d:	e8 d1 bb ff ff       	call   43 <printf>
    4472:	48 8d 45 80          	lea    -0x80(%rbp),%rax
    4476:	f3 0f 10 0d 40 08 00 	movss  0x840(%rip),%xmm1        # 4cbe <test_backlash+0x1d8>
    447d:	00 
    447e:	48 89 c1             	mov    %rax,%rcx
    4481:	e8 00 00 00 00       	call   4486 <test_robust+0xd15>
    4486:	66 83 f8 01          	cmp    $0x1,%ax
    448a:	74 1f                	je     44ab <test_robust+0xd3a>
    448c:	41 b8 50 02 00 00    	mov    $0x250,%r8d
    4492:	48 8d 05 49 00 00 00 	lea    0x49(%rip),%rax        # 44e2 <test_robust+0xd71>
    4499:	48 89 c2             	mov    %rax,%rdx
    449c:	48 8d 05 5a 00 00 00 	lea    0x5a(%rip),%rax        # 44fd <test_robust+0xd8c>
    44a3:	48 89 c1             	mov    %rax,%rcx
    44a6:	e8 98 bb ff ff       	call   43 <printf>
    44ab:	48 8d 45 80          	lea    -0x80(%rbp),%rax
    44af:	f3 0f 10 0d 40 08 00 	movss  0x840(%rip),%xmm1        # 4cf7 <test_backlash+0x211>
    44b6:	00 
    44b7:	48 89 c1             	mov    %rax,%rcx
    44ba:	e8 00 00 00 00       	call   44bf <test_robust+0xd4e>
    44bf:	66 83 f8 01          	cmp    $0x1,%ax
    44c3:	74 1f                	je     44e4 <test_robust+0xd73>
    44c5:	41 b8 51 02 00 00    	mov    $0x251,%r8d
    44cb:	48 8d 05 49 00 00 00 	lea    0x49(%rip),%rax        # 451b <test_robust+0xdaa>
    44d2:	48 89 c2             	mov    %rax,%rdx
    44d5:	48 8d 05 5a 00 00 00 	lea    0x5a(%rip),%rax        # 4536 <test_robust+0xdc5>
    44dc:	48 89 c1             	mov    %rax,%rcx
    44df:	e8 5f bb ff ff       	call   43 <printf>
    44e4:	48 8d 45 80          	lea    -0x80(%rbp),%rax
    44e8:	f3 0f 10 0d 44 08 00 	movss  0x844(%rip),%xmm1        # 4d34 <test_backlash+0x24e>
    44ef:	00 
    44f0:	48 89 c1             	mov    %rax,%rcx
    44f3:	e8 00 00 00 00       	call   44f8 <test_robust+0xd87>
    44f8:	66 83 f8 01          	cmp    $0x1,%ax
    44fc:	74 1f                	je     451d <test_robust+0xdac>
    44fe:	41 b8 52 02 00 00    	mov    $0x252,%r8d
    4504:	48 8d 05 49 00 00 00 	lea    0x49(%rip),%rax        # 4554 <test_robust+0xde3>
    450b:	48 89 c2             	mov    %rax,%rdx
    450e:	48 8d 05 5a 00 00 00 	lea    0x5a(%rip),%rax        # 456f <test_robust+0xdfe>
    4515:	48 89 c1             	mov    %rax,%rcx
    4518:	e8 26 bb ff ff       	call   43 <printf>
    451d:	48 8d 45 80          	lea    -0x80(%rbp),%rax
    4521:	f3 0f 10 0d 44 08 00 	movss  0x844(%rip),%xmm1        # 4d6d <test_backlash+0x287>
    4528:	00 
    4529:	48 89 c1             	mov    %rax,%rcx
    452c:	e8 00 00 00 00       	call   4531 <test_robust+0xdc0>
    4531:	66 83 f8 01          	cmp    $0x1,%ax
    4535:	74 1f                	je     4556 <test_robust+0xde5>
    4537:	41 b8 53 02 00 00    	mov    $0x253,%r8d
    453d:	48 8d 05 49 00 00 00 	lea    0x49(%rip),%rax        # 458d <test_robust+0xe1c>
    4544:	48 89 c2             	mov    %rax,%rdx
    4547:	48 8d 05 5a 00 00 00 	lea    0x5a(%rip),%rax        # 45a8 <test_robust+0xe37>
    454e:	48 89 c1             	mov    %rax,%rcx
    4551:	e8 ed ba ff ff       	call   43 <printf>
    4556:	48 8d 45 80          	lea    -0x80(%rbp),%rax
    455a:	f3 0f 10 0d 44 08 00 	movss  0x844(%rip),%xmm1        # 4da6 <test_backlash+0x2c0>
    4561:	00 
    4562:	48 89 c1             	mov    %rax,%rcx
    4565:	e8 00 00 00 00       	call   456a <test_robust+0xdf9>
    456a:	66 83 f8 01          	cmp    $0x1,%ax
    456e:	74 1f                	je     458f <test_robust+0xe1e>
    4570:	41 b8 54 02 00 00    	mov    $0x254,%r8d
    4576:	48 8d 05 49 00 00 00 	lea    0x49(%rip),%rax        # 45c6 <test_robust+0xe55>
    457d:	48 89 c2             	mov    %rax,%rdx
    4580:	48 8d 05 5a 00 00 00 	lea    0x5a(%rip),%rax        # 45e1 <test_robust+0xe70>
    4587:	48 89 c1             	mov    %rax,%rcx
    458a:	e8 b4 ba ff ff       	call   43 <printf>
    458f:	48 8d 45 80          	lea    -0x80(%rbp),%rax
    4593:	f3 0f 10 0d 40 08 00 	movss  0x840(%rip),%xmm1        # 4ddb <test_backlash+0x2f5>
    459a:	00 
    459b:	48 89 c1             	mov    %rax,%rcx
    459e:	e8 00 00 00 00       	call   45a3 <test_robust+0xe32>
    45a3:	66 83 f8 01          	cmp    $0x1,%ax
    45a7:	74 1f                	je     45c8 <test_robust+0xe57>
    45a9:	41 b8 55 02 00 00    	mov    $0x255,%r8d
    45af:	48 8d 05 49 00 00 00 	lea    0x49(%rip),%rax        # 45ff <test_robust+0xe8e>
    45b6:	48 89 c2             	mov    %rax,%rdx
    45b9:	48 8d 05 5a 00 00 00 	lea    0x5a(%rip),%rax        # 461a <test_robust+0xea9>
    45c0:	48 89 c1             	mov    %rax,%rcx
    45c3:	e8 7b ba ff ff       	call   43 <printf>
    45c8:	48 8d 45 80          	lea    -0x80(%rbp),%rax
    45cc:	f3 0f 10 0d 44 08 00 	movss  0x844(%rip),%xmm1        # 4e18 <test_backlash+0x332>
    45d3:	00 
    45d4:	48 89 c1             	mov    %rax,%rcx
    45d7:	e8 00 00 00 00       	call   45dc <test_robust+0xe6b>
    45dc:	66 83 f8 01          	cmp    $0x1,%ax
    45e0:	74 1f                	je     4601 <test_robust+0xe90>
    45e2:	41 b8 56 02 00 00    	mov    $0x256,%r8d
    45e8:	48 8d 05 49 00 00 00 	lea    0x49(%rip),%rax        # 4638 <test_robust+0xec7>
    45ef:	48 89 c2             	mov    %rax,%rdx
    45f2:	48 8d 05 5a 00 00 00 	lea    0x5a(%rip),%rax        # 4653 <test_robust+0xee2>
    45f9:	48 89 c1             	mov    %rax,%rcx
    45fc:	e8 42 ba ff ff       	call   43 <printf>
    4601:	48 8d 45 80          	lea    -0x80(%rbp),%rax
    4605:	66 0f ef c9          	pxor   %xmm1,%xmm1
    4609:	48 89 c1             	mov    %rax,%rcx
    460c:	e8 00 00 00 00       	call   4611 <test_robust+0xea0>
    4611:	66 83 f8 01          	cmp    $0x1,%ax
    4615:	74 1f                	je     4636 <test_robust+0xec5>
    4617:	41 b8 57 02 00 00    	mov    $0x257,%r8d
    461d:	48 8d 05 49 00 00 00 	lea    0x49(%rip),%rax        # 466d <test_robust+0xefc>
    4624:	48 89 c2             	mov    %rax,%rdx
    4627:	48 8d 05 5a 00 00 00 	lea    0x5a(%rip),%rax        # 4688 <test_robust+0xf17>
    462e:	48 89 c1             	mov    %rax,%rcx
    4631:	e8 0d ba ff ff       	call   43 <printf>
    4636:	48 8d 45 80          	lea    -0x80(%rbp),%rax
    463a:	66 0f ef c9          	pxor   %xmm1,%xmm1
    463e:	48 89 c1             	mov    %rax,%rcx
    4641:	e8 00 00 00 00       	call   4646 <test_robust+0xed5>
    4646:	66 83 f8 01          	cmp    $0x1,%ax
    464a:	74 1f                	je     466b <test_robust+0xefa>
    464c:	41 b8 58 02 00 00    	mov    $0x258,%r8d
    4652:	48 8d 05 49 00 00 00 	lea    0x49(%rip),%rax        # 46a2 <test_robust+0xf31>
    4659:	48 89 c2             	mov    %rax,%rdx
    465c:	48 8d 05 5a 00 00 00 	lea    0x5a(%rip),%rax        # 46bd <test_robust+0xf4c>
    4663:	48 89 c1             	mov    %rax,%rcx
    4666:	e8 d8 b9 ff ff       	call   43 <printf>
    466b:	48 8d 45 80          	lea    -0x80(%rbp),%rax
    466f:	66 0f ef c9          	pxor   %xmm1,%xmm1
    4673:	48 89 c1             	mov    %rax,%rcx
    4676:	e8 00 00 00 00       	call   467b <test_robust+0xf0a>
    467b:	66 85 c0             	test   %ax,%ax
    467e:	74 1f                	je     469f <test_robust+0xf2e>
    4680:	41 b8 59 02 00 00    	mov    $0x259,%r8d
    4686:	48 8d 05 49 00 00 00 	lea    0x49(%rip),%rax        # 46d6 <test_robust+0xf65>
    468d:	48 89 c2             	mov    %rax,%rdx
    4690:	48 8d 05 5a 00 00 00 	lea    0x5a(%rip),%rax        # 46f1 <test_robust+0xf80>
    4697:	48 89 c1             	mov    %rax,%rcx
    469a:	e8 a4 b9 ff ff       	call   43 <printf>
    469f:	48 8d 45 80          	lea    -0x80(%rbp),%rax
    46a3:	66 0f ef c9          	pxor   %xmm1,%xmm1
    46a7:	48 89 c1             	mov    %rax,%rcx
    46aa:	e8 00 00 00 00       	call   46af <test_robust+0xf3e>
    46af:	66 85 c0             	test   %ax,%ax
    46b2:	74 1f                	je     46d3 <test_robust+0xf62>
    46b4:	41 b8 5a 02 00 00    	mov    $0x25a,%r8d
    46ba:	48 8d 05 49 00 00 00 	lea    0x49(%rip),%rax        # 470a <test_robust+0xf99>
    46c1:	48 89 c2             	mov    %rax,%rdx
    46c4:	48 8d 05 5a 00 00 00 	lea    0x5a(%rip),%rax        # 4725 <test_robust+0xfb4>
    46cb:	48 89 c1             	mov    %rax,%rcx
    46ce:	e8 70 b9 ff ff       	call   43 <printf>
    46d3:	48 8d 45 80          	lea    -0x80(%rbp),%rax
    46d7:	66 0f ef c9          	pxor   %xmm1,%xmm1
    46db:	48 89 c1             	mov    %rax,%rcx
    46de:	e8 00 00 00 00       	call   46e3 <test_robust+0xf72>
    46e3:	66 85 c0             	test   %ax,%ax
    46e6:	74 1f                	je     4707 <test_robust+0xf96>
    46e8:	41 b8 5b 02 00 00    	mov    $0x25b,%r8d
    46ee:	48 8d 05 49 00 00 00 	lea    0x49(%rip),%rax        # 473e <test_robust+0xfcd>
    46f5:	48 89 c2             	mov    %rax,%rdx
    46f8:	48 8d 05 5a 00 00 00 	lea    0x5a(%rip),%rax        # 4759 <test_robust+0xfe8>
    46ff:	48 89 c1             	mov    %rax,%rcx
    4702:	e8 3c b9 ff ff       	call   43 <printf>
    4707:	48 8d 45 80          	lea    -0x80(%rbp),%rax
    470b:	48 89 c1             	mov    %rax,%rcx
    470e:	e8 00 00 00 00       	call   4713 <test_robust+0xfa2>
    4713:	66 0f ef c0          	pxor   %xmm0,%xmm0
    4717:	f3 0f 11 45 d0       	movss  %xmm0,-0x30(%rbp)
    471c:	66 0f ef c0          	pxor   %xmm0,%xmm0
    4720:	f3 0f 11 45 d4       	movss  %xmm0,-0x2c(%rbp)
    4725:	66 0f ef c0          	pxor   %xmm0,%xmm0
    4729:	f3 0f 11 45 d8       	movss  %xmm0,-0x28(%rbp)
    472e:	66 0f ef c0          	pxor   %xmm0,%xmm0
    4732:	f3 0f 11 45 dc       	movss  %xmm0,-0x24(%rbp)
    4737:	66 0f ef c0          	pxor   %xmm0,%xmm0
    473b:	f3 0f 11 45 c0       	movss  %xmm0,-0x40(%rbp)
    4740:	66 0f ef c0          	pxor   %xmm0,%xmm0
    4744:	f3 0f 11 45 c4       	movss  %xmm0,-0x3c(%rbp)
    4749:	66 0f ef c0          	pxor   %xmm0,%xmm0
    474d:	f3 0f 11 45 c8       	movss  %xmm0,-0x38(%rbp)
    4752:	66 0f ef c0          	pxor   %xmm0,%xmm0
    4756:	f3 0f 11 45 cc       	movss  %xmm0,-0x34(%rbp)
    475b:	48 8d 45 80          	lea    -0x80(%rbp),%rax
    475f:	f3 0f 10 0d ac 07 00 	movss  0x7ac(%rip),%xmm1        # 4f13 <test_backlash+0x42d>
    4766:	00 
    4767:	48 89 c1             	mov    %rax,%rcx
    476a:	e8 00 00 00 00       	call   476f <test_robust+0xffe>
    476f:	66 83 f8 01          	cmp    $0x1,%ax
    4773:	74 1f                	je     4794 <test_robust+0x1023>
    4775:	41 b8 65 02 00 00    	mov    $0x265,%r8d
    477b:	48 8d 05 49 00 00 00 	lea    0x49(%rip),%rax        # 47cb <test_robust+0x105a>
    4782:	48 89 c2             	mov    %rax,%rdx
    4785:	48 8d 05 5a 00 00 00 	lea    0x5a(%rip),%rax        # 47e6 <test_robust+0x1075>
    478c:	48 89 c1             	mov    %rax,%rcx
    478f:	e8 af b8 ff ff       	call   43 <printf>
    4794:	48 8d 45 80          	lea    -0x80(%rbp),%rax
    4798:	f3 0f 10 0d ac 07 00 	movss  0x7ac(%rip),%xmm1        # 4f4c <test_backlash+0x466>
    479f:	00 
    47a0:	48 89 c1             	mov    %rax,%rcx
    47a3:	e8 00 00 00 00       	call   47a8 <test_robust+0x1037>
    47a8:	66 83 f8 02          	cmp    $0x2,%ax
    47ac:	74 1f                	je     47cd <test_robust+0x105c>
    47ae:	41 b8 66 02 00 00    	mov    $0x266,%r8d
    47b4:	48 8d 05 49 00 00 00 	lea    0x49(%rip),%rax        # 4804 <test_robust+0x1093>
    47bb:	48 89 c2             	mov    %rax,%rdx
    47be:	48 8d 05 5a 00 00 00 	lea    0x5a(%rip),%rax        # 481f <test_robust+0x10ae>
    47c5:	48 89 c1             	mov    %rax,%rcx
    47c8:	e8 76 b8 ff ff       	call   43 <printf>
    47cd:	48 8d 45 80          	lea    -0x80(%rbp),%rax
    47d1:	f3 0f 10 0d ac 07 00 	movss  0x7ac(%rip),%xmm1        # 4f85 <test_backlash+0x49f>
    47d8:	00 
    47d9:	48 89 c1             	mov    %rax,%rcx
    47dc:	e8 00 00 00 00       	call   47e1 <test_robust+0x1070>
    47e1:	66 83 f8 03          	cmp    $0x3,%ax
    47e5:	74 1f                	je     4806 <test_robust+0x1095>
    47e7:	41 b8 67 02 00 00    	mov    $0x267,%r8d
    47ed:	48 8d 05 49 00 00 00 	lea    0x49(%rip),%rax        # 483d <test_robust+0x10cc>
    47f4:	48 89 c2             	mov    %rax,%rdx
    47f7:	48 8d 05 5a 00 00 00 	lea    0x5a(%rip),%rax        # 4858 <test_robust+0x10e7>
    47fe:	48 89 c1             	mov    %rax,%rcx
    4801:	e8 3d b8 ff ff       	call   43 <printf>
    4806:	48 8d 45 80          	lea    -0x80(%rbp),%rax
    480a:	f3 0f 10 0d 3c 08 00 	movss  0x83c(%rip),%xmm1        # 504e <test_backlash+0x568>
    4811:	00 
    4812:	48 89 c1             	mov    %rax,%rcx
    4815:	e8 00 00 00 00       	call   481a <test_robust+0x10a9>
    481a:	66 83 f8 02          	cmp    $0x2,%ax
    481e:	74 1f                	je     483f <test_robust+0x10ce>
    4820:	41 b8 68 02 00 00    	mov    $0x268,%r8d
    4826:	48 8d 05 49 00 00 00 	lea    0x49(%rip),%rax        # 4876 <test_robust+0x1105>
    482d:	48 89 c2             	mov    %rax,%rdx
    4830:	48 8d 05 5a 00 00 00 	lea    0x5a(%rip),%rax        # 4891 <test_robust+0x1120>
    4837:	48 89 c1             	mov    %rax,%rcx
    483a:	e8 04 b8 ff ff       	call   43 <printf>
    483f:	48 8d 45 80          	lea    -0x80(%rbp),%rax
    4843:	f3 0f 10 0d 3c 08 00 	movss  0x83c(%rip),%xmm1        # 5087 <test_backlash+0x5a1>
    484a:	00 
    484b:	48 89 c1             	mov    %rax,%rcx
    484e:	e8 00 00 00 00       	call   4853 <test_robust+0x10e2>
    4853:	66 83 f8 01          	cmp    $0x1,%ax
    4857:	74 1f                	je     4878 <test_robust+0x1107>
    4859:	41 b8 69 02 00 00    	mov    $0x269,%r8d
    485f:	48 8d 05 49 00 00 00 	lea    0x49(%rip),%rax        # 48af <test_robust+0x113e>
    4866:	48 89 c2             	mov    %rax,%rdx
    4869:	48 8d 05 5a 00 00 00 	lea    0x5a(%rip),%rax        # 48ca <test_robust+0x1159>
    4870:	48 89 c1             	mov    %rax,%rcx
    4873:	e8 cb b7 ff ff       	call   43 <printf>
    4878:	48 8d 45 80          	lea    -0x80(%rbp),%rax
    487c:	f3 0f 10 0d 3c 08 00 	movss  0x83c(%rip),%xmm1        # 50c0 <test_backlash+0x5da>
    4883:	00 
    4884:	48 89 c1             	mov    %rax,%rcx
    4887:	e8 00 00 00 00       	call   488c <test_robust+0x111b>
    488c:	66 85 c0             	test   %ax,%ax
    488f:	74 1f                	je     48b0 <test_robust+0x113f>
    4891:	41 b8 6a 02 00 00    	mov    $0x26a,%r8d
    4897:	48 8d 05 49 00 00 00 	lea    0x49(%rip),%rax        # 48e7 <test_robust+0x1176>
    489e:	48 89 c2             	mov    %rax,%rdx
    48a1:	48 8d 05 5a 00 00 00 	lea    0x5a(%rip),%rax        # 4902 <test_robust+0x1191>
    48a8:	48 89 c1             	mov    %rax,%rcx
    48ab:	e8 93 b7 ff ff       	call   43 <printf>
    48b0:	66 0f ef c0          	pxor   %xmm0,%xmm0
    48b4:	f3 0f 11 45 d0       	movss  %xmm0,-0x30(%rbp)
    48b9:	f3 0f 10 05 a0 07 00 	movss  0x7a0(%rip),%xmm0        # 5061 <test_backlash+0x57b>
    48c0:	00 
    48c1:	f3 0f 11 45 d4       	movss  %xmm0,-0x2c(%rbp)
    48c6:	f3 0f 10 05 9c 07 00 	movss  0x79c(%rip),%xmm0        # 506a <test_backlash+0x584>
    48cd:	00 
    48ce:	f3 0f 11 45 d8       	movss  %xmm0,-0x28(%rbp)
    48d3:	66 0f ef c0          	pxor   %xmm0,%xmm0
    48d7:	f3 0f 11 45 dc       	movss  %xmm0,-0x24(%rbp)
    48dc:	48 8d 45 80          	lea    -0x80(%rbp),%rax
    48e0:	f3 0f 10 0d ac 07 00 	movss  0x7ac(%rip),%xmm1        # 5094 <test_backlash+0x5ae>
    48e7:	00 
    48e8:	48 89 c1             	mov    %rax,%rcx
    48eb:	e8 00 00 00 00       	call   48f0 <test_robust+0x117f>
    48f0:	66 83 f8 01          	cmp    $0x1,%ax
    48f4:	74 1f                	je     4915 <test_robust+0x11a4>
    48f6:	41 b8 6f 02 00 00    	mov    $0x26f,%r8d
    48fc:	48 8d 05 49 00 00 00 	lea    0x49(%rip),%rax        # 494c <test_robust+0x11db>
    4903:	48 89 c2             	mov    %rax,%rdx
    4906:	48 8d 05 5a 00 00 00 	lea    0x5a(%rip),%rax        # 4967 <test_robust+0x11f6>
    490d:	48 89 c1             	mov    %rax,%rcx
    4910:	e8 2e b7 ff ff       	call   43 <printf>
    4915:	48 8d 45 80          	lea    -0x80(%rbp),%rax
    4919:	f3 0f 10 0d ac 07 00 	movss  0x7ac(%rip),%xmm1        # 50cd <test_backlash+0x5e7>
    4920:	00 
    4921:	48 89 c1             	mov    %rax,%rcx
    4924:	e8 00 00 00 00       	call   4929 <test_robust+0x11b8>
    4929:	66 83 f8 01          	cmp    $0x1,%ax
    492d:	74 1f                	je     494e <test_robust+0x11dd>
    492f:	41 b8 70 02 00 00    	mov    $0x270,%r8d
    4935:	48 8d 05 49 00 00 00 	lea    0x49(%rip),%rax        # 4985 <test_robust+0x1214>
    493c:	48 89 c2             	mov    %rax,%rdx
    493f:	48 8d 05 5a 00 00 00 	lea    0x5a(%rip),%rax        # 49a0 <test_robust+0x122f>
    4946:	48 89 c1             	mov    %rax,%rcx
    4949:	e8 f5 b6 ff ff       	call   43 <printf>
    494e:	48 8d 45 80          	lea    -0x80(%rbp),%rax
    4952:	f3 0f 10 0d ac 07 00 	movss  0x7ac(%rip),%xmm1        # 5106 <test_backlash+0x620>
    4959:	00 
    495a:	48 89 c1             	mov    %rax,%rcx
    495d:	e8 00 00 00 00       	call   4962 <test_robust+0x11f1>
    4962:	66 83 f8 02          	cmp    $0x2,%ax
    4966:	74 1f                	je     4987 <test_robust+0x1216>
    4968:	41 b8 71 02 00 00    	mov    $0x271,%r8d
    496e:	48 8d 05 49 00 00 00 	lea    0x49(%rip),%rax        # 49be <test_robust+0x124d>
    4975:	48 89 c2             	mov    %rax,%rdx
    4978:	48 8d 05 5a 00 00 00 	lea    0x5a(%rip),%rax        # 49d9 <test_robust+0x1268>
    497f:	48 89 c1             	mov    %rax,%rcx
    4982:	e8 bc b6 ff ff       	call   43 <printf>
    4987:	48 8d 45 80          	lea    -0x80(%rbp),%rax
    498b:	f3 0f 10 0d ac 07 00 	movss  0x7ac(%rip),%xmm1        # 513f <test_backlash+0x659>
    4992:	00 
    4993:	48 89 c1             	mov    %rax,%rcx
    4996:	e8 00 00 00 00       	call   499b <test_robust+0x122a>
    499b:	66 83 f8 02          	cmp    $0x2,%ax
    499f:	74 1f                	je     49c0 <test_robust+0x124f>
    49a1:	41 b8 72 02 00 00    	mov    $0x272,%r8d
    49a7:	48 8d 05 49 00 00 00 	lea    0x49(%rip),%rax        # 49f7 <test_robust+0x1286>
    49ae:	48 89 c2             	mov    %rax,%rdx
    49b1:	48 8d 05 5a 00 00 00 	lea    0x5a(%rip),%rax        # 4a12 <test_robust+0x12a1>
    49b8:	48 89 c1             	mov    %rax,%rcx
    49bb:	e8 83 b6 ff ff       	call   43 <printf>
    49c0:	48 8d 45 80          	lea    -0x80(%rbp),%rax
    49c4:	f3 0f 10 0d ac 07 00 	movss  0x7ac(%rip),%xmm1        # 5178 <test_backlash+0x692>
    49cb:	00 
    49cc:	48 89 c1             	mov    %rax,%rcx
    49cf:	e8 00 00 00 00       	call   49d4 <test_robust+0x1263>
    49d4:	66 83 f8 02          	cmp    $0x2,%ax
    49d8:	74 1f                	je     49f9 <test_robust+0x1288>
    49da:	41 b8 73 02 00 00    	mov    $0x273,%r8d
    49e0:	48 8d 05 49 00 00 00 	lea    0x49(%rip),%rax        # 4a30 <test_robust+0x12bf>
    49e7:	48 89 c2             	mov    %rax,%rdx
    49ea:	48 8d 05 5a 00 00 00 	lea    0x5a(%rip),%rax        # 4a4b <test_robust+0x12da>
    49f1:	48 89 c1             	mov    %rax,%rcx
    49f4:	e8 4a b6 ff ff       	call   43 <printf>
    49f9:	48 8d 45 80          	lea    -0x80(%rbp),%rax
    49fd:	f3 0f 10 0d ac 07 00 	movss  0x7ac(%rip),%xmm1        # 51b1 <test_backlash+0x6cb>
    4a04:	00 
    4a05:	48 89 c1             	mov    %rax,%rcx
    4a08:	e8 00 00 00 00       	call   4a0d <test_robust+0x129c>
    4a0d:	66 83 f8 03          	cmp    $0x3,%ax
    4a11:	74 1f                	je     4a32 <test_robust+0x12c1>
    4a13:	41 b8 74 02 00 00    	mov    $0x274,%r8d
    4a19:	48 8d 05 49 00 00 00 	lea    0x49(%rip),%rax        # 4a69 <test_robust+0x12f8>
    4a20:	48 89 c2             	mov    %rax,%rdx
    4a23:	48 8d 05 5a 00 00 00 	lea    0x5a(%rip),%rax        # 4a84 <test_robust+0x1313>
    4a2a:	48 89 c1             	mov    %rax,%rcx
    4a2d:	e8 11 b6 ff ff       	call   43 <printf>
    4a32:	48 8d 45 80          	lea    -0x80(%rbp),%rax
    4a36:	f3 0f 10 0d 3c 08 00 	movss  0x83c(%rip),%xmm1        # 527a <test_edge_delay+0x42>
    4a3d:	00 
    4a3e:	48 89 c1             	mov    %rax,%rcx
    4a41:	e8 00 00 00 00       	call   4a46 <test_robust+0x12d5>
    4a46:	66 83 f8 02          	cmp    $0x2,%ax
    4a4a:	74 1f                	je     4a6b <test_robust+0x12fa>
    4a4c:	41 b8 75 02 00 00    	mov    $0x275,%r8d
    4a52:	48 8d 05 49 00 00 00 	lea    0x49(%rip),%rax        # 4aa2 <test_robust+0x1331>
    4a59:	48 89 c2             	mov    %rax,%rdx
    4a5c:	48 8d 05 5a 00 00 00 	lea    0x5a(%rip),%rax        # 4abd <test_robust+0x134c>
    4a63:	48 89 c1             	mov    %rax,%rcx
    4a66:	e8 d8 b5 ff ff       	call   43 <printf>
    4a6b:	48 8d 45 80          	lea    -0x80(%rbp),%rax
    4a6f:	f3 0f 10 0d 3c 08 00 	movss  0x83c(%rip),%xmm1        # 52b3 <test_edge_delay+0x7b>
    4a76:	00 
    4a77:	48 89 c1             	mov    %rax,%rcx
    4a7a:	e8 00 00 00 00       	call   4a7f <test_robust+0x130e>
    4a7f:	66 83 f8 01          	cmp    $0x1,%ax
    4a83:	74 1f                	je     4aa4 <test_robust+0x1333>
    4a85:	41 b8 76 02 00 00    	mov    $0x276,%r8d
    4a8b:	48 8d 05 49 00 00 00 	lea    0x49(%rip),%rax        # 4adb <test_robust+0x136a>
    4a92:	48 89 c2             	mov    %rax,%rdx
    4a95:	48 8d 05 5a 00 00 00 	lea    0x5a(%rip),%rax        # 4af6 <test_backlash+0x10>
    4a9c:	48 89 c1             	mov    %rax,%rcx
    4a9f:	e8 9f b5 ff ff       	call   43 <printf>
    4aa4:	48 8d 45 80          	lea    -0x80(%rbp),%rax
    4aa8:	f3 0f 10 0d 3c 08 00 	movss  0x83c(%rip),%xmm1        # 52ec <test_edge_delay+0xb4>
    4aaf:	00 
    4ab0:	48 89 c1             	mov    %rax,%rcx
    4ab3:	e8 00 00 00 00       	call   4ab8 <test_robust+0x1347>
    4ab8:	66 85 c0             	test   %ax,%ax
    4abb:	74 1f                	je     4adc <test_robust+0x136b>
    4abd:	41 b8 77 02 00 00    	mov    $0x277,%r8d
    4ac3:	48 8d 05 49 00 00 00 	lea    0x49(%rip),%rax        # 4b13 <test_backlash+0x2d>
    4aca:	48 89 c2             	mov    %rax,%rdx
    4acd:	48 8d 05 5a 00 00 00 	lea    0x5a(%rip),%rax        # 4b2e <test_backlash+0x48>
    4ad4:	48 89 c1             	mov    %rax,%rcx
    4ad7:	e8 67 b5 ff ff       	call   43 <printf>
    4adc:	90                   	nop
    4add:	48 81 c4 a0 00 00 00 	add    $0xa0,%rsp
    4ae4:	5d                   	pop    %rbp
    4ae5:	c3                   	ret

0000000000004ae6 <test_backlash>:
    4ae6:	55                   	push   %rbp
    4ae7:	48 89 e5             	mov    %rsp,%rbp
    4aea:	48 83 ec 30          	sub    $0x30,%rsp
    4aee:	48 8d 05 40 04 00 00 	lea    0x440(%rip),%rax        # 4f35 <test_backlash+0x44f>
    4af5:	48 89 c1             	mov    %rax,%rcx
    4af8:	e8 46 b5 ff ff       	call   43 <printf>
    4afd:	f3 0f 10 05 9c 07 00 	movss  0x79c(%rip),%xmm0        # 52a1 <test_edge_delay+0x69>
    4b04:	00 
    4b05:	f3 0f 11 45 f8       	movss  %xmm0,-0x8(%rbp)
    4b0a:	66 0f ef c0          	pxor   %xmm0,%xmm0
    4b0e:	f3 0f 11 45 fc       	movss  %xmm0,-0x4(%rbp)
    4b13:	48 8d 45 f8          	lea    -0x8(%rbp),%rax
    4b17:	66 0f ef c9          	pxor   %xmm1,%xmm1
    4b1b:	48 89 c1             	mov    %rax,%rcx
    4b1e:	e8 00 00 00 00       	call   4b23 <test_backlash+0x3d>
    4b23:	66 0f 7e c0          	movd   %xmm0,%eax
    4b27:	66 0f ef c0          	pxor   %xmm0,%xmm0
    4b2b:	66 0f 6e d0          	movd   %eax,%xmm2
    4b2f:	0f 2e d0             	ucomiss %xmm0,%xmm2
    4b32:	7a 0d                	jp     4b41 <test_backlash+0x5b>
    4b34:	66 0f ef c0          	pxor   %xmm0,%xmm0
    4b38:	66 0f 6e d8          	movd   %eax,%xmm3
    4b3c:	0f 2e d8             	ucomiss %xmm0,%xmm3
    4b3f:	74 1f                	je     4b60 <test_backlash+0x7a>
    4b41:	41 b8 7e 02 00 00    	mov    $0x27e,%r8d
    4b47:	48 8d 05 49 00 00 00 	lea    0x49(%rip),%rax        # 4b97 <test_backlash+0xb1>
    4b4e:	48 89 c2             	mov    %rax,%rdx
    4b51:	48 8d 05 5a 00 00 00 	lea    0x5a(%rip),%rax        # 4bb2 <test_backlash+0xcc>
    4b58:	48 89 c1             	mov    %rax,%rcx
    4b5b:	e8 e3 b4 ff ff       	call   43 <printf>
    4b60:	48 8d 45 f8          	lea    -0x8(%rbp),%rax
    4b64:	f3 0f 10 0d a0 07 00 	movss  0x7a0(%rip),%xmm1        # 530c <test_edge_delay+0xd4>
    4b6b:	00 
    4b6c:	48 89 c1             	mov    %rax,%rcx
    4b6f:	e8 00 00 00 00       	call   4b74 <test_backlash+0x8e>
    4b74:	66 0f 7e c0          	movd   %xmm0,%eax
    4b78:	66 0f ef c0          	pxor   %xmm0,%xmm0
    4b7c:	66 0f 6e e0          	movd   %eax,%xmm4
    4b80:	0f 2e e0             	ucomiss %xmm0,%xmm4
    4b83:	7a 0d                	jp     4b92 <test_backlash+0xac>
    4b85:	66 0f ef c0          	pxor   %xmm0,%xmm0
    4b89:	66 0f 6e e8          	movd   %eax,%xmm5
    4b8d:	0f 2e e8             	ucomiss %xmm0,%xmm5
    4b90:	74 1f                	je     4bb1 <test_backlash+0xcb>
    4b92:	41 b8 7f 02 00 00    	mov    $0x27f,%r8d
    4b98:	48 8d 05 49 00 00 00 	lea    0x49(%rip),%rax        # 4be8 <test_backlash+0x102>
    4b9f:	48 89 c2             	mov    %rax,%rdx
    4ba2:	48 8d 05 5a 00 00 00 	lea    0x5a(%rip),%rax        # 4c03 <test_backlash+0x11d>
    4ba9:	48 89 c1             	mov    %rax,%rcx
    4bac:	e8 92 b4 ff ff       	call   43 <printf>
    4bb1:	48 8d 45 f8          	lea    -0x8(%rbp),%rax
    4bb5:	f3 0f 10 0d 9c 07 00 	movss  0x79c(%rip),%xmm1        # 5359 <test_edge_delay+0x121>
    4bbc:	00 
    4bbd:	48 89 c1             	mov    %rax,%rcx
    4bc0:	e8 00 00 00 00       	call   4bc5 <test_backlash+0xdf>
    4bc5:	66 0f 7e c0          	movd   %xmm0,%eax
    4bc9:	66 0f ef c0          	pxor   %xmm0,%xmm0
    4bcd:	66 0f 6e d0          	movd   %eax,%xmm2
    4bd1:	0f 2e d0             	ucomiss %xmm0,%xmm2
    4bd4:	7a 0d                	jp     4be3 <test_backlash+0xfd>
    4bd6:	66 0f ef c0          	pxor   %xmm0,%xmm0
    4bda:	66 0f 6e d8          	movd   %eax,%xmm3
    4bde:	0f 2e d8             	ucomiss %xmm0,%xmm3
    4be1:	74 1f                	je     4c02 <test_backlash+0x11c>
    4be3:	41 b8 80 02 00 00    	mov    $0x280,%r8d
    4be9:	48 8d 05 49 00 00 00 	lea    0x49(%rip),%rax        # 4c39 <test_backlash+0x153>
    4bf0:	48 89 c2             	mov    %rax,%rdx
    4bf3:	48 8d 05 5a 00 00 00 	lea    0x5a(%rip),%rax        # 4c54 <test_backlash+0x16e>
    4bfa:	48 89 c1             	mov    %rax,%rcx
    4bfd:	e8 41 b4 ff ff       	call   43 <printf>
    4c02:	48 8d 45 f8          	lea    -0x8(%rbp),%rax
    4c06:	f3 0f 10 0d b4 07 00 	movss  0x7b4(%rip),%xmm1        # 53c2 <test_edge_delay+0x18a>
    4c0d:	00 
    4c0e:	48 89 c1             	mov    %rax,%rcx
    4c11:	e8 00 00 00 00       	call   4c16 <test_backlash+0x130>
    4c16:	66 0f 7e c0          	movd   %xmm0,%eax
    4c1a:	f3 0f 10 05 a0 07 00 	movss  0x7a0(%rip),%xmm0        # 53c2 <test_edge_delay+0x18a>
    4c21:	00 
    4c22:	66 0f 6e e0          	movd   %eax,%xmm4
    4c26:	0f 2e e0             	ucomiss %xmm0,%xmm4
    4c29:	7a 11                	jp     4c3c <test_backlash+0x156>
    4c2b:	f3 0f 10 05 a0 07 00 	movss  0x7a0(%rip),%xmm0        # 53d3 <test_edge_delay+0x19b>
    4c32:	00 
    4c33:	66 0f 6e e8          	movd   %eax,%xmm5
    4c37:	0f 2e e8             	ucomiss %xmm0,%xmm5
    4c3a:	74 1f                	je     4c5b <test_backlash+0x175>
    4c3c:	41 b8 81 02 00 00    	mov    $0x281,%r8d
    4c42:	48 8d 05 49 00 00 00 	lea    0x49(%rip),%rax        # 4c92 <test_backlash+0x1ac>
    4c49:	48 89 c2             	mov    %rax,%rdx
    4c4c:	48 8d 05 5a 00 00 00 	lea    0x5a(%rip),%rax        # 4cad <test_backlash+0x1c7>
    4c53:	48 89 c1             	mov    %rax,%rcx
    4c56:	e8 e8 b3 ff ff       	call   43 <printf>
    4c5b:	48 8d 45 f8          	lea    -0x8(%rbp),%rax
    4c5f:	f3 0f 10 0d 9c 07 00 	movss  0x79c(%rip),%xmm1        # 5403 <test_edge_delay+0x1cb>
    4c66:	00 
    4c67:	48 89 c1             	mov    %rax,%rcx
    4c6a:	e8 00 00 00 00       	call   4c6f <test_backlash+0x189>
    4c6f:	66 0f 7e c0          	movd   %xmm0,%eax
    4c73:	f3 0f 10 05 a0 07 00 	movss  0x7a0(%rip),%xmm0        # 541b <test_edge_delay+0x1e3>
    4c7a:	00 
    4c7b:	66 0f 6e d0          	movd   %eax,%xmm2
    4c7f:	0f 2e d0             	ucomiss %xmm0,%xmm2
    4c82:	7a 11                	jp     4c95 <test_backlash+0x1af>
    4c84:	f3 0f 10 05 a0 07 00 	movss  0x7a0(%rip),%xmm0        # 542c <test_edge_delay+0x1f4>
    4c8b:	00 
    4c8c:	66 0f 6e d8          	movd   %eax,%xmm3
    4c90:	0f 2e d8             	ucomiss %xmm0,%xmm3
    4c93:	74 1f                	je     4cb4 <test_backlash+0x1ce>
    4c95:	41 b8 82 02 00 00    	mov    $0x282,%r8d
    4c9b:	48 8d 05 49 00 00 00 	lea    0x49(%rip),%rax        # 4ceb <test_backlash+0x205>
    4ca2:	48 89 c2             	mov    %rax,%rdx
    4ca5:	48 8d 05 5a 00 00 00 	lea    0x5a(%rip),%rax        # 4d06 <test_backlash+0x220>
    4cac:	48 89 c1             	mov    %rax,%rcx
    4caf:	e8 8f b3 ff ff       	call   43 <printf>
    4cb4:	48 8d 45 f8          	lea    -0x8(%rbp),%rax
    4cb8:	f3 0f 10 0d a0 07 00 	movss  0x7a0(%rip),%xmm1        # 5460 <test_edge_delay+0x228>
    4cbf:	00 
    4cc0:	48 89 c1             	mov    %rax,%rcx
    4cc3:	e8 00 00 00 00       	call   4cc8 <test_backlash+0x1e2>
    4cc8:	66 0f 7e c0          	movd   %xmm0,%eax
    4ccc:	f3 0f 10 05 a0 07 00 	movss  0x7a0(%rip),%xmm0        # 5474 <test_edge_delay+0x23c>
    4cd3:	00 
    4cd4:	66 0f 6e e0          	movd   %eax,%xmm4
    4cd8:	0f 2e e0             	ucomiss %xmm0,%xmm4
    4cdb:	7a 11                	jp     4cee <test_backlash+0x208>
    4cdd:	f3 0f 10 05 a0 07 00 	movss  0x7a0(%rip),%xmm0        # 5485 <test_edge_delay+0x24d>
    4ce4:	00 
    4ce5:	66 0f 6e e8          	movd   %eax,%xmm5
    4ce9:	0f 2e e8             	ucomiss %xmm0,%xmm5
    4cec:	74 1f                	je     4d0d <test_backlash+0x227>
    4cee:	41 b8 83 02 00 00    	mov    $0x283,%r8d
    4cf4:	48 8d 05 49 00 00 00 	lea    0x49(%rip),%rax        # 4d44 <test_backlash+0x25e>
    4cfb:	48 89 c2             	mov    %rax,%rdx
    4cfe:	48 8d 05 5a 00 00 00 	lea    0x5a(%rip),%rax        # 4d5f <test_backlash+0x279>
    4d05:	48 89 c1             	mov    %rax,%rcx
    4d08:	e8 36 b3 ff ff       	call   43 <printf>
    4d0d:	48 8d 45 f8          	lea    -0x8(%rbp),%rax
    4d11:	66 0f ef c9          	pxor   %xmm1,%xmm1
    4d15:	48 89 c1             	mov    %rax,%rcx
    4d18:	e8 00 00 00 00       	call   4d1d <test_backlash+0x237>
    4d1d:	66 0f 7e c0          	movd   %xmm0,%eax
    4d21:	f3 0f 10 05 a0 07 00 	movss  0x7a0(%rip),%xmm0        # 54c9 <test_edge_delay+0x291>
    4d28:	00 
    4d29:	66 0f 6e d0          	movd   %eax,%xmm2
    4d2d:	0f 2e d0             	ucomiss %xmm0,%xmm2
    4d30:	7a 11                	jp     4d43 <test_backlash+0x25d>
    4d32:	f3 0f 10 05 a0 07 00 	movss  0x7a0(%rip),%xmm0        # 54da <test_edge_delay+0x2a2>
    4d39:	00 
    4d3a:	66 0f 6e d8          	movd   %eax,%xmm3
    4d3e:	0f 2e d8             	ucomiss %xmm0,%xmm3
    4d41:	74 1f                	je     4d62 <test_backlash+0x27c>
    4d43:	41 b8 84 02 00 00    	mov    $0x284,%r8d
    4d49:	48 8d 05 49 00 00 00 	lea    0x49(%rip),%rax        # 4d99 <test_backlash+0x2b3>
    4d50:	48 89 c2             	mov    %rax,%rdx
    4d53:	48 8d 05 5a 00 00 00 	lea    0x5a(%rip),%rax        # 4db4 <test_backlash+0x2ce>
    4d5a:	48 89 c1             	mov    %rax,%rcx
    4d5d:	e8 e1 b2 ff ff       	call   43 <printf>
    4d62:	48 8d 45 f8          	lea    -0x8(%rbp),%rax
    4d66:	f3 0f 10 0d a8 07 00 	movss  0x7a8(%rip),%xmm1        # 5516 <test_edge_delay+0x2de>
    4d6d:	00 
    4d6e:	48 89 c1             	mov    %rax,%rcx
    4d71:	e8 00 00 00 00       	call   4d76 <test_backlash+0x290>
    4d76:	66 0f 7e c0          	movd   %xmm0,%eax
    4d7a:	f3 0f 10 05 a0 07 00 	movss  0x7a0(%rip),%xmm0        # 5522 <test_edge_delay+0x2ea>
    4d81:	00 
    4d82:	66 0f 6e e0          	movd   %eax,%xmm4
    4d86:	0f 2e e0             	ucomiss %xmm0,%xmm4
    4d89:	7a 11                	jp     4d9c <test_backlash+0x2b6>
    4d8b:	f3 0f 10 05 a0 07 00 	movss  0x7a0(%rip),%xmm0        # 5533 <test_edge_delay+0x2fb>
    4d92:	00 
    4d93:	66 0f 6e e8          	movd   %eax,%xmm5
    4d97:	0f 2e e8             	ucomiss %xmm0,%xmm5
    4d9a:	74 1f                	je     4dbb <test_backlash+0x2d5>
    4d9c:	41 b8 85 02 00 00    	mov    $0x285,%r8d
    4da2:	48 8d 05 49 00 00 00 	lea    0x49(%rip),%rax        # 4df2 <test_backlash+0x30c>
    4da9:	48 89 c2             	mov    %rax,%rdx
    4dac:	48 8d 05 5a 00 00 00 	lea    0x5a(%rip),%rax        # 4e0d <test_backlash+0x327>
    4db3:	48 89 c1             	mov    %rax,%rcx
    4db6:	e8 88 b2 ff ff       	call   43 <printf>
    4dbb:	48 8d 45 f8          	lea    -0x8(%rbp),%rax
    4dbf:	f3 0f 10 0d bc 07 00 	movss  0x7bc(%rip),%xmm1        # 5583 <test_edge_delay+0x34b>
    4dc6:	00 
    4dc7:	48 89 c1             	mov    %rax,%rcx
    4dca:	e8 00 00 00 00       	call   4dcf <test_backlash+0x2e9>
    4dcf:	66 0f 7e c0          	movd   %xmm0,%eax
    4dd3:	66 0f ef c0          	pxor   %xmm0,%xmm0
    4dd7:	66 0f 6e d0          	movd   %eax,%xmm2
    4ddb:	0f 2e d0             	ucomiss %xmm0,%xmm2
    4dde:	7a 0d                	jp     4ded <test_backlash+0x307>
    4de0:	66 0f ef c0          	pxor   %xmm0,%xmm0
    4de4:	66 0f 6e d8          	movd   %eax,%xmm3
    4de8:	0f 2e d8             	ucomiss %xmm0,%xmm3
    4deb:	74 1f                	je     4e0c <test_backlash+0x326>
    4ded:	41 b8 86 02 00 00    	mov    $0x286,%r8d
    4df3:	48 8d 05 49 00 00 00 	lea    0x49(%rip),%rax        # 4e43 <test_backlash+0x35d>
    4dfa:	48 89 c2             	mov    %rax,%rdx
    4dfd:	48 8d 05 5a 00 00 00 	lea    0x5a(%rip),%rax        # 4e5e <test_backlash+0x378>
    4e04:	48 89 c1             	mov    %rax,%rcx
    4e07:	e8 37 b2 ff ff       	call   43 <printf>
    4e0c:	48 8d 45 f8          	lea    -0x8(%rbp),%rax
    4e10:	f3 0f 10 0d c0 07 00 	movss  0x7c0(%rip),%xmm1        # 55d8 <test_edge_delay+0x3a0>
    4e17:	00 
    4e18:	48 89 c1             	mov    %rax,%rcx
    4e1b:	e8 00 00 00 00       	call   4e20 <test_backlash+0x33a>
    4e20:	66 0f 7e c0          	movd   %xmm0,%eax
    4e24:	f3 0f 10 05 a8 07 00 	movss  0x7a8(%rip),%xmm0        # 55d4 <test_edge_delay+0x39c>
    4e2b:	00 
    4e2c:	66 0f 6e e0          	movd   %eax,%xmm4
    4e30:	0f 2e e0             	ucomiss %xmm0,%xmm4
    4e33:	7a 11                	jp     4e46 <test_backlash+0x360>
    4e35:	f3 0f 10 05 a8 07 00 	movss  0x7a8(%rip),%xmm0        # 55e5 <test_edge_delay+0x3ad>
    4e3c:	00 
    4e3d:	66 0f 6e e8          	movd   %eax,%xmm5
    4e41:	0f 2e e8             	ucomiss %xmm0,%xmm5
    4e44:	74 1f                	je     4e65 <test_backlash+0x37f>
    4e46:	41 b8 87 02 00 00    	mov    $0x287,%r8d
    4e4c:	48 8d 05 49 00 00 00 	lea    0x49(%rip),%rax        # 4e9c <test_backlash+0x3b6>
    4e53:	48 89 c2             	mov    %rax,%rdx
    4e56:	48 8d 05 5a 00 00 00 	lea    0x5a(%rip),%rax        # 4eb7 <test_backlash+0x3d1>
    4e5d:	48 89 c1             	mov    %rax,%rcx
    4e60:	e8 de b1 ff ff       	call   43 <printf>
    4e65:	48 8d 45 f8          	lea    -0x8(%rbp),%rax
    4e69:	f3 0f 10 0d 48 08 00 	movss  0x848(%rip),%xmm1        # 56b9 <test_edge_delay+0x481>
    4e70:	00 
    4e71:	48 89 c1             	mov    %rax,%rcx
    4e74:	e8 00 00 00 00       	call   4e79 <test_backlash+0x393>
    4e79:	66 0f 7e c0          	movd   %xmm0,%eax
    4e7d:	66 0f 6e d0          	movd   %eax,%xmm2
    4e81:	0f 2e 15 4c 08 00 00 	ucomiss 0x84c(%rip),%xmm2        # 56d4 <test_edge_delay+0x49c>
    4e88:	7a 0d                	jp     4e97 <test_backlash+0x3b1>
    4e8a:	66 0f 6e d8          	movd   %eax,%xmm3
    4e8e:	0f 2e 1d 4c 08 00 00 	ucomiss 0x84c(%rip),%xmm3        # 56e1 <test_edge_delay+0x4a9>
    4e95:	74 1f                	je     4eb6 <test_backlash+0x3d0>
    4e97:	41 b8 88 02 00 00    	mov    $0x288,%r8d
    4e9d:	48 8d 05 49 00 00 00 	lea    0x49(%rip),%rax        # 4eed <test_backlash+0x407>
    4ea4:	48 89 c2             	mov    %rax,%rdx
    4ea7:	48 8d 05 5a 00 00 00 	lea    0x5a(%rip),%rax        # 4f08 <test_backlash+0x422>
    4eae:	48 89 c1             	mov    %rax,%rcx
    4eb1:	e8 8d b1 ff ff       	call   43 <printf>
    4eb6:	48 8d 45 f8          	lea    -0x8(%rbp),%rax
    4eba:	f3 0f 10 0d 50 08 00 	movss  0x850(%rip),%xmm1        # 5712 <test_edge_delay+0x4da>
    4ec1:	00 
    4ec2:	48 89 c1             	mov    %rax,%rcx
    4ec5:	e8 00 00 00 00       	call   4eca <test_backlash+0x3e4>
    4eca:	66 0f 7e c0          	movd   %xmm0,%eax
    4ece:	66 0f 6e e0          	movd   %eax,%xmm4
    4ed2:	0f 2e 25 4c 08 00 00 	ucomiss 0x84c(%rip),%xmm4        # 5725 <test_edge_delay+0x4ed>
    4ed9:	7a 0d                	jp     4ee8 <test_backlash+0x402>
    4edb:	66 0f 6e e8          	movd   %eax,%xmm5
    4edf:	0f 2e 2d 4c 08 00 00 	ucomiss 0x84c(%rip),%xmm5        # 5732 <test_edge_delay+0x4fa>
    4ee6:	74 1f                	je     4f07 <test_backlash+0x421>
    4ee8:	41 b8 89 02 00 00    	mov    $0x289,%r8d
    4eee:	48 8d 05 49 00 00 00 	lea    0x49(%rip),%rax        # 4f3e <test_backlash+0x458>
    4ef5:	48 89 c2             	mov    %rax,%rdx
    4ef8:	48 8d 05 5a 00 00 00 	lea    0x5a(%rip),%rax        # 4f59 <test_backlash+0x473>
    4eff:	48 89 c1             	mov    %rax,%rcx
    4f02:	e8 3c b1 ff ff       	call   43 <printf>
    4f07:	48 8d 45 f8          	lea    -0x8(%rbp),%rax
    4f0b:	f3 0f 10 0d 4c 08 00 	movss  0x84c(%rip),%xmm1        # 575f <test_edge_delay+0x527>
    4f12:	00 
    4f13:	48 89 c1             	mov    %rax,%rcx
    4f16:	e8 00 00 00 00       	call   4f1b <test_backlash+0x435>
    4f1b:	66 0f 7e c0          	movd   %xmm0,%eax
    4f1f:	66 0f 6e d0          	movd   %eax,%xmm2
    4f23:	0f 2e 15 4c 08 00 00 	ucomiss 0x84c(%rip),%xmm2        # 5776 <test_edge_delay+0x53e>
    4f2a:	7a 0d                	jp     4f39 <test_backlash+0x453>
    4f2c:	66 0f 6e d8          	movd   %eax,%xmm3
    4f30:	0f 2e 1d 4c 08 00 00 	ucomiss 0x84c(%rip),%xmm3        # 5783 <test_edge_delay+0x54b>
    4f37:	74 1f                	je     4f58 <test_backlash+0x472>
    4f39:	41 b8 8a 02 00 00    	mov    $0x28a,%r8d
    4f3f:	48 8d 05 49 00 00 00 	lea    0x49(%rip),%rax        # 4f8f <test_backlash+0x4a9>
    4f46:	48 89 c2             	mov    %rax,%rdx
    4f49:	48 8d 05 5a 00 00 00 	lea    0x5a(%rip),%rax        # 4faa <test_backlash+0x4c4>
    4f50:	48 89 c1             	mov    %rax,%rcx
    4f53:	e8 eb b0 ff ff       	call   43 <printf>
    4f58:	48 8d 45 f8          	lea    -0x8(%rbp),%rax
    4f5c:	f3 0f 10 0d 54 08 00 	movss  0x854(%rip),%xmm1        # 57b8 <test_edge_delay+0x580>
    4f63:	00 
    4f64:	48 89 c1             	mov    %rax,%rcx
    4f67:	e8 00 00 00 00       	call   4f6c <test_backlash+0x486>
    4f6c:	66 0f 7e c0          	movd   %xmm0,%eax
    4f70:	66 0f 6e e0          	movd   %eax,%xmm4
    4f74:	0f 2e 25 4c 08 00 00 	ucomiss 0x84c(%rip),%xmm4        # 57c7 <test_edge_delay+0x58f>
    4f7b:	7a 0d                	jp     4f8a <test_backlash+0x4a4>
    4f7d:	66 0f 6e e8          	movd   %eax,%xmm5
    4f81:	0f 2e 2d 4c 08 00 00 	ucomiss 0x84c(%rip),%xmm5        # 57d4 <test_edge_delay+0x59c>
    4f88:	74 1f                	je     4fa9 <test_backlash+0x4c3>
    4f8a:	41 b8 8b 02 00 00    	mov    $0x28b,%r8d
    4f90:	48 8d 05 49 00 00 00 	lea    0x49(%rip),%rax        # 4fe0 <test_backlash+0x4fa>
    4f97:	48 89 c2             	mov    %rax,%rdx
    4f9a:	48 8d 05 5a 00 00 00 	lea    0x5a(%rip),%rax        # 4ffb <test_backlash+0x515>
    4fa1:	48 89 c1             	mov    %rax,%rcx
    4fa4:	e8 9a b0 ff ff       	call   43 <printf>
    4fa9:	48 8d 45 f8          	lea    -0x8(%rbp),%rax
    4fad:	f3 0f 10 0d 58 08 00 	movss  0x858(%rip),%xmm1        # 580d <test_edge_delay+0x5d5>
    4fb4:	00 
    4fb5:	48 89 c1             	mov    %rax,%rcx
    4fb8:	e8 00 00 00 00       	call   4fbd <test_backlash+0x4d7>
    4fbd:	66 0f 7e c0          	movd   %xmm0,%eax
    4fc1:	66 0f 6e d0          	movd   %eax,%xmm2
    4fc5:	0f 2e 15 4c 08 00 00 	ucomiss 0x84c(%rip),%xmm2        # 5818 <test_edge_delay+0x5e0>
    4fcc:	7a 0d                	jp     4fdb <test_backlash+0x4f5>
    4fce:	66 0f 6e d8          	movd   %eax,%xmm3
    4fd2:	0f 2e 1d 4c 08 00 00 	ucomiss 0x84c(%rip),%xmm3        # 5825 <test_edge_delay+0x5ed>
    4fd9:	74 1f                	je     4ffa <test_backlash+0x514>
    4fdb:	41 b8 8c 02 00 00    	mov    $0x28c,%r8d
    4fe1:	48 8d 05 49 00 00 00 	lea    0x49(%rip),%rax        # 5031 <test_backlash+0x54b>
    4fe8:	48 89 c2             	mov    %rax,%rdx
    4feb:	48 8d 05 5a 00 00 00 	lea    0x5a(%rip),%rax        # 504c <test_backlash+0x566>
    4ff2:	48 89 c1             	mov    %rax,%rcx
    4ff5:	e8 49 b0 ff ff       	call   43 <printf>
    4ffa:	48 8d 45 f8          	lea    -0x8(%rbp),%rax
    4ffe:	f3 0f 10 0d 5c 08 00 	movss  0x85c(%rip),%xmm1        # 5862 <test_edge_delay+0x62a>
    5005:	00 
    5006:	48 89 c1             	mov    %rax,%rcx
    5009:	e8 00 00 00 00       	call   500e <test_backlash+0x528>
    500e:	66 0f 7e c0          	movd   %xmm0,%eax
    5012:	66 0f 6e e0          	movd   %eax,%xmm4
    5016:	0f 2e 25 54 08 00 00 	ucomiss 0x854(%rip),%xmm4        # 5871 <test_edge_delay+0x639>
    501d:	7a 0d                	jp     502c <test_backlash+0x546>
    501f:	66 0f 6e e8          	movd   %eax,%xmm5
    5023:	0f 2e 2d 54 08 00 00 	ucomiss 0x854(%rip),%xmm5        # 587e <test_edge_delay+0x646>
    502a:	74 1f                	je     504b <test_backlash+0x565>
    502c:	41 b8 8d 02 00 00    	mov    $0x28d,%r8d
    5032:	48 8d 05 49 00 00 00 	lea    0x49(%rip),%rax        # 5082 <test_backlash+0x59c>
    5039:	48 89 c2             	mov    %rax,%rdx
    503c:	48 8d 05 5a 00 00 00 	lea    0x5a(%rip),%rax        # 509d <test_backlash+0x5b7>
    5043:	48 89 c1             	mov    %rax,%rcx
    5046:	e8 f8 af ff ff       	call   43 <printf>
    504b:	48 8d 45 f8          	lea    -0x8(%rbp),%rax
    504f:	f3 0f 10 0d 10 08 00 	movss  0x810(%rip),%xmm1        # 5867 <test_edge_delay+0x62f>
    5056:	00 
    5057:	48 89 c1             	mov    %rax,%rcx
    505a:	e8 00 00 00 00       	call   505f <test_backlash+0x579>
    505f:	66 0f 7e c0          	movd   %xmm0,%eax
    5063:	66 0f 6e d0          	movd   %eax,%xmm2
    5067:	0f 2e 15 60 08 00 00 	ucomiss 0x860(%rip),%xmm2        # 58ce <test_edge_delay+0x696>
    506e:	7a 0d                	jp     507d <test_backlash+0x597>
    5070:	66 0f 6e d8          	movd   %eax,%xmm3
    5074:	0f 2e 1d 60 08 00 00 	ucomiss 0x860(%rip),%xmm3        # 58db <test_edge_delay+0x6a3>
    507b:	74 1f                	je     509c <test_backlash+0x5b6>
    507d:	41 b8 8e 02 00 00    	mov    $0x28e,%r8d
    5083:	48 8d 05 49 00 00 00 	lea    0x49(%rip),%rax        # 50d3 <test_backlash+0x5ed>
    508a:	48 89 c2             	mov    %rax,%rdx
    508d:	48 8d 05 5a 00 00 00 	lea    0x5a(%rip),%rax        # 50ee <test_backlash+0x608>
    5094:	48 89 c1             	mov    %rax,%rcx
    5097:	e8 a7 af ff ff       	call   43 <printf>
    509c:	48 8d 45 f8          	lea    -0x8(%rbp),%rax
    50a0:	f3 0f 10 0d 64 08 00 	movss  0x864(%rip),%xmm1        # 590c <test_edge_delay+0x6d4>
    50a7:	00 
    50a8:	48 89 c1             	mov    %rax,%rcx
    50ab:	e8 00 00 00 00       	call   50b0 <test_backlash+0x5ca>
    50b0:	66 0f 7e c0          	movd   %xmm0,%eax
    50b4:	66 0f 6e e0          	movd   %eax,%xmm4
    50b8:	0f 2e 25 60 08 00 00 	ucomiss 0x860(%rip),%xmm4        # 591f <test_edge_delay+0x6e7>
    50bf:	7a 0d                	jp     50ce <test_backlash+0x5e8>
    50c1:	66 0f 6e e8          	movd   %eax,%xmm5
    50c5:	0f 2e 2d 60 08 00 00 	ucomiss 0x860(%rip),%xmm5        # 592c <test_edge_delay+0x6f4>
    50cc:	74 1f                	je     50ed <test_backlash+0x607>
    50ce:	41 b8 8f 02 00 00    	mov    $0x28f,%r8d
    50d4:	48 8d 05 49 00 00 00 	lea    0x49(%rip),%rax        # 5124 <test_backlash+0x63e>
    50db:	48 89 c2             	mov    %rax,%rdx
    50de:	48 8d 05 5a 00 00 00 	lea    0x5a(%rip),%rax        # 513f <test_backlash+0x659>
    50e5:	48 89 c1             	mov    %rax,%rcx
    50e8:	e8 56 af ff ff       	call   43 <printf>
    50ed:	48 8d 45 f8          	lea    -0x8(%rbp),%rax
    50f1:	f3 0f 10 0d 60 08 00 	movss  0x860(%rip),%xmm1        # 5959 <test_edge_delay+0x721>
    50f8:	00 
    50f9:	48 89 c1             	mov    %rax,%rcx
    50fc:	e8 00 00 00 00       	call   5101 <test_backlash+0x61b>
    5101:	66 0f 7e c0          	movd   %xmm0,%eax
    5105:	66 0f 6e d0          	movd   %eax,%xmm2
    5109:	0f 2e 15 60 08 00 00 	ucomiss 0x860(%rip),%xmm2        # 5970 <test_edge_delay+0x738>
    5110:	7a 0d                	jp     511f <test_backlash+0x639>
    5112:	66 0f 6e d8          	movd   %eax,%xmm3
    5116:	0f 2e 1d 60 08 00 00 	ucomiss 0x860(%rip),%xmm3        # 597d <test_edge_delay+0x745>
    511d:	74 1f                	je     513e <test_backlash+0x658>
    511f:	41 b8 90 02 00 00    	mov    $0x290,%r8d
    5125:	48 8d 05 49 00 00 00 	lea    0x49(%rip),%rax        # 5175 <test_backlash+0x68f>
    512c:	48 89 c2             	mov    %rax,%rdx
    512f:	48 8d 05 5a 00 00 00 	lea    0x5a(%rip),%rax        # 5190 <test_backlash+0x6aa>
    5136:	48 89 c1             	mov    %rax,%rcx
    5139:	e8 05 af ff ff       	call   43 <printf>
    513e:	48 8d 45 f8          	lea    -0x8(%rbp),%rax
    5142:	f3 0f 10 0d 68 08 00 	movss  0x868(%rip),%xmm1        # 59b2 <test_edge_delay+0x77a>
    5149:	00 
    514a:	48 89 c1             	mov    %rax,%rcx
    514d:	e8 00 00 00 00       	call   5152 <test_backlash+0x66c>
    5152:	66 0f 7e c0          	movd   %xmm0,%eax
    5156:	66 0f 6e e0          	movd   %eax,%xmm4
    515a:	0f 2e 25 60 08 00 00 	ucomiss 0x860(%rip),%xmm4        # 59c1 <test_edge_delay+0x789>
    5161:	7a 0d                	jp     5170 <test_backlash+0x68a>
    5163:	66 0f 6e e8          	movd   %eax,%xmm5
    5167:	0f 2e 2d 60 08 00 00 	ucomiss 0x860(%rip),%xmm5        # 59ce <test_edge_delay+0x796>
    516e:	74 1f                	je     518f <test_backlash+0x6a9>
    5170:	41 b8 91 02 00 00    	mov    $0x291,%r8d
    5176:	48 8d 05 49 00 00 00 	lea    0x49(%rip),%rax        # 51c6 <test_backlash+0x6e0>
    517d:	48 89 c2             	mov    %rax,%rdx
    5180:	48 8d 05 5a 00 00 00 	lea    0x5a(%rip),%rax        # 51e1 <test_backlash+0x6fb>
    5187:	48 89 c1             	mov    %rax,%rcx
    518a:	e8 b4 ae ff ff       	call   43 <printf>
    518f:	48 8d 45 f8          	lea    -0x8(%rbp),%rax
    5193:	f3 0f 10 0d 6c 08 00 	movss  0x86c(%rip),%xmm1        # 5a07 <test_edge_delay+0x7cf>
    519a:	00 
    519b:	48 89 c1             	mov    %rax,%rcx
    519e:	e8 00 00 00 00       	call   51a3 <test_backlash+0x6bd>
    51a3:	66 0f 7e c0          	movd   %xmm0,%eax
    51a7:	66 0f 6e d0          	movd   %eax,%xmm2
    51ab:	0f 2e 15 60 08 00 00 	ucomiss 0x860(%rip),%xmm2        # 5a12 <test_edge_delay+0x7da>
    51b2:	7a 0d                	jp     51c1 <test_backlash+0x6db>
    51b4:	66 0f 6e d8          	movd   %eax,%xmm3
    51b8:	0f 2e 1d 60 08 00 00 	ucomiss 0x860(%rip),%xmm3        # 5a1f <test_edge_delay+0x7e7>
    51bf:	74 1f                	je     51e0 <test_backlash+0x6fa>
    51c1:	41 b8 92 02 00 00    	mov    $0x292,%r8d
    51c7:	48 8d 05 49 00 00 00 	lea    0x49(%rip),%rax        # 5217 <test_backlash+0x731>
    51ce:	48 89 c2             	mov    %rax,%rdx
    51d1:	48 8d 05 5a 00 00 00 	lea    0x5a(%rip),%rax        # 5232 <test_backlash+0x74c>
    51d8:	48 89 c1             	mov    %rax,%rcx
    51db:	e8 63 ae ff ff       	call   43 <printf>
    51e0:	48 8d 45 f8          	lea    -0x8(%rbp),%rax
    51e4:	f3 0f 10 0d 70 08 00 	movss  0x870(%rip),%xmm1        # 5a5c <test_edge_delay+0x824>
    51eb:	00 
    51ec:	48 89 c1             	mov    %rax,%rcx
    51ef:	e8 00 00 00 00       	call   51f4 <test_backlash+0x70e>
    51f4:	66 0f 7e c0          	movd   %xmm0,%eax
    51f8:	66 0f 6e e0          	movd   %eax,%xmm4
    51fc:	0f 2e 25 68 08 00 00 	ucomiss 0x868(%rip),%xmm4        # 5a6b <test_edge_delay+0x833>
    5203:	7a 0d                	jp     5212 <test_backlash+0x72c>
    5205:	66 0f 6e e8          	movd   %eax,%xmm5
    5209:	0f 2e 2d 68 08 00 00 	ucomiss 0x868(%rip),%xmm5        # 5a78 <test_edge_delay+0x840>
    5210:	74 1f                	je     5231 <test_backlash+0x74b>
    5212:	41 b8 93 02 00 00    	mov    $0x293,%r8d
    5218:	48 8d 05 49 00 00 00 	lea    0x49(%rip),%rax        # 5268 <test_edge_delay+0x30>
    521f:	48 89 c2             	mov    %rax,%rdx
    5222:	48 8d 05 5a 00 00 00 	lea    0x5a(%rip),%rax        # 5283 <test_edge_delay+0x4b>
    5229:	48 89 c1             	mov    %rax,%rcx
    522c:	e8 12 ae ff ff       	call   43 <printf>
    5231:	90                   	nop
    5232:	48 83 c4 30          	add    $0x30,%rsp
    5236:	5d                   	pop    %rbp
    5237:	c3                   	ret

0000000000005238 <test_edge_delay>:
    5238:	55                   	push   %rbp
    5239:	48 89 e5             	mov    %rsp,%rbp
    523c:	48 83 ec 30          	sub    $0x30,%rsp
    5240:	48 8d 05 60 04 00 00 	lea    0x460(%rip),%rax        # 56a7 <test_edge_delay+0x46f>
    5247:	48 89 c1             	mov    %rax,%rcx
    524a:	e8 f4 ad ff ff       	call   43 <printf>
    524f:	48 8d 45 f8          	lea    -0x8(%rbp),%rax
    5253:	41 b9 04 00 00 00    	mov    $0x4,%r9d
    5259:	41 b8 02 00 00 00    	mov    $0x2,%r8d
    525f:	ba 00 00 00 00       	mov    $0x0,%edx
    5264:	48 89 c1             	mov    %rax,%rcx
    5267:	e8 00 00 00 00       	call   526c <test_edge_delay+0x34>
    526c:	48 8d 45 f8          	lea    -0x8(%rbp),%rax
    5270:	ba 00 00 00 00       	mov    $0x0,%edx
    5275:	48 89 c1             	mov    %rax,%rcx
    5278:	e8 00 00 00 00       	call   527d <test_edge_delay+0x45>
    527d:	66 85 c0             	test   %ax,%ax
    5280:	74 1f                	je     52a1 <test_edge_delay+0x69>
    5282:	41 b8 9b 02 00 00    	mov    $0x29b,%r8d
    5288:	48 8d 05 49 00 00 00 	lea    0x49(%rip),%rax        # 52d8 <test_edge_delay+0xa0>
    528f:	48 89 c2             	mov    %rax,%rdx
    5292:	48 8d 05 5a 00 00 00 	lea    0x5a(%rip),%rax        # 52f3 <test_edge_delay+0xbb>
    5299:	48 89 c1             	mov    %rax,%rcx
    529c:	e8 a2 ad ff ff       	call   43 <printf>
    52a1:	48 8d 45 f8          	lea    -0x8(%rbp),%rax
    52a5:	ba 01 00 00 00       	mov    $0x1,%edx
    52aa:	48 89 c1             	mov    %rax,%rcx
    52ad:	e8 00 00 00 00       	call   52b2 <test_edge_delay+0x7a>
    52b2:	66 85 c0             	test   %ax,%ax
    52b5:	74 1f                	je     52d6 <test_edge_delay+0x9e>
    52b7:	41 b8 9c 02 00 00    	mov    $0x29c,%r8d
    52bd:	48 8d 05 49 00 00 00 	lea    0x49(%rip),%rax        # 530d <test_edge_delay+0xd5>
    52c4:	48 89 c2             	mov    %rax,%rdx
    52c7:	48 8d 05 5a 00 00 00 	lea    0x5a(%rip),%rax        # 5328 <test_edge_delay+0xf0>
    52ce:	48 89 c1             	mov    %rax,%rcx
    52d1:	e8 6d ad ff ff       	call   43 <printf>
    52d6:	48 8d 45 f8          	lea    -0x8(%rbp),%rax
    52da:	ba 01 00 00 00       	mov    $0x1,%edx
    52df:	48 89 c1             	mov    %rax,%rcx
    52e2:	e8 00 00 00 00       	call   52e7 <test_edge_delay+0xaf>
    52e7:	66 85 c0             	test   %ax,%ax
    52ea:	74 1f                	je     530b <test_edge_delay+0xd3>
    52ec:	41 b8 9d 02 00 00    	mov    $0x29d,%r8d
    52f2:	48 8d 05 49 00 00 00 	lea    0x49(%rip),%rax        # 5342 <test_edge_delay+0x10a>
    52f9:	48 89 c2             	mov    %rax,%rdx
    52fc:	48 8d 05 5a 00 00 00 	lea    0x5a(%rip),%rax        # 535d <test_edge_delay+0x125>
    5303:	48 89 c1             	mov    %rax,%rcx
    5306:	e8 38 ad ff ff       	call   43 <printf>
    530b:	48 8d 45 f8          	lea    -0x8(%rbp),%rax
    530f:	ba 01 00 00 00       	mov    $0x1,%edx
    5314:	48 89 c1             	mov    %rax,%rcx
    5317:	e8 00 00 00 00       	call   531c <test_edge_delay+0xe4>
    531c:	66 83 f8 01          	cmp    $0x1,%ax
    5320:	74 1f                	je     5341 <test_edge_delay+0x109>
    5322:	41 b8 9e 02 00 00    	mov    $0x29e,%r8d
    5328:	48 8d 05 49 00 00 00 	lea    0x49(%rip),%rax        # 5378 <test_edge_delay+0x140>
    532f:	48 89 c2             	mov    %rax,%rdx
    5332:	48 8d 05 5a 00 00 00 	lea    0x5a(%rip),%rax        # 5393 <test_edge_delay+0x15b>
    5339:	48 89 c1             	mov    %rax,%rcx
    533c:	e8 02 ad ff ff       	call   43 <printf>
    5341:	48 8d 45 f8          	lea    -0x8(%rbp),%rax
    5345:	ba 01 00 00 00       	mov    $0x1,%edx
    534a:	48 89 c1             	mov    %rax,%rcx
    534d:	e8 00 00 00 00       	call   5352 <test_edge_delay+0x11a>
    5352:	66 83 f8 01          	cmp    $0x1,%ax
    5356:	74 1f                	je     5377 <test_edge_delay+0x13f>
    5358:	41 b8 9f 02 00 00    	mov    $0x29f,%r8d
    535e:	48 8d 05 49 00 00 00 	lea    0x49(%rip),%rax        # 53ae <test_edge_delay+0x176>
    5365:	48 89 c2             	mov    %rax,%rdx
    5368:	48 8d 05 5a 00 00 00 	lea    0x5a(%rip),%rax        # 53c9 <test_edge_delay+0x191>
    536f:	48 89 c1             	mov    %rax,%rcx
    5372:	e8 cc ac ff ff       	call   43 <printf>
    5377:	48 8d 45 f8          	lea    -0x8(%rbp),%rax
    537b:	ba 00 00 00 00       	mov    $0x0,%edx
    5380:	48 89 c1             	mov    %rax,%rcx
    5383:	e8 00 00 00 00       	call   5388 <test_edge_delay+0x150>
    5388:	66 83 f8 01          	cmp    $0x1,%ax
    538c:	74 1f                	je     53ad <test_edge_delay+0x175>
    538e:	41 b8 a0 02 00 00    	mov    $0x2a0,%r8d
    5394:	48 8d 05 49 00 00 00 	lea    0x49(%rip),%rax        # 53e4 <test_edge_delay+0x1ac>
    539b:	48 89 c2             	mov    %rax,%rdx
    539e:	48 8d 05 5a 00 00 00 	lea    0x5a(%rip),%rax        # 53ff <test_edge_delay+0x1c7>
    53a5:	48 89 c1             	mov    %rax,%rcx
    53a8:	e8 96 ac ff ff       	call   43 <printf>
    53ad:	48 8d 45 f8          	lea    -0x8(%rbp),%rax
    53b1:	ba 00 00 00 00       	mov    $0x0,%edx
    53b6:	48 89 c1             	mov    %rax,%rcx
    53b9:	e8 00 00 00 00       	call   53be <test_edge_delay+0x186>
    53be:	66 83 f8 01          	cmp    $0x1,%ax
    53c2:	74 1f                	je     53e3 <test_edge_delay+0x1ab>
    53c4:	41 b8 a1 02 00 00    	mov    $0x2a1,%r8d
    53ca:	48 8d 05 49 00 00 00 	lea    0x49(%rip),%rax        # 541a <test_edge_delay+0x1e2>
    53d1:	48 89 c2             	mov    %rax,%rdx
    53d4:	48 8d 05 5a 00 00 00 	lea    0x5a(%rip),%rax        # 5435 <test_edge_delay+0x1fd>
    53db:	48 89 c1             	mov    %rax,%rcx
    53de:	e8 60 ac ff ff       	call   43 <printf>
    53e3:	48 8d 45 f8          	lea    -0x8(%rbp),%rax
    53e7:	ba 00 00 00 00       	mov    $0x0,%edx
    53ec:	48 89 c1             	mov    %rax,%rcx
    53ef:	e8 00 00 00 00       	call   53f4 <test_edge_delay+0x1bc>
    53f4:	66 83 f8 01          	cmp    $0x1,%ax
    53f8:	74 1f                	je     5419 <test_edge_delay+0x1e1>
    53fa:	41 b8 a2 02 00 00    	mov    $0x2a2,%r8d
    5400:	48 8d 05 49 00 00 00 	lea    0x49(%rip),%rax        # 5450 <test_edge_delay+0x218>
    5407:	48 89 c2             	mov    %rax,%rdx
    540a:	48 8d 05 5a 00 00 00 	lea    0x5a(%rip),%rax        # 546b <test_edge_delay+0x233>
    5411:	48 89 c1             	mov    %rax,%rcx
    5414:	e8 2a ac ff ff       	call   43 <printf>
    5419:	48 8d 45 f8          	lea    -0x8(%rbp),%rax
    541d:	ba 00 00 00 00       	mov    $0x0,%edx
    5422:	48 89 c1             	mov    %rax,%rcx
    5425:	e8 00 00 00 00       	call   542a <test_edge_delay+0x1f2>
    542a:	66 83 f8 01          	cmp    $0x1,%ax
    542e:	74 1f                	je     544f <test_edge_delay+0x217>
    5430:	41 b8 a3 02 00 00    	mov    $0x2a3,%r8d
    5436:	48 8d 05 49 00 00 00 	lea    0x49(%rip),%rax        # 5486 <test_edge_delay+0x24e>
    543d:	48 89 c2             	mov    %rax,%rdx
    5440:	48 8d 05 5a 00 00 00 	lea    0x5a(%rip),%rax        # 54a1 <test_edge_delay+0x269>
    5447:	48 89 c1             	mov    %rax,%rcx
    544a:	e8 f4 ab ff ff       	call   43 <printf>
    544f:	48 8d 45 f8          	lea    -0x8(%rbp),%rax
    5453:	ba 00 00 00 00       	mov    $0x0,%edx
    5458:	48 89 c1             	mov    %rax,%rcx
    545b:	e8 00 00 00 00       	call   5460 <test_edge_delay+0x228>
    5460:	66 85 c0             	test   %ax,%ax
    5463:	74 1f                	je     5484 <test_edge_delay+0x24c>
    5465:	41 b8 a4 02 00 00    	mov    $0x2a4,%r8d
    546b:	48 8d 05 49 00 00 00 	lea    0x49(%rip),%rax        # 54bb <test_edge_delay+0x283>
    5472:	48 89 c2             	mov    %rax,%rdx
    5475:	48 8d 05 5a 00 00 00 	lea    0x5a(%rip),%rax        # 54d6 <test_edge_delay+0x29e>
    547c:	48 89 c1             	mov    %rax,%rcx
    547f:	e8 bf ab ff ff       	call   43 <printf>
    5484:	48 8d 45 f8          	lea    -0x8(%rbp),%rax
    5488:	ba 01 00 00 00       	mov    $0x1,%edx
    548d:	48 89 c1             	mov    %rax,%rcx
    5490:	e8 00 00 00 00       	call   5495 <test_edge_delay+0x25d>
    5495:	66 85 c0             	test   %ax,%ax
    5498:	74 1f                	je     54b9 <test_edge_delay+0x281>
    549a:	41 b8 a5 02 00 00    	mov    $0x2a5,%r8d
    54a0:	48 8d 05 49 00 00 00 	lea    0x49(%rip),%rax        # 54f0 <test_edge_delay+0x2b8>
    54a7:	48 89 c2             	mov    %rax,%rdx
    54aa:	48 8d 05 5a 00 00 00 	lea    0x5a(%rip),%rax        # 550b <test_edge_delay+0x2d3>
    54b1:	48 89 c1             	mov    %rax,%rcx
    54b4:	e8 8a ab ff ff       	call   43 <printf>
    54b9:	48 8d 45 f8          	lea    -0x8(%rbp),%rax
    54bd:	ba 00 00 00 00       	mov    $0x0,%edx
    54c2:	48 89 c1             	mov    %rax,%rcx
    54c5:	e8 00 00 00 00       	call   54ca <test_edge_delay+0x292>
    54ca:	66 85 c0             	test   %ax,%ax
    54cd:	74 1f                	je     54ee <test_edge_delay+0x2b6>
    54cf:	41 b8 a6 02 00 00    	mov    $0x2a6,%r8d
    54d5:	48 8d 05 49 00 00 00 	lea    0x49(%rip),%rax        # 5525 <test_edge_delay+0x2ed>
    54dc:	48 89 c2             	mov    %rax,%rdx
    54df:	48 8d 05 5a 00 00 00 	lea    0x5a(%rip),%rax        # 5540 <test_edge_delay+0x308>
    54e6:	48 89 c1             	mov    %rax,%rcx
    54e9:	e8 55 ab ff ff       	call   43 <printf>
    54ee:	48 8d 45 f8          	lea    -0x8(%rbp),%rax
    54f2:	ba 00 00 00 00       	mov    $0x0,%edx
    54f7:	48 89 c1             	mov    %rax,%rcx
    54fa:	e8 00 00 00 00       	call   54ff <test_edge_delay+0x2c7>
    54ff:	66 85 c0             	test   %ax,%ax
    5502:	74 1f                	je     5523 <test_edge_delay+0x2eb>
    5504:	41 b8 a7 02 00 00    	mov    $0x2a7,%r8d
    550a:	48 8d 05 49 00 00 00 	lea    0x49(%rip),%rax        # 555a <test_edge_delay+0x322>
    5511:	48 89 c2             	mov    %rax,%rdx
    5514:	48 8d 05 5a 00 00 00 	lea    0x5a(%rip),%rax        # 5575 <test_edge_delay+0x33d>
    551b:	48 89 c1             	mov    %rax,%rcx
    551e:	e8 20 ab ff ff       	call   43 <printf>
    5523:	48 8d 45 f8          	lea    -0x8(%rbp),%rax
    5527:	ba 00 00 00 00       	mov    $0x0,%edx
    552c:	48 89 c1             	mov    %rax,%rcx
    552f:	e8 00 00 00 00       	call   5534 <test_edge_delay+0x2fc>
    5534:	66 85 c0             	test   %ax,%ax
    5537:	74 1f                	je     5558 <test_edge_delay+0x320>
    5539:	41 b8 a8 02 00 00    	mov    $0x2a8,%r8d
    553f:	48 8d 05 49 00 00 00 	lea    0x49(%rip),%rax        # 558f <test_edge_delay+0x357>
    5546:	48 89 c2             	mov    %rax,%rdx
    5549:	48 8d 05 5a 00 00 00 	lea    0x5a(%rip),%rax        # 55aa <test_edge_delay+0x372>
    5550:	48 89 c1             	mov    %rax,%rcx
    5553:	e8 eb aa ff ff       	call   43 <printf>
    5558:	48 8d 45 f8          	lea    -0x8(%rbp),%rax
    555c:	ba 00 00 00 00       	mov    $0x0,%edx
    5561:	48 89 c1             	mov    %rax,%rcx
    5564:	e8 00 00 00 00       	call   5569 <test_edge_delay+0x331>
    5569:	66 85 c0             	test   %ax,%ax
    556c:	74 1f                	je     558d <test_edge_delay+0x355>
    556e:	41 b8 a9 02 00 00    	mov    $0x2a9,%r8d
    5574:	48 8d 05 49 00 00 00 	lea    0x49(%rip),%rax        # 55c4 <test_edge_delay+0x38c>
    557b:	48 89 c2             	mov    %rax,%rdx
    557e:	48 8d 05 5a 00 00 00 	lea    0x5a(%rip),%rax        # 55df <test_edge_delay+0x3a7>
    5585:	48 89 c1             	mov    %rax,%rcx
    5588:	e8 b6 aa ff ff       	call   43 <printf>
    558d:	48 8d 45 f8          	lea    -0x8(%rbp),%rax
    5591:	ba 01 00 00 00       	mov    $0x1,%edx
    5596:	48 89 c1             	mov    %rax,%rcx
    5599:	e8 00 00 00 00       	call   559e <test_edge_delay+0x366>
    559e:	66 85 c0             	test   %ax,%ax
    55a1:	74 1f                	je     55c2 <test_edge_delay+0x38a>
    55a3:	41 b8 aa 02 00 00    	mov    $0x2aa,%r8d
    55a9:	48 8d 05 49 00 00 00 	lea    0x49(%rip),%rax        # 55f9 <test_edge_delay+0x3c1>
    55b0:	48 89 c2             	mov    %rax,%rdx
    55b3:	48 8d 05 5a 00 00 00 	lea    0x5a(%rip),%rax        # 5614 <test_edge_delay+0x3dc>
    55ba:	48 89 c1             	mov    %rax,%rcx
    55bd:	e8 81 aa ff ff       	call   43 <printf>
    55c2:	48 8d 45 f8          	lea    -0x8(%rbp),%rax
    55c6:	ba 01 00 00 00       	mov    $0x1,%edx
    55cb:	48 89 c1             	mov    %rax,%rcx
    55ce:	e8 00 00 00 00       	call   55d3 <test_edge_delay+0x39b>
    55d3:	66 85 c0             	test   %ax,%ax
    55d6:	74 1f                	je     55f7 <test_edge_delay+0x3bf>
    55d8:	41 b8 ab 02 00 00    	mov    $0x2ab,%r8d
    55de:	48 8d 05 49 00 00 00 	lea    0x49(%rip),%rax        # 562e <test_edge_delay+0x3f6>
    55e5:	48 89 c2             	mov    %rax,%rdx
    55e8:	48 8d 05 5a 00 00 00 	lea    0x5a(%rip),%rax        # 5649 <test_edge_delay+0x411>
    55ef:	48 89 c1             	mov    %rax,%rcx
    55f2:	e8 4c aa ff ff       	call   43 <printf>
    55f7:	48 8d 45 f8          	lea    -0x8(%rbp),%rax
    55fb:	ba 01 00 00 00       	mov    $0x1,%edx
    5600:	48 89 c1             	mov    %rax,%rcx
    5603:	e8 00 00 00 00       	call   5608 <test_edge_delay+0x3d0>
    5608:	66 83 f8 01          	cmp    $0x1,%ax
    560c:	74 1f                	je     562d <test_edge_delay+0x3f5>
    560e:	41 b8 ac 02 00 00    	mov    $0x2ac,%r8d
    5614:	48 8d 05 49 00 00 00 	lea    0x49(%rip),%rax        # 5664 <test_edge_delay+0x42c>
    561b:	48 89 c2             	mov    %rax,%rdx
    561e:	48 8d 05 5a 00 00 00 	lea    0x5a(%rip),%rax        # 567f <test_edge_delay+0x447>
    5625:	48 89 c1             	mov    %rax,%rcx
    5628:	e8 16 aa ff ff       	call   43 <printf>
    562d:	48 8d 45 f8          	lea    -0x8(%rbp),%rax
    5631:	ba 01 00 00 00       	mov    $0x1,%edx
    5636:	48 89 c1             	mov    %rax,%rcx
    5639:	e8 00 00 00 00       	call   563e <test_edge_delay+0x406>
    563e:	66 83 f8 01          	cmp    $0x1,%ax
    5642:	74 1f                	je     5663 <test_edge_delay+0x42b>
    5644:	41 b8 ad 02 00 00    	mov    $0x2ad,%r8d
    564a:	48 8d 05 49 00 00 00 	lea    0x49(%rip),%rax        # 569a <test_edge_delay+0x462>
    5651:	48 89 c2             	mov    %rax,%rdx
    5654:	48 8d 05 5a 00 00 00 	lea    0x5a(%rip),%rax        # 56b5 <test_edge_delay+0x47d>
    565b:	48 89 c1             	mov    %rax,%rcx
    565e:	e8 e0 a9 ff ff       	call   43 <printf>
    5663:	48 8d 45 f8          	lea    -0x8(%rbp),%rax
    5667:	ba 01 00 00 00       	mov    $0x1,%edx
    566c:	48 89 c1             	mov    %rax,%rcx
    566f:	e8 00 00 00 00       	call   5674 <test_edge_delay+0x43c>
    5674:	66 83 f8 01          	cmp    $0x1,%ax
    5678:	74 1f                	je     5699 <test_edge_delay+0x461>
    567a:	41 b8 ae 02 00 00    	mov    $0x2ae,%r8d
    5680:	48 8d 05 49 00 00 00 	lea    0x49(%rip),%rax        # 56d0 <test_edge_delay+0x498>
    5687:	48 89 c2             	mov    %rax,%rdx
    568a:	48 8d 05 5a 00 00 00 	lea    0x5a(%rip),%rax        # 56eb <test_edge_delay+0x4b3>
    5691:	48 89 c1             	mov    %rax,%rcx
    5694:	e8 aa a9 ff ff       	call   43 <printf>
    5699:	48 8d 45 f8          	lea    -0x8(%rbp),%rax
    569d:	ba 01 00 00 00       	mov    $0x1,%edx
    56a2:	48 89 c1             	mov    %rax,%rcx
    56a5:	e8 00 00 00 00       	call   56aa <test_edge_delay+0x472>
    56aa:	66 83 f8 01          	cmp    $0x1,%ax
    56ae:	74 1f                	je     56cf <test_edge_delay+0x497>
    56b0:	41 b8 af 02 00 00    	mov    $0x2af,%r8d
    56b6:	48 8d 05 49 00 00 00 	lea    0x49(%rip),%rax        # 5706 <test_edge_delay+0x4ce>
    56bd:	48 89 c2             	mov    %rax,%rdx
    56c0:	48 8d 05 5a 00 00 00 	lea    0x5a(%rip),%rax        # 5721 <test_edge_delay+0x4e9>
    56c7:	48 89 c1             	mov    %rax,%rcx
    56ca:	e8 74 a9 ff ff       	call   43 <printf>
    56cf:	48 8d 45 f8          	lea    -0x8(%rbp),%rax
    56d3:	ba 01 00 00 00       	mov    $0x1,%edx
    56d8:	48 89 c1             	mov    %rax,%rcx
    56db:	e8 00 00 00 00       	call   56e0 <test_edge_delay+0x4a8>
    56e0:	66 83 f8 01          	cmp    $0x1,%ax
    56e4:	74 1f                	je     5705 <test_edge_delay+0x4cd>
    56e6:	41 b8 b0 02 00 00    	mov    $0x2b0,%r8d
    56ec:	48 8d 05 49 00 00 00 	lea    0x49(%rip),%rax        # 573c <test_edge_delay+0x504>
    56f3:	48 89 c2             	mov    %rax,%rdx
    56f6:	48 8d 05 5a 00 00 00 	lea    0x5a(%rip),%rax        # 5757 <test_edge_delay+0x51f>
    56fd:	48 89 c1             	mov    %rax,%rcx
    5700:	e8 3e a9 ff ff       	call   43 <printf>
    5705:	48 8d 45 f8          	lea    -0x8(%rbp),%rax
    5709:	ba 00 00 00 00       	mov    $0x0,%edx
    570e:	48 89 c1             	mov    %rax,%rcx
    5711:	e8 00 00 00 00       	call   5716 <test_edge_delay+0x4de>
    5716:	66 83 f8 01          	cmp    $0x1,%ax
    571a:	74 1f                	je     573b <test_edge_delay+0x503>
    571c:	41 b8 b1 02 00 00    	mov    $0x2b1,%r8d
    5722:	48 8d 05 49 00 00 00 	lea    0x49(%rip),%rax        # 5772 <test_edge_delay+0x53a>
    5729:	48 89 c2             	mov    %rax,%rdx
    572c:	48 8d 05 5a 00 00 00 	lea    0x5a(%rip),%rax        # 578d <test_edge_delay+0x555>
    5733:	48 89 c1             	mov    %rax,%rcx
    5736:	e8 08 a9 ff ff       	call   43 <printf>
    573b:	48 8d 45 f8          	lea    -0x8(%rbp),%rax
    573f:	ba 00 00 00 00       	mov    $0x0,%edx
    5744:	48 89 c1             	mov    %rax,%rcx
    5747:	e8 00 00 00 00       	call   574c <test_edge_delay+0x514>
    574c:	66 83 f8 01          	cmp    $0x1,%ax
    5750:	74 1f                	je     5771 <test_edge_delay+0x539>
    5752:	41 b8 b2 02 00 00    	mov    $0x2b2,%r8d
    5758:	48 8d 05 49 00 00 00 	lea    0x49(%rip),%rax        # 57a8 <test_edge_delay+0x570>
    575f:	48 89 c2             	mov    %rax,%rdx
    5762:	48 8d 05 5a 00 00 00 	lea    0x5a(%rip),%rax        # 57c3 <test_edge_delay+0x58b>
    5769:	48 89 c1             	mov    %rax,%rcx
    576c:	e8 d2 a8 ff ff       	call   43 <printf>
    5771:	48 8d 45 f8          	lea    -0x8(%rbp),%rax
    5775:	ba 00 00 00 00       	mov    $0x0,%edx
    577a:	48 89 c1             	mov    %rax,%rcx
    577d:	e8 00 00 00 00       	call   5782 <test_edge_delay+0x54a>
    5782:	66 83 f8 01          	cmp    $0x1,%ax
    5786:	74 1f                	je     57a7 <test_edge_delay+0x56f>
    5788:	41 b8 b3 02 00 00    	mov    $0x2b3,%r8d
    578e:	48 8d 05 49 00 00 00 	lea    0x49(%rip),%rax        # 57de <test_edge_delay+0x5a6>
    5795:	48 89 c2             	mov    %rax,%rdx
    5798:	48 8d 05 5a 00 00 00 	lea    0x5a(%rip),%rax        # 57f9 <test_edge_delay+0x5c1>
    579f:	48 89 c1             	mov    %rax,%rcx
    57a2:	e8 9c a8 ff ff       	call   43 <printf>
    57a7:	48 8d 45 f8          	lea    -0x8(%rbp),%rax
    57ab:	ba 01 00 00 00       	mov    $0x1,%edx
    57b0:	48 89 c1             	mov    %rax,%rcx
    57b3:	e8 00 00 00 00       	call   57b8 <test_edge_delay+0x580>
    57b8:	66 83 f8 01          	cmp    $0x1,%ax
    57bc:	74 1f                	je     57dd <test_edge_delay+0x5a5>
    57be:	41 b8 b4 02 00 00    	mov    $0x2b4,%r8d
    57c4:	48 8d 05 49 00 00 00 	lea    0x49(%rip),%rax        # 5814 <test_edge_delay+0x5dc>
    57cb:	48 89 c2             	mov    %rax,%rdx
    57ce:	48 8d 05 5a 00 00 00 	lea    0x5a(%rip),%rax        # 582f <test_edge_delay+0x5f7>
    57d5:	48 89 c1             	mov    %rax,%rcx
    57d8:	e8 66 a8 ff ff       	call   43 <printf>
    57dd:	48 8d 45 f8          	lea    -0x8(%rbp),%rax
    57e1:	ba 01 00 00 00       	mov    $0x1,%edx
    57e6:	48 89 c1             	mov    %rax,%rcx
    57e9:	e8 00 00 00 00       	call   57ee <test_edge_delay+0x5b6>
    57ee:	66 83 f8 01          	cmp    $0x1,%ax
    57f2:	74 1f                	je     5813 <test_edge_delay+0x5db>
    57f4:	41 b8 b5 02 00 00    	mov    $0x2b5,%r8d
    57fa:	48 8d 05 49 00 00 00 	lea    0x49(%rip),%rax        # 584a <test_edge_delay+0x612>
    5801:	48 89 c2             	mov    %rax,%rdx
    5804:	48 8d 05 5a 00 00 00 	lea    0x5a(%rip),%rax        # 5865 <test_edge_delay+0x62d>
    580b:	48 89 c1             	mov    %rax,%rcx
    580e:	e8 30 a8 ff ff       	call   43 <printf>
    5813:	48 8d 45 f8          	lea    -0x8(%rbp),%rax
    5817:	ba 01 00 00 00       	mov    $0x1,%edx
    581c:	48 89 c1             	mov    %rax,%rcx
    581f:	e8 00 00 00 00       	call   5824 <test_edge_delay+0x5ec>
    5824:	66 83 f8 01          	cmp    $0x1,%ax
    5828:	74 1f                	je     5849 <test_edge_delay+0x611>
    582a:	41 b8 b6 02 00 00    	mov    $0x2b6,%r8d
    5830:	48 8d 05 49 00 00 00 	lea    0x49(%rip),%rax        # 5880 <test_edge_delay+0x648>
    5837:	48 89 c2             	mov    %rax,%rdx
    583a:	48 8d 05 5a 00 00 00 	lea    0x5a(%rip),%rax        # 589b <test_edge_delay+0x663>
    5841:	48 89 c1             	mov    %rax,%rcx
    5844:	e8 fa a7 ff ff       	call   43 <printf>
    5849:	48 8d 45 f8          	lea    -0x8(%rbp),%rax
    584d:	ba 01 00 00 00       	mov    $0x1,%edx
    5852:	48 89 c1             	mov    %rax,%rcx
    5855:	e8 00 00 00 00       	call   585a <test_edge_delay+0x622>
    585a:	66 83 f8 01          	cmp    $0x1,%ax
    585e:	74 1f                	je     587f <test_edge_delay+0x647>
    5860:	41 b8 b7 02 00 00    	mov    $0x2b7,%r8d
    5866:	48 8d 05 49 00 00 00 	lea    0x49(%rip),%rax        # 58b6 <test_edge_delay+0x67e>
    586d:	48 89 c2             	mov    %rax,%rdx
    5870:	48 8d 05 5a 00 00 00 	lea    0x5a(%rip),%rax        # 58d1 <test_edge_delay+0x699>
    5877:	48 89 c1             	mov    %rax,%rcx
    587a:	e8 c4 a7 ff ff       	call   43 <printf>
    587f:	48 8d 45 f8          	lea    -0x8(%rbp),%rax
    5883:	ba 01 00 00 00       	mov    $0x1,%edx
    5888:	48 89 c1             	mov    %rax,%rcx
    588b:	e8 00 00 00 00       	call   5890 <test_edge_delay+0x658>
    5890:	66 83 f8 01          	cmp    $0x1,%ax
    5894:	74 1f                	je     58b5 <test_edge_delay+0x67d>
    5896:	41 b8 b8 02 00 00    	mov    $0x2b8,%r8d
    589c:	48 8d 05 49 00 00 00 	lea    0x49(%rip),%rax        # 58ec <test_edge_delay+0x6b4>
    58a3:	48 89 c2             	mov    %rax,%rdx
    58a6:	48 8d 05 5a 00 00 00 	lea    0x5a(%rip),%rax        # 5907 <test_edge_delay+0x6cf>
    58ad:	48 89 c1             	mov    %rax,%rcx
    58b0:	e8 8e a7 ff ff       	call   43 <printf>
    58b5:	48 8d 45 f8          	lea    -0x8(%rbp),%rax
    58b9:	41 b9 00 00 00 00    	mov    $0x0,%r9d
    58bf:	41 b8 00 00 00 00    	mov    $0x0,%r8d
    58c5:	ba 00 00 00 00       	mov    $0x0,%edx
    58ca:	48 89 c1             	mov    %rax,%rcx
    58cd:	e8 00 00 00 00       	call   58d2 <test_edge_delay+0x69a>
    58d2:	48 8d 45 f8          	lea    -0x8(%rbp),%rax
    58d6:	ba 00 00 00 00       	mov    $0x0,%edx
    58db:	48 89 c1             	mov    %rax,%rcx
    58de:	e8 00 00 00 00       	call   58e3 <test_edge_delay+0x6ab>
    58e3:	66 85 c0             	test   %ax,%ax
    58e6:	74 1f                	je     5907 <test_edge_delay+0x6cf>
    58e8:	41 b8 ba 02 00 00    	mov    $0x2ba,%r8d
    58ee:	48 8d 05 49 00 00 00 	lea    0x49(%rip),%rax        # 593e <test_edge_delay+0x706>
    58f5:	48 89 c2             	mov    %rax,%rdx
    58f8:	48 8d 05 5a 00 00 00 	lea    0x5a(%rip),%rax        # 5959 <test_edge_delay+0x721>
    58ff:	48 89 c1             	mov    %rax,%rcx
    5902:	e8 3c a7 ff ff       	call   43 <printf>
    5907:	48 8d 45 f8          	lea    -0x8(%rbp),%rax
    590b:	ba 00 00 00 00       	mov    $0x0,%edx
    5910:	48 89 c1             	mov    %rax,%rcx
    5913:	e8 00 00 00 00       	call   5918 <test_edge_delay+0x6e0>
    5918:	66 85 c0             	test   %ax,%ax
    591b:	74 1f                	je     593c <test_edge_delay+0x704>
    591d:	41 b8 bb 02 00 00    	mov    $0x2bb,%r8d
    5923:	48 8d 05 49 00 00 00 	lea    0x49(%rip),%rax        # 5973 <test_edge_delay+0x73b>
    592a:	48 89 c2             	mov    %rax,%rdx
    592d:	48 8d 05 5a 00 00 00 	lea    0x5a(%rip),%rax        # 598e <test_edge_delay+0x756>
    5934:	48 89 c1             	mov    %rax,%rcx
    5937:	e8 07 a7 ff ff       	call   43 <printf>
    593c:	48 8d 45 f8          	lea    -0x8(%rbp),%rax
    5940:	ba 01 00 00 00       	mov    $0x1,%edx
    5945:	48 89 c1             	mov    %rax,%rcx
    5948:	e8 00 00 00 00       	call   594d <test_edge_delay+0x715>
    594d:	66 83 f8 01          	cmp    $0x1,%ax
    5951:	74 1f                	je     5972 <test_edge_delay+0x73a>
    5953:	41 b8 bc 02 00 00    	mov    $0x2bc,%r8d
    5959:	48 8d 05 49 00 00 00 	lea    0x49(%rip),%rax        # 59a9 <test_edge_delay+0x771>
    5960:	48 89 c2             	mov    %rax,%rdx
    5963:	48 8d 05 5a 00 00 00 	lea    0x5a(%rip),%rax        # 59c4 <test_edge_delay+0x78c>
    596a:	48 89 c1             	mov    %rax,%rcx
    596d:	e8 d1 a6 ff ff       	call   43 <printf>
    5972:	48 8d 45 f8          	lea    -0x8(%rbp),%rax
    5976:	ba 01 00 00 00       	mov    $0x1,%edx
    597b:	48 89 c1             	mov    %rax,%rcx
    597e:	e8 00 00 00 00       	call   5983 <test_edge_delay+0x74b>
    5983:	66 83 f8 01          	cmp    $0x1,%ax
    5987:	74 1f                	je     59a8 <test_edge_delay+0x770>
    5989:	41 b8 bd 02 00 00    	mov    $0x2bd,%r8d
    598f:	48 8d 05 49 00 00 00 	lea    0x49(%rip),%rax        # 59df <test_edge_delay+0x7a7>
    5996:	48 89 c2             	mov    %rax,%rdx
    5999:	48 8d 05 5a 00 00 00 	lea    0x5a(%rip),%rax        # 59fa <test_edge_delay+0x7c2>
    59a0:	48 89 c1             	mov    %rax,%rcx
    59a3:	e8 9b a6 ff ff       	call   43 <printf>
    59a8:	48 8d 45 f8          	lea    -0x8(%rbp),%rax
    59ac:	41 b9 02 00 00 00    	mov    $0x2,%r9d
    59b2:	41 b8 01 00 00 00    	mov    $0x1,%r8d
    59b8:	ba 00 00 00 00       	mov    $0x0,%edx
    59bd:	48 89 c1             	mov    %rax,%rcx
    59c0:	e8 00 00 00 00       	call   59c5 <test_edge_delay+0x78d>
    59c5:	48 8d 45 f8          	lea    -0x8(%rbp),%rax
    59c9:	ba 00 00 00 00       	mov    $0x0,%edx
    59ce:	48 89 c1             	mov    %rax,%rcx
    59d1:	e8 00 00 00 00       	call   59d6 <test_edge_delay+0x79e>
    59d6:	66 85 c0             	test   %ax,%ax
    59d9:	74 1f                	je     59fa <test_edge_delay+0x7c2>
    59db:	41 b8 bf 02 00 00    	mov    $0x2bf,%r8d
    59e1:	48 8d 05 49 00 00 00 	lea    0x49(%rip),%rax        # 5a31 <test_edge_delay+0x7f9>
    59e8:	48 89 c2             	mov    %rax,%rdx
    59eb:	48 8d 05 5a 00 00 00 	lea    0x5a(%rip),%rax        # 5a4c <test_edge_delay+0x814>
    59f2:	48 89 c1             	mov    %rax,%rcx
    59f5:	e8 49 a6 ff ff       	call   43 <printf>
    59fa:	48 8d 45 f8          	lea    -0x8(%rbp),%rax
    59fe:	ba 01 00 00 00       	mov    $0x1,%edx
    5a03:	48 89 c1             	mov    %rax,%rcx
    5a06:	e8 00 00 00 00       	call   5a0b <test_edge_delay+0x7d3>
    5a0b:	66 85 c0             	test   %ax,%ax
    5a0e:	74 1f                	je     5a2f <test_edge_delay+0x7f7>
    5a10:	41 b8 c0 02 00 00    	mov    $0x2c0,%r8d
    5a16:	48 8d 05 49 00 00 00 	lea    0x49(%rip),%rax        # 5a66 <test_edge_delay+0x82e>
    5a1d:	48 89 c2             	mov    %rax,%rdx
    5a20:	48 8d 05 5a 00 00 00 	lea    0x5a(%rip),%rax        # 5a81 <test_edge_delay+0x849>
    5a27:	48 89 c1             	mov    %rax,%rcx
    5a2a:	e8 14 a6 ff ff       	call   43 <printf>
    5a2f:	48 8d 45 f8          	lea    -0x8(%rbp),%rax
    5a33:	ba 01 00 00 00       	mov    $0x1,%edx
    5a38:	48 89 c1             	mov    %rax,%rcx
    5a3b:	e8 00 00 00 00       	call   5a40 <test_edge_delay+0x808>
    5a40:	66 83 f8 01          	cmp    $0x1,%ax
    5a44:	74 1f                	je     5a65 <test_edge_delay+0x82d>
    5a46:	41 b8 c1 02 00 00    	mov    $0x2c1,%r8d
    5a4c:	48 8d 05 49 00 00 00 	lea    0x49(%rip),%rax        # 5a9c <test_edge_delay+0x864>
    5a53:	48 89 c2             	mov    %rax,%rdx
    5a56:	48 8d 05 5a 00 00 00 	lea    0x5a(%rip),%rax        # 5ab7 <test_edge_delay+0x87f>
    5a5d:	48 89 c1             	mov    %rax,%rcx
    5a60:	e8 de a5 ff ff       	call   43 <printf>
    5a65:	48 8d 45 f8          	lea    -0x8(%rbp),%rax
    5a69:	ba 01 00 00 00       	mov    $0x1,%edx
    5a6e:	48 89 c1             	mov    %rax,%rcx
    5a71:	e8 00 00 00 00       	call   5a76 <test_edge_delay+0x83e>
    5a76:	66 83 f8 01          	cmp    $0x1,%ax
    5a7a:	74 1f                	je     5a9b <test_edge_delay+0x863>
    5a7c:	41 b8 c2 02 00 00    	mov    $0x2c2,%r8d
    5a82:	48 8d 05 49 00 00 00 	lea    0x49(%rip),%rax        # 5ad2 <test_edge_delay+0x89a>
    5a89:	48 89 c2             	mov    %rax,%rdx
    5a8c:	48 8d 05 5a 00 00 00 	lea    0x5a(%rip),%rax        # 5aed <test_edge_delay+0x8b5>
    5a93:	48 89 c1             	mov    %rax,%rcx
    5a96:	e8 a8 a5 ff ff       	call   43 <printf>
    5a9b:	48 8d 45 f8          	lea    -0x8(%rbp),%rax
    5a9f:	ba 02 00 00 00       	mov    $0x2,%edx
    5aa4:	48 89 c1             	mov    %rax,%rcx
    5aa7:	e8 00 00 00 00       	call   5aac <test_edge_delay+0x874>
    5aac:	66 83 f8 01          	cmp    $0x1,%ax
    5ab0:	74 1f                	je     5ad1 <test_edge_delay+0x899>
    5ab2:	41 b8 c3 02 00 00    	mov    $0x2c3,%r8d
    5ab8:	48 8d 05 49 00 00 00 	lea    0x49(%rip),%rax        # 5b08 <test_edge_delay+0x8d0>
    5abf:	48 89 c2             	mov    %rax,%rdx
    5ac2:	48 8d 05 5a 00 00 00 	lea    0x5a(%rip),%rax        # 5b23 <test_edge_delay+0x8eb>
    5ac9:	48 89 c1             	mov    %rax,%rcx
    5acc:	e8 72 a5 ff ff       	call   43 <printf>
    5ad1:	48 8d 45 f8          	lea    -0x8(%rbp),%rax
    5ad5:	ba 02 00 00 00       	mov    $0x2,%edx
    5ada:	48 89 c1             	mov    %rax,%rcx
    5add:	e8 00 00 00 00       	call   5ae2 <test_edge_delay+0x8aa>
    5ae2:	66 83 f8 02          	cmp    $0x2,%ax
    5ae6:	74 1f                	je     5b07 <test_edge_delay+0x8cf>
    5ae8:	41 b8 c4 02 00 00    	mov    $0x2c4,%r8d
    5aee:	48 8d 05 49 00 00 00 	lea    0x49(%rip),%rax        # 5b3e <test_edge_delay+0x906>
    5af5:	48 89 c2             	mov    %rax,%rdx
    5af8:	48 8d 05 5a 00 00 00 	lea    0x5a(%rip),%rax        # 5b59 <test_edge_delay+0x921>
    5aff:	48 89 c1             	mov    %rax,%rcx
    5b02:	e8 3c a5 ff ff       	call   43 <printf>
    5b07:	48 8d 45 f8          	lea    -0x8(%rbp),%rax
    5b0b:	ba 02 00 00 00       	mov    $0x2,%edx
    5b10:	48 89 c1             	mov    %rax,%rcx
    5b13:	e8 00 00 00 00       	call   5b18 <test_edge_delay+0x8e0>
    5b18:	66 83 f8 02          	cmp    $0x2,%ax
    5b1c:	74 1f                	je     5b3d <test_edge_delay+0x905>
    5b1e:	41 b8 c5 02 00 00    	mov    $0x2c5,%r8d
    5b24:	48 8d 05 49 00 00 00 	lea    0x49(%rip),%rax        # 5b74 <test_edge_delay+0x93c>
    5b2b:	48 89 c2             	mov    %rax,%rdx
    5b2e:	48 8d 05 5a 00 00 00 	lea    0x5a(%rip),%rax        # 5b8f <test_edge_delay+0x957>
    5b35:	48 89 c1             	mov    %rax,%rcx
    5b38:	e8 06 a5 ff ff       	call   43 <printf>
    5b3d:	48 8d 45 f8          	lea    -0x8(%rbp),%rax
    5b41:	ba 00 00 00 00       	mov    $0x0,%edx
    5b46:	48 89 c1             	mov    %rax,%rcx
    5b49:	e8 00 00 00 00       	call   5b4e <test_edge_delay+0x916>
    5b4e:	66 83 f8 02          	cmp    $0x2,%ax
    5b52:	74 1f                	je     5b73 <test_edge_delay+0x93b>
    5b54:	41 b8 c6 02 00 00    	mov    $0x2c6,%r8d
    5b5a:	48 8d 05 49 00 00 00 	lea    0x49(%rip),%rax        # 5baa <test_edge_delay+0x972>
    5b61:	48 89 c2             	mov    %rax,%rdx
    5b64:	48 8d 05 5a 00 00 00 	lea    0x5a(%rip),%rax        # 5bc5 <test_edge_delay+0x98d>
    5b6b:	48 89 c1             	mov    %rax,%rcx
    5b6e:	e8 d0 a4 ff ff       	call   43 <printf>
    5b73:	48 8d 45 f8          	lea    -0x8(%rbp),%rax
    5b77:	ba 00 00 00 00       	mov    $0x0,%edx
    5b7c:	48 89 c1             	mov    %rax,%rcx
    5b7f:	e8 00 00 00 00       	call   5b84 <test_edge_delay+0x94c>
    5b84:	66 83 f8 02          	cmp    $0x2,%ax
    5b88:	74 1f                	je     5ba9 <test_edge_delay+0x971>
    5b8a:	41 b8 c7 02 00 00    	mov    $0x2c7,%r8d
    5b90:	48 8d 05 49 00 00 00 	lea    0x49(%rip),%rax        # 5be0 <test_edge_delay+0x9a8>
    5b97:	48 89 c2             	mov    %rax,%rdx
    5b9a:	48 8d 05 5a 00 00 00 	lea    0x5a(%rip),%rax        # 5bfb <test_monoflop+0x16>
    5ba1:	48 89 c1             	mov    %rax,%rcx
    5ba4:	e8 9a a4 ff ff       	call   43 <printf>
    5ba9:	48 8d 45 f8          	lea    -0x8(%rbp),%rax
    5bad:	ba 00 00 00 00       	mov    $0x0,%edx
    5bb2:	48 89 c1             	mov    %rax,%rcx
    5bb5:	e8 00 00 00 00       	call   5bba <test_edge_delay+0x982>
    5bba:	66 85 c0             	test   %ax,%ax
    5bbd:	74 1f                	je     5bde <test_edge_delay+0x9a6>
    5bbf:	41 b8 c8 02 00 00    	mov    $0x2c8,%r8d
    5bc5:	48 8d 05 49 00 00 00 	lea    0x49(%rip),%rax        # 5c15 <test_monoflop+0x30>
    5bcc:	48 89 c2             	mov    %rax,%rdx
    5bcf:	48 8d 05 5a 00 00 00 	lea    0x5a(%rip),%rax        # 5c30 <test_monoflop+0x4b>
    5bd6:	48 89 c1             	mov    %rax,%rcx
    5bd9:	e8 65 a4 ff ff       	call   43 <printf>
    5bde:	90                   	nop
    5bdf:	48 83 c4 30          	add    $0x30,%rsp
    5be3:	5d                   	pop    %rbp
    5be4:	c3                   	ret

0000000000005be5 <test_monoflop>:
    5be5:	55                   	push   %rbp
    5be6:	48 89 e5             	mov    %rsp,%rbp
    5be9:	48 83 ec 30          	sub    $0x30,%rsp
    5bed:	48 8d 05 88 04 00 00 	lea    0x488(%rip),%rax        # 607c <test_monoflop+0x497>
    5bf4:	48 89 c1             	mov    %rax,%rcx
    5bf7:	e8 47 a4 ff ff       	call   43 <printf>
    5bfc:	48 8d 45 f6          	lea    -0xa(%rbp),%rax
    5c00:	41 b9 01 00 00 00    	mov    $0x1,%r9d
    5c06:	41 b8 00 00 00 00    	mov    $0x0,%r8d
    5c0c:	ba 02 00 00 00       	mov    $0x2,%edx
    5c11:	48 89 c1             	mov    %rax,%rcx
    5c14:	e8 00 00 00 00       	call   5c19 <test_monoflop+0x34>
    5c19:	48 8d 45 f6          	lea    -0xa(%rbp),%rax
    5c1d:	ba 00 00 00 00       	mov    $0x0,%edx
    5c22:	48 89 c1             	mov    %rax,%rcx
    5c25:	e8 00 00 00 00       	call   5c2a <test_monoflop+0x45>
    5c2a:	66 85 c0             	test   %ax,%ax
    5c2d:	74 1f                	je     5c4e <test_monoflop+0x69>
    5c2f:	41 b8 d0 02 00 00    	mov    $0x2d0,%r8d
    5c35:	48 8d 05 49 00 00 00 	lea    0x49(%rip),%rax        # 5c85 <test_monoflop+0xa0>
    5c3c:	48 89 c2             	mov    %rax,%rdx
    5c3f:	48 8d 05 5a 00 00 00 	lea    0x5a(%rip),%rax        # 5ca0 <test_monoflop+0xbb>
    5c46:	48 89 c1             	mov    %rax,%rcx
    5c49:	e8 f5 a3 ff ff       	call   43 <printf>
    5c4e:	48 8d 45 f6          	lea    -0xa(%rbp),%rax
    5c52:	ba 01 00 00 00       	mov    $0x1,%edx
    5c57:	48 89 c1             	mov    %rax,%rcx
    5c5a:	e8 00 00 00 00       	call   5c5f <test_monoflop+0x7a>
    5c5f:	66 83 f8 01          	cmp    $0x1,%ax
    5c63:	74 1f                	je     5c84 <test_monoflop+0x9f>
    5c65:	41 b8 d2 02 00 00    	mov    $0x2d2,%r8d
    5c6b:	48 8d 05 49 00 00 00 	lea    0x49(%rip),%rax        # 5cbb <test_monoflop+0xd6>
    5c72:	48 89 c2             	mov    %rax,%rdx
    5c75:	48 8d 05 5a 00 00 00 	lea    0x5a(%rip),%rax        # 5cd6 <test_monoflop+0xf1>
    5c7c:	48 89 c1             	mov    %rax,%rcx
    5c7f:	e8 bf a3 ff ff       	call   43 <printf>
    5c84:	48 8d 45 f6          	lea    -0xa(%rbp),%rax
    5c88:	ba 01 00 00 00       	mov    $0x1,%edx
    5c8d:	48 89 c1             	mov    %rax,%rcx
    5c90:	e8 00 00 00 00       	call   5c95 <test_monoflop+0xb0>
    5c95:	66 83 f8 01          	cmp    $0x1,%ax
    5c99:	74 1f                	je     5cba <test_monoflop+0xd5>
    5c9b:	41 b8 d3 02 00 00    	mov    $0x2d3,%r8d
    5ca1:	48 8d 05 49 00 00 00 	lea    0x49(%rip),%rax        # 5cf1 <test_monoflop+0x10c>
    5ca8:	48 89 c2             	mov    %rax,%rdx
    5cab:	48 8d 05 5a 00 00 00 	lea    0x5a(%rip),%rax        # 5d0c <test_monoflop+0x127>
    5cb2:	48 89 c1             	mov    %rax,%rcx
    5cb5:	e8 89 a3 ff ff       	call   43 <printf>
    5cba:	48 8d 45 f6          	lea    -0xa(%rbp),%rax
    5cbe:	ba 01 00 00 00       	mov    $0x1,%edx
    5cc3:	48 89 c1             	mov    %rax,%rcx
    5cc6:	e8 00 00 00 00       	call   5ccb <test_monoflop+0xe6>
    5ccb:	66 85 c0             	test   %ax,%ax
    5cce:	74 1f                	je     5cef <test_monoflop+0x10a>
    5cd0:	41 b8 d4 02 00 00    	mov    $0x2d4,%r8d
    5cd6:	48 8d 05 49 00 00 00 	lea    0x49(%rip),%rax        # 5d26 <test_monoflop+0x141>
    5cdd:	48 89 c2             	mov    %rax,%rdx
    5ce0:	48 8d 05 5a 00 00 00 	lea    0x5a(%rip),%rax        # 5d41 <test_monoflop+0x15c>
    5ce7:	48 89 c1             	mov    %rax,%rcx
    5cea:	e8 54 a3 ff ff       	call   43 <printf>
    5cef:	48 8d 45 f6          	lea    -0xa(%rbp),%rax
    5cf3:	ba 01 00 00 00       	mov    $0x1,%edx
    5cf8:	48 89 c1             	mov    %rax,%rcx
    5cfb:	e8 00 00 00 00       	call   5d00 <test_monoflop+0x11b>
    5d00:	66 85 c0             	test   %ax,%ax
    5d03:	74 1f                	je     5d24 <test_monoflop+0x13f>
    5d05:	41 b8 d5 02 00 00    	mov    $0x2d5,%r8d
    5d0b:	48 8d 05 49 00 00 00 	lea    0x49(%rip),%rax        # 5d5b <test_monoflop+0x176>
    5d12:	48 89 c2             	mov    %rax,%rdx
    5d15:	48 8d 05 5a 00 00 00 	lea    0x5a(%rip),%rax        # 5d76 <test_monoflop+0x191>
    5d1c:	48 89 c1             	mov    %rax,%rcx
    5d1f:	e8 1f a3 ff ff       	call   43 <printf>
    5d24:	48 8d 45 f6          	lea    -0xa(%rbp),%rax
    5d28:	ba 00 00 00 00       	mov    $0x0,%edx
    5d2d:	48 89 c1             	mov    %rax,%rcx
    5d30:	e8 00 00 00 00       	call   5d35 <test_monoflop+0x150>
    5d35:	66 85 c0             	test   %ax,%ax
    5d38:	74 1f                	je     5d59 <test_monoflop+0x174>
    5d3a:	41 b8 d6 02 00 00    	mov    $0x2d6,%r8d
    5d40:	48 8d 05 49 00 00 00 	lea    0x49(%rip),%rax        # 5d90 <test_monoflop+0x1ab>
    5d47:	48 89 c2             	mov    %rax,%rdx
    5d4a:	48 8d 05 5a 00 00 00 	lea    0x5a(%rip),%rax        # 5dab <test_monoflop+0x1c6>
    5d51:	48 89 c1             	mov    %rax,%rcx
    5d54:	e8 ea a2 ff ff       	call   43 <printf>
    5d59:	48 8d 45 f6          	lea    -0xa(%rbp),%rax
    5d5d:	ba 01 00 00 00       	mov    $0x1,%edx
    5d62:	48 89 c1             	mov    %rax,%rcx
    5d65:	e8 00 00 00 00       	call   5d6a <test_monoflop+0x185>
    5d6a:	66 83 f8 01          	cmp    $0x1,%ax
    5d6e:	74 1f                	je     5d8f <test_monoflop+0x1aa>
    5d70:	41 b8 d8 02 00 00    	mov    $0x2d8,%r8d
    5d76:	48 8d 05 49 00 00 00 	lea    0x49(%rip),%rax        # 5dc6 <test_monoflop+0x1e1>
    5d7d:	48 89 c2             	mov    %rax,%rdx
    5d80:	48 8d 05 5a 00 00 00 	lea    0x5a(%rip),%rax        # 5de1 <test_monoflop+0x1fc>
    5d87:	48 89 c1             	mov    %rax,%rcx
    5d8a:	e8 b4 a2 ff ff       	call   43 <printf>
    5d8f:	48 8d 45 f6          	lea    -0xa(%rbp),%rax
    5d93:	ba 00 00 00 00       	mov    $0x0,%edx
    5d98:	48 89 c1             	mov    %rax,%rcx
    5d9b:	e8 00 00 00 00       	call   5da0 <test_monoflop+0x1bb>
    5da0:	66 83 f8 01          	cmp    $0x1,%ax
    5da4:	74 1f                	je     5dc5 <test_monoflop+0x1e0>
    5da6:	41 b8 d9 02 00 00    	mov    $0x2d9,%r8d
    5dac:	48 8d 05 49 00 00 00 	lea    0x49(%rip),%rax        # 5dfc <test_monoflop+0x217>
    5db3:	48 89 c2             	mov    %rax,%rdx
    5db6:	48 8d 05 5a 00 00 00 	lea    0x5a(%rip),%rax        # 5e17 <test_monoflop+0x232>
    5dbd:	48 89 c1             	mov    %rax,%rcx
    5dc0:	e8 7e a2 ff ff       	call   43 <printf>
    5dc5:	48 8d 45 f6          	lea    -0xa(%rbp),%rax
    5dc9:	ba 01 00 00 00       	mov    $0x1,%edx
    5dce:	48 89 c1             	mov    %rax,%rcx
    5dd1:	e8 00 00 00 00       	call   5dd6 <test_monoflop+0x1f1>
    5dd6:	66 85 c0             	test   %ax,%ax
    5dd9:	74 1f                	je     5dfa <test_monoflop+0x215>
    5ddb:	41 b8 da 02 00 00    	mov    $0x2da,%r8d
    5de1:	48 8d 05 49 00 00 00 	lea    0x49(%rip),%rax        # 5e31 <test_monoflop+0x24c>
    5de8:	48 89 c2             	mov    %rax,%rdx
    5deb:	48 8d 05 5a 00 00 00 	lea    0x5a(%rip),%rax        # 5e4c <test_monoflop+0x267>
    5df2:	48 89 c1             	mov    %rax,%rcx
    5df5:	e8 49 a2 ff ff       	call   43 <printf>
    5dfa:	48 8d 45 f6          	lea    -0xa(%rbp),%rax
    5dfe:	ba 00 00 00 00       	mov    $0x0,%edx
    5e03:	48 89 c1             	mov    %rax,%rcx
    5e06:	e8 00 00 00 00       	call   5e0b <test_monoflop+0x226>
    5e0b:	66 85 c0             	test   %ax,%ax
    5e0e:	74 1f                	je     5e2f <test_monoflop+0x24a>
    5e10:	41 b8 db 02 00 00    	mov    $0x2db,%r8d
    5e16:	48 8d 05 49 00 00 00 	lea    0x49(%rip),%rax        # 5e66 <test_monoflop+0x281>
    5e1d:	48 89 c2             	mov    %rax,%rdx
    5e20:	48 8d 05 5a 00 00 00 	lea    0x5a(%rip),%rax        # 5e81 <test_monoflop+0x29c>
    5e27:	48 89 c1             	mov    %rax,%rcx
    5e2a:	e8 14 a2 ff ff       	call   43 <printf>
    5e2f:	48 8d 45 f6          	lea    -0xa(%rbp),%rax
    5e33:	ba 01 00 00 00       	mov    $0x1,%edx
    5e38:	48 89 c1             	mov    %rax,%rcx
    5e3b:	e8 00 00 00 00       	call   5e40 <test_monoflop+0x25b>
    5e40:	66 83 f8 01          	cmp    $0x1,%ax
    5e44:	74 1f                	je     5e65 <test_monoflop+0x280>
    5e46:	41 b8 dc 02 00 00    	mov    $0x2dc,%r8d
    5e4c:	48 8d 05 49 00 00 00 	lea    0x49(%rip),%rax        # 5e9c <test_monoflop+0x2b7>
    5e53:	48 89 c2             	mov    %rax,%rdx
    5e56:	48 8d 05 5a 00 00 00 	lea    0x5a(%rip),%rax        # 5eb7 <test_monoflop+0x2d2>
    5e5d:	48 89 c1             	mov    %rax,%rcx
    5e60:	e8 de a1 ff ff       	call   43 <printf>
    5e65:	48 8d 45 f6          	lea    -0xa(%rbp),%rax
    5e69:	ba 00 00 00 00       	mov    $0x0,%edx
    5e6e:	48 89 c1             	mov    %rax,%rcx
    5e71:	e8 00 00 00 00       	call   5e76 <test_monoflop+0x291>
    5e76:	66 83 f8 01          	cmp    $0x1,%ax
    5e7a:	74 1f                	je     5e9b <test_monoflop+0x2b6>
    5e7c:	41 b8 dd 02 00 00    	mov    $0x2dd,%r8d
    5e82:	48 8d 05 49 00 00 00 	lea    0x49(%rip),%rax        # 5ed2 <test_monoflop+0x2ed>
    5e89:	48 89 c2             	mov    %rax,%rdx
    5e8c:	48 8d 05 5a 00 00 00 	lea    0x5a(%rip),%rax        # 5eed <test_monoflop+0x308>
    5e93:	48 89 c1             	mov    %rax,%rcx
    5e96:	e8 a8 a1 ff ff       	call   43 <printf>
    5e9b:	48 8d 45 f6          	lea    -0xa(%rbp),%rax
    5e9f:	ba 01 00 00 00       	mov    $0x1,%edx
    5ea4:	48 89 c1             	mov    %rax,%rcx
    5ea7:	e8 00 00 00 00       	call   5eac <test_monoflop+0x2c7>
    5eac:	66 85 c0             	test   %ax,%ax
    5eaf:	74 1f                	je     5ed0 <test_monoflop+0x2eb>
    5eb1:	41 b8 de 02 00 00    	mov    $0x2de,%r8d
    5eb7:	48 8d 05 49 00 00 00 	lea    0x49(%rip),%rax        # 5f07 <test_monoflop+0x322>
    5ebe:	48 89 c2             	mov    %rax,%rdx
    5ec1:	48 8d 05 5a 00 00 00 	lea    0x5a(%rip),%rax        # 5f22 <test_monoflop+0x33d>
    5ec8:	48 89 c1             	mov    %rax,%rcx
    5ecb:	e8 73 a1 ff ff       	call   43 <printf>
    5ed0:	48 8d 45 f6          	lea    -0xa(%rbp),%rax
    5ed4:	ba 00 00 00 00       	mov    $0x0,%edx
    5ed9:	48 89 c1             	mov    %rax,%rcx
    5edc:	e8 00 00 00 00       	call   5ee1 <test_monoflop+0x2fc>
    5ee1:	66 85 c0             	test   %ax,%ax
    5ee4:	74 1f                	je     5f05 <test_monoflop+0x320>
    5ee6:	41 b8 df 02 00 00    	mov    $0x2df,%r8d
    5eec:	48 8d 05 49 00 00 00 	lea    0x49(%rip),%rax        # 5f3c <test_monoflop+0x357>
    5ef3:	48 89 c2             	mov    %rax,%rdx
    5ef6:	48 8d 05 5a 00 00 00 	lea    0x5a(%rip),%rax        # 5f57 <test_monoflop+0x372>
    5efd:	48 89 c1             	mov    %rax,%rcx
    5f00:	e8 3e a1 ff ff       	call   43 <printf>
    5f05:	48 8d 45 f6          	lea    -0xa(%rbp),%rax
    5f09:	41 b9 01 00 00 00    	mov    $0x1,%r9d
    5f0f:	41 b8 00 00 00 00    	mov    $0x0,%r8d
    5f15:	ba 02 00 00 00       	mov    $0x2,%edx
    5f1a:	48 89 c1             	mov    %rax,%rcx
    5f1d:	e8 00 00 00 00       	call   5f22 <test_monoflop+0x33d>
    5f22:	48 8d 45 f6          	lea    -0xa(%rbp),%rax
    5f26:	ba 00 00 00 00       	mov    $0x0,%edx
    5f2b:	48 89 c1             	mov    %rax,%rcx
    5f2e:	e8 00 00 00 00       	call   5f33 <test_monoflop+0x34e>
    5f33:	66 85 c0             	test   %ax,%ax
    5f36:	74 1f                	je     5f57 <test_monoflop+0x372>
    5f38:	41 b8 e2 02 00 00    	mov    $0x2e2,%r8d
    5f3e:	48 8d 05 49 00 00 00 	lea    0x49(%rip),%rax        # 5f8e <test_monoflop+0x3a9>
    5f45:	48 89 c2             	mov    %rax,%rdx
    5f48:	48 8d 05 5a 00 00 00 	lea    0x5a(%rip),%rax        # 5fa9 <test_monoflop+0x3c4>
    5f4f:	48 89 c1             	mov    %rax,%rcx
    5f52:	e8 ec a0 ff ff       	call   43 <printf>
    5f57:	48 8d 45 f6          	lea    -0xa(%rbp),%rax
    5f5b:	ba 01 00 00 00       	mov    $0x1,%edx
    5f60:	48 89 c1             	mov    %rax,%rcx
    5f63:	e8 00 00 00 00       	call   5f68 <test_monoflop+0x383>
    5f68:	66 83 f8 01          	cmp    $0x1,%ax
    5f6c:	74 1f                	je     5f8d <test_monoflop+0x3a8>
    5f6e:	41 b8 e4 02 00 00    	mov    $0x2e4,%r8d
    5f74:	48 8d 05 49 00 00 00 	lea    0x49(%rip),%rax        # 5fc4 <test_monoflop+0x3df>
    5f7b:	48 89 c2             	mov    %rax,%rdx
    5f7e:	48 8d 05 5a 00 00 00 	lea    0x5a(%rip),%rax        # 5fdf <test_monoflop+0x3fa>
    5f85:	48 89 c1             	mov    %rax,%rcx
    5f88:	e8 b6 a0 ff ff       	call   43 <printf>
    5f8d:	48 8d 45 f6          	lea    -0xa(%rbp),%rax
    5f91:	ba 01 00 00 00       	mov    $0x1,%edx
    5f96:	48 89 c1             	mov    %rax,%rcx
    5f99:	e8 00 00 00 00       	call   5f9e <test_monoflop+0x3b9>
    5f9e:	66 83 f8 01          	cmp    $0x1,%ax
    5fa2:	74 1f                	je     5fc3 <test_monoflop+0x3de>
    5fa4:	41 b8 e5 02 00 00    	mov    $0x2e5,%r8d
    5faa:	48 8d 05 49 00 00 00 	lea    0x49(%rip),%rax        # 5ffa <test_monoflop+0x415>
    5fb1:	48 89 c2             	mov    %rax,%rdx
    5fb4:	48 8d 05 5a 00 00 00 	lea    0x5a(%rip),%rax        # 6015 <test_monoflop+0x430>
    5fbb:	48 89 c1             	mov    %rax,%rcx
    5fbe:	e8 80 a0 ff ff       	call   43 <printf>
    5fc3:	48 8d 45 f6          	lea    -0xa(%rbp),%rax
    5fc7:	ba 01 00 00 00       	mov    $0x1,%edx
    5fcc:	48 89 c1             	mov    %rax,%rcx
    5fcf:	e8 00 00 00 00       	call   5fd4 <test_monoflop+0x3ef>
    5fd4:	66 85 c0             	test   %ax,%ax
    5fd7:	74 1f                	je     5ff8 <test_monoflop+0x413>
    5fd9:	41 b8 e6 02 00 00    	mov    $0x2e6,%r8d
    5fdf:	48 8d 05 49 00 00 00 	lea    0x49(%rip),%rax        # 602f <test_monoflop+0x44a>
    5fe6:	48 89 c2             	mov    %rax,%rdx
    5fe9:	48 8d 05 5a 00 00 00 	lea    0x5a(%rip),%rax        # 604a <test_monoflop+0x465>
    5ff0:	48 89 c1             	mov    %rax,%rcx
    5ff3:	e8 4b a0 ff ff       	call   43 <printf>
    5ff8:	48 8d 45 f6          	lea    -0xa(%rbp),%rax
    5ffc:	ba 01 00 00 00       	mov    $0x1,%edx
    6001:	48 89 c1             	mov    %rax,%rcx
    6004:	e8 00 00 00 00       	call   6009 <test_monoflop+0x424>
    6009:	66 85 c0             	test   %ax,%ax
    600c:	74 1f                	je     602d <test_monoflop+0x448>
    600e:	41 b8 e7 02 00 00    	mov    $0x2e7,%r8d
    6014:	48 8d 05 49 00 00 00 	lea    0x49(%rip),%rax        # 6064 <test_monoflop+0x47f>
    601b:	48 89 c2             	mov    %rax,%rdx
    601e:	48 8d 05 5a 00 00 00 	lea    0x5a(%rip),%rax        # 607f <test_monoflop+0x49a>
    6025:	48 89 c1             	mov    %rax,%rcx
    6028:	e8 16 a0 ff ff       	call   43 <printf>
    602d:	48 8d 45 f6          	lea    -0xa(%rbp),%rax
    6031:	ba 01 00 00 00       	mov    $0x1,%edx
    6036:	48 89 c1             	mov    %rax,%rcx
    6039:	e8 00 00 00 00       	call   603e <test_monoflop+0x459>
    603e:	66 85 c0             	test   %ax,%ax
    6041:	74 1f                	je     6062 <test_monoflop+0x47d>
    6043:	41 b8 e8 02 00 00    	mov    $0x2e8,%r8d
    6049:	48 8d 05 49 00 00 00 	lea    0x49(%rip),%rax        # 6099 <test_monoflop+0x4b4>
    6050:	48 89 c2             	mov    %rax,%rdx
    6053:	48 8d 05 5a 00 00 00 	lea    0x5a(%rip),%rax        # 60b4 <test_monoflop+0x4cf>
    605a:	48 89 c1             	mov    %rax,%rcx
    605d:	e8 e1 9f ff ff       	call   43 <printf>
    6062:	48 8d 45 f6          	lea    -0xa(%rbp),%rax
    6066:	ba 00 00 00 00       	mov    $0x0,%edx
    606b:	48 89 c1             	mov    %rax,%rcx
    606e:	e8 00 00 00 00       	call   6073 <test_monoflop+0x48e>
    6073:	66 85 c0             	test   %ax,%ax
    6076:	74 1f                	je     6097 <test_monoflop+0x4b2>
    6078:	41 b8 e9 02 00 00    	mov    $0x2e9,%r8d
    607e:	48 8d 05 49 00 00 00 	lea    0x49(%rip),%rax        # 60ce <test_monoflop+0x4e9>
    6085:	48 89 c2             	mov    %rax,%rdx
    6088:	48 8d 05 5a 00 00 00 	lea    0x5a(%rip),%rax        # 60e9 <test_monoflop+0x504>
    608f:	48 89 c1             	mov    %rax,%rcx
    6092:	e8 ac 9f ff ff       	call   43 <printf>
    6097:	48 8d 45 f6          	lea    -0xa(%rbp),%rax
    609b:	ba 00 00 00 00       	mov    $0x0,%edx
    60a0:	48 89 c1             	mov    %rax,%rcx
    60a3:	e8 00 00 00 00       	call   60a8 <test_monoflop+0x4c3>
    60a8:	66 85 c0             	test   %ax,%ax
    60ab:	74 1f                	je     60cc <test_monoflop+0x4e7>
    60ad:	41 b8 ea 02 00 00    	mov    $0x2ea,%r8d
    60b3:	48 8d 05 49 00 00 00 	lea    0x49(%rip),%rax        # 6103 <test_monoflop+0x51e>
    60ba:	48 89 c2             	mov    %rax,%rdx
    60bd:	48 8d 05 5a 00 00 00 	lea    0x5a(%rip),%rax        # 611e <test_monoflop+0x539>
    60c4:	48 89 c1             	mov    %rax,%rcx
    60c7:	e8 77 9f ff ff       	call   43 <printf>
    60cc:	48 8d 45 f6          	lea    -0xa(%rbp),%rax
    60d0:	ba 00 00 00 00       	mov    $0x0,%edx
    60d5:	48 89 c1             	mov    %rax,%rcx
    60d8:	e8 00 00 00 00       	call   60dd <test_monoflop+0x4f8>
    60dd:	66 85 c0             	test   %ax,%ax
    60e0:	74 1f                	je     6101 <test_monoflop+0x51c>
    60e2:	41 b8 eb 02 00 00    	mov    $0x2eb,%r8d
    60e8:	48 8d 05 49 00 00 00 	lea    0x49(%rip),%rax        # 6138 <test_monoflop+0x553>
    60ef:	48 89 c2             	mov    %rax,%rdx
    60f2:	48 8d 05 5a 00 00 00 	lea    0x5a(%rip),%rax        # 6153 <test_monoflop+0x56e>
    60f9:	48 89 c1             	mov    %rax,%rcx
    60fc:	e8 42 9f ff ff       	call   43 <printf>
    6101:	48 8d 45 f6          	lea    -0xa(%rbp),%rax
    6105:	ba 00 00 00 00       	mov    $0x0,%edx
    610a:	48 89 c1             	mov    %rax,%rcx
    610d:	e8 00 00 00 00       	call   6112 <test_monoflop+0x52d>
    6112:	66 85 c0             	test   %ax,%ax
    6115:	74 1f                	je     6136 <test_monoflop+0x551>
    6117:	41 b8 ec 02 00 00    	mov    $0x2ec,%r8d
    611d:	48 8d 05 49 00 00 00 	lea    0x49(%rip),%rax        # 616d <test_monoflop+0x588>
    6124:	48 89 c2             	mov    %rax,%rdx
    6127:	48 8d 05 5a 00 00 00 	lea    0x5a(%rip),%rax        # 6188 <test_monoflop+0x5a3>
    612e:	48 89 c1             	mov    %rax,%rcx
    6131:	e8 0d 9f ff ff       	call   43 <printf>
    6136:	48 8d 45 f6          	lea    -0xa(%rbp),%rax
    613a:	ba 00 00 00 00       	mov    $0x0,%edx
    613f:	48 89 c1             	mov    %rax,%rcx
    6142:	e8 00 00 00 00       	call   6147 <test_monoflop+0x562>
    6147:	66 85 c0             	test   %ax,%ax
    614a:	74 1f                	je     616b <test_monoflop+0x586>
    614c:	41 b8 ed 02 00 00    	mov    $0x2ed,%r8d
    6152:	48 8d 05 49 00 00 00 	lea    0x49(%rip),%rax        # 61a2 <test_monoflop+0x5bd>
    6159:	48 89 c2             	mov    %rax,%rdx
    615c:	48 8d 05 5a 00 00 00 	lea    0x5a(%rip),%rax        # 61bd <test_monoflop+0x5d8>
    6163:	48 89 c1             	mov    %rax,%rcx
    6166:	e8 d8 9e ff ff       	call   43 <printf>
    616b:	48 8d 45 f6          	lea    -0xa(%rbp),%rax
    616f:	41 b9 01 00 00 00    	mov    $0x1,%r9d
    6175:	41 b8 00 00 00 00    	mov    $0x0,%r8d
    617b:	ba 04 00 00 00       	mov    $0x4,%edx
    6180:	48 89 c1             	mov    %rax,%rcx
    6183:	e8 00 00 00 00       	call   6188 <test_monoflop+0x5a3>
    6188:	48 8d 45 f6          	lea    -0xa(%rbp),%rax
    618c:	ba 00 00 00 00       	mov    $0x0,%edx
    6191:	48 89 c1             	mov    %rax,%rcx
    6194:	e8 00 00 00 00       	call   6199 <test_monoflop+0x5b4>
    6199:	66 85 c0             	test   %ax,%ax
    619c:	74 1f                	je     61bd <test_monoflop+0x5d8>
    619e:	41 b8 ef 02 00 00    	mov    $0x2ef,%r8d
    61a4:	48 8d 05 49 00 00 00 	lea    0x49(%rip),%rax        # 61f4 <test_monoflop+0x60f>
    61ab:	48 89 c2             	mov    %rax,%rdx
    61ae:	48 8d 05 5a 00 00 00 	lea    0x5a(%rip),%rax        # 620f <test_monoflop+0x62a>
    61b5:	48 89 c1             	mov    %rax,%rcx
    61b8:	e8 86 9e ff ff       	call   43 <printf>
    61bd:	48 8d 45 f6          	lea    -0xa(%rbp),%rax
    61c1:	ba 01 00 00 00       	mov    $0x1,%edx
    61c6:	48 89 c1             	mov    %rax,%rcx
    61c9:	e8 00 00 00 00       	call   61ce <test_monoflop+0x5e9>
    61ce:	66 83 f8 01          	cmp    $0x1,%ax
    61d2:	74 1f                	je     61f3 <test_monoflop+0x60e>
    61d4:	41 b8 f1 02 00 00    	mov    $0x2f1,%r8d
    61da:	48 8d 05 49 00 00 00 	lea    0x49(%rip),%rax        # 622a <test_monoflop+0x645>
    61e1:	48 89 c2             	mov    %rax,%rdx
    61e4:	48 8d 05 5a 00 00 00 	lea    0x5a(%rip),%rax        # 6245 <test_monoflop+0x660>
    61eb:	48 89 c1             	mov    %rax,%rcx
    61ee:	e8 50 9e ff ff       	call   43 <printf>
    61f3:	48 8d 45 f6          	lea    -0xa(%rbp),%rax
    61f7:	ba 00 00 00 00       	mov    $0x0,%edx
    61fc:	48 89 c1             	mov    %rax,%rcx
    61ff:	e8 00 00 00 00       	call   6204 <test_monoflop+0x61f>
    6204:	66 83 f8 01          	cmp    $0x1,%ax
    6208:	74 1f                	je     6229 <test_monoflop+0x644>
    620a:	41 b8 f2 02 00 00    	mov    $0x2f2,%r8d
    6210:	48 8d 05 49 00 00 00 	lea    0x49(%rip),%rax        # 6260 <test_monoflop+0x67b>
    6217:	48 89 c2             	mov    %rax,%rdx
    621a:	48 8d 05 5a 00 00 00 	lea    0x5a(%rip),%rax        # 627b <test_monoflop+0x696>
    6221:	48 89 c1             	mov    %rax,%rcx
    6224:	e8 1a 9e ff ff       	call   43 <printf>
    6229:	48 8d 45 f6          	lea    -0xa(%rbp),%rax
    622d:	ba 00 00 00 00       	mov    $0x0,%edx
    6232:	48 89 c1             	mov    %rax,%rcx
    6235:	e8 00 00 00 00       	call   623a <test_monoflop+0x655>
    623a:	66 83 f8 01          	cmp    $0x1,%ax
    623e:	74 1f                	je     625f <test_monoflop+0x67a>
    6240:	41 b8 f3 02 00 00    	mov    $0x2f3,%r8d
    6246:	48 8d 05 49 00 00 00 	lea    0x49(%rip),%rax        # 6296 <test_monoflop+0x6b1>
    624d:	48 89 c2             	mov    %rax,%rdx
    6250:	48 8d 05 5a 00 00 00 	lea    0x5a(%rip),%rax        # 62b1 <test_monoflop+0x6cc>
    6257:	48 89 c1             	mov    %rax,%rcx
    625a:	e8 e4 9d ff ff       	call   43 <printf>
    625f:	48 8d 45 f6          	lea    -0xa(%rbp),%rax
    6263:	ba 01 00 00 00       	mov    $0x1,%edx
    6268:	48 89 c1             	mov    %rax,%rcx
    626b:	e8 00 00 00 00       	call   6270 <test_monoflop+0x68b>
    6270:	66 83 f8 01          	cmp    $0x1,%ax
    6274:	74 1f                	je     6295 <test_monoflop+0x6b0>
    6276:	41 b8 f5 02 00 00    	mov    $0x2f5,%r8d
    627c:	48 8d 05 49 00 00 00 	lea    0x49(%rip),%rax        # 62cc <test_monoflop+0x6e7>
    6283:	48 89 c2             	mov    %rax,%rdx
    6286:	48 8d 05 5a 00 00 00 	lea    0x5a(%rip),%rax        # 62e7 <test_monoflop+0x702>
    628d:	48 89 c1             	mov    %rax,%rcx
    6290:	e8 ae 9d ff ff       	call   43 <printf>
    6295:	48 8d 45 f6          	lea    -0xa(%rbp),%rax
    6299:	ba 00 00 00 00       	mov    $0x0,%edx
    629e:	48 89 c1             	mov    %rax,%rcx
    62a1:	e8 00 00 00 00       	call   62a6 <test_monoflop+0x6c1>
    62a6:	66 83 f8 01          	cmp    $0x1,%ax
    62aa:	74 1f                	je     62cb <test_monoflop+0x6e6>
    62ac:	41 b8 f6 02 00 00    	mov    $0x2f6,%r8d
    62b2:	48 8d 05 49 00 00 00 	lea    0x49(%rip),%rax        # 6302 <test_monoflop+0x71d>
    62b9:	48 89 c2             	mov    %rax,%rdx
    62bc:	48 8d 05 5a 00 00 00 	lea    0x5a(%rip),%rax        # 631d <test_monoflop+0x738>
    62c3:	48 89 c1             	mov    %rax,%rcx
    62c6:	e8 78 9d ff ff       	call   43 <printf>
    62cb:	48 8d 45 f6          	lea    -0xa(%rbp),%rax
    62cf:	ba 00 00 00 00       	mov    $0x0,%edx
    62d4:	48 89 c1             	mov    %rax,%rcx
    62d7:	e8 00 00 00 00       	call   62dc <test_monoflop+0x6f7>
    62dc:	66 83 f8 01          	cmp    $0x1,%ax
    62e0:	74 1f                	je     6301 <test_monoflop+0x71c>
    62e2:	41 b8 f7 02 00 00    	mov    $0x2f7,%r8d
    62e8:	48 8d 05 49 00 00 00 	lea    0x49(%rip),%rax        # 6338 <test_monoflop+0x753>
    62ef:	48 89 c2             	mov    %rax,%rdx
    62f2:	48 8d 05 5a 00 00 00 	lea    0x5a(%rip),%rax        # 6353 <test_monoflop+0x76e>
    62f9:	48 89 c1             	mov    %rax,%rcx
    62fc:	e8 42 9d ff ff       	call   43 <printf>
    6301:	48 8d 45 f6          	lea    -0xa(%rbp),%rax
    6305:	ba 00 00 00 00       	mov    $0x0,%edx
    630a:	48 89 c1             	mov    %rax,%rcx
    630d:	e8 00 00 00 00       	call   6312 <test_monoflop+0x72d>
    6312:	66 83 f8 01          	cmp    $0x1,%ax
    6316:	74 1f                	je     6337 <test_monoflop+0x752>
    6318:	41 b8 f8 02 00 00    	mov    $0x2f8,%r8d
    631e:	48 8d 05 49 00 00 00 	lea    0x49(%rip),%rax        # 636e <test_monoflop+0x789>
    6325:	48 89 c2             	mov    %rax,%rdx
    6328:	48 8d 05 5a 00 00 00 	lea    0x5a(%rip),%rax        # 6389 <test_monoflop+0x7a4>
    632f:	48 89 c1             	mov    %rax,%rcx
    6332:	e8 0c 9d ff ff       	call   43 <printf>
    6337:	48 8d 45 f6          	lea    -0xa(%rbp),%rax
    633b:	ba 00 00 00 00       	mov    $0x0,%edx
    6340:	48 89 c1             	mov    %rax,%rcx
    6343:	e8 00 00 00 00       	call   6348 <test_monoflop+0x763>
    6348:	66 85 c0             	test   %ax,%ax
    634b:	74 1f                	je     636c <test_monoflop+0x787>
    634d:	41 b8 f9 02 00 00    	mov    $0x2f9,%r8d
    6353:	48 8d 05 49 00 00 00 	lea    0x49(%rip),%rax        # 63a3 <test_monoflop+0x7be>
    635a:	48 89 c2             	mov    %rax,%rdx
    635d:	48 8d 05 5a 00 00 00 	lea    0x5a(%rip),%rax        # 63be <test_monoflop+0x7d9>
    6364:	48 89 c1             	mov    %rax,%rcx
    6367:	e8 d7 9c ff ff       	call   43 <printf>
    636c:	48 8d 45 f6          	lea    -0xa(%rbp),%rax
    6370:	ba 00 00 00 00       	mov    $0x0,%edx
    6375:	48 89 c1             	mov    %rax,%rcx
    6378:	e8 00 00 00 00       	call   637d <test_monoflop+0x798>
    637d:	66 85 c0             	test   %ax,%ax
    6380:	74 1f                	je     63a1 <test_monoflop+0x7bc>
    6382:	41 b8 fa 02 00 00    	mov    $0x2fa,%r8d
    6388:	48 8d 05 49 00 00 00 	lea    0x49(%rip),%rax        # 63d8 <test_monoflop+0x7f3>
    638f:	48 89 c2             	mov    %rax,%rdx
    6392:	48 8d 05 5a 00 00 00 	lea    0x5a(%rip),%rax        # 63f3 <test_monoflop+0x80e>
    6399:	48 89 c1             	mov    %rax,%rcx
    639c:	e8 a2 9c ff ff       	call   43 <printf>
    63a1:	48 8d 45 f6          	lea    -0xa(%rbp),%rax
    63a5:	41 b9 01 00 00 00    	mov    $0x1,%r9d
    63ab:	41 b8 00 00 00 00    	mov    $0x0,%r8d
    63b1:	ba 00 00 00 00       	mov    $0x0,%edx
    63b6:	48 89 c1             	mov    %rax,%rcx
    63b9:	e8 00 00 00 00       	call   63be <test_monoflop+0x7d9>
    63be:	48 8d 45 f6          	lea    -0xa(%rbp),%rax
    63c2:	ba 00 00 00 00       	mov    $0x0,%edx
    63c7:	48 89 c1             	mov    %rax,%rcx
    63ca:	e8 00 00 00 00       	call   63cf <test_monoflop+0x7ea>
    63cf:	66 85 c0             	test   %ax,%ax
    63d2:	74 1f                	je     63f3 <test_monoflop+0x80e>
    63d4:	41 b8 fc 02 00 00    	mov    $0x2fc,%r8d
    63da:	48 8d 05 49 00 00 00 	lea    0x49(%rip),%rax        # 642a <test_monoflop+0x845>
    63e1:	48 89 c2             	mov    %rax,%rdx
    63e4:	48 8d 05 5a 00 00 00 	lea    0x5a(%rip),%rax        # 6445 <test_monoflop+0x860>
    63eb:	48 89 c1             	mov    %rax,%rcx
    63ee:	e8 50 9c ff ff       	call   43 <printf>
    63f3:	48 8d 45 f6          	lea    -0xa(%rbp),%rax
    63f7:	ba 01 00 00 00       	mov    $0x1,%edx
    63fc:	48 89 c1             	mov    %rax,%rcx
    63ff:	e8 00 00 00 00       	call   6404 <test_monoflop+0x81f>
    6404:	66 83 f8 01          	cmp    $0x1,%ax
    6408:	74 1f                	je     6429 <test_monoflop+0x844>
    640a:	41 b8 fd 02 00 00    	mov    $0x2fd,%r8d
    6410:	48 8d 05 49 00 00 00 	lea    0x49(%rip),%rax        # 6460 <test_monoflop+0x87b>
    6417:	48 89 c2             	mov    %rax,%rdx
    641a:	48 8d 05 5a 00 00 00 	lea    0x5a(%rip),%rax        # 647b <test_monoflop+0x896>
    6421:	48 89 c1             	mov    %rax,%rcx
    6424:	e8 1a 9c ff ff       	call   43 <printf>
    6429:	48 8d 45 f6          	lea    -0xa(%rbp),%rax
    642d:	ba 00 00 00 00       	mov    $0x0,%edx
    6432:	48 89 c1             	mov    %rax,%rcx
    6435:	e8 00 00 00 00       	call   643a <test_monoflop+0x855>
    643a:	66 85 c0             	test   %ax,%ax
    643d:	74 1f                	je     645e <test_monoflop+0x879>
    643f:	41 b8 fe 02 00 00    	mov    $0x2fe,%r8d
    6445:	48 8d 05 49 00 00 00 	lea    0x49(%rip),%rax        # 6495 <test_monoflop+0x8b0>
    644c:	48 89 c2             	mov    %rax,%rdx
    644f:	48 8d 05 5a 00 00 00 	lea    0x5a(%rip),%rax        # 64b0 <test_monoflop+0x8cb>
    6456:	48 89 c1             	mov    %rax,%rcx
    6459:	e8 e5 9b ff ff       	call   43 <printf>
    645e:	48 8d 45 f6          	lea    -0xa(%rbp),%rax
    6462:	ba 01 00 00 00       	mov    $0x1,%edx
    6467:	48 89 c1             	mov    %rax,%rcx
    646a:	e8 00 00 00 00       	call   646f <test_monoflop+0x88a>
    646f:	66 83 f8 01          	cmp    $0x1,%ax
    6473:	74 1f                	je     6494 <test_monoflop+0x8af>
    6475:	41 b8 ff 02 00 00    	mov    $0x2ff,%r8d
    647b:	48 8d 05 49 00 00 00 	lea    0x49(%rip),%rax        # 64cb <test_monoflop+0x8e6>
    6482:	48 89 c2             	mov    %rax,%rdx
    6485:	48 8d 05 5a 00 00 00 	lea    0x5a(%rip),%rax        # 64e6 <test_monoflop+0x901>
    648c:	48 89 c1             	mov    %rax,%rcx
    648f:	e8 af 9b ff ff       	call   43 <printf>
    6494:	48 8d 45 f6          	lea    -0xa(%rbp),%rax
    6498:	ba 00 00 00 00       	mov    $0x0,%edx
    649d:	48 89 c1             	mov    %rax,%rcx
    64a0:	e8 00 00 00 00       	call   64a5 <test_monoflop+0x8c0>
    64a5:	66 85 c0             	test   %ax,%ax
    64a8:	74 1f                	je     64c9 <test_monoflop+0x8e4>
    64aa:	41 b8 00 03 00 00    	mov    $0x300,%r8d
    64b0:	48 8d 05 49 00 00 00 	lea    0x49(%rip),%rax        # 6500 <test_monoflop+0x91b>
    64b7:	48 89 c2             	mov    %rax,%rdx
    64ba:	48 8d 05 5a 00 00 00 	lea    0x5a(%rip),%rax        # 651b <test_monoflop+0x936>
    64c1:	48 89 c1             	mov    %rax,%rcx
    64c4:	e8 7a 9b ff ff       	call   43 <printf>
    64c9:	48 8d 45 f6          	lea    -0xa(%rbp),%rax
    64cd:	41 b9 01 00 00 00    	mov    $0x1,%r9d
    64d3:	41 b8 00 00 00 00    	mov    $0x0,%r8d
    64d9:	ba 01 00 00 00       	mov    $0x1,%edx
    64de:	48 89 c1             	mov    %rax,%rcx
    64e1:	e8 00 00 00 00       	call   64e6 <test_monoflop+0x901>
    64e6:	48 8d 45 f6          	lea    -0xa(%rbp),%rax
    64ea:	ba 00 00 00 00       	mov    $0x0,%edx
    64ef:	48 89 c1             	mov    %rax,%rcx
    64f2:	e8 00 00 00 00       	call   64f7 <test_monoflop+0x912>
    64f7:	66 85 c0             	test   %ax,%ax
    64fa:	74 1f                	je     651b <test_monoflop+0x936>
    64fc:	41 b8 02 03 00 00    	mov    $0x302,%r8d
    6502:	48 8d 05 49 00 00 00 	lea    0x49(%rip),%rax        # 6552 <test_monoflop+0x96d>
    6509:	48 89 c2             	mov    %rax,%rdx
    650c:	48 8d 05 5a 00 00 00 	lea    0x5a(%rip),%rax        # 656d <test_monoflop+0x988>
    6513:	48 89 c1             	mov    %rax,%rcx
    6516:	e8 28 9b ff ff       	call   43 <printf>
    651b:	48 8d 45 f6          	lea    -0xa(%rbp),%rax
    651f:	ba 01 00 00 00       	mov    $0x1,%edx
    6524:	48 89 c1             	mov    %rax,%rcx
    6527:	e8 00 00 00 00       	call   652c <test_monoflop+0x947>
    652c:	66 83 f8 01          	cmp    $0x1,%ax
    6530:	74 1f                	je     6551 <test_monoflop+0x96c>
    6532:	41 b8 03 03 00 00    	mov    $0x303,%r8d
    6538:	48 8d 05 49 00 00 00 	lea    0x49(%rip),%rax        # 6588 <test_monoflop+0x9a3>
    653f:	48 89 c2             	mov    %rax,%rdx
    6542:	48 8d 05 5a 00 00 00 	lea    0x5a(%rip),%rax        # 65a3 <test_monoflop+0x9be>
    6549:	48 89 c1             	mov    %rax,%rcx
    654c:	e8 f2 9a ff ff       	call   43 <printf>
    6551:	48 8d 45 f6          	lea    -0xa(%rbp),%rax
    6555:	ba 00 00 00 00       	mov    $0x0,%edx
    655a:	48 89 c1             	mov    %rax,%rcx
    655d:	e8 00 00 00 00       	call   6562 <test_monoflop+0x97d>
    6562:	66 85 c0             	test   %ax,%ax
    6565:	74 1f                	je     6586 <test_monoflop+0x9a1>
    6567:	41 b8 04 03 00 00    	mov    $0x304,%r8d
    656d:	48 8d 05 49 00 00 00 	lea    0x49(%rip),%rax        # 65bd <test_monoflop+0x9d8>
    6574:	48 89 c2             	mov    %rax,%rdx
    6577:	48 8d 05 5a 00 00 00 	lea    0x5a(%rip),%rax        # 65d8 <test_monoflop+0x9f3>
    657e:	48 89 c1             	mov    %rax,%rcx
    6581:	e8 bd 9a ff ff       	call   43 <printf>
    6586:	48 8d 45 f6          	lea    -0xa(%rbp),%rax
    658a:	ba 00 00 00 00       	mov    $0x0,%edx
    658f:	48 89 c1             	mov    %rax,%rcx
    6592:	e8 00 00 00 00       	call   6597 <test_monoflop+0x9b2>
    6597:	66 85 c0             	test   %ax,%ax
    659a:	74 1f                	je     65bb <test_monoflop+0x9d6>
    659c:	41 b8 05 03 00 00    	mov    $0x305,%r8d
    65a2:	48 8d 05 49 00 00 00 	lea    0x49(%rip),%rax        # 65f2 <test_monoflop+0xa0d>
    65a9:	48 89 c2             	mov    %rax,%rdx
    65ac:	48 8d 05 5a 00 00 00 	lea    0x5a(%rip),%rax        # 660d <test_monoflop+0xa28>
    65b3:	48 89 c1             	mov    %rax,%rcx
    65b6:	e8 88 9a ff ff       	call   43 <printf>
    65bb:	48 8d 45 f6          	lea    -0xa(%rbp),%rax
    65bf:	41 b9 01 00 00 00    	mov    $0x1,%r9d
    65c5:	41 b8 00 00 00 00    	mov    $0x0,%r8d
    65cb:	ba 01 00 00 00       	mov    $0x1,%edx
    65d0:	48 89 c1             	mov    %rax,%rcx
    65d3:	e8 00 00 00 00       	call   65d8 <test_monoflop+0x9f3>
    65d8:	48 8d 45 f6          	lea    -0xa(%rbp),%rax
    65dc:	ba 00 00 00 00       	mov    $0x0,%edx
    65e1:	48 89 c1             	mov    %rax,%rcx
    65e4:	e8 00 00 00 00       	call   65e9 <test_monoflop+0xa04>
    65e9:	66 85 c0             	test   %ax,%ax
    65ec:	74 1f                	je     660d <test_monoflop+0xa28>
    65ee:	41 b8 07 03 00 00    	mov    $0x307,%r8d
    65f4:	48 8d 05 49 00 00 00 	lea    0x49(%rip),%rax        # 6644 <test_monoflop+0xa5f>
    65fb:	48 89 c2             	mov    %rax,%rdx
    65fe:	48 8d 05 5a 00 00 00 	lea    0x5a(%rip),%rax        # 665f <test_monoflop+0xa7a>
    6605:	48 89 c1             	mov    %rax,%rcx
    6608:	e8 36 9a ff ff       	call   43 <printf>
    660d:	48 8d 45 f6          	lea    -0xa(%rbp),%rax
    6611:	ba 01 00 00 00       	mov    $0x1,%edx
    6616:	48 89 c1             	mov    %rax,%rcx
    6619:	e8 00 00 00 00       	call   661e <test_monoflop+0xa39>
    661e:	66 83 f8 01          	cmp    $0x1,%ax
    6622:	74 1f                	je     6643 <test_monoflop+0xa5e>
    6624:	41 b8 08 03 00 00    	mov    $0x308,%r8d
    662a:	48 8d 05 49 00 00 00 	lea    0x49(%rip),%rax        # 667a <test_monoflop+0xa95>
    6631:	48 89 c2             	mov    %rax,%rdx
    6634:	48 8d 05 5a 00 00 00 	lea    0x5a(%rip),%rax        # 6695 <test_monoflop+0xab0>
    663b:	48 89 c1             	mov    %rax,%rcx
    663e:	e8 00 9a ff ff       	call   43 <printf>
    6643:	48 8d 45 f6          	lea    -0xa(%rbp),%rax
    6647:	ba 00 00 00 00       	mov    $0x0,%edx
    664c:	48 89 c1             	mov    %rax,%rcx
    664f:	e8 00 00 00 00       	call   6654 <test_monoflop+0xa6f>
    6654:	66 85 c0             	test   %ax,%ax
    6657:	74 1f                	je     6678 <test_monoflop+0xa93>
    6659:	41 b8 09 03 00 00    	mov    $0x309,%r8d
    665f:	48 8d 05 49 00 00 00 	lea    0x49(%rip),%rax        # 66af <test_monoflop+0xaca>
    6666:	48 89 c2             	mov    %rax,%rdx
    6669:	48 8d 05 5a 00 00 00 	lea    0x5a(%rip),%rax        # 66ca <test_monoflop+0xae5>
    6670:	48 89 c1             	mov    %rax,%rcx
    6673:	e8 cb 99 ff ff       	call   43 <printf>
    6678:	48 8d 45 f6          	lea    -0xa(%rbp),%rax
    667c:	ba 01 00 00 00       	mov    $0x1,%edx
    6681:	48 89 c1             	mov    %rax,%rcx
    6684:	e8 00 00 00 00       	call   6689 <test_monoflop+0xaa4>
    6689:	66 83 f8 01          	cmp    $0x1,%ax
    668d:	74 1f                	je     66ae <test_monoflop+0xac9>
    668f:	41 b8 0a 03 00 00    	mov    $0x30a,%r8d
    6695:	48 8d 05 49 00 00 00 	lea    0x49(%rip),%rax        # 66e5 <test_monoflop+0xb00>
    669c:	48 89 c2             	mov    %rax,%rdx
    669f:	48 8d 05 5a 00 00 00 	lea    0x5a(%rip),%rax        # 6700 <test_monoflop+0xb1b>
    66a6:	48 89 c1             	mov    %rax,%rcx
    66a9:	e8 95 99 ff ff       	call   43 <printf>
    66ae:	48 8d 45 f6          	lea    -0xa(%rbp),%rax
    66b2:	ba 00 00 00 00       	mov    $0x0,%edx
    66b7:	48 89 c1             	mov    %rax,%rcx
    66ba:	e8 00 00 00 00       	call   66bf <test_monoflop+0xada>
    66bf:	66 85 c0             	test   %ax,%ax
    66c2:	74 1f                	je     66e3 <test_monoflop+0xafe>
    66c4:	41 b8 0b 03 00 00    	mov    $0x30b,%r8d
    66ca:	48 8d 05 49 00 00 00 	lea    0x49(%rip),%rax        # 671a <test_monoflop+0xb35>
    66d1:	48 89 c2             	mov    %rax,%rdx
    66d4:	48 8d 05 5a 00 00 00 	lea    0x5a(%rip),%rax        # 6735 <test_monoflop+0xb50>
    66db:	48 89 c1             	mov    %rax,%rcx
    66de:	e8 60 99 ff ff       	call   43 <printf>
    66e3:	48 8d 45 f6          	lea    -0xa(%rbp),%rax
    66e7:	ba 01 00 00 00       	mov    $0x1,%edx
    66ec:	48 89 c1             	mov    %rax,%rcx
    66ef:	e8 00 00 00 00       	call   66f4 <test_monoflop+0xb0f>
    66f4:	66 83 f8 01          	cmp    $0x1,%ax
    66f8:	74 1f                	je     6719 <test_monoflop+0xb34>
    66fa:	41 b8 0c 03 00 00    	mov    $0x30c,%r8d
    6700:	48 8d 05 49 00 00 00 	lea    0x49(%rip),%rax        # 6750 <test_monoflop+0xb6b>
    6707:	48 89 c2             	mov    %rax,%rdx
    670a:	48 8d 05 5a 00 00 00 	lea    0x5a(%rip),%rax        # 676b <test_monoflop+0xb86>
    6711:	48 89 c1             	mov    %rax,%rcx
    6714:	e8 2a 99 ff ff       	call   43 <printf>
    6719:	48 8d 45 f6          	lea    -0xa(%rbp),%rax
    671d:	41 b9 01 00 00 00    	mov    $0x1,%r9d
    6723:	41 b8 00 00 00 00    	mov    $0x0,%r8d
    6729:	ba 04 00 00 00       	mov    $0x4,%edx
    672e:	48 89 c1             	mov    %rax,%rcx
    6731:	e8 00 00 00 00       	call   6736 <test_monoflop+0xb51>
    6736:	48 8d 45 f6          	lea    -0xa(%rbp),%rax
    673a:	ba 00 00 00 00       	mov    $0x0,%edx
    673f:	48 89 c1             	mov    %rax,%rcx
    6742:	e8 00 00 00 00       	call   6747 <test_monoflop+0xb62>
    6747:	66 85 c0             	test   %ax,%ax
    674a:	74 1f                	je     676b <test_monoflop+0xb86>
    674c:	41 b8 0e 03 00 00    	mov    $0x30e,%r8d
    6752:	48 8d 05 49 00 00 00 	lea    0x49(%rip),%rax        # 67a2 <test_monoflop+0xbbd>
    6759:	48 89 c2             	mov    %rax,%rdx
    675c:	48 8d 05 5a 00 00 00 	lea    0x5a(%rip),%rax        # 67bd <test_monoflop+0xbd8>
    6763:	48 89 c1             	mov    %rax,%rcx
    6766:	e8 d8 98 ff ff       	call   43 <printf>
    676b:	48 8d 45 f6          	lea    -0xa(%rbp),%rax
    676f:	ba 01 00 00 00       	mov    $0x1,%edx
    6774:	48 89 c1             	mov    %rax,%rcx
    6777:	e8 00 00 00 00       	call   677c <test_monoflop+0xb97>
    677c:	66 83 f8 01          	cmp    $0x1,%ax
    6780:	74 1f                	je     67a1 <test_monoflop+0xbbc>
    6782:	41 b8 10 03 00 00    	mov    $0x310,%r8d
    6788:	48 8d 05 49 00 00 00 	lea    0x49(%rip),%rax        # 67d8 <test_monoflop+0xbf3>
    678f:	48 89 c2             	mov    %rax,%rdx
    6792:	48 8d 05 5a 00 00 00 	lea    0x5a(%rip),%rax        # 67f3 <test_monoflop+0xc0e>
    6799:	48 89 c1             	mov    %rax,%rcx
    679c:	e8 a2 98 ff ff       	call   43 <printf>
    67a1:	48 8d 45 f6          	lea    -0xa(%rbp),%rax
    67a5:	ba 01 00 00 00       	mov    $0x1,%edx
    67aa:	48 89 c1             	mov    %rax,%rcx
    67ad:	e8 00 00 00 00       	call   67b2 <test_monoflop+0xbcd>
    67b2:	66 83 f8 01          	cmp    $0x1,%ax
    67b6:	74 1f                	je     67d7 <test_monoflop+0xbf2>
    67b8:	41 b8 11 03 00 00    	mov    $0x311,%r8d
    67be:	48 8d 05 49 00 00 00 	lea    0x49(%rip),%rax        # 680e <test_monoflop+0xc29>
    67c5:	48 89 c2             	mov    %rax,%rdx
    67c8:	48 8d 05 5a 00 00 00 	lea    0x5a(%rip),%rax        # 6829 <test_monoflop+0xc44>
    67cf:	48 89 c1             	mov    %rax,%rcx
    67d2:	e8 6c 98 ff ff       	call   43 <printf>
    67d7:	48 8d 45 f6          	lea    -0xa(%rbp),%rax
    67db:	ba 01 00 00 00       	mov    $0x1,%edx
    67e0:	48 89 c1             	mov    %rax,%rcx
    67e3:	e8 00 00 00 00       	call   67e8 <test_monoflop+0xc03>
    67e8:	66 83 f8 01          	cmp    $0x1,%ax
    67ec:	74 1f                	je     680d <test_monoflop+0xc28>
    67ee:	41 b8 12 03 00 00    	mov    $0x312,%r8d
    67f4:	48 8d 05 49 00 00 00 	lea    0x49(%rip),%rax        # 6844 <test_monoflop+0xc5f>
    67fb:	48 89 c2             	mov    %rax,%rdx
    67fe:	48 8d 05 5a 00 00 00 	lea    0x5a(%rip),%rax        # 685f <test_monoflop+0xc7a>
    6805:	48 89 c1             	mov    %rax,%rcx
    6808:	e8 36 98 ff ff       	call   43 <printf>
    680d:	48 8d 45 f6          	lea    -0xa(%rbp),%rax
    6811:	ba 01 00 00 00       	mov    $0x1,%edx
    6816:	48 89 c1             	mov    %rax,%rcx
    6819:	e8 00 00 00 00       	call   681e <test_monoflop+0xc39>
    681e:	66 83 f8 01          	cmp    $0x1,%ax
    6822:	74 1f                	je     6843 <test_monoflop+0xc5e>
    6824:	41 b8 13 03 00 00    	mov    $0x313,%r8d
    682a:	48 8d 05 49 00 00 00 	lea    0x49(%rip),%rax        # 687a <test_monoflop+0xc95>
    6831:	48 89 c2             	mov    %rax,%rdx
    6834:	48 8d 05 5a 00 00 00 	lea    0x5a(%rip),%rax        # 6895 <test_monoflop+0xcb0>
    683b:	48 89 c1             	mov    %rax,%rcx
    683e:	e8 00 98 ff ff       	call   43 <printf>
    6843:	48 8d 45 f6          	lea    -0xa(%rbp),%rax
    6847:	ba 01 00 00 00       	mov    $0x1,%edx
    684c:	48 89 c1             	mov    %rax,%rcx
    684f:	e8 00 00 00 00       	call   6854 <test_monoflop+0xc6f>
    6854:	66 83 f8 01          	cmp    $0x1,%ax
    6858:	74 1f                	je     6879 <test_monoflop+0xc94>
    685a:	41 b8 14 03 00 00    	mov    $0x314,%r8d
    6860:	48 8d 05 49 00 00 00 	lea    0x49(%rip),%rax        # 68b0 <test_monoflop+0xccb>
    6867:	48 89 c2             	mov    %rax,%rdx
    686a:	48 8d 05 5a 00 00 00 	lea    0x5a(%rip),%rax        # 68cb <test_monoflop+0xce6>
    6871:	48 89 c1             	mov    %rax,%rcx
    6874:	e8 ca 97 ff ff       	call   43 <printf>
    6879:	48 8d 45 f6          	lea    -0xa(%rbp),%rax
    687d:	ba 01 00 00 00       	mov    $0x1,%edx
    6882:	48 89 c1             	mov    %rax,%rcx
    6885:	e8 00 00 00 00       	call   688a <test_monoflop+0xca5>
    688a:	66 85 c0             	test   %ax,%ax
    688d:	74 1f                	je     68ae <test_monoflop+0xcc9>
    688f:	41 b8 15 03 00 00    	mov    $0x315,%r8d
    6895:	48 8d 05 49 00 00 00 	lea    0x49(%rip),%rax        # 68e5 <test_monoflop+0xd00>
    689c:	48 89 c2             	mov    %rax,%rdx
    689f:	48 8d 05 5a 00 00 00 	lea    0x5a(%rip),%rax        # 6900 <test_monoflop+0xd1b>
    68a6:	48 89 c1             	mov    %rax,%rcx
    68a9:	e8 95 97 ff ff       	call   43 <printf>
    68ae:	48 8d 45 f6          	lea    -0xa(%rbp),%rax
    68b2:	ba 01 00 00 00       	mov    $0x1,%edx
    68b7:	48 89 c1             	mov    %rax,%rcx
    68ba:	e8 00 00 00 00       	call   68bf <test_monoflop+0xcda>
    68bf:	66 85 c0             	test   %ax,%ax
    68c2:	74 1f                	je     68e3 <test_monoflop+0xcfe>
    68c4:	41 b8 16 03 00 00    	mov    $0x316,%r8d
    68ca:	48 8d 05 49 00 00 00 	lea    0x49(%rip),%rax        # 691a <test_monoflop+0xd35>
    68d1:	48 89 c2             	mov    %rax,%rdx
    68d4:	48 8d 05 5a 00 00 00 	lea    0x5a(%rip),%rax        # 6935 <test_monoflop+0xd50>
    68db:	48 89 c1             	mov    %rax,%rcx
    68de:	e8 60 97 ff ff       	call   43 <printf>
    68e3:	48 8d 45 f6          	lea    -0xa(%rbp),%rax
    68e7:	ba 00 00 00 00       	mov    $0x0,%edx
    68ec:	48 89 c1             	mov    %rax,%rcx
    68ef:	e8 00 00 00 00       	call   68f4 <test_monoflop+0xd0f>
    68f4:	66 83 f8 01          	cmp    $0x1,%ax
    68f8:	74 1f                	je     6919 <test_monoflop+0xd34>
    68fa:	41 b8 18 03 00 00    	mov    $0x318,%r8d
    6900:	48 8d 05 49 00 00 00 	lea    0x49(%rip),%rax        # 6950 <test_monoflop+0xd6b>
    6907:	48 89 c2             	mov    %rax,%rdx
    690a:	48 8d 05 5a 00 00 00 	lea    0x5a(%rip),%rax        # 696b <test_monoflop+0xd86>
    6911:	48 89 c1             	mov    %rax,%rcx
    6914:	e8 2a 97 ff ff       	call   43 <printf>
    6919:	48 8d 45 f6          	lea    -0xa(%rbp),%rax
    691d:	ba 00 00 00 00       	mov    $0x0,%edx
    6922:	48 89 c1             	mov    %rax,%rcx
    6925:	e8 00 00 00 00       	call   692a <test_monoflop+0xd45>
    692a:	66 83 f8 01          	cmp    $0x1,%ax
    692e:	74 1f                	je     694f <test_monoflop+0xd6a>
    6930:	41 b8 19 03 00 00    	mov    $0x319,%r8d
    6936:	48 8d 05 49 00 00 00 	lea    0x49(%rip),%rax        # 6986 <test_monoflop+0xda1>
    693d:	48 89 c2             	mov    %rax,%rdx
    6940:	48 8d 05 5a 00 00 00 	lea    0x5a(%rip),%rax        # 69a1 <test_monoflop+0xdbc>
    6947:	48 89 c1             	mov    %rax,%rcx
    694a:	e8 f4 96 ff ff       	call   43 <printf>
    694f:	48 8d 45 f6          	lea    -0xa(%rbp),%rax
    6953:	ba 00 00 00 00       	mov    $0x0,%edx
    6958:	48 89 c1             	mov    %rax,%rcx
    695b:	e8 00 00 00 00       	call   6960 <test_monoflop+0xd7b>
    6960:	66 83 f8 01          	cmp    $0x1,%ax
    6964:	74 1f                	je     6985 <test_monoflop+0xda0>
    6966:	41 b8 1a 03 00 00    	mov    $0x31a,%r8d
    696c:	48 8d 05 49 00 00 00 	lea    0x49(%rip),%rax        # 69bc <test_monoflop+0xdd7>
    6973:	48 89 c2             	mov    %rax,%rdx
    6976:	48 8d 05 5a 00 00 00 	lea    0x5a(%rip),%rax        # 69d7 <test_monoflop+0xdf2>
    697d:	48 89 c1             	mov    %rax,%rcx
    6980:	e8 be 96 ff ff       	call   43 <printf>
    6985:	48 8d 45 f6          	lea    -0xa(%rbp),%rax
    6989:	ba 00 00 00 00       	mov    $0x0,%edx
    698e:	48 89 c1             	mov    %rax,%rcx
    6991:	e8 00 00 00 00       	call   6996 <test_monoflop+0xdb1>
    6996:	66 83 f8 01          	cmp    $0x1,%ax
    699a:	74 1f                	je     69bb <test_monoflop+0xdd6>
    699c:	41 b8 1b 03 00 00    	mov    $0x31b,%r8d
    69a2:	48 8d 05 49 00 00 00 	lea    0x49(%rip),%rax        # 69f2 <test_monoflop+0xe0d>
    69a9:	48 89 c2             	mov    %rax,%rdx
    69ac:	48 8d 05 5a 00 00 00 	lea    0x5a(%rip),%rax        # 6a0d <test_monoflop+0xe28>
    69b3:	48 89 c1             	mov    %rax,%rcx
    69b6:	e8 88 96 ff ff       	call   43 <printf>
    69bb:	48 8d 45 f6          	lea    -0xa(%rbp),%rax
    69bf:	ba 00 00 00 00       	mov    $0x0,%edx
    69c4:	48 89 c1             	mov    %rax,%rcx
    69c7:	e8 00 00 00 00       	call   69cc <test_monoflop+0xde7>
    69cc:	66 83 f8 01          	cmp    $0x1,%ax
    69d0:	74 1f                	je     69f1 <test_monoflop+0xe0c>
    69d2:	41 b8 1c 03 00 00    	mov    $0x31c,%r8d
    69d8:	48 8d 05 49 00 00 00 	lea    0x49(%rip),%rax        # 6a28 <test_monoflop+0xe43>
    69df:	48 89 c2             	mov    %rax,%rdx
    69e2:	48 8d 05 5a 00 00 00 	lea    0x5a(%rip),%rax        # 6a43 <test_monoflop+0xe5e>
    69e9:	48 89 c1             	mov    %rax,%rcx
    69ec:	e8 52 96 ff ff       	call   43 <printf>
    69f1:	48 8d 45 f6          	lea    -0xa(%rbp),%rax
    69f5:	ba 00 00 00 00       	mov    $0x0,%edx
    69fa:	48 89 c1             	mov    %rax,%rcx
    69fd:	e8 00 00 00 00       	call   6a02 <test_monoflop+0xe1d>
    6a02:	66 85 c0             	test   %ax,%ax
    6a05:	74 1f                	je     6a26 <test_monoflop+0xe41>
    6a07:	41 b8 1d 03 00 00    	mov    $0x31d,%r8d
    6a0d:	48 8d 05 49 00 00 00 	lea    0x49(%rip),%rax        # 6a5d <test_monoflop+0xe78>
    6a14:	48 89 c2             	mov    %rax,%rdx
    6a17:	48 8d 05 5a 00 00 00 	lea    0x5a(%rip),%rax        # 6a78 <test_monoflop+0xe93>
    6a1e:	48 89 c1             	mov    %rax,%rcx
    6a21:	e8 1d 96 ff ff       	call   43 <printf>
    6a26:	48 8d 45 f6          	lea    -0xa(%rbp),%rax
    6a2a:	ba 00 00 00 00       	mov    $0x0,%edx
    6a2f:	48 89 c1             	mov    %rax,%rcx
    6a32:	e8 00 00 00 00       	call   6a37 <test_monoflop+0xe52>
    6a37:	66 85 c0             	test   %ax,%ax
    6a3a:	74 1f                	je     6a5b <test_monoflop+0xe76>
    6a3c:	41 b8 1e 03 00 00    	mov    $0x31e,%r8d
    6a42:	48 8d 05 49 00 00 00 	lea    0x49(%rip),%rax        # 6a92 <test_monoflop+0xead>
    6a49:	48 89 c2             	mov    %rax,%rdx
    6a4c:	48 8d 05 5a 00 00 00 	lea    0x5a(%rip),%rax        # 6aad <test_monoflop+0xec8>
    6a53:	48 89 c1             	mov    %rax,%rcx
    6a56:	e8 e8 95 ff ff       	call   43 <printf>
    6a5b:	48 8d 45 f6          	lea    -0xa(%rbp),%rax
    6a5f:	ba 01 00 00 00       	mov    $0x1,%edx
    6a64:	48 89 c1             	mov    %rax,%rcx
    6a67:	e8 00 00 00 00       	call   6a6c <test_monoflop+0xe87>
    6a6c:	66 83 f8 01          	cmp    $0x1,%ax
    6a70:	74 1f                	je     6a91 <test_monoflop+0xeac>
    6a72:	41 b8 20 03 00 00    	mov    $0x320,%r8d
    6a78:	48 8d 05 49 00 00 00 	lea    0x49(%rip),%rax        # 6ac8 <test_monoflop+0xee3>
    6a7f:	48 89 c2             	mov    %rax,%rdx
    6a82:	48 8d 05 5a 00 00 00 	lea    0x5a(%rip),%rax        # 6ae3 <test_monoflop+0xefe>
    6a89:	48 89 c1             	mov    %rax,%rcx
    6a8c:	e8 b2 95 ff ff       	call   43 <printf>
    6a91:	48 8d 45 f6          	lea    -0xa(%rbp),%rax
    6a95:	ba 01 00 00 00       	mov    $0x1,%edx
    6a9a:	48 89 c1             	mov    %rax,%rcx
    6a9d:	e8 00 00 00 00       	call   6aa2 <test_monoflop+0xebd>
    6aa2:	66 83 f8 01          	cmp    $0x1,%ax
    6aa6:	74 1f                	je     6ac7 <test_monoflop+0xee2>
    6aa8:	41 b8 21 03 00 00    	mov    $0x321,%r8d
    6aae:	48 8d 05 49 00 00 00 	lea    0x49(%rip),%rax        # 6afe <test_monoflop+0xf19>
    6ab5:	48 89 c2             	mov    %rax,%rdx
    6ab8:	48 8d 05 5a 00 00 00 	lea    0x5a(%rip),%rax        # 6b19 <test_monoflop+0xf34>
    6abf:	48 89 c1             	mov    %rax,%rcx
    6ac2:	e8 7c 95 ff ff       	call   43 <printf>
    6ac7:	48 8d 45 f6          	lea    -0xa(%rbp),%rax
    6acb:	ba 01 00 00 00       	mov    $0x1,%edx
    6ad0:	48 89 c1             	mov    %rax,%rcx
    6ad3:	e8 00 00 00 00       	call   6ad8 <test_monoflop+0xef3>
    6ad8:	66 83 f8 01          	cmp    $0x1,%ax
    6adc:	74 1f                	je     6afd <test_monoflop+0xf18>
    6ade:	41 b8 22 03 00 00    	mov    $0x322,%r8d
    6ae4:	48 8d 05 49 00 00 00 	lea    0x49(%rip),%rax        # 6b34 <test_monoflop+0xf4f>
    6aeb:	48 89 c2             	mov    %rax,%rdx
    6aee:	48 8d 05 5a 00 00 00 	lea    0x5a(%rip),%rax        # 6b4f <test_monoflop+0xf6a>
    6af5:	48 89 c1             	mov    %rax,%rcx
    6af8:	e8 46 95 ff ff       	call   43 <printf>
    6afd:	48 8d 45 f6          	lea    -0xa(%rbp),%rax
    6b01:	ba 00 00 00 00       	mov    $0x0,%edx
    6b06:	48 89 c1             	mov    %rax,%rcx
    6b09:	e8 00 00 00 00       	call   6b0e <test_monoflop+0xf29>
    6b0e:	66 83 f8 01          	cmp    $0x1,%ax
    6b12:	74 1f                	je     6b33 <test_monoflop+0xf4e>
    6b14:	41 b8 24 03 00 00    	mov    $0x324,%r8d
    6b1a:	48 8d 05 49 00 00 00 	lea    0x49(%rip),%rax        # 6b6a <test_monoflop+0xf85>
    6b21:	48 89 c2             	mov    %rax,%rdx
    6b24:	48 8d 05 5a 00 00 00 	lea    0x5a(%rip),%rax        # 6b85 <test_monoflop+0xfa0>
    6b2b:	48 89 c1             	mov    %rax,%rcx
    6b2e:	e8 10 95 ff ff       	call   43 <printf>
    6b33:	48 8d 45 f6          	lea    -0xa(%rbp),%rax
    6b37:	ba 00 00 00 00       	mov    $0x0,%edx
    6b3c:	48 89 c1             	mov    %rax,%rcx
    6b3f:	e8 00 00 00 00       	call   6b44 <test_monoflop+0xf5f>
    6b44:	66 83 f8 01          	cmp    $0x1,%ax
    6b48:	74 1f                	je     6b69 <test_monoflop+0xf84>
    6b4a:	41 b8 25 03 00 00    	mov    $0x325,%r8d
    6b50:	48 8d 05 49 00 00 00 	lea    0x49(%rip),%rax        # 6ba0 <test_monoflop+0xfbb>
    6b57:	48 89 c2             	mov    %rax,%rdx
    6b5a:	48 8d 05 5a 00 00 00 	lea    0x5a(%rip),%rax        # 6bbb <test_monoflop+0xfd6>
    6b61:	48 89 c1             	mov    %rax,%rcx
    6b64:	e8 da 94 ff ff       	call   43 <printf>
    6b69:	48 8d 45 f6          	lea    -0xa(%rbp),%rax
    6b6d:	ba 00 00 00 00       	mov    $0x0,%edx
    6b72:	48 89 c1             	mov    %rax,%rcx
    6b75:	e8 00 00 00 00       	call   6b7a <test_monoflop+0xf95>
    6b7a:	66 83 f8 01          	cmp    $0x1,%ax
    6b7e:	74 1f                	je     6b9f <test_monoflop+0xfba>
    6b80:	41 b8 26 03 00 00    	mov    $0x326,%r8d
    6b86:	48 8d 05 49 00 00 00 	lea    0x49(%rip),%rax        # 6bd6 <test_monoflop+0xff1>
    6b8d:	48 89 c2             	mov    %rax,%rdx
    6b90:	48 8d 05 5a 00 00 00 	lea    0x5a(%rip),%rax        # 6bf1 <test_monoflop+0x100c>
    6b97:	48 89 c1             	mov    %rax,%rcx
    6b9a:	e8 a4 94 ff ff       	call   43 <printf>
    6b9f:	48 8d 45 f6          	lea    -0xa(%rbp),%rax
    6ba3:	ba 00 00 00 00       	mov    $0x0,%edx
    6ba8:	48 89 c1             	mov    %rax,%rcx
    6bab:	e8 00 00 00 00       	call   6bb0 <test_monoflop+0xfcb>
    6bb0:	66 83 f8 01          	cmp    $0x1,%ax
    6bb4:	74 1f                	je     6bd5 <test_monoflop+0xff0>
    6bb6:	41 b8 27 03 00 00    	mov    $0x327,%r8d
    6bbc:	48 8d 05 49 00 00 00 	lea    0x49(%rip),%rax        # 6c0c <test_monoflop+0x1027>
    6bc3:	48 89 c2             	mov    %rax,%rdx
    6bc6:	48 8d 05 5a 00 00 00 	lea    0x5a(%rip),%rax        # 6c27 <test_monoflop+0x1042>
    6bcd:	48 89 c1             	mov    %rax,%rcx
    6bd0:	e8 6e 94 ff ff       	call   43 <printf>
    6bd5:	48 8d 45 f6          	lea    -0xa(%rbp),%rax
    6bd9:	ba 00 00 00 00       	mov    $0x0,%edx
    6bde:	48 89 c1             	mov    %rax,%rcx
    6be1:	e8 00 00 00 00       	call   6be6 <test_monoflop+0x1001>
    6be6:	66 83 f8 01          	cmp    $0x1,%ax
    6bea:	74 1f                	je     6c0b <test_monoflop+0x1026>
    6bec:	41 b8 28 03 00 00    	mov    $0x328,%r8d
    6bf2:	48 8d 05 49 00 00 00 	lea    0x49(%rip),%rax        # 6c42 <test_monoflop+0x105d>
    6bf9:	48 89 c2             	mov    %rax,%rdx
    6bfc:	48 8d 05 5a 00 00 00 	lea    0x5a(%rip),%rax        # 6c5d <test_monoflop+0x1078>
    6c03:	48 89 c1             	mov    %rax,%rcx
    6c06:	e8 38 94 ff ff       	call   43 <printf>
    6c0b:	48 8d 45 f6          	lea    -0xa(%rbp),%rax
    6c0f:	ba 00 00 00 00       	mov    $0x0,%edx
    6c14:	48 89 c1             	mov    %rax,%rcx
    6c17:	e8 00 00 00 00       	call   6c1c <test_monoflop+0x1037>
    6c1c:	66 85 c0             	test   %ax,%ax
    6c1f:	74 1f                	je     6c40 <test_monoflop+0x105b>
    6c21:	41 b8 29 03 00 00    	mov    $0x329,%r8d
    6c27:	48 8d 05 49 00 00 00 	lea    0x49(%rip),%rax        # 6c77 <test_monoflop+0x1092>
    6c2e:	48 89 c2             	mov    %rax,%rdx
    6c31:	48 8d 05 5a 00 00 00 	lea    0x5a(%rip),%rax        # 6c92 <test_pulse+0x16>
    6c38:	48 89 c1             	mov    %rax,%rcx
    6c3b:	e8 03 94 ff ff       	call   43 <printf>
    6c40:	48 8d 45 f6          	lea    -0xa(%rbp),%rax
    6c44:	ba 00 00 00 00       	mov    $0x0,%edx
    6c49:	48 89 c1             	mov    %rax,%rcx
    6c4c:	e8 00 00 00 00       	call   6c51 <test_monoflop+0x106c>
    6c51:	66 85 c0             	test   %ax,%ax
    6c54:	74 1f                	je     6c75 <test_monoflop+0x1090>
    6c56:	41 b8 2a 03 00 00    	mov    $0x32a,%r8d
    6c5c:	48 8d 05 49 00 00 00 	lea    0x49(%rip),%rax        # 6cac <test_pulse+0x30>
    6c63:	48 89 c2             	mov    %rax,%rdx
    6c66:	48 8d 05 5a 00 00 00 	lea    0x5a(%rip),%rax        # 6cc7 <test_pulse+0x4b>
    6c6d:	48 89 c1             	mov    %rax,%rcx
    6c70:	e8 ce 93 ff ff       	call   43 <printf>
    6c75:	90                   	nop
    6c76:	48 83 c4 30          	add    $0x30,%rsp
    6c7a:	5d                   	pop    %rbp
    6c7b:	c3                   	ret

0000000000006c7c <test_pulse>:
    6c7c:	55                   	push   %rbp
    6c7d:	48 89 e5             	mov    %rsp,%rbp
    6c80:	48 83 ec 40          	sub    $0x40,%rsp
    6c84:	48 8d 05 a8 04 00 00 	lea    0x4a8(%rip),%rax        # 7133 <test_pulse+0x4b7>
    6c8b:	48 89 c1             	mov    %rax,%rcx
    6c8e:	e8 b0 93 ff ff       	call   43 <printf>
    6c93:	48 8d 45 f6          	lea    -0xa(%rbp),%rax
    6c97:	c7 44 24 20 00 00 00 	movl   $0x0,0x20(%rsp)
    6c9e:	00 
    6c9f:	41 b9 01 00 00 00    	mov    $0x1,%r9d
    6ca5:	41 b8 02 00 00 00    	mov    $0x2,%r8d
    6cab:	ba 01 00 00 00       	mov    $0x1,%edx
    6cb0:	48 89 c1             	mov    %rax,%rcx
    6cb3:	e8 00 00 00 00       	call   6cb8 <test_pulse+0x3c>
    6cb8:	48 8d 45 f6          	lea    -0xa(%rbp),%rax
    6cbc:	48 89 c1             	mov    %rax,%rcx
    6cbf:	e8 00 00 00 00       	call   6cc4 <test_pulse+0x48>
    6cc4:	66 83 f8 01          	cmp    $0x1,%ax
    6cc8:	74 1f                	je     6ce9 <test_pulse+0x6d>
    6cca:	41 b8 32 03 00 00    	mov    $0x332,%r8d
    6cd0:	48 8d 05 49 00 00 00 	lea    0x49(%rip),%rax        # 6d20 <test_pulse+0xa4>
    6cd7:	48 89 c2             	mov    %rax,%rdx
    6cda:	48 8d 05 5a 00 00 00 	lea    0x5a(%rip),%rax        # 6d3b <test_pulse+0xbf>
    6ce1:	48 89 c1             	mov    %rax,%rcx
    6ce4:	e8 5a 93 ff ff       	call   43 <printf>
    6ce9:	48 8d 45 f6          	lea    -0xa(%rbp),%rax
    6ced:	48 89 c1             	mov    %rax,%rcx
    6cf0:	e8 00 00 00 00       	call   6cf5 <test_pulse+0x79>
    6cf5:	66 85 c0             	test   %ax,%ax
    6cf8:	74 1f                	je     6d19 <test_pulse+0x9d>
    6cfa:	41 b8 33 03 00 00    	mov    $0x333,%r8d
    6d00:	48 8d 05 49 00 00 00 	lea    0x49(%rip),%rax        # 6d50 <test_pulse+0xd4>
    6d07:	48 89 c2             	mov    %rax,%rdx
    6d0a:	48 8d 05 5a 00 00 00 	lea    0x5a(%rip),%rax        # 6d6b <test_pulse+0xef>
    6d11:	48 89 c1             	mov    %rax,%rcx
    6d14:	e8 2a 93 ff ff       	call   43 <printf>
    6d19:	48 8d 45 f6          	lea    -0xa(%rbp),%rax
    6d1d:	48 89 c1             	mov    %rax,%rcx
    6d20:	e8 00 00 00 00       	call   6d25 <test_pulse+0xa9>
    6d25:	66 83 f8 01          	cmp    $0x1,%ax
    6d29:	74 1f                	je     6d4a <test_pulse+0xce>
    6d2b:	41 b8 34 03 00 00    	mov    $0x334,%r8d
    6d31:	48 8d 05 49 00 00 00 	lea    0x49(%rip),%rax        # 6d81 <test_pulse+0x105>
    6d38:	48 89 c2             	mov    %rax,%rdx
    6d3b:	48 8d 05 5a 00 00 00 	lea    0x5a(%rip),%rax        # 6d9c <test_pulse+0x120>
    6d42:	48 89 c1             	mov    %rax,%rcx
    6d45:	e8 f9 92 ff ff       	call   43 <printf>
    6d4a:	48 8d 45 f6          	lea    -0xa(%rbp),%rax
    6d4e:	48 89 c1             	mov    %rax,%rcx
    6d51:	e8 00 00 00 00       	call   6d56 <test_pulse+0xda>
    6d56:	66 85 c0             	test   %ax,%ax
    6d59:	74 1f                	je     6d7a <test_pulse+0xfe>
    6d5b:	41 b8 35 03 00 00    	mov    $0x335,%r8d
    6d61:	48 8d 05 49 00 00 00 	lea    0x49(%rip),%rax        # 6db1 <test_pulse+0x135>
    6d68:	48 89 c2             	mov    %rax,%rdx
    6d6b:	48 8d 05 5a 00 00 00 	lea    0x5a(%rip),%rax        # 6dcc <test_pulse+0x150>
    6d72:	48 89 c1             	mov    %rax,%rcx
    6d75:	e8 c9 92 ff ff       	call   43 <printf>
    6d7a:	48 8d 45 f6          	lea    -0xa(%rbp),%rax
    6d7e:	c7 44 24 20 00 00 00 	movl   $0x0,0x20(%rsp)
    6d85:	00 
    6d86:	41 b9 01 00 00 00    	mov    $0x1,%r9d
    6d8c:	41 b8 04 00 00 00    	mov    $0x4,%r8d
    6d92:	ba 02 00 00 00       	mov    $0x2,%edx
    6d97:	48 89 c1             	mov    %rax,%rcx
    6d9a:	e8 00 00 00 00       	call   6d9f <test_pulse+0x123>
    6d9f:	48 8d 45 f6          	lea    -0xa(%rbp),%rax
    6da3:	48 89 c1             	mov    %rax,%rcx
    6da6:	e8 00 00 00 00       	call   6dab <test_pulse+0x12f>
    6dab:	66 83 f8 01          	cmp    $0x1,%ax
    6daf:	74 1f                	je     6dd0 <test_pulse+0x154>
    6db1:	41 b8 37 03 00 00    	mov    $0x337,%r8d
    6db7:	48 8d 05 49 00 00 00 	lea    0x49(%rip),%rax        # 6e07 <test_pulse+0x18b>
    6dbe:	48 89 c2             	mov    %rax,%rdx
    6dc1:	48 8d 05 5a 00 00 00 	lea    0x5a(%rip),%rax        # 6e22 <test_pulse+0x1a6>
    6dc8:	48 89 c1             	mov    %rax,%rcx
    6dcb:	e8 73 92 ff ff       	call   43 <printf>
    6dd0:	48 8d 45 f6          	lea    -0xa(%rbp),%rax
    6dd4:	48 89 c1             	mov    %rax,%rcx
    6dd7:	e8 00 00 00 00       	call   6ddc <test_pulse+0x160>
    6ddc:	66 83 f8 01          	cmp    $0x1,%ax
    6de0:	74 1f                	je     6e01 <test_pulse+0x185>
    6de2:	41 b8 38 03 00 00    	mov    $0x338,%r8d
    6de8:	48 8d 05 49 00 00 00 	lea    0x49(%rip),%rax        # 6e38 <test_pulse+0x1bc>
    6def:	48 89 c2             	mov    %rax,%rdx
    6df2:	48 8d 05 5a 00 00 00 	lea    0x5a(%rip),%rax        # 6e53 <test_pulse+0x1d7>
    6df9:	48 89 c1             	mov    %rax,%rcx
    6dfc:	e8 42 92 ff ff       	call   43 <printf>
    6e01:	48 8d 45 f6          	lea    -0xa(%rbp),%rax
    6e05:	48 89 c1             	mov    %rax,%rcx
    6e08:	e8 00 00 00 00       	call   6e0d <test_pulse+0x191>
    6e0d:	66 85 c0             	test   %ax,%ax
    6e10:	74 1f                	je     6e31 <test_pulse+0x1b5>
    6e12:	41 b8 39 03 00 00    	mov    $0x339,%r8d
    6e18:	48 8d 05 49 00 00 00 	lea    0x49(%rip),%rax        # 6e68 <test_pulse+0x1ec>
    6e1f:	48 89 c2             	mov    %rax,%rdx
    6e22:	48 8d 05 5a 00 00 00 	lea    0x5a(%rip),%rax        # 6e83 <test_pulse+0x207>
    6e29:	48 89 c1             	mov    %rax,%rcx
    6e2c:	e8 12 92 ff ff       	call   43 <printf>
    6e31:	48 8d 45 f6          	lea    -0xa(%rbp),%rax
    6e35:	48 89 c1             	mov    %rax,%rcx
    6e38:	e8 00 00 00 00       	call   6e3d <test_pulse+0x1c1>
    6e3d:	66 85 c0             	test   %ax,%ax
    6e40:	74 1f                	je     6e61 <test_pulse+0x1e5>
    6e42:	41 b8 3a 03 00 00    	mov    $0x33a,%r8d
    6e48:	48 8d 05 49 00 00 00 	lea    0x49(%rip),%rax        # 6e98 <test_pulse+0x21c>
    6e4f:	48 89 c2             	mov    %rax,%rdx
    6e52:	48 8d 05 5a 00 00 00 	lea    0x5a(%rip),%rax        # 6eb3 <test_pulse+0x237>
    6e59:	48 89 c1             	mov    %rax,%rcx
    6e5c:	e8 e2 91 ff ff       	call   43 <printf>
    6e61:	48 8d 45 f6          	lea    -0xa(%rbp),%rax
    6e65:	48 89 c1             	mov    %rax,%rcx
    6e68:	e8 00 00 00 00       	call   6e6d <test_pulse+0x1f1>
    6e6d:	66 83 f8 01          	cmp    $0x1,%ax
    6e71:	74 1f                	je     6e92 <test_pulse+0x216>
    6e73:	41 b8 3b 03 00 00    	mov    $0x33b,%r8d
    6e79:	48 8d 05 49 00 00 00 	lea    0x49(%rip),%rax        # 6ec9 <test_pulse+0x24d>
    6e80:	48 89 c2             	mov    %rax,%rdx
    6e83:	48 8d 05 5a 00 00 00 	lea    0x5a(%rip),%rax        # 6ee4 <test_pulse+0x268>
    6e8a:	48 89 c1             	mov    %rax,%rcx
    6e8d:	e8 b1 91 ff ff       	call   43 <printf>
    6e92:	48 8d 45 f6          	lea    -0xa(%rbp),%rax
    6e96:	48 89 c1             	mov    %rax,%rcx
    6e99:	e8 00 00 00 00       	call   6e9e <test_pulse+0x222>
    6e9e:	66 83 f8 01          	cmp    $0x1,%ax
    6ea2:	74 1f                	je     6ec3 <test_pulse+0x247>
    6ea4:	41 b8 3c 03 00 00    	mov    $0x33c,%r8d
    6eaa:	48 8d 05 49 00 00 00 	lea    0x49(%rip),%rax        # 6efa <test_pulse+0x27e>
    6eb1:	48 89 c2             	mov    %rax,%rdx
    6eb4:	48 8d 05 5a 00 00 00 	lea    0x5a(%rip),%rax        # 6f15 <test_pulse+0x299>
    6ebb:	48 89 c1             	mov    %rax,%rcx
    6ebe:	e8 80 91 ff ff       	call   43 <printf>
    6ec3:	48 8d 45 f6          	lea    -0xa(%rbp),%rax
    6ec7:	48 89 c1             	mov    %rax,%rcx
    6eca:	e8 00 00 00 00       	call   6ecf <test_pulse+0x253>
    6ecf:	66 85 c0             	test   %ax,%ax
    6ed2:	74 1f                	je     6ef3 <test_pulse+0x277>
    6ed4:	41 b8 3d 03 00 00    	mov    $0x33d,%r8d
    6eda:	48 8d 05 49 00 00 00 	lea    0x49(%rip),%rax        # 6f2a <test_pulse+0x2ae>
    6ee1:	48 89 c2             	mov    %rax,%rdx
    6ee4:	48 8d 05 5a 00 00 00 	lea    0x5a(%rip),%rax        # 6f45 <test_pulse+0x2c9>
    6eeb:	48 89 c1             	mov    %rax,%rcx
    6eee:	e8 50 91 ff ff       	call   43 <printf>
    6ef3:	48 8d 45 f6          	lea    -0xa(%rbp),%rax
    6ef7:	48 89 c1             	mov    %rax,%rcx
    6efa:	e8 00 00 00 00       	call   6eff <test_pulse+0x283>
    6eff:	66 85 c0             	test   %ax,%ax
    6f02:	74 1f                	je     6f23 <test_pulse+0x2a7>
    6f04:	41 b8 3e 03 00 00    	mov    $0x33e,%r8d
    6f0a:	48 8d 05 49 00 00 00 	lea    0x49(%rip),%rax        # 6f5a <test_pulse+0x2de>
    6f11:	48 89 c2             	mov    %rax,%rdx
    6f14:	48 8d 05 5a 00 00 00 	lea    0x5a(%rip),%rax        # 6f75 <test_pulse+0x2f9>
    6f1b:	48 89 c1             	mov    %rax,%rcx
    6f1e:	e8 20 91 ff ff       	call   43 <printf>
    6f23:	48 8d 45 f6          	lea    -0xa(%rbp),%rax
    6f27:	48 89 c1             	mov    %rax,%rcx
    6f2a:	e8 00 00 00 00       	call   6f2f <test_pulse+0x2b3>
    6f2f:	66 83 f8 01          	cmp    $0x1,%ax
    6f33:	74 1f                	je     6f54 <test_pulse+0x2d8>
    6f35:	41 b8 3f 03 00 00    	mov    $0x33f,%r8d
    6f3b:	48 8d 05 49 00 00 00 	lea    0x49(%rip),%rax        # 6f8b <test_pulse+0x30f>
    6f42:	48 89 c2             	mov    %rax,%rdx
    6f45:	48 8d 05 5a 00 00 00 	lea    0x5a(%rip),%rax        # 6fa6 <test_pulse+0x32a>
    6f4c:	48 89 c1             	mov    %rax,%rcx
    6f4f:	e8 ef 90 ff ff       	call   43 <printf>
    6f54:	48 8d 45 f6          	lea    -0xa(%rbp),%rax
    6f58:	48 89 c1             	mov    %rax,%rcx
    6f5b:	e8 00 00 00 00       	call   6f60 <test_pulse+0x2e4>
    6f60:	66 83 f8 01          	cmp    $0x1,%ax
    6f64:	74 1f                	je     6f85 <test_pulse+0x309>
    6f66:	41 b8 40 03 00 00    	mov    $0x340,%r8d
    6f6c:	48 8d 05 49 00 00 00 	lea    0x49(%rip),%rax        # 6fbc <test_pulse+0x340>
    6f73:	48 89 c2             	mov    %rax,%rdx
    6f76:	48 8d 05 5a 00 00 00 	lea    0x5a(%rip),%rax        # 6fd7 <test_pulse+0x35b>
    6f7d:	48 89 c1             	mov    %rax,%rcx
    6f80:	e8 be 90 ff ff       	call   43 <printf>
    6f85:	48 8d 45 f6          	lea    -0xa(%rbp),%rax
    6f89:	48 89 c1             	mov    %rax,%rcx
    6f8c:	e8 00 00 00 00       	call   6f91 <test_pulse+0x315>
    6f91:	66 85 c0             	test   %ax,%ax
    6f94:	74 1f                	je     6fb5 <test_pulse+0x339>
    6f96:	41 b8 41 03 00 00    	mov    $0x341,%r8d
    6f9c:	48 8d 05 49 00 00 00 	lea    0x49(%rip),%rax        # 6fec <test_pulse+0x370>
    6fa3:	48 89 c2             	mov    %rax,%rdx
    6fa6:	48 8d 05 5a 00 00 00 	lea    0x5a(%rip),%rax        # 7007 <test_pulse+0x38b>
    6fad:	48 89 c1             	mov    %rax,%rcx
    6fb0:	e8 8e 90 ff ff       	call   43 <printf>
    6fb5:	48 8d 45 f6          	lea    -0xa(%rbp),%rax
    6fb9:	48 89 c1             	mov    %rax,%rcx
    6fbc:	e8 00 00 00 00       	call   6fc1 <test_pulse+0x345>
    6fc1:	66 85 c0             	test   %ax,%ax
    6fc4:	74 1f                	je     6fe5 <test_pulse+0x369>
    6fc6:	41 b8 42 03 00 00    	mov    $0x342,%r8d
    6fcc:	48 8d 05 49 00 00 00 	lea    0x49(%rip),%rax        # 701c <test_pulse+0x3a0>
    6fd3:	48 89 c2             	mov    %rax,%rdx
    6fd6:	48 8d 05 5a 00 00 00 	lea    0x5a(%rip),%rax        # 7037 <test_pulse+0x3bb>
    6fdd:	48 89 c1             	mov    %rax,%rcx
    6fe0:	e8 5e 90 ff ff       	call   43 <printf>
    6fe5:	48 8d 45 f6          	lea    -0xa(%rbp),%rax
    6fe9:	c7 44 24 20 00 00 00 	movl   $0x0,0x20(%rsp)
    6ff0:	00 
    6ff1:	41 b9 01 00 00 00    	mov    $0x1,%r9d
    6ff7:	41 b8 03 00 00 00    	mov    $0x3,%r8d
    6ffd:	ba 01 00 00 00       	mov    $0x1,%edx
    7002:	48 89 c1             	mov    %rax,%rcx
    7005:	e8 00 00 00 00       	call   700a <test_pulse+0x38e>
    700a:	48 8d 45 f6          	lea    -0xa(%rbp),%rax
    700e:	48 89 c1             	mov    %rax,%rcx
    7011:	e8 00 00 00 00       	call   7016 <test_pulse+0x39a>
    7016:	66 83 f8 01          	cmp    $0x1,%ax
    701a:	74 1f                	je     703b <test_pulse+0x3bf>
    701c:	41 b8 44 03 00 00    	mov    $0x344,%r8d
    7022:	48 8d 05 49 00 00 00 	lea    0x49(%rip),%rax        # 7072 <test_pulse+0x3f6>
    7029:	48 89 c2             	mov    %rax,%rdx
    702c:	48 8d 05 5a 00 00 00 	lea    0x5a(%rip),%rax        # 708d <test_pulse+0x411>
    7033:	48 89 c1             	mov    %rax,%rcx
    7036:	e8 08 90 ff ff       	call   43 <printf>
    703b:	48 8d 45 f6          	lea    -0xa(%rbp),%rax
    703f:	48 89 c1             	mov    %rax,%rcx
    7042:	e8 00 00 00 00       	call   7047 <test_pulse+0x3cb>
    7047:	66 85 c0             	test   %ax,%ax
    704a:	74 1f                	je     706b <test_pulse+0x3ef>
    704c:	41 b8 45 03 00 00    	mov    $0x345,%r8d
    7052:	48 8d 05 49 00 00 00 	lea    0x49(%rip),%rax        # 70a2 <test_pulse+0x426>
    7059:	48 89 c2             	mov    %rax,%rdx
    705c:	48 8d 05 5a 00 00 00 	lea    0x5a(%rip),%rax        # 70bd <test_pulse+0x441>
    7063:	48 89 c1             	mov    %rax,%rcx
    7066:	e8 d8 8f ff ff       	call   43 <printf>
    706b:	48 8d 45 f6          	lea    -0xa(%rbp),%rax
    706f:	48 89 c1             	mov    %rax,%rcx
    7072:	e8 00 00 00 00       	call   7077 <test_pulse+0x3fb>
    7077:	66 85 c0             	test   %ax,%ax
    707a:	74 1f                	je     709b <test_pulse+0x41f>
    707c:	41 b8 46 03 00 00    	mov    $0x346,%r8d
    7082:	48 8d 05 49 00 00 00 	lea    0x49(%rip),%rax        # 70d2 <test_pulse+0x456>
    7089:	48 89 c2             	mov    %rax,%rdx
    708c:	48 8d 05 5a 00 00 00 	lea    0x5a(%rip),%rax        # 70ed <test_pulse+0x471>
    7093:	48 89 c1             	mov    %rax,%rcx
    7096:	e8 a8 8f ff ff       	call   43 <printf>
    709b:	48 8d 45 f6          	lea    -0xa(%rbp),%rax
    709f:	48 89 c1             	mov    %rax,%rcx
    70a2:	e8 00 00 00 00       	call   70a7 <test_pulse+0x42b>
    70a7:	66 83 f8 01          	cmp    $0x1,%ax
    70ab:	74 1f                	je     70cc <test_pulse+0x450>
    70ad:	41 b8 47 03 00 00    	mov    $0x347,%r8d
    70b3:	48 8d 05 49 00 00 00 	lea    0x49(%rip),%rax        # 7103 <test_pulse+0x487>
    70ba:	48 89 c2             	mov    %rax,%rdx
    70bd:	48 8d 05 5a 00 00 00 	lea    0x5a(%rip),%rax        # 711e <test_pulse+0x4a2>
    70c4:	48 89 c1             	mov    %rax,%rcx
    70c7:	e8 77 8f ff ff       	call   43 <printf>
    70cc:	48 8d 45 f6          	lea    -0xa(%rbp),%rax
    70d0:	48 89 c1             	mov    %rax,%rcx
    70d3:	e8 00 00 00 00       	call   70d8 <test_pulse+0x45c>
    70d8:	66 85 c0             	test   %ax,%ax
    70db:	74 1f                	je     70fc <test_pulse+0x480>
    70dd:	41 b8 48 03 00 00    	mov    $0x348,%r8d
    70e3:	48 8d 05 49 00 00 00 	lea    0x49(%rip),%rax        # 7133 <test_pulse+0x4b7>
    70ea:	48 89 c2             	mov    %rax,%rdx
    70ed:	48 8d 05 5a 00 00 00 	lea    0x5a(%rip),%rax        # 714e <test_pulse+0x4d2>
    70f4:	48 89 c1             	mov    %rax,%rcx
    70f7:	e8 47 8f ff ff       	call   43 <printf>
    70fc:	48 8d 45 f6          	lea    -0xa(%rbp),%rax
    7100:	48 89 c1             	mov    %rax,%rcx
    7103:	e8 00 00 00 00       	call   7108 <test_pulse+0x48c>
    7108:	66 85 c0             	test   %ax,%ax
    710b:	74 1f                	je     712c <test_pulse+0x4b0>
    710d:	41 b8 49 03 00 00    	mov    $0x349,%r8d
    7113:	48 8d 05 49 00 00 00 	lea    0x49(%rip),%rax        # 7163 <test_pulse+0x4e7>
    711a:	48 89 c2             	mov    %rax,%rdx
    711d:	48 8d 05 5a 00 00 00 	lea    0x5a(%rip),%rax        # 717e <test_pulse+0x502>
    7124:	48 89 c1             	mov    %rax,%rcx
    7127:	e8 17 8f ff ff       	call   43 <printf>
    712c:	48 8d 45 f6          	lea    -0xa(%rbp),%rax
    7130:	48 89 c1             	mov    %rax,%rcx
    7133:	e8 00 00 00 00       	call   7138 <test_pulse+0x4bc>
    7138:	66 83 f8 01          	cmp    $0x1,%ax
    713c:	74 1f                	je     715d <test_pulse+0x4e1>
    713e:	41 b8 4a 03 00 00    	mov    $0x34a,%r8d
    7144:	48 8d 05 49 00 00 00 	lea    0x49(%rip),%rax        # 7194 <test_pulse+0x518>
    714b:	48 89 c2             	mov    %rax,%rdx
    714e:	48 8d 05 5a 00 00 00 	lea    0x5a(%rip),%rax        # 71af <test_pulse+0x533>
    7155:	48 89 c1             	mov    %rax,%rcx
    7158:	e8 e6 8e ff ff       	call   43 <printf>
    715d:	48 8d 45 f6          	lea    -0xa(%rbp),%rax
    7161:	48 89 c1             	mov    %rax,%rcx
    7164:	e8 00 00 00 00       	call   7169 <test_pulse+0x4ed>
    7169:	66 85 c0             	test   %ax,%ax
    716c:	74 1f                	je     718d <test_pulse+0x511>
    716e:	41 b8 4b 03 00 00    	mov    $0x34b,%r8d
    7174:	48 8d 05 49 00 00 00 	lea    0x49(%rip),%rax        # 71c4 <test_status>
    717b:	48 89 c2             	mov    %rax,%rdx
    717e:	48 8d 05 5a 00 00 00 	lea    0x5a(%rip),%rax        # 71df <test_status+0x1b>
    7185:	48 89 c1             	mov    %rax,%rcx
    7188:	e8 b6 8e ff ff       	call   43 <printf>
    718d:	48 8d 45 f6          	lea    -0xa(%rbp),%rax
    7191:	48 89 c1             	mov    %rax,%rcx
    7194:	e8 00 00 00 00       	call   7199 <test_pulse+0x51d>
    7199:	66 85 c0             	test   %ax,%ax
    719c:	74 1f                	je     71bd <test_pulse+0x541>
    719e:	41 b8 4c 03 00 00    	mov    $0x34c,%r8d
    71a4:	48 8d 05 49 00 00 00 	lea    0x49(%rip),%rax        # 71f4 <test_status+0x30>
    71ab:	48 89 c2             	mov    %rax,%rdx
    71ae:	48 8d 05 5a 00 00 00 	lea    0x5a(%rip),%rax        # 720f <test_status+0x4b>
    71b5:	48 89 c1             	mov    %rax,%rcx
    71b8:	e8 86 8e ff ff       	call   43 <printf>
    71bd:	90                   	nop
    71be:	48 83 c4 40          	add    $0x40,%rsp
    71c2:	5d                   	pop    %rbp
    71c3:	c3                   	ret

00000000000071c4 <test_status>:
    71c4:	55                   	push   %rbp
    71c5:	48 89 e5             	mov    %rsp,%rbp
    71c8:	48 83 ec 30          	sub    $0x30,%rsp
    71cc:	48 8d 05 c5 04 00 00 	lea    0x4c5(%rip),%rax        # 7698 <test_queue+0x155>
    71d3:	48 89 c1             	mov    %rax,%rcx
    71d6:	e8 68 8e ff ff       	call   43 <printf>
    71db:	c7 45 f4 00 00 00 00 	movl   $0x0,-0xc(%rbp)
    71e2:	48 8d 45 f4          	lea    -0xc(%rbp),%rax
    71e6:	48 89 45 f8          	mov    %rax,-0x8(%rbp)
    71ea:	8b 45 f4             	mov    -0xc(%rbp),%eax
    71ed:	85 c0                	test   %eax,%eax
    71ef:	74 1f                	je     7210 <test_status+0x4c>
    71f1:	41 b8 54 03 00 00    	mov    $0x354,%r8d
    71f7:	48 8d 05 49 00 00 00 	lea    0x49(%rip),%rax        # 7247 <test_status+0x83>
    71fe:	48 89 c2             	mov    %rax,%rdx
    7201:	48 8d 05 5a 00 00 00 	lea    0x5a(%rip),%rax        # 7262 <test_status+0x9e>
    7208:	48 89 c1             	mov    %rax,%rcx
    720b:	e8 33 8e ff ff       	call   43 <printf>
    7210:	48 8b 45 f8          	mov    -0x8(%rbp),%rax
    7214:	ba 01 00 00 00       	mov    $0x1,%edx
    7219:	48 89 c1             	mov    %rax,%rcx
    721c:	e8 00 00 00 00       	call   7221 <test_status+0x5d>
    7221:	8b 45 f4             	mov    -0xc(%rbp),%eax
    7224:	83 f8 01             	cmp    $0x1,%eax
    7227:	74 1f                	je     7248 <test_status+0x84>
    7229:	41 b8 56 03 00 00    	mov    $0x356,%r8d
    722f:	48 8d 05 49 00 00 00 	lea    0x49(%rip),%rax        # 727f <test_status+0xbb>
    7236:	48 89 c2             	mov    %rax,%rdx
    7239:	48 8d 05 5a 00 00 00 	lea    0x5a(%rip),%rax        # 729a <test_status+0xd6>
    7240:	48 89 c1             	mov    %rax,%rcx
    7243:	e8 fb 8d ff ff       	call   43 <printf>
    7248:	48 8b 45 f8          	mov    -0x8(%rbp),%rax
    724c:	41 b8 00 00 00 00    	mov    $0x0,%r8d
    7252:	ba 01 00 00 00       	mov    $0x1,%edx
    7257:	48 89 c1             	mov    %rax,%rcx
    725a:	e8 00 00 00 00       	call   725f <test_status+0x9b>
    725f:	83 f0 01             	xor    $0x1,%eax
    7262:	84 c0                	test   %al,%al
    7264:	74 1f                	je     7285 <test_status+0xc1>
    7266:	41 b8 57 03 00 00    	mov    $0x357,%r8d
    726c:	48 8d 05 49 00 00 00 	lea    0x49(%rip),%rax        # 72bc <test_status+0xf8>
    7273:	48 89 c2             	mov    %rax,%rdx
    7276:	48 8d 05 5a 00 00 00 	lea    0x5a(%rip),%rax        # 72d7 <test_status+0x113>
    727d:	48 89 c1             	mov    %rax,%rcx
    7280:	e8 be 8d ff ff       	call   43 <printf>
    7285:	48 8b 45 f8          	mov    -0x8(%rbp),%rax
    7289:	41 b8 fe ff ff ff    	mov    $0xfffffffe,%r8d
    728f:	ba 00 00 00 00       	mov    $0x0,%edx
    7294:	48 89 c1             	mov    %rax,%rcx
    7297:	e8 00 00 00 00       	call   729c <test_status+0xd8>
    729c:	83 f0 01             	xor    $0x1,%eax
    729f:	84 c0                	test   %al,%al
    72a1:	74 1f                	je     72c2 <test_status+0xfe>
    72a3:	41 b8 58 03 00 00    	mov    $0x358,%r8d
    72a9:	48 8d 05 49 00 00 00 	lea    0x49(%rip),%rax        # 72f9 <test_status+0x135>
    72b0:	48 89 c2             	mov    %rax,%rdx
    72b3:	48 8d 05 5a 00 00 00 	lea    0x5a(%rip),%rax        # 7314 <test_status+0x150>
    72ba:	48 89 c1             	mov    %rax,%rcx
    72bd:	e8 81 8d ff ff       	call   43 <printf>
    72c2:	48 8b 45 f8          	mov    -0x8(%rbp),%rax
    72c6:	ba ff ff ff ff       	mov    $0xffffffff,%edx
    72cb:	48 89 c1             	mov    %rax,%rcx
    72ce:	e8 00 00 00 00       	call   72d3 <test_status+0x10f>
    72d3:	8b 45 f4             	mov    -0xc(%rbp),%eax
    72d6:	85 c0                	test   %eax,%eax
    72d8:	74 1f                	je     72f9 <test_status+0x135>
    72da:	41 b8 5a 03 00 00    	mov    $0x35a,%r8d
    72e0:	48 8d 05 49 00 00 00 	lea    0x49(%rip),%rax        # 7330 <test_status+0x16c>
    72e7:	48 89 c2             	mov    %rax,%rdx
    72ea:	48 8d 05 5a 00 00 00 	lea    0x5a(%rip),%rax        # 734b <test_status+0x187>
    72f1:	48 89 c1             	mov    %rax,%rcx
    72f4:	e8 4a 8d ff ff       	call   43 <printf>
    72f9:	48 8b 45 f8          	mov    -0x8(%rbp),%rax
    72fd:	ba 00 10 00 00       	mov    $0x1000,%edx
    7302:	48 89 c1             	mov    %rax,%rcx
    7305:	e8 00 00 00 00       	call   730a <test_status+0x146>
    730a:	48 8b 45 f8          	mov    -0x8(%rbp),%rax
    730e:	41 b8 00 00 00 00    	mov    $0x0,%r8d
    7314:	ba 00 10 00 00       	mov    $0x1000,%edx
    7319:	48 89 c1             	mov    %rax,%rcx
    731c:	e8 00 00 00 00       	call   7321 <test_status+0x15d>
    7321:	83 f0 01             	xor    $0x1,%eax
    7324:	84 c0                	test   %al,%al
    7326:	74 1f                	je     7347 <test_status+0x183>
    7328:	41 b8 5c 03 00 00    	mov    $0x35c,%r8d
    732e:	48 8d 05 49 00 00 00 	lea    0x49(%rip),%rax        # 737e <test_status+0x1ba>
    7335:	48 89 c2             	mov    %rax,%rdx
    7338:	48 8d 05 5a 00 00 00 	lea    0x5a(%rip),%rax        # 7399 <test_mean+0xe>
    733f:	48 89 c1             	mov    %rax,%rcx
    7342:	e8 fc 8c ff ff       	call   43 <printf>
    7347:	48 8b 45 f8          	mov    -0x8(%rbp),%rax
    734b:	41 b8 ff ef ff ff    	mov    $0xffffefff,%r8d
    7351:	ba 00 00 00 00       	mov    $0x0,%edx
    7356:	48 89 c1             	mov    %rax,%rcx
    7359:	e8 00 00 00 00       	call   735e <test_status+0x19a>
    735e:	83 f0 01             	xor    $0x1,%eax
    7361:	84 c0                	test   %al,%al
    7363:	74 1f                	je     7384 <test_status+0x1c0>
    7365:	41 b8 5d 03 00 00    	mov    $0x35d,%r8d
    736b:	48 8d 05 49 00 00 00 	lea    0x49(%rip),%rax        # 73bb <test_mean+0x30>
    7372:	48 89 c2             	mov    %rax,%rdx
    7375:	48 8d 05 5a 00 00 00 	lea    0x5a(%rip),%rax        # 73d6 <test_mean+0x4b>
    737c:	48 89 c1             	mov    %rax,%rcx
    737f:	e8 bf 8c ff ff       	call   43 <printf>
    7384:	90                   	nop
    7385:	48 83 c4 30          	add    $0x30,%rsp
    7389:	5d                   	pop    %rbp
    738a:	c3                   	ret

000000000000738b <test_mean>:
    738b:	55                   	push   %rbp
    738c:	48 89 e5             	mov    %rsp,%rbp
    738f:	48 83 ec 40          	sub    $0x40,%rsp
    7393:	48 8d 05 e3 04 00 00 	lea    0x4e3(%rip),%rax        # 787d <test_queue+0x33a>
    739a:	48 89 c1             	mov    %rax,%rcx
    739d:	e8 a1 8c ff ff       	call   43 <printf>
    73a2:	66 c7 45 f8 01 00    	movw   $0x1,-0x8(%rbp)
    73a8:	66 c7 45 fa 02 00    	movw   $0x2,-0x6(%rbp)
    73ae:	66 c7 45 fc 03 00    	movw   $0x3,-0x4(%rbp)
    73b4:	66 c7 45 fe 04 00    	movw   $0x4,-0x2(%rbp)
    73ba:	66 c7 45 e0 01 00    	movw   $0x1,-0x20(%rbp)
    73c0:	66 c7 45 e2 02 00    	movw   $0x2,-0x1e(%rbp)
    73c6:	66 c7 45 e4 03 00    	movw   $0x3,-0x1c(%rbp)
    73cc:	66 c7 45 e6 04 00    	movw   $0x4,-0x1a(%rbp)
    73d2:	66 c7 45 e8 05 00    	movw   $0x5,-0x18(%rbp)
    73d8:	66 c7 45 ea 06 00    	movw   $0x6,-0x16(%rbp)
    73de:	66 c7 45 ec 07 00    	movw   $0x7,-0x14(%rbp)
    73e4:	66 c7 45 ee 08 00    	movw   $0x8,-0x12(%rbp)
    73ea:	f3 0f 10 15 cc 07 00 	movss  0x7cc(%rip),%xmm2        # 7bbe <test_queue+0x67b>
    73f1:	00 
    73f2:	f3 0f 10 0d 9c 07 00 	movss  0x79c(%rip),%xmm1        # 7b96 <test_queue+0x653>
    73f9:	00 
    73fa:	8b 05 a0 07 00 00    	mov    0x7a0(%rip),%eax        # 7ba0 <test_queue+0x65d>
    7400:	66 0f 6e c0          	movd   %eax,%xmm0
    7404:	e8 00 00 00 00       	call   7409 <test_mean+0x7e>
    7409:	66 0f 7e c0          	movd   %xmm0,%eax
    740d:	66 0f 6e d8          	movd   %eax,%xmm3
    7411:	0f 2e 1d a4 07 00 00 	ucomiss 0x7a4(%rip),%xmm3        # 7bbc <test_queue+0x679>
    7418:	7a 0d                	jp     7427 <test_mean+0x9c>
    741a:	66 0f 6e e0          	movd   %eax,%xmm4
    741e:	0f 2e 25 a4 07 00 00 	ucomiss 0x7a4(%rip),%xmm4        # 7bc9 <test_queue+0x686>
    7425:	74 1f                	je     7446 <test_mean+0xbb>
    7427:	41 b8 65 03 00 00    	mov    $0x365,%r8d
    742d:	48 8d 05 49 00 00 00 	lea    0x49(%rip),%rax        # 747d <test_mean+0xf2>
    7434:	48 89 c2             	mov    %rax,%rdx
    7437:	48 8d 05 5a 00 00 00 	lea    0x5a(%rip),%rax        # 7498 <test_mean+0x10d>
    743e:	48 89 c1             	mov    %rax,%rcx
    7441:	e8 fd 8b ff ff       	call   43 <printf>
    7446:	f3 0f 10 15 a0 07 00 	movss  0x7a0(%rip),%xmm2        # 7bee <test_queue+0x6ab>
    744d:	00 
    744e:	f3 0f 10 0d 9c 07 00 	movss  0x79c(%rip),%xmm1        # 7bf2 <test_queue+0x6af>
    7455:	00 
    7456:	8b 05 a0 07 00 00    	mov    0x7a0(%rip),%eax        # 7bfc <test_queue+0x6b9>
    745c:	66 0f 6e c0          	movd   %eax,%xmm0
    7460:	e8 00 00 00 00       	call   7465 <test_mean+0xda>
    7465:	66 0f 7e c0          	movd   %xmm0,%eax
    7469:	f3 0f 10 05 a0 07 00 	movss  0x7a0(%rip),%xmm0        # 7c11 <test_queue+0x6ce>
    7470:	00 
    7471:	66 0f 6e e8          	movd   %eax,%xmm5
    7475:	0f 2e e8             	ucomiss %xmm0,%xmm5
    7478:	7a 11                	jp     748b <test_mean+0x100>
    747a:	f3 0f 10 05 a0 07 00 	movss  0x7a0(%rip),%xmm0        # 7c22 <test_ain+0x8>
    7481:	00 
    7482:	66 0f 6e c8          	movd   %eax,%xmm1
    7486:	0f 2e c8             	ucomiss %xmm0,%xmm1
    7489:	74 1f                	je     74aa <test_mean+0x11f>
    748b:	41 b8 66 03 00 00    	mov    $0x366,%r8d
    7491:	48 8d 05 49 00 00 00 	lea    0x49(%rip),%rax        # 74e1 <test_mean+0x156>
    7498:	48 89 c2             	mov    %rax,%rdx
    749b:	48 8d 05 5a 00 00 00 	lea    0x5a(%rip),%rax        # 74fc <test_mean+0x171>
    74a2:	48 89 c1             	mov    %rax,%rcx
    74a5:	e8 99 8b ff ff       	call   43 <printf>
    74aa:	48 8d 45 f8          	lea    -0x8(%rbp),%rax
    74ae:	48 89 c1             	mov    %rax,%rcx
    74b1:	e8 00 00 00 00       	call   74b6 <test_mean+0x12b>
    74b6:	66 0f 7e c0          	movd   %xmm0,%eax
    74ba:	66 0f 6e d0          	movd   %eax,%xmm2
    74be:	0f 2e 15 d0 07 00 00 	ucomiss 0x7d0(%rip),%xmm2        # 7c95 <test_ain+0x7b>
    74c5:	7a 0d                	jp     74d4 <test_mean+0x149>
    74c7:	66 0f 6e d8          	movd   %eax,%xmm3
    74cb:	0f 2e 1d d0 07 00 00 	ucomiss 0x7d0(%rip),%xmm3        # 7ca2 <test_ain+0x88>
    74d2:	74 1f                	je     74f3 <test_mean+0x168>
    74d4:	41 b8 67 03 00 00    	mov    $0x367,%r8d
    74da:	48 8d 05 49 00 00 00 	lea    0x49(%rip),%rax        # 752a <test_mean+0x19f>
    74e1:	48 89 c2             	mov    %rax,%rdx
    74e4:	48 8d 05 5a 00 00 00 	lea    0x5a(%rip),%rax        # 7545 <test_queue+0x2>
    74eb:	48 89 c1             	mov    %rax,%rcx
    74ee:	e8 50 8b ff ff       	call   43 <printf>
    74f3:	48 8d 45 e0          	lea    -0x20(%rbp),%rax
    74f7:	48 89 c1             	mov    %rax,%rcx
    74fa:	e8 00 00 00 00       	call   74ff <test_mean+0x174>
    74ff:	66 0f 7e c0          	movd   %xmm0,%eax
    7503:	66 0f 6e e0          	movd   %eax,%xmm4
    7507:	0f 2e 25 d8 07 00 00 	ucomiss 0x7d8(%rip),%xmm4        # 7ce6 <test_ain+0xcc>
    750e:	7a 0d                	jp     751d <test_mean+0x192>
    7510:	66 0f 6e e8          	movd   %eax,%xmm5
    7514:	0f 2e 2d d8 07 00 00 	ucomiss 0x7d8(%rip),%xmm5        # 7cf3 <test_ain+0xd9>
    751b:	74 1f                	je     753c <test_mean+0x1b1>
    751d:	41 b8 68 03 00 00    	mov    $0x368,%r8d
    7523:	48 8d 05 49 00 00 00 	lea    0x49(%rip),%rax        # 7573 <test_queue+0x30>
    752a:	48 89 c2             	mov    %rax,%rdx
    752d:	48 8d 05 5a 00 00 00 	lea    0x5a(%rip),%rax        # 758e <test_queue+0x4b>
    7534:	48 89 c1             	mov    %rax,%rcx
    7537:	e8 07 8b ff ff       	call   43 <printf>
    753c:	90                   	nop
    753d:	48 83 c4 40          	add    $0x40,%rsp
    7541:	5d                   	pop    %rbp
    7542:	c3                   	ret

0000000000007543 <test_queue>:
    7543:	55                   	push   %rbp
    7544:	48 89 e5             	mov    %rsp,%rbp
    7547:	48 83 ec 60          	sub    $0x60,%rsp
    754b:	48 8d 05 ff 04 00 00 	lea    0x4ff(%rip),%rax        # 7a51 <test_queue+0x50e>
    7552:	48 89 c1             	mov    %rax,%rcx
    7555:	e8 e9 8a ff ff       	call   43 <printf>
    755a:	c7 45 fb 00 00 00 00 	movl   $0x0,-0x5(%rbp)
    7561:	c7 45 f4 00 00 00 00 	movl   $0x0,-0xc(%rbp)
    7568:	66 c7 45 f8 00 00    	movw   $0x0,-0x8(%rbp)
    756e:	48 8d 45 f4          	lea    -0xc(%rbp),%rax
    7572:	48 89 45 d0          	mov    %rax,-0x30(%rbp)
    7576:	48 8d 45 fb          	lea    -0x5(%rbp),%rax
    757a:	48 89 45 d8          	mov    %rax,-0x28(%rbp)
    757e:	66 c7 45 e0 04 00    	movw   $0x4,-0x20(%rbp)
    7584:	48 8d 45 d0          	lea    -0x30(%rbp),%rax
    7588:	48 89 c1             	mov    %rax,%rcx
    758b:	e8 00 00 00 00       	call   7590 <test_queue+0x4d>
    7590:	0f b7 45 f8          	movzwl -0x8(%rbp),%eax
    7594:	66 85 c0             	test   %ax,%ax
    7597:	74 1f                	je     75b8 <test_queue+0x75>
    7599:	41 b8 77 03 00 00    	mov    $0x377,%r8d
    759f:	48 8d 05 49 00 00 00 	lea    0x49(%rip),%rax        # 75ef <test_queue+0xac>
    75a6:	48 89 c2             	mov    %rax,%rdx
    75a9:	48 8d 05 5a 00 00 00 	lea    0x5a(%rip),%rax        # 760a <test_queue+0xc7>
    75b0:	48 89 c1             	mov    %rax,%rcx
    75b3:	e8 8b 8a ff ff       	call   43 <printf>
    75b8:	48 8d 45 d0          	lea    -0x30(%rbp),%rax
    75bc:	48 89 c1             	mov    %rax,%rcx
    75bf:	e8 00 00 00 00       	call   75c4 <test_queue+0x81>
    75c4:	83 f0 01             	xor    $0x1,%eax
    75c7:	84 c0                	test   %al,%al
    75c9:	74 1f                	je     75ea <test_queue+0xa7>
    75cb:	41 b8 78 03 00 00    	mov    $0x378,%r8d
    75d1:	48 8d 05 49 00 00 00 	lea    0x49(%rip),%rax        # 7621 <test_queue+0xde>
    75d8:	48 89 c2             	mov    %rax,%rdx
    75db:	48 8d 05 5a 00 00 00 	lea    0x5a(%rip),%rax        # 763c <test_queue+0xf9>
    75e2:	48 89 c1             	mov    %rax,%rcx
    75e5:	e8 59 8a ff ff       	call   43 <printf>
    75ea:	48 8d 45 d0          	lea    -0x30(%rbp),%rax
    75ee:	ba 74 00 00 00       	mov    $0x74,%edx
    75f3:	48 89 c1             	mov    %rax,%rcx
    75f6:	e8 00 00 00 00       	call   75fb <test_queue+0xb8>
    75fb:	0f b7 45 f8          	movzwl -0x8(%rbp),%eax
    75ff:	66 83 f8 01          	cmp    $0x1,%ax
    7603:	74 1f                	je     7624 <test_queue+0xe1>
    7605:	41 b8 7a 03 00 00    	mov    $0x37a,%r8d
    760b:	48 8d 05 49 00 00 00 	lea    0x49(%rip),%rax        # 765b <test_queue+0x118>
    7612:	48 89 c2             	mov    %rax,%rdx
    7615:	48 8d 05 5a 00 00 00 	lea    0x5a(%rip),%rax        # 7676 <test_queue+0x133>
    761c:	48 89 c1             	mov    %rax,%rcx
    761f:	e8 1f 8a ff ff       	call   43 <printf>
    7624:	0f b6 45 fb          	movzbl -0x5(%rbp),%eax
    7628:	3c 74                	cmp    $0x74,%al
    762a:	74 1f                	je     764b <test_queue+0x108>
    762c:	41 b8 7b 03 00 00    	mov    $0x37b,%r8d
    7632:	48 8d 05 49 00 00 00 	lea    0x49(%rip),%rax        # 7682 <test_queue+0x13f>
    7639:	48 89 c2             	mov    %rax,%rdx
    763c:	48 8d 05 5a 00 00 00 	lea    0x5a(%rip),%rax        # 769d <test_queue+0x15a>
    7643:	48 89 c1             	mov    %rax,%rcx
    7646:	e8 f8 89 ff ff       	call   43 <printf>
    764b:	48 8d 45 d0          	lea    -0x30(%rbp),%rax
    764f:	ba 65 00 00 00       	mov    $0x65,%edx
    7654:	48 89 c1             	mov    %rax,%rcx
    7657:	e8 00 00 00 00       	call   765c <test_queue+0x119>
    765c:	48 8d 45 d0          	lea    -0x30(%rbp),%rax
    7660:	ba 73 00 00 00       	mov    $0x73,%edx
    7665:	48 89 c1             	mov    %rax,%rcx
    7668:	e8 00 00 00 00       	call   766d <test_queue+0x12a>
    766d:	48 8d 45 d0          	lea    -0x30(%rbp),%rax
    7671:	48 89 c1             	mov    %rax,%rcx
    7674:	e8 00 00 00 00       	call   7679 <test_queue+0x136>
    7679:	83 f0 01             	xor    $0x1,%eax
    767c:	84 c0                	test   %al,%al
    767e:	74 1f                	je     769f <test_queue+0x15c>
    7680:	41 b8 7e 03 00 00    	mov    $0x37e,%r8d
    7686:	48 8d 05 49 00 00 00 	lea    0x49(%rip),%rax        # 76d6 <test_queue+0x193>
    768d:	48 89 c2             	mov    %rax,%rdx
    7690:	48 8d 05 5a 00 00 00 	lea    0x5a(%rip),%rax        # 76f1 <test_queue+0x1ae>
    7697:	48 89 c1             	mov    %rax,%rcx
    769a:	e8 a4 89 ff ff       	call   43 <printf>
    769f:	48 8d 45 d0          	lea    -0x30(%rbp),%rax
    76a3:	ba 74 00 00 00       	mov    $0x74,%edx
    76a8:	48 89 c1             	mov    %rax,%rcx
    76ab:	e8 00 00 00 00       	call   76b0 <test_queue+0x16d>
    76b0:	48 8d 45 d0          	lea    -0x30(%rbp),%rax
    76b4:	48 89 c1             	mov    %rax,%rcx
    76b7:	e8 00 00 00 00       	call   76bc <test_queue+0x179>
    76bc:	84 c0                	test   %al,%al
    76be:	74 1f                	je     76df <test_queue+0x19c>
    76c0:	41 b8 80 03 00 00    	mov    $0x380,%r8d
    76c6:	48 8d 05 49 00 00 00 	lea    0x49(%rip),%rax        # 7716 <test_queue+0x1d3>
    76cd:	48 89 c2             	mov    %rax,%rdx
    76d0:	48 8d 05 5a 00 00 00 	lea    0x5a(%rip),%rax        # 7731 <test_queue+0x1ee>
    76d7:	48 89 c1             	mov    %rax,%rcx
    76da:	e8 64 89 ff ff       	call   43 <printf>
    76df:	0f b6 45 fe          	movzbl -0x2(%rbp),%eax
    76e3:	3c 74                	cmp    $0x74,%al
    76e5:	74 1f                	je     7706 <test_queue+0x1c3>
    76e7:	41 b8 81 03 00 00    	mov    $0x381,%r8d
    76ed:	48 8d 05 49 00 00 00 	lea    0x49(%rip),%rax        # 773d <test_queue+0x1fa>
    76f4:	48 89 c2             	mov    %rax,%rdx
    76f7:	48 8d 05 5a 00 00 00 	lea    0x5a(%rip),%rax        # 7758 <test_queue+0x215>
    76fe:	48 89 c1             	mov    %rax,%rcx
    7701:	e8 3d 89 ff ff       	call   43 <printf>
    7706:	48 8d 45 d0          	lea    -0x30(%rbp),%rax
    770a:	48 89 c1             	mov    %rax,%rcx
    770d:	e8 00 00 00 00       	call   7712 <test_queue+0x1cf>
    7712:	3c 74                	cmp    $0x74,%al
    7714:	74 1f                	je     7735 <test_queue+0x1f2>
    7716:	41 b8 82 03 00 00    	mov    $0x382,%r8d
    771c:	48 8d 05 49 00 00 00 	lea    0x49(%rip),%rax        # 776c <test_queue+0x229>
    7723:	48 89 c2             	mov    %rax,%rdx
    7726:	48 8d 05 5a 00 00 00 	lea    0x5a(%rip),%rax        # 7787 <test_queue+0x244>
    772d:	48 89 c1             	mov    %rax,%rcx
    7730:	e8 0e 89 ff ff       	call   43 <printf>
    7735:	48 8d 45 d0          	lea    -0x30(%rbp),%rax
    7739:	48 89 c1             	mov    %rax,%rcx
    773c:	e8 00 00 00 00       	call   7741 <test_queue+0x1fe>
    7741:	3c 65                	cmp    $0x65,%al
    7743:	74 1f                	je     7764 <test_queue+0x221>
    7745:	41 b8 83 03 00 00    	mov    $0x383,%r8d
    774b:	48 8d 05 49 00 00 00 	lea    0x49(%rip),%rax        # 779b <test_queue+0x258>
    7752:	48 89 c2             	mov    %rax,%rdx
    7755:	48 8d 05 5a 00 00 00 	lea    0x5a(%rip),%rax        # 77b6 <test_queue+0x273>
    775c:	48 89 c1             	mov    %rax,%rcx
    775f:	e8 df 88 ff ff       	call   43 <printf>
    7764:	48 8d 45 d0          	lea    -0x30(%rbp),%rax
    7768:	48 89 c1             	mov    %rax,%rcx
    776b:	e8 00 00 00 00       	call   7770 <test_queue+0x22d>
    7770:	3c 73                	cmp    $0x73,%al
    7772:	74 1f                	je     7793 <test_queue+0x250>
    7774:	41 b8 84 03 00 00    	mov    $0x384,%r8d
    777a:	48 8d 05 49 00 00 00 	lea    0x49(%rip),%rax        # 77ca <test_queue+0x287>
    7781:	48 89 c2             	mov    %rax,%rdx
    7784:	48 8d 05 5a 00 00 00 	lea    0x5a(%rip),%rax        # 77e5 <test_queue+0x2a2>
    778b:	48 89 c1             	mov    %rax,%rcx
    778e:	e8 b0 88 ff ff       	call   43 <printf>
    7793:	48 8d 45 d0          	lea    -0x30(%rbp),%rax
    7797:	48 89 c1             	mov    %rax,%rcx
    779a:	e8 00 00 00 00       	call   779f <test_queue+0x25c>
    779f:	83 f0 01             	xor    $0x1,%eax
    77a2:	84 c0                	test   %al,%al
    77a4:	74 1f                	je     77c5 <test_queue+0x282>
    77a6:	41 b8 85 03 00 00    	mov    $0x385,%r8d
    77ac:	48 8d 05 49 00 00 00 	lea    0x49(%rip),%rax        # 77fc <test_queue+0x2b9>
    77b3:	48 89 c2             	mov    %rax,%rdx
    77b6:	48 8d 05 5a 00 00 00 	lea    0x5a(%rip),%rax        # 7817 <test_queue+0x2d4>
    77bd:	48 89 c1             	mov    %rax,%rcx
    77c0:	e8 7e 88 ff ff       	call   43 <printf>
    77c5:	48 8d 45 d0          	lea    -0x30(%rbp),%rax
    77c9:	48 89 c1             	mov    %rax,%rcx
    77cc:	e8 00 00 00 00       	call   77d1 <test_queue+0x28e>
    77d1:	3c 74                	cmp    $0x74,%al
    77d3:	74 1f                	je     77f4 <test_queue+0x2b1>
    77d5:	41 b8 86 03 00 00    	mov    $0x386,%r8d
    77db:	48 8d 05 49 00 00 00 	lea    0x49(%rip),%rax        # 782b <test_queue+0x2e8>
    77e2:	48 89 c2             	mov    %rax,%rdx
    77e5:	48 8d 05 5a 00 00 00 	lea    0x5a(%rip),%rax        # 7846 <test_queue+0x303>
    77ec:	48 89 c1             	mov    %rax,%rcx
    77ef:	e8 4f 88 ff ff       	call   43 <printf>
    77f4:	48 8d 45 d0          	lea    -0x30(%rbp),%rax
    77f8:	48 89 c1             	mov    %rax,%rcx
    77fb:	e8 00 00 00 00       	call   7800 <test_queue+0x2bd>
    7800:	84 c0                	test   %al,%al
    7802:	74 1f                	je     7823 <test_queue+0x2e0>
    7804:	41 b8 87 03 00 00    	mov    $0x387,%r8d
    780a:	48 8d 05 49 00 00 00 	lea    0x49(%rip),%rax        # 785a <test_queue+0x317>
    7811:	48 89 c2             	mov    %rax,%rdx
    7814:	48 8d 05 5a 00 00 00 	lea    0x5a(%rip),%rax        # 7875 <test_queue+0x332>
    781b:	48 89 c1             	mov    %rax,%rcx
    781e:	e8 20 88 ff ff       	call   43 <printf>
    7823:	66 c7 45 c8 02 00    	movw   $0x2,-0x38(%rbp)
    7829:	66 c7 45 ca 04 00    	movw   $0x4,-0x36(%rbp)
    782f:	66 c7 45 cc 04 00    	movw   $0x4,-0x34(%rbp)
    7835:	66 c7 45 ce 04 00    	movw   $0x4,-0x32(%rbp)
    783b:	66 c7 45 ce 04 00    	movw   $0x4,-0x32(%rbp)
    7841:	66 c7 45 cc 00 00    	movw   $0x0,-0x34(%rbp)
    7847:	0f b7 45 ce          	movzwl -0x32(%rbp),%eax
    784b:	83 e8 01             	sub    $0x1,%eax
    784e:	66 89 45 c8          	mov    %ax,-0x38(%rbp)
    7852:	66 c7 45 ca 00 00    	movw   $0x0,-0x36(%rbp)
    7858:	0f b7 45 cc          	movzwl -0x34(%rbp),%eax
    785c:	66 85 c0             	test   %ax,%ax
    785f:	74 1f                	je     7880 <test_queue+0x33d>
    7861:	41 b8 8c 03 00 00    	mov    $0x38c,%r8d
    7867:	48 8d 05 49 00 00 00 	lea    0x49(%rip),%rax        # 78b7 <test_queue+0x374>
    786e:	48 89 c2             	mov    %rax,%rdx
    7871:	48 8d 05 5a 00 00 00 	lea    0x5a(%rip),%rax        # 78d2 <test_queue+0x38f>
    7878:	48 89 c1             	mov    %rax,%rcx
    787b:	e8 c3 87 ff ff       	call   43 <printf>
    7880:	0f b7 55 cc          	movzwl -0x34(%rbp),%edx
    7884:	0f b7 45 ce          	movzwl -0x32(%rbp),%eax
    7888:	66 39 c2             	cmp    %ax,%dx
    788b:	7c 1f                	jl     78ac <test_queue+0x369>
    788d:	41 b8 8d 03 00 00    	mov    $0x38d,%r8d
    7893:	48 8d 05 49 00 00 00 	lea    0x49(%rip),%rax        # 78e3 <test_queue+0x3a0>
    789a:	48 89 c2             	mov    %rax,%rdx
    789d:	48 8d 05 5a 00 00 00 	lea    0x5a(%rip),%rax        # 78fe <test_queue+0x3bb>
    78a4:	48 89 c1             	mov    %rax,%rcx
    78a7:	e8 97 87 ff ff       	call   43 <printf>
    78ac:	0f b7 45 c8          	movzwl -0x38(%rbp),%eax
    78b0:	83 c0 01             	add    $0x1,%eax
    78b3:	66 89 45 c8          	mov    %ax,-0x38(%rbp)
    78b7:	0f b7 55 c8          	movzwl -0x38(%rbp),%edx
    78bb:	0f b7 45 ce          	movzwl -0x32(%rbp),%eax
    78bf:	66 39 c2             	cmp    %ax,%dx
    78c2:	7c 06                	jl     78ca <test_queue+0x387>
    78c4:	66 c7 45 c8 00 00    	movw   $0x0,-0x38(%rbp)
    78ca:	0f b7 45 cc          	movzwl -0x34(%rbp),%eax
    78ce:	83 c0 01             	add    $0x1,%eax
    78d1:	66 89 45 cc          	mov    %ax,-0x34(%rbp)
    78d5:	0f b7 45 c8          	movzwl -0x38(%rbp),%eax
    78d9:	98                   	cwtl
    78da:	48 98                	cltq
    78dc:	c6 44 05 fb 74       	movb   $0x74,-0x5(%rbp,%rax,1)
    78e1:	0f b7 45 cc          	movzwl -0x34(%rbp),%eax
    78e5:	66 83 f8 01          	cmp    $0x1,%ax
    78e9:	74 1f                	je     790a <test_queue+0x3c7>
    78eb:	41 b8 8f 03 00 00    	mov    $0x38f,%r8d
    78f1:	48 8d 05 49 00 00 00 	lea    0x49(%rip),%rax        # 7941 <test_queue+0x3fe>
    78f8:	48 89 c2             	mov    %rax,%rdx
    78fb:	48 8d 05 5a 00 00 00 	lea    0x5a(%rip),%rax        # 795c <test_queue+0x419>
    7902:	48 89 c1             	mov    %rax,%rcx
    7905:	e8 39 87 ff ff       	call   43 <printf>
    790a:	0f b6 45 fb          	movzbl -0x5(%rbp),%eax
    790e:	3c 74                	cmp    $0x74,%al
    7910:	74 1f                	je     7931 <test_queue+0x3ee>
    7912:	41 b8 90 03 00 00    	mov    $0x390,%r8d
    7918:	48 8d 05 49 00 00 00 	lea    0x49(%rip),%rax        # 7968 <test_queue+0x425>
    791f:	48 89 c2             	mov    %rax,%rdx
    7922:	48 8d 05 5a 00 00 00 	lea    0x5a(%rip),%rax        # 7983 <test_queue+0x440>
    7929:	48 89 c1             	mov    %rax,%rcx
    792c:	e8 12 87 ff ff       	call   43 <printf>
    7931:	0f b7 45 c8          	movzwl -0x38(%rbp),%eax
    7935:	83 c0 01             	add    $0x1,%eax
    7938:	66 89 45 c8          	mov    %ax,-0x38(%rbp)
    793c:	0f b7 55 c8          	movzwl -0x38(%rbp),%edx
    7940:	0f b7 45 ce          	movzwl -0x32(%rbp),%eax
    7944:	66 39 c2             	cmp    %ax,%dx
    7947:	7c 06                	jl     794f <test_queue+0x40c>
    7949:	66 c7 45 c8 00 00    	movw   $0x0,-0x38(%rbp)
    794f:	0f b7 45 cc          	movzwl -0x34(%rbp),%eax
    7953:	83 c0 01             	add    $0x1,%eax
    7956:	66 89 45 cc          	mov    %ax,-0x34(%rbp)
    795a:	0f b7 45 c8          	movzwl -0x38(%rbp),%eax
    795e:	98                   	cwtl
    795f:	48 98                	cltq
    7961:	c6 44 05 fb 65       	movb   $0x65,-0x5(%rbp,%rax,1)
    7966:	0f b7 45 c8          	movzwl -0x38(%rbp),%eax
    796a:	83 c0 01             	add    $0x1,%eax
    796d:	66 89 45 c8          	mov    %ax,-0x38(%rbp)
    7971:	0f b7 55 c8          	movzwl -0x38(%rbp),%edx
    7975:	0f b7 45 ce          	movzwl -0x32(%rbp),%eax
    7979:	66 39 c2             	cmp    %ax,%dx
    797c:	7c 06                	jl     7984 <test_queue+0x441>
    797e:	66 c7 45 c8 00 00    	movw   $0x0,-0x38(%rbp)
    7984:	0f b7 45 cc          	movzwl -0x34(%rbp),%eax
    7988:	83 c0 01             	add    $0x1,%eax
    798b:	66 89 45 cc          	mov    %ax,-0x34(%rbp)
    798f:	0f b7 45 c8          	movzwl -0x38(%rbp),%eax
    7993:	98                   	cwtl
    7994:	48 98                	cltq
    7996:	c6 44 05 fb 73       	movb   $0x73,-0x5(%rbp,%rax,1)
    799b:	0f b7 55 cc          	movzwl -0x34(%rbp),%edx
    799f:	0f b7 45 ce          	movzwl -0x32(%rbp),%eax
    79a3:	66 39 c2             	cmp    %ax,%dx
    79a6:	7c 1f                	jl     79c7 <test_queue+0x484>
    79a8:	41 b8 93 03 00 00    	mov    $0x393,%r8d
    79ae:	48 8d 05 49 00 00 00 	lea    0x49(%rip),%rax        # 79fe <test_queue+0x4bb>
    79b5:	48 89 c2             	mov    %rax,%rdx
    79b8:	48 8d 05 5a 00 00 00 	lea    0x5a(%rip),%rax        # 7a19 <test_queue+0x4d6>
    79bf:	48 89 c1             	mov    %rax,%rcx
    79c2:	e8 7c 86 ff ff       	call   43 <printf>
    79c7:	0f b7 45 c8          	movzwl -0x38(%rbp),%eax
    79cb:	83 c0 01             	add    $0x1,%eax
    79ce:	66 89 45 c8          	mov    %ax,-0x38(%rbp)
    79d2:	0f b7 55 c8          	movzwl -0x38(%rbp),%edx
    79d6:	0f b7 45 ce          	movzwl -0x32(%rbp),%eax
    79da:	66 39 c2             	cmp    %ax,%dx
    79dd:	7c 06                	jl     79e5 <test_queue+0x4a2>
    79df:	66 c7 45 c8 00 00    	movw   $0x0,-0x38(%rbp)
    79e5:	0f b7 45 cc          	movzwl -0x34(%rbp),%eax
    79e9:	83 c0 01             	add    $0x1,%eax
    79ec:	66 89 45 cc          	mov    %ax,-0x34(%rbp)
    79f0:	0f b7 45 c8          	movzwl -0x38(%rbp),%eax
    79f4:	98                   	cwtl
    79f5:	48 98                	cltq
    79f7:	c6 44 05 fb 74       	movb   $0x74,-0x5(%rbp,%rax,1)
    79fc:	0f b7 55 cc          	movzwl -0x34(%rbp),%edx
    7a00:	0f b7 45 ce          	movzwl -0x32(%rbp),%eax
    7a04:	66 39 c2             	cmp    %ax,%dx
    7a07:	7d 1f                	jge    7a28 <test_queue+0x4e5>
    7a09:	41 b8 95 03 00 00    	mov    $0x395,%r8d
    7a0f:	48 8d 05 49 00 00 00 	lea    0x49(%rip),%rax        # 7a5f <test_queue+0x51c>
    7a16:	48 89 c2             	mov    %rax,%rdx
    7a19:	48 8d 05 5a 00 00 00 	lea    0x5a(%rip),%rax        # 7a7a <test_queue+0x537>
    7a20:	48 89 c1             	mov    %rax,%rcx
    7a23:	e8 1b 86 ff ff       	call   43 <printf>
    7a28:	0f b6 45 fe          	movzbl -0x2(%rbp),%eax
    7a2c:	3c 74                	cmp    $0x74,%al
    7a2e:	74 1f                	je     7a4f <test_queue+0x50c>
    7a30:	41 b8 96 03 00 00    	mov    $0x396,%r8d
    7a36:	48 8d 05 49 00 00 00 	lea    0x49(%rip),%rax        # 7a86 <test_queue+0x543>
    7a3d:	48 89 c2             	mov    %rax,%rdx
    7a40:	48 8d 05 5a 00 00 00 	lea    0x5a(%rip),%rax        # 7aa1 <test_queue+0x55e>
    7a47:	48 89 c1             	mov    %rax,%rcx
    7a4a:	e8 f4 85 ff ff       	call   43 <printf>
    7a4f:	0f b7 45 ca          	movzwl -0x36(%rbp),%eax
    7a53:	98                   	cwtl
    7a54:	48 98                	cltq
    7a56:	0f b6 44 05 fb       	movzbl -0x5(%rbp,%rax,1),%eax
    7a5b:	88 45 ff             	mov    %al,-0x1(%rbp)
    7a5e:	0f b7 45 ca          	movzwl -0x36(%rbp),%eax
    7a62:	83 c0 01             	add    $0x1,%eax
    7a65:	66 89 45 ca          	mov    %ax,-0x36(%rbp)
    7a69:	0f b7 55 ca          	movzwl -0x36(%rbp),%edx
    7a6d:	0f b7 45 ce          	movzwl -0x32(%rbp),%eax
    7a71:	66 39 c2             	cmp    %ax,%dx
    7a74:	7c 06                	jl     7a7c <test_queue+0x539>
    7a76:	66 c7 45 ca 00 00    	movw   $0x0,-0x36(%rbp)
    7a7c:	0f b7 45 cc          	movzwl -0x34(%rbp),%eax
    7a80:	83 e8 01             	sub    $0x1,%eax
    7a83:	66 89 45 cc          	mov    %ax,-0x34(%rbp)
    7a87:	80 7d ff 74          	cmpb   $0x74,-0x1(%rbp)
    7a8b:	74 1f                	je     7aac <test_queue+0x569>
    7a8d:	41 b8 99 03 00 00    	mov    $0x399,%r8d
    7a93:	48 8d 05 49 00 00 00 	lea    0x49(%rip),%rax        # 7ae3 <test_queue+0x5a0>
    7a9a:	48 89 c2             	mov    %rax,%rdx
    7a9d:	48 8d 05 5a 00 00 00 	lea    0x5a(%rip),%rax        # 7afe <test_queue+0x5bb>
    7aa4:	48 89 c1             	mov    %rax,%rcx
    7aa7:	e8 97 85 ff ff       	call   43 <printf>
    7aac:	0f b7 45 ca          	movzwl -0x36(%rbp),%eax
    7ab0:	98                   	cwtl
    7ab1:	48 98                	cltq
    7ab3:	0f b6 44 05 fb       	movzbl -0x5(%rbp,%rax,1),%eax
    7ab8:	88 45 ff             	mov    %al,-0x1(%rbp)
    7abb:	0f b7 45 ca          	movzwl -0x36(%rbp),%eax
    7abf:	83 c0 01             	add    $0x1,%eax
    7ac2:	66 89 45 ca          	mov    %ax,-0x36(%rbp)
    7ac6:	0f b7 55 ca          	movzwl -0x36(%rbp),%edx
    7aca:	0f b7 45 ce          	movzwl -0x32(%rbp),%eax
    7ace:	66 39 c2             	cmp    %ax,%dx
    7ad1:	7c 06                	jl     7ad9 <test_queue+0x596>
    7ad3:	66 c7 45 ca 00 00    	movw   $0x0,-0x36(%rbp)
    7ad9:	0f b7 45 cc          	movzwl -0x34(%rbp),%eax
    7add:	83 e8 01             	sub    $0x1,%eax
    7ae0:	66 89 45 cc          	mov    %ax,-0x34(%rbp)
    7ae4:	80 7d ff 65          	cmpb   $0x65,-0x1(%rbp)
    7ae8:	74 1f                	je     7b09 <test_queue+0x5c6>
    7aea:	41 b8 9b 03 00 00    	mov    $0x39b,%r8d
    7af0:	48 8d 05 49 00 00 00 	lea    0x49(%rip),%rax        # 7b40 <test_queue+0x5fd>
    7af7:	48 89 c2             	mov    %rax,%rdx
    7afa:	48 8d 05 5a 00 00 00 	lea    0x5a(%rip),%rax        # 7b5b <test_queue+0x618>
    7b01:	48 89 c1             	mov    %rax,%rcx
    7b04:	e8 3a 85 ff ff       	call   43 <printf>
    7b09:	0f b7 45 ca          	movzwl -0x36(%rbp),%eax
    7b0d:	98                   	cwtl
    7b0e:	48 98                	cltq
    7b10:	0f b6 44 05 fb       	movzbl -0x5(%rbp,%rax,1),%eax
    7b15:	88 45 ff             	mov    %al,-0x1(%rbp)
    7b18:	0f b7 45 ca          	movzwl -0x36(%rbp),%eax
    7b1c:	83 c0 01             	add    $0x1,%eax
    7b1f:	66 89 45 ca          	mov    %ax,-0x36(%rbp)
    7b23:	0f b7 55 ca          	movzwl -0x36(%rbp),%edx
    7b27:	0f b7 45 ce          	movzwl -0x32(%rbp),%eax
    7b2b:	66 39 c2             	cmp    %ax,%dx
    7b2e:	7c 06                	jl     7b36 <test_queue+0x5f3>
    7b30:	66 c7 45 ca 00 00    	movw   $0x0,-0x36(%rbp)
    7b36:	0f b7 45 cc          	movzwl -0x34(%rbp),%eax
    7b3a:	83 e8 01             	sub    $0x1,%eax
    7b3d:	66 89 45 cc          	mov    %ax,-0x34(%rbp)
    7b41:	80 7d ff 73          	cmpb   $0x73,-0x1(%rbp)
    7b45:	74 1f                	je     7b66 <test_queue+0x623>
    7b47:	41 b8 9d 03 00 00    	mov    $0x39d,%r8d
    7b4d:	48 8d 05 49 00 00 00 	lea    0x49(%rip),%rax        # 7b9d <test_queue+0x65a>
    7b54:	48 89 c2             	mov    %rax,%rdx
    7b57:	48 8d 05 5a 00 00 00 	lea    0x5a(%rip),%rax        # 7bb8 <test_queue+0x675>
    7b5e:	48 89 c1             	mov    %rax,%rcx
    7b61:	e8 dd 84 ff ff       	call   43 <printf>
    7b66:	0f b7 45 cc          	movzwl -0x34(%rbp),%eax
    7b6a:	66 85 c0             	test   %ax,%ax
    7b6d:	7f 1f                	jg     7b8e <test_queue+0x64b>
    7b6f:	41 b8 9e 03 00 00    	mov    $0x39e,%r8d
    7b75:	48 8d 05 49 00 00 00 	lea    0x49(%rip),%rax        # 7bc5 <test_queue+0x682>
    7b7c:	48 89 c2             	mov    %rax,%rdx
    7b7f:	48 8d 05 5a 00 00 00 	lea    0x5a(%rip),%rax        # 7be0 <test_queue+0x69d>
    7b86:	48 89 c1             	mov    %rax,%rcx
    7b89:	e8 b5 84 ff ff       	call   43 <printf>
    7b8e:	0f b7 45 ca          	movzwl -0x36(%rbp),%eax
    7b92:	98                   	cwtl
    7b93:	48 98                	cltq
    7b95:	0f b6 44 05 fb       	movzbl -0x5(%rbp,%rax,1),%eax
    7b9a:	88 45 ff             	mov    %al,-0x1(%rbp)
    7b9d:	0f b7 45 ca          	movzwl -0x36(%rbp),%eax
    7ba1:	83 c0 01             	add    $0x1,%eax
    7ba4:	66 89 45 ca          	mov    %ax,-0x36(%rbp)
    7ba8:	0f b7 55 ca          	movzwl -0x36(%rbp),%edx
    7bac:	0f b7 45 ce          	movzwl -0x32(%rbp),%eax
    7bb0:	66 39 c2             	cmp    %ax,%dx
    7bb3:	7c 06                	jl     7bbb <test_queue+0x678>
    7bb5:	66 c7 45 ca 00 00    	movw   $0x0,-0x36(%rbp)
    7bbb:	0f b7 45 cc          	movzwl -0x34(%rbp),%eax
    7bbf:	83 e8 01             	sub    $0x1,%eax
    7bc2:	66 89 45 cc          	mov    %ax,-0x34(%rbp)
    7bc6:	80 7d ff 74          	cmpb   $0x74,-0x1(%rbp)
    7bca:	74 1f                	je     7beb <test_queue+0x6a8>
    7bcc:	41 b8 a0 03 00 00    	mov    $0x3a0,%r8d
    7bd2:	48 8d 05 49 00 00 00 	lea    0x49(%rip),%rax        # 7c22 <test_ain+0x8>
    7bd9:	48 89 c2             	mov    %rax,%rdx
    7bdc:	48 8d 05 5a 00 00 00 	lea    0x5a(%rip),%rax        # 7c3d <test_ain+0x23>
    7be3:	48 89 c1             	mov    %rax,%rcx
    7be6:	e8 58 84 ff ff       	call   43 <printf>
    7beb:	0f b7 45 cc          	movzwl -0x34(%rbp),%eax
    7bef:	66 85 c0             	test   %ax,%ax
    7bf2:	7e 1f                	jle    7c13 <test_queue+0x6d0>
    7bf4:	41 b8 a1 03 00 00    	mov    $0x3a1,%r8d
    7bfa:	48 8d 05 49 00 00 00 	lea    0x49(%rip),%rax        # 7c4a <test_ain+0x30>
    7c01:	48 89 c2             	mov    %rax,%rdx
    7c04:	48 8d 05 5a 00 00 00 	lea    0x5a(%rip),%rax        # 7c65 <test_ain+0x4b>
    7c0b:	48 89 c1             	mov    %rax,%rcx
    7c0e:	e8 30 84 ff ff       	call   43 <printf>
    7c13:	90                   	nop
    7c14:	48 83 c4 60          	add    $0x60,%rsp
    7c18:	5d                   	pop    %rbp
    7c19:	c3                   	ret

0000000000007c1a <test_ain>:
    7c1a:	55                   	push   %rbp
    7c1b:	48 89 e5             	mov    %rsp,%rbp
    7c1e:	48 83 ec 40          	sub    $0x40,%rsp
    7c22:	48 8d 05 1c 05 00 00 	lea    0x51c(%rip),%rax        # 8145 <test_expavg+0x16>
    7c29:	48 89 c1             	mov    %rax,%rcx
    7c2c:	e8 12 84 ff ff       	call   43 <printf>
    7c31:	c7 45 e0 00 00 00 00 	movl   $0x0,-0x20(%rbp)
    7c38:	66 0f ef c0          	pxor   %xmm0,%xmm0
    7c3c:	f3 0f 11 45 e4       	movss  %xmm0,-0x1c(%rbp)
    7c41:	f3 0f 10 05 9c 07 00 	movss  0x79c(%rip),%xmm0        # 83e5 <test_expavg+0x2b6>
    7c48:	00 
    7c49:	f3 0f 11 45 e8       	movss  %xmm0,-0x18(%rbp)
    7c4e:	f3 0f 10 05 ac 07 00 	movss  0x7ac(%rip),%xmm0        # 8402 <test_expavg+0x2d3>
    7c55:	00 
    7c56:	f3 0f 11 45 ec       	movss  %xmm0,-0x14(%rbp)
    7c5b:	48 8d 45 e0          	lea    -0x20(%rbp),%rax
    7c5f:	f3 0f 10 0d a0 07 00 	movss  0x7a0(%rip),%xmm1        # 8407 <test_expavg+0x2d8>
    7c66:	00 
    7c67:	48 89 c1             	mov    %rax,%rcx
    7c6a:	e8 00 00 00 00       	call   7c6f <test_ain+0x55>
    7c6f:	66 0f 7e c0          	movd   %xmm0,%eax
    7c73:	89 45 fc             	mov    %eax,-0x4(%rbp)
    7c76:	f3 0f 10 45 fc       	movss  -0x4(%rbp),%xmm0
    7c7b:	0f 2e 05 74 08 00 00 	ucomiss 0x874(%rip),%xmm0        # 84f6 <test_df2x+0xbd>
    7c82:	7a 0e                	jp     7c92 <test_ain+0x78>
    7c84:	f3 0f 10 45 fc       	movss  -0x4(%rbp),%xmm0
    7c89:	0f 2e 05 74 08 00 00 	ucomiss 0x874(%rip),%xmm0        # 8504 <test_df2x+0xcb>
    7c90:	74 1f                	je     7cb1 <test_ain+0x97>
    7c92:	41 b8 ad 03 00 00    	mov    $0x3ad,%r8d
    7c98:	48 8d 05 49 00 00 00 	lea    0x49(%rip),%rax        # 7ce8 <test_ain+0xce>
    7c9f:	48 89 c2             	mov    %rax,%rdx
    7ca2:	48 8d 05 5a 00 00 00 	lea    0x5a(%rip),%rax        # 7d03 <test_ain+0xe9>
    7ca9:	48 89 c1             	mov    %rax,%rcx
    7cac:	e8 92 83 ff ff       	call   43 <printf>
    7cb1:	48 8d 45 e0          	lea    -0x20(%rbp),%rax
    7cb5:	f3 0f 10 0d bc 07 00 	movss  0x7bc(%rip),%xmm1        # 8479 <test_df2x+0x40>
    7cbc:	00 
    7cbd:	48 89 c1             	mov    %rax,%rcx
    7cc0:	e8 00 00 00 00       	call   7cc5 <test_ain+0xab>
    7cc5:	66 0f 7e c0          	movd   %xmm0,%eax
    7cc9:	89 45 fc             	mov    %eax,-0x4(%rbp)
    7ccc:	f3 0f 10 45 fc       	movss  -0x4(%rbp),%xmm0
    7cd1:	0f 2e 05 ec 07 00 00 	ucomiss 0x7ec(%rip),%xmm0        # 84c4 <test_df2x+0x8b>
    7cd8:	7a 0e                	jp     7ce8 <test_ain+0xce>
    7cda:	f3 0f 10 45 fc       	movss  -0x4(%rbp),%xmm0
    7cdf:	0f 2e 05 ec 07 00 00 	ucomiss 0x7ec(%rip),%xmm0        # 84d2 <test_df2x+0x99>
    7ce6:	74 1f                	je     7d07 <test_ain+0xed>
    7ce8:	41 b8 af 03 00 00    	mov    $0x3af,%r8d
    7cee:	48 8d 05 49 00 00 00 	lea    0x49(%rip),%rax        # 7d3e <test_ain+0x124>
    7cf5:	48 89 c2             	mov    %rax,%rdx
    7cf8:	48 8d 05 5a 00 00 00 	lea    0x5a(%rip),%rax        # 7d59 <test_ain+0x13f>
    7cff:	48 89 c1             	mov    %rax,%rcx
    7d02:	e8 3c 83 ff ff       	call   43 <printf>
    7d07:	48 8d 45 e0          	lea    -0x20(%rbp),%rax
    7d0b:	f3 0f 10 0d 78 08 00 	movss  0x878(%rip),%xmm1        # 858b <test_df2x+0x152>
    7d12:	00 
    7d13:	48 89 c1             	mov    %rax,%rcx
    7d16:	e8 00 00 00 00       	call   7d1b <test_ain+0x101>
    7d1b:	48 8d 45 e0          	lea    -0x20(%rbp),%rax
    7d1f:	f3 0f 10 0d bc 07 00 	movss  0x7bc(%rip),%xmm1        # 84e3 <test_df2x+0xaa>
    7d26:	00 
    7d27:	48 89 c1             	mov    %rax,%rcx
    7d2a:	e8 00 00 00 00       	call   7d2f <test_ain+0x115>
    7d2f:	66 0f 7e c0          	movd   %xmm0,%eax
    7d33:	89 45 fc             	mov    %eax,-0x4(%rbp)
    7d36:	f3 0f 10 45 fc       	movss  -0x4(%rbp),%xmm0
    7d3b:	0f 2e 05 78 08 00 00 	ucomiss 0x878(%rip),%xmm0        # 85ba <test_df2x+0x181>
    7d42:	7a 0e                	jp     7d52 <test_ain+0x138>
    7d44:	f3 0f 10 45 fc       	movss  -0x4(%rbp),%xmm0
    7d49:	0f 2e 05 78 08 00 00 	ucomiss 0x878(%rip),%xmm0        # 85c8 <test_df2x+0x18f>
    7d50:	74 1f                	je     7d71 <test_ain+0x157>
    7d52:	41 b8 b2 03 00 00    	mov    $0x3b2,%r8d
    7d58:	48 8d 05 49 00 00 00 	lea    0x49(%rip),%rax        # 7da8 <test_ain+0x18e>
    7d5f:	48 89 c2             	mov    %rax,%rdx
    7d62:	48 8d 05 5a 00 00 00 	lea    0x5a(%rip),%rax        # 7dc3 <test_ain+0x1a9>
    7d69:	48 89 c1             	mov    %rax,%rcx
    7d6c:	e8 d2 82 ff ff       	call   43 <printf>
    7d71:	48 8d 45 e0          	lea    -0x20(%rbp),%rax
    7d75:	48 89 c1             	mov    %rax,%rcx
    7d78:	e8 00 00 00 00       	call   7d7d <test_ain+0x163>
    7d7d:	48 8d 45 e0          	lea    -0x20(%rbp),%rax
    7d81:	f3 0f 10 0d bc 07 00 	movss  0x7bc(%rip),%xmm1        # 8545 <test_df2x+0x10c>
    7d88:	00 
    7d89:	48 89 c1             	mov    %rax,%rcx
    7d8c:	e8 00 00 00 00       	call   7d91 <test_ain+0x177>
    7d91:	66 0f 7e c0          	movd   %xmm0,%eax
    7d95:	89 45 fc             	mov    %eax,-0x4(%rbp)
    7d98:	f3 0f 10 45 fc       	movss  -0x4(%rbp),%xmm0
    7d9d:	0f 2e 05 ec 07 00 00 	ucomiss 0x7ec(%rip),%xmm0        # 8590 <test_df2x+0x157>
    7da4:	7a 0e                	jp     7db4 <test_ain+0x19a>
    7da6:	f3 0f 10 45 fc       	movss  -0x4(%rbp),%xmm0
    7dab:	0f 2e 05 ec 07 00 00 	ucomiss 0x7ec(%rip),%xmm0        # 859e <test_df2x+0x165>
    7db2:	74 1f                	je     7dd3 <test_ain+0x1b9>
    7db4:	41 b8 b5 03 00 00    	mov    $0x3b5,%r8d
    7dba:	48 8d 05 49 00 00 00 	lea    0x49(%rip),%rax        # 7e0a <test_ain+0x1f0>
    7dc1:	48 89 c2             	mov    %rax,%rdx
    7dc4:	48 8d 05 5a 00 00 00 	lea    0x5a(%rip),%rax        # 7e25 <test_ain+0x20b>
    7dcb:	48 89 c1             	mov    %rax,%rcx
    7dce:	e8 70 82 ff ff       	call   43 <printf>
    7dd3:	48 8d 45 e0          	lea    -0x20(%rbp),%rax
    7dd7:	f3 0f 10 0d b8 07 00 	movss  0x7b8(%rip),%xmm1        # 8597 <test_df2x+0x15e>
    7dde:	00 
    7ddf:	48 89 c1             	mov    %rax,%rcx
    7de2:	e8 00 00 00 00       	call   7de7 <test_ain+0x1cd>
    7de7:	48 8d 45 e0          	lea    -0x20(%rbp),%rax
    7deb:	f3 0f 10 0d bc 07 00 	movss  0x7bc(%rip),%xmm1        # 85af <test_df2x+0x176>
    7df2:	00 
    7df3:	48 89 c1             	mov    %rax,%rcx
    7df6:	e8 00 00 00 00       	call   7dfb <test_ain+0x1e1>
    7dfb:	66 0f 7e c0          	movd   %xmm0,%eax
    7dff:	89 45 fc             	mov    %eax,-0x4(%rbp)
    7e02:	f3 0f 10 45 fc       	movss  -0x4(%rbp),%xmm0
    7e07:	0f 2e 05 ac 07 00 00 	ucomiss 0x7ac(%rip),%xmm0        # 85ba <test_df2x+0x181>
    7e0e:	7a 0e                	jp     7e1e <test_ain+0x204>
    7e10:	f3 0f 10 45 fc       	movss  -0x4(%rbp),%xmm0
    7e15:	0f 2e 05 ac 07 00 00 	ucomiss 0x7ac(%rip),%xmm0        # 85c8 <test_df2x+0x18f>
    7e1c:	74 1f                	je     7e3d <test_ain+0x223>
    7e1e:	41 b8 b8 03 00 00    	mov    $0x3b8,%r8d
    7e24:	48 8d 05 49 00 00 00 	lea    0x49(%rip),%rax        # 7e74 <test_ain_calibrate+0x30>
    7e2b:	48 89 c2             	mov    %rax,%rdx
    7e2e:	48 8d 05 5a 00 00 00 	lea    0x5a(%rip),%rax        # 7e8f <test_ain_calibrate+0x4b>
    7e35:	48 89 c1             	mov    %rax,%rcx
    7e38:	e8 06 82 ff ff       	call   43 <printf>
    7e3d:	90                   	nop
    7e3e:	48 83 c4 40          	add    $0x40,%rsp
    7e42:	5d                   	pop    %rbp
    7e43:	c3                   	ret

0000000000007e44 <test_ain_calibrate>:
    7e44:	55                   	push   %rbp
    7e45:	48 89 e5             	mov    %rsp,%rbp
    7e48:	48 83 ec 40          	sub    $0x40,%rsp
    7e4c:	48 8d 05 38 05 00 00 	lea    0x538(%rip),%rax        # 838b <test_expavg+0x25c>
    7e53:	48 89 c1             	mov    %rax,%rcx
    7e56:	e8 e8 81 ff ff       	call   43 <printf>
    7e5b:	c7 45 e0 00 00 00 00 	movl   $0x0,-0x20(%rbp)
    7e62:	66 0f ef c0          	pxor   %xmm0,%xmm0
    7e66:	f3 0f 11 45 e4       	movss  %xmm0,-0x1c(%rbp)
    7e6b:	f3 0f 10 05 9c 07 00 	movss  0x79c(%rip),%xmm0        # 860f <test_df2x+0x1d6>
    7e72:	00 
    7e73:	f3 0f 11 45 e8       	movss  %xmm0,-0x18(%rbp)
    7e78:	f3 0f 10 05 ac 07 00 	movss  0x7ac(%rip),%xmm0        # 862c <test_df2x+0x1f3>
    7e7f:	00 
    7e80:	f3 0f 11 45 ec       	movss  %xmm0,-0x14(%rbp)
    7e85:	48 8d 45 e0          	lea    -0x20(%rbp),%rax
    7e89:	f3 0f 10 0d a0 07 00 	movss  0x7a0(%rip),%xmm1        # 8631 <test_df2x+0x1f8>
    7e90:	00 
    7e91:	48 89 c1             	mov    %rax,%rcx
    7e94:	e8 00 00 00 00       	call   7e99 <test_ain_calibrate+0x55>
    7e99:	66 0f 7e c0          	movd   %xmm0,%eax
    7e9d:	89 45 fc             	mov    %eax,-0x4(%rbp)
    7ea0:	f3 0f 10 45 fc       	movss  -0x4(%rbp),%xmm0
    7ea5:	0f 2e 05 74 08 00 00 	ucomiss 0x874(%rip),%xmm0        # 8720 <test_df2x+0x2e7>
    7eac:	7a 0e                	jp     7ebc <test_ain_calibrate+0x78>
    7eae:	f3 0f 10 45 fc       	movss  -0x4(%rbp),%xmm0
    7eb3:	0f 2e 05 74 08 00 00 	ucomiss 0x874(%rip),%xmm0        # 872e <test_df2x+0x2f5>
    7eba:	74 1f                	je     7edb <test_ain_calibrate+0x97>
    7ebc:	41 b8 c4 03 00 00    	mov    $0x3c4,%r8d
    7ec2:	48 8d 05 49 00 00 00 	lea    0x49(%rip),%rax        # 7f12 <test_ain_calibrate+0xce>
    7ec9:	48 89 c2             	mov    %rax,%rdx
    7ecc:	48 8d 05 5a 00 00 00 	lea    0x5a(%rip),%rax        # 7f2d <test_ain_calibrate+0xe9>
    7ed3:	48 89 c1             	mov    %rax,%rcx
    7ed6:	e8 68 81 ff ff       	call   43 <printf>
    7edb:	8b 45 e8             	mov    -0x18(%rbp),%eax
    7ede:	f3 0f 10 15 f8 07 00 	movss  0x7f8(%rip),%xmm2        # 86de <test_df2x+0x2a5>
    7ee5:	00 
    7ee6:	f3 0f 10 0d ac 07 00 	movss  0x7ac(%rip),%xmm1        # 869a <test_df2x+0x261>
    7eed:	00 
    7eee:	66 0f 6e c0          	movd   %eax,%xmm0
    7ef2:	e8 00 00 00 00       	call   7ef7 <test_ain_calibrate+0xb3>
    7ef7:	66 0f 7e c0          	movd   %xmm0,%eax
    7efb:	89 45 f8             	mov    %eax,-0x8(%rbp)
    7efe:	f3 0f 10 05 a0 07 00 	movss  0x7a0(%rip),%xmm0        # 86a6 <test_df2x+0x26d>
    7f05:	00 
    7f06:	0f 2e 45 f8          	ucomiss -0x8(%rbp),%xmm0
    7f0a:	7a 0e                	jp     7f1a <test_ain_calibrate+0xd6>
    7f0c:	f3 0f 10 05 a0 07 00 	movss  0x7a0(%rip),%xmm0        # 86b4 <test_df2x+0x27b>
    7f13:	00 
    7f14:	0f 2e 45 f8          	ucomiss -0x8(%rbp),%xmm0
    7f18:	74 1f                	je     7f39 <test_ain_calibrate+0xf5>
    7f1a:	41 b8 c6 03 00 00    	mov    $0x3c6,%r8d
    7f20:	48 8d 05 49 00 00 00 	lea    0x49(%rip),%rax        # 7f70 <test_ain_calibrate+0x12c>
    7f27:	48 89 c2             	mov    %rax,%rdx
    7f2a:	48 8d 05 5a 00 00 00 	lea    0x5a(%rip),%rax        # 7f8b <test_ain_calibrate+0x147>
    7f31:	48 89 c1             	mov    %rax,%rcx
    7f34:	e8 0a 81 ff ff       	call   43 <printf>
    7f39:	8b 45 ec             	mov    -0x14(%rbp),%eax
    7f3c:	f3 0f 10 15 ac 07 00 	movss  0x7ac(%rip),%xmm2        # 86f0 <test_df2x+0x2b7>
    7f43:	00 
    7f44:	66 0f ef c9          	pxor   %xmm1,%xmm1
    7f48:	66 0f 6e c0          	movd   %eax,%xmm0
    7f4c:	e8 00 00 00 00       	call   7f51 <test_ain_calibrate+0x10d>
    7f51:	66 0f 7e c0          	movd   %xmm0,%eax
    7f55:	89 45 f4             	mov    %eax,-0xc(%rbp)
    7f58:	66 0f ef c0          	pxor   %xmm0,%xmm0
    7f5c:	0f 2e 45 f4          	ucomiss -0xc(%rbp),%xmm0
    7f60:	7a 0a                	jp     7f6c <test_ain_calibrate+0x128>
    7f62:	66 0f ef c0          	pxor   %xmm0,%xmm0
    7f66:	0f 2e 45 f4          	ucomiss -0xc(%rbp),%xmm0
    7f6a:	74 1f                	je     7f8b <test_ain_calibrate+0x147>
    7f6c:	41 b8 c8 03 00 00    	mov    $0x3c8,%r8d
    7f72:	48 8d 05 49 00 00 00 	lea    0x49(%rip),%rax        # 7fc2 <test_minmax+0x30>
    7f79:	48 89 c2             	mov    %rax,%rdx
    7f7c:	48 8d 05 5a 00 00 00 	lea    0x5a(%rip),%rax        # 7fdd <test_minmax+0x4b>
    7f83:	48 89 c1             	mov    %rax,%rcx
    7f86:	e8 b8 80 ff ff       	call   43 <printf>
    7f8b:	90                   	nop
    7f8c:	48 83 c4 40          	add    $0x40,%rsp
    7f90:	5d                   	pop    %rbp
    7f91:	c3                   	ret

0000000000007f92 <test_minmax>:
    7f92:	55                   	push   %rbp
    7f93:	48 89 e5             	mov    %rsp,%rbp
    7f96:	48 83 ec 30          	sub    $0x30,%rsp
    7f9a:	48 8d 05 5d 05 00 00 	lea    0x55d(%rip),%rax        # 84fe <test_df2x+0xc5>
    7fa1:	48 89 c1             	mov    %rax,%rcx
    7fa4:	e8 9a 80 ff ff       	call   43 <printf>
    7fa9:	48 c7 45 f4 00 00 00 	movq   $0x0,-0xc(%rbp)
    7fb0:	00 
    7fb1:	c7 45 fc 00 00 00 00 	movl   $0x0,-0x4(%rbp)
    7fb8:	48 8d 45 f4          	lea    -0xc(%rbp),%rax
    7fbc:	48 89 c1             	mov    %rax,%rcx
    7fbf:	e8 00 00 00 00       	call   7fc4 <test_minmax+0x32>
    7fc4:	48 8d 45 f4          	lea    -0xc(%rbp),%rax
    7fc8:	66 0f ef c9          	pxor   %xmm1,%xmm1
    7fcc:	48 89 c1             	mov    %rax,%rcx
    7fcf:	e8 00 00 00 00       	call   7fd4 <test_minmax+0x42>
    7fd4:	f3 0f 10 45 f4       	movss  -0xc(%rbp),%xmm0
    7fd9:	66 0f ef c9          	pxor   %xmm1,%xmm1
    7fdd:	0f 2e c1             	ucomiss %xmm1,%xmm0
    7fe0:	7a 37                	jp     8019 <test_minmax+0x87>
    7fe2:	66 0f ef c9          	pxor   %xmm1,%xmm1
    7fe6:	0f 2e c1             	ucomiss %xmm1,%xmm0
    7fe9:	75 2e                	jne    8019 <test_minmax+0x87>
    7feb:	f3 0f 10 45 f8       	movss  -0x8(%rbp),%xmm0
    7ff0:	66 0f ef c9          	pxor   %xmm1,%xmm1
    7ff4:	0f 2e c1             	ucomiss %xmm1,%xmm0
    7ff7:	7a 20                	jp     8019 <test_minmax+0x87>
    7ff9:	66 0f ef c9          	pxor   %xmm1,%xmm1
    7ffd:	0f 2e c1             	ucomiss %xmm1,%xmm0
    8000:	75 17                	jne    8019 <test_minmax+0x87>
    8002:	f3 0f 10 45 fc       	movss  -0x4(%rbp),%xmm0
    8007:	66 0f ef c9          	pxor   %xmm1,%xmm1
    800b:	0f 2e c1             	ucomiss %xmm1,%xmm0
    800e:	7a 09                	jp     8019 <test_minmax+0x87>
    8010:	66 0f ef c9          	pxor   %xmm1,%xmm1
    8014:	0f 2e c1             	ucomiss %xmm1,%xmm0
    8017:	74 1f                	je     8038 <test_minmax+0xa6>
    8019:	41 b8 d1 03 00 00    	mov    $0x3d1,%r8d
    801f:	48 8d 05 49 00 00 00 	lea    0x49(%rip),%rax        # 806f <test_minmax+0xdd>
    8026:	48 89 c2             	mov    %rax,%rdx
    8029:	48 8d 05 5a 00 00 00 	lea    0x5a(%rip),%rax        # 808a <test_minmax+0xf8>
    8030:	48 89 c1             	mov    %rax,%rcx
    8033:	e8 0b 80 ff ff       	call   43 <printf>
    8038:	48 8d 45 f4          	lea    -0xc(%rbp),%rax
    803c:	f3 0f 10 0d ac 07 00 	movss  0x7ac(%rip),%xmm1        # 87f0 <test_df2x+0x3b7>
    8043:	00 
    8044:	48 89 c1             	mov    %rax,%rcx
    8047:	e8 00 00 00 00       	call   804c <test_minmax+0xba>
    804c:	f3 0f 10 45 f4       	movss  -0xc(%rbp),%xmm0
    8051:	66 0f ef c9          	pxor   %xmm1,%xmm1
    8055:	0f 2e c1             	ucomiss %xmm1,%xmm0
    8058:	7a 37                	jp     8091 <test_minmax+0xff>
    805a:	66 0f ef c9          	pxor   %xmm1,%xmm1
    805e:	0f 2e c1             	ucomiss %xmm1,%xmm0
    8061:	75 2e                	jne    8091 <test_minmax+0xff>
    8063:	f3 0f 10 45 f8       	movss  -0x8(%rbp),%xmm0
    8068:	0f 2e 05 ac 07 00 00 	ucomiss 0x7ac(%rip),%xmm0        # 881b <test_df2x+0x3e2>
    806f:	7a 20                	jp     8091 <test_minmax+0xff>
    8071:	0f 2e 05 ac 07 00 00 	ucomiss 0x7ac(%rip),%xmm0        # 8824 <test_df2x+0x3eb>
    8078:	75 17                	jne    8091 <test_minmax+0xff>
    807a:	f3 0f 10 45 fc       	movss  -0x4(%rbp),%xmm0
    807f:	0f 2e 05 ac 07 00 00 	ucomiss 0x7ac(%rip),%xmm0        # 8832 <test_df2x+0x3f9>
    8086:	7a 09                	jp     8091 <test_minmax+0xff>
    8088:	0f 2e 05 ac 07 00 00 	ucomiss 0x7ac(%rip),%xmm0        # 883b <test_df2x+0x402>
    808f:	74 1f                	je     80b0 <test_minmax+0x11e>
    8091:	41 b8 d4 03 00 00    	mov    $0x3d4,%r8d
    8097:	48 8d 05 49 00 00 00 	lea    0x49(%rip),%rax        # 80e7 <test_minmax+0x155>
    809e:	48 89 c2             	mov    %rax,%rdx
    80a1:	48 8d 05 5a 00 00 00 	lea    0x5a(%rip),%rax        # 8102 <test_minmax+0x170>
    80a8:	48 89 c1             	mov    %rax,%rcx
    80ab:	e8 93 7f ff ff       	call   43 <printf>
    80b0:	48 8d 45 f4          	lea    -0xc(%rbp),%rax
    80b4:	f3 0f 10 0d 3c 08 00 	movss  0x83c(%rip),%xmm1        # 88f8 <test_df2x+0x4bf>
    80bb:	00 
    80bc:	48 89 c1             	mov    %rax,%rcx
    80bf:	e8 00 00 00 00       	call   80c4 <test_minmax+0x132>
    80c4:	f3 0f 10 45 f4       	movss  -0xc(%rbp),%xmm0
    80c9:	0f 2e 05 3c 08 00 00 	ucomiss 0x83c(%rip),%xmm0        # 890c <test_df2x+0x4d3>
    80d0:	7a 37                	jp     8109 <test_minmax+0x177>
    80d2:	0f 2e 05 3c 08 00 00 	ucomiss 0x83c(%rip),%xmm0        # 8915 <test_df2x+0x4dc>
    80d9:	75 2e                	jne    8109 <test_minmax+0x177>
    80db:	f3 0f 10 45 f8       	movss  -0x8(%rbp),%xmm0
    80e0:	0f 2e 05 ac 07 00 00 	ucomiss 0x7ac(%rip),%xmm0        # 8893 <test_df2x+0x45a>
    80e7:	7a 20                	jp     8109 <test_minmax+0x177>
    80e9:	0f 2e 05 ac 07 00 00 	ucomiss 0x7ac(%rip),%xmm0        # 889c <test_df2x+0x463>
    80f0:	75 17                	jne    8109 <test_minmax+0x177>
    80f2:	f3 0f 10 45 fc       	movss  -0x4(%rbp),%xmm0
    80f7:	0f 2e 05 f8 07 00 00 	ucomiss 0x7f8(%rip),%xmm0        # 88f6 <test_df2x+0x4bd>
    80fe:	7a 09                	jp     8109 <test_minmax+0x177>
    8100:	0f 2e 05 f8 07 00 00 	ucomiss 0x7f8(%rip),%xmm0        # 88ff <test_df2x+0x4c6>
    8107:	74 1f                	je     8128 <test_minmax+0x196>
    8109:	41 b8 d7 03 00 00    	mov    $0x3d7,%r8d
    810f:	48 8d 05 49 00 00 00 	lea    0x49(%rip),%rax        # 815f <test_expavg+0x30>
    8116:	48 89 c2             	mov    %rax,%rdx
    8119:	48 8d 05 5a 00 00 00 	lea    0x5a(%rip),%rax        # 817a <test_expavg+0x4b>
    8120:	48 89 c1             	mov    %rax,%rcx
    8123:	e8 1b 7f ff ff       	call   43 <printf>
    8128:	90                   	nop
    8129:	48 83 c4 30          	add    $0x30,%rsp
    812d:	5d                   	pop    %rbp
    812e:	c3                   	ret

000000000000812f <test_expavg>:
    812f:	55                   	push   %rbp
    8130:	48 89 e5             	mov    %rsp,%rbp
    8133:	48 83 ec 50          	sub    $0x50,%rsp
    8137:	48 8d 05 7b 05 00 00 	lea    0x57b(%rip),%rax        # 86b9 <test_df2x+0x280>
    813e:	48 89 c1             	mov    %rax,%rcx
    8141:	e8 fd 7e ff ff       	call   43 <printf>
    8146:	66 0f ef c0          	pxor   %xmm0,%xmm0
    814a:	f3 0f 11 45 e0       	movss  %xmm0,-0x20(%rbp)
    814f:	f3 0f 10 05 cc 07 00 	movss  0x7cc(%rip),%xmm0        # 8923 <test_df2x+0x4ea>
    8156:	00 
    8157:	f3 0f 11 45 e4       	movss  %xmm0,-0x1c(%rbp)
    815c:	48 8d 45 e0          	lea    -0x20(%rbp),%rax
    8160:	48 89 c1             	mov    %rax,%rcx
    8163:	e8 00 00 00 00       	call   8168 <test_expavg+0x39>
    8168:	f3 0f 10 45 e0       	movss  -0x20(%rbp),%xmm0
    816d:	66 0f ef c9          	pxor   %xmm1,%xmm1
    8171:	0f 2e c1             	ucomiss %xmm1,%xmm0
    8174:	7a 09                	jp     817f <test_expavg+0x50>
    8176:	66 0f ef c9          	pxor   %xmm1,%xmm1
    817a:	0f 2e c1             	ucomiss %xmm1,%xmm0
    817d:	74 1f                	je     819e <test_expavg+0x6f>
    817f:	41 b8 e1 03 00 00    	mov    $0x3e1,%r8d
    8185:	48 8d 05 49 00 00 00 	lea    0x49(%rip),%rax        # 81d5 <test_expavg+0xa6>
    818c:	48 89 c2             	mov    %rax,%rdx
    818f:	48 8d 05 5a 00 00 00 	lea    0x5a(%rip),%rax        # 81f0 <test_expavg+0xc1>
    8196:	48 89 c1             	mov    %rax,%rcx
    8199:	e8 a5 7e ff ff       	call   43 <printf>
    819e:	48 8d 45 e0          	lea    -0x20(%rbp),%rax
    81a2:	f3 0f 10 0d a0 07 00 	movss  0x7a0(%rip),%xmm1        # 894a <test_df2x+0x511>
    81a9:	00 
    81aa:	48 89 c1             	mov    %rax,%rcx
    81ad:	e8 00 00 00 00       	call   81b2 <test_expavg+0x83>
    81b2:	66 0f 7e c0          	movd   %xmm0,%eax
    81b6:	89 45 f4             	mov    %eax,-0xc(%rbp)
    81b9:	f3 0f 10 45 f4       	movss  -0xc(%rbp),%xmm0
    81be:	0f 2e 05 cc 07 00 00 	ucomiss 0x7cc(%rip),%xmm0        # 8991 <test_df2x+0x558>
    81c5:	7a 0e                	jp     81d5 <test_expavg+0xa6>
    81c7:	f3 0f 10 45 f4       	movss  -0xc(%rbp),%xmm0
    81cc:	0f 2e 05 cc 07 00 00 	ucomiss 0x7cc(%rip),%xmm0        # 899f <test_df2x+0x566>
    81d3:	74 1f                	je     81f4 <test_expavg+0xc5>
    81d5:	41 b8 e3 03 00 00    	mov    $0x3e3,%r8d
    81db:	48 8d 05 49 00 00 00 	lea    0x49(%rip),%rax        # 822b <test_expavg+0xfc>
    81e2:	48 89 c2             	mov    %rax,%rdx
    81e5:	48 8d 05 5a 00 00 00 	lea    0x5a(%rip),%rax        # 8246 <test_expavg+0x117>
    81ec:	48 89 c1             	mov    %rax,%rcx
    81ef:	e8 4f 7e ff ff       	call   43 <printf>
    81f4:	48 8d 45 e0          	lea    -0x20(%rbp),%rax
    81f8:	f3 0f 10 0d a0 07 00 	movss  0x7a0(%rip),%xmm1        # 89a0 <test_df2x+0x567>
    81ff:	00 
    8200:	48 89 c1             	mov    %rax,%rcx
    8203:	e8 00 00 00 00       	call   8208 <test_expavg+0xd9>
    8208:	66 0f 7e c0          	movd   %xmm0,%eax
    820c:	89 45 f4             	mov    %eax,-0xc(%rbp)
    820f:	f3 0f 10 45 f4       	movss  -0xc(%rbp),%xmm0
    8214:	0f 2e 05 7c 08 00 00 	ucomiss 0x87c(%rip),%xmm0        # 8a97 <test_df2x+0x65e>
    821b:	7a 0e                	jp     822b <test_expavg+0xfc>
    821d:	f3 0f 10 45 f4       	movss  -0xc(%rbp),%xmm0
    8222:	0f 2e 05 7c 08 00 00 	ucomiss 0x87c(%rip),%xmm0        # 8aa5 <test_df2x+0x66c>
    8229:	74 1f                	je     824a <test_expavg+0x11b>
    822b:	41 b8 e5 03 00 00    	mov    $0x3e5,%r8d
    8231:	48 8d 05 49 00 00 00 	lea    0x49(%rip),%rax        # 8281 <test_expavg+0x152>
    8238:	48 89 c2             	mov    %rax,%rdx
    823b:	48 8d 05 5a 00 00 00 	lea    0x5a(%rip),%rax        # 829c <test_expavg+0x16d>
    8242:	48 89 c1             	mov    %rax,%rcx
    8245:	e8 f9 7d ff ff       	call   43 <printf>
    824a:	c7 45 fc 00 00 00 00 	movl   $0x0,-0x4(%rbp)
    8251:	eb 18                	jmp    826b <test_expavg+0x13c>
    8253:	48 8d 45 e0          	lea    -0x20(%rbp),%rax
    8257:	f3 0f 10 0d a0 07 00 	movss  0x7a0(%rip),%xmm1        # 89ff <test_df2x+0x5c6>
    825e:	00 
    825f:	48 89 c1             	mov    %rax,%rcx
    8262:	e8 00 00 00 00       	call   8267 <test_expavg+0x138>
    8267:	83 45 fc 01          	addl   $0x1,-0x4(%rbp)
    826b:	83 7d fc 63          	cmpl   $0x63,-0x4(%rbp)
    826f:	7e e2                	jle    8253 <test_expavg+0x124>
    8271:	48 8d 45 e0          	lea    -0x20(%rbp),%rax
    8275:	f3 0f 10 0d a0 07 00 	movss  0x7a0(%rip),%xmm1        # 8a1d <test_df2x+0x5e4>
    827c:	00 
    827d:	48 89 c1             	mov    %rax,%rcx
    8280:	e8 00 00 00 00       	call   8285 <test_expavg+0x156>
    8285:	66 0f 7e c0          	movd   %xmm0,%eax
    8289:	89 45 f4             	mov    %eax,-0xc(%rbp)
    828c:	f3 0f 10 45 f4       	movss  -0xc(%rbp),%xmm0
    8291:	0f 2f 05 80 08 00 00 	comiss 0x880(%rip),%xmm0        # 8b18 <test_df2x+0x6df>
    8298:	0f 93 c0             	setae  %al
    829b:	83 f0 01             	xor    $0x1,%eax
    829e:	84 c0                	test   %al,%al
    82a0:	74 1f                	je     82c1 <test_expavg+0x192>
    82a2:	41 b8 e9 03 00 00    	mov    $0x3e9,%r8d
    82a8:	48 8d 05 49 00 00 00 	lea    0x49(%rip),%rax        # 82f8 <test_expavg+0x1c9>
    82af:	48 89 c2             	mov    %rax,%rdx
    82b2:	48 8d 05 5a 00 00 00 	lea    0x5a(%rip),%rax        # 8313 <test_expavg+0x1e4>
    82b9:	48 89 c1             	mov    %rax,%rcx
    82bc:	e8 82 7d ff ff       	call   43 <printf>
    82c1:	48 8d 05 99 05 00 00 	lea    0x599(%rip),%rax        # 8861 <test_df2x+0x428>
    82c8:	48 89 c2             	mov    %rax,%rdx
    82cb:	48 8d 05 9b 05 00 00 	lea    0x59b(%rip),%rax        # 886d <test_df2x+0x434>
    82d2:	48 89 c1             	mov    %rax,%rcx
    82d5:	e8 00 00 00 00       	call   82da <test_expavg+0x1ab>
    82da:	48 89 45 e8          	mov    %rax,-0x18(%rbp)
    82de:	48 83 7d e8 00       	cmpq   $0x0,-0x18(%rbp)
    82e3:	0f 84 25 01 00 00    	je     840e <test_expavg+0x2df>
    82e9:	66 0f ef c0          	pxor   %xmm0,%xmm0
    82ed:	f3 0f 11 45 d8       	movss  %xmm0,-0x28(%rbp)
    82f2:	66 0f ef c0          	pxor   %xmm0,%xmm0
    82f6:	f3 0f 11 45 dc       	movss  %xmm0,-0x24(%rbp)
    82fb:	48 8d 45 d8          	lea    -0x28(%rbp),%rax
    82ff:	f3 0f 10 15 a0 07 00 	movss  0x7a0(%rip),%xmm2        # 8aa7 <test_df2x+0x66e>
    8306:	00 
    8307:	f3 0f 10 0d 84 08 00 	movss  0x884(%rip),%xmm1        # 8b93 <test_df2x+0x75a>
    830e:	00 
    830f:	48 89 c1             	mov    %rax,%rcx
    8312:	e8 00 00 00 00       	call   8317 <test_expavg+0x1e8>
    8317:	48 8d 45 d8          	lea    -0x28(%rbp),%rax
    831b:	48 89 c1             	mov    %rax,%rcx
    831e:	e8 00 00 00 00       	call   8323 <test_expavg+0x1f4>
    8323:	48 8b 45 e8          	mov    -0x18(%rbp),%rax
    8327:	48 8d 15 b3 05 00 00 	lea    0x5b3(%rip),%rdx        # 88e1 <test_df2x+0x4a8>
    832e:	48 89 c1             	mov    %rax,%rcx
    8331:	e8 ca 7c ff ff       	call   0 <fprintf>
    8336:	b8 00 00 00 00       	mov    $0x0,%eax
    833b:	48 89 c2             	mov    %rax,%rdx
    833e:	66 48 0f 6e ca       	movq   %rdx,%xmm1
    8343:	48 89 c1             	mov    %rax,%rcx
    8346:	b8 00 00 00 00       	mov    $0x0,%eax
    834b:	48 89 c2             	mov    %rax,%rdx
    834e:	66 48 0f 6e c2       	movq   %rdx,%xmm0
    8353:	48 89 c2             	mov    %rax,%rdx
    8356:	48 8b 45 e8          	mov    -0x18(%rbp),%rax
    835a:	66 0f 28 d9          	movapd %xmm1,%xmm3
    835e:	49 89 c9             	mov    %rcx,%r9
    8361:	66 0f 28 d0          	movapd %xmm0,%xmm2
    8365:	49 89 d0             	mov    %rdx,%r8
    8368:	48 8d 15 b9 05 00 00 	lea    0x5b9(%rip),%rdx        # 8928 <test_df2x+0x4ef>
    836f:	48 89 c1             	mov    %rax,%rcx
    8372:	e8 89 7c ff ff       	call   0 <fprintf>
    8377:	c7 45 f8 01 00 00 00 	movl   $0x1,-0x8(%rbp)
    837e:	eb 7a                	jmp    83fa <test_expavg+0x2cb>
    8380:	48 8d 45 d8          	lea    -0x28(%rbp),%rax
    8384:	f3 0f 10 0d a0 07 00 	movss  0x7a0(%rip),%xmm1        # 8b2c <test_df2x+0x6f3>
    838b:	00 
    838c:	48 89 c1             	mov    %rax,%rcx
    838f:	e8 00 00 00 00       	call   8394 <test_expavg+0x265>
    8394:	66 0f ef d2          	pxor   %xmm2,%xmm2
    8398:	f3 0f 5a d0          	cvtss2sd %xmm0,%xmm2
    839c:	66 0f ef c9          	pxor   %xmm1,%xmm1
    83a0:	f3 0f 2a 4d f8       	cvtsi2ssl -0x8(%rbp),%xmm1
    83a5:	f3 0f 10 05 84 08 00 	movss  0x884(%rip),%xmm0        # 8c31 <test_med3+0x93>
    83ac:	00 
    83ad:	f3 0f 59 c1          	mulss  %xmm1,%xmm0
    83b1:	f3 0f 5a c0          	cvtss2sd %xmm0,%xmm0
    83b5:	66 48 0f 7e d0       	movq   %xmm2,%rax
    83ba:	48 89 c2             	mov    %rax,%rdx
    83bd:	66 48 0f 6e ca       	movq   %rdx,%xmm1
    83c2:	48 89 c1             	mov    %rax,%rcx
    83c5:	66 48 0f 7e c0       	movq   %xmm0,%rax
    83ca:	48 89 c2             	mov    %rax,%rdx
    83cd:	66 48 0f 6e c2       	movq   %rdx,%xmm0
    83d2:	48 89 c2             	mov    %rax,%rdx
    83d5:	48 8b 45 e8          	mov    -0x18(%rbp),%rax
    83d9:	66 0f 28 d9          	movapd %xmm1,%xmm3
    83dd:	49 89 c9             	mov    %rcx,%r9
    83e0:	66 0f 28 d0          	movapd %xmm0,%xmm2
    83e4:	49 89 d0             	mov    %rdx,%r8
    83e7:	48 8d 15 b9 05 00 00 	lea    0x5b9(%rip),%rdx        # 89a7 <test_df2x+0x56e>
    83ee:	48 89 c1             	mov    %rax,%rcx
    83f1:	e8 0a 7c ff ff       	call   0 <fprintf>
    83f6:	83 45 f8 01          	addl   $0x1,-0x8(%rbp)
    83fa:	83 7d f8 63          	cmpl   $0x63,-0x8(%rbp)
    83fe:	7e 80                	jle    8380 <test_expavg+0x251>
    8400:	48 8b 45 e8          	mov    -0x18(%rbp),%rax
    8404:	48 89 c1             	mov    %rax,%rcx
    8407:	e8 00 00 00 00       	call   840c <test_expavg+0x2dd>
    840c:	eb 24                	jmp    8432 <test_expavg+0x303>
    840e:	48 8b 05 00 00 00 00 	mov    0x0(%rip),%rax        # 8415 <test_expavg+0x2e6>
    8415:	ff d0                	call   *%rax
    8417:	8b 00                	mov    (%rax),%eax
    8419:	89 c1                	mov    %eax,%ecx
    841b:	e8 00 00 00 00       	call   8420 <test_expavg+0x2f1>
    8420:	48 89 c2             	mov    %rax,%rdx
    8423:	48 8d 05 c1 05 00 00 	lea    0x5c1(%rip),%rax        # 89eb <test_df2x+0x5b2>
    842a:	48 89 c1             	mov    %rax,%rcx
    842d:	e8 11 7c ff ff       	call   43 <printf>
    8432:	90                   	nop
    8433:	48 83 c4 50          	add    $0x50,%rsp
    8437:	5d                   	pop    %rbp
    8438:	c3                   	ret

0000000000008439 <test_df2x>:
    8439:	55                   	push   %rbp
    843a:	48 89 e5             	mov    %rsp,%rbp
    843d:	48 81 ec 90 00 00 00 	sub    $0x90,%rsp
    8444:	f3 0f 10 05 9c 07 00 	movss  0x79c(%rip),%xmm0        # 8be8 <test_med3+0x4a>
    844b:	00 
    844c:	f3 0f 11 45 f4       	movss  %xmm0,-0xc(%rbp)
    8451:	f3 0f 10 05 a0 07 00 	movss  0x7a0(%rip),%xmm0        # 8bf9 <test_med3+0x5b>
    8458:	00 
    8459:	f3 0f 11 45 f8       	movss  %xmm0,-0x8(%rbp)
    845e:	f3 0f 10 05 a0 07 00 	movss  0x7a0(%rip),%xmm0        # 8c06 <test_med3+0x68>
    8465:	00 
    8466:	f3 0f 11 45 fc       	movss  %xmm0,-0x4(%rbp)
    846b:	f3 0f 10 05 b4 07 00 	movss  0x7b4(%rip),%xmm0        # 8c27 <test_med3+0x89>
    8472:	00 
    8473:	f3 0f 11 45 e0       	movss  %xmm0,-0x20(%rbp)
    8478:	f3 0f 10 05 9c 07 00 	movss  0x79c(%rip),%xmm0        # 8c1c <test_med3+0x7e>
    847f:	00 
    8480:	f3 0f 11 45 e4       	movss  %xmm0,-0x1c(%rbp)
    8485:	f3 0f 10 05 a0 07 00 	movss  0x7a0(%rip),%xmm0        # 8c2d <test_med3+0x8f>
    848c:	00 
    848d:	f3 0f 11 45 e8       	movss  %xmm0,-0x18(%rbp)
    8492:	f3 0f 10 05 9c 07 00 	movss  0x79c(%rip),%xmm0        # 8c36 <test_med3+0x98>
    8499:	00 
    849a:	f3 0f 11 45 ec       	movss  %xmm0,-0x14(%rbp)
    849f:	f3 0f 10 05 a0 07 00 	movss  0x7a0(%rip),%xmm0        # 8c47 <test_med3+0xa9>
    84a6:	00 
    84a7:	f3 0f 11 45 f0       	movss  %xmm0,-0x10(%rbp)
    84ac:	f3 0f 10 05 b8 07 00 	movss  0x7b8(%rip),%xmm0        # 8c6c <test_med3+0xce>
    84b3:	00 
    84b4:	f3 0f 11 45 c0       	movss  %xmm0,-0x40(%rbp)
    84b9:	f3 0f 10 05 b4 07 00 	movss  0x7b4(%rip),%xmm0        # 8c75 <test_med3+0xd7>
    84c0:	00 
    84c1:	f3 0f 11 45 c4       	movss  %xmm0,-0x3c(%rbp)
    84c6:	f3 0f 10 05 9c 07 00 	movss  0x79c(%rip),%xmm0        # 8c6a <test_med3+0xcc>
    84cd:	00 
    84ce:	f3 0f 11 45 c8       	movss  %xmm0,-0x38(%rbp)
    84d3:	f3 0f 10 05 a0 07 00 	movss  0x7a0(%rip),%xmm0        # 8c7b <test_med3+0xdd>
    84da:	00 
    84db:	f3 0f 11 45 cc       	movss  %xmm0,-0x34(%rbp)
    84e0:	f3 0f 10 05 b4 07 00 	movss  0x7b4(%rip),%xmm0        # 8c9c <test_med3+0xfe>
    84e7:	00 
    84e8:	f3 0f 11 45 d0       	movss  %xmm0,-0x30(%rbp)
    84ed:	f3 0f 10 05 9c 07 00 	movss  0x79c(%rip),%xmm0        # 8c91 <test_med3+0xf3>
    84f4:	00 
    84f5:	f3 0f 11 45 d4       	movss  %xmm0,-0x2c(%rbp)
    84fa:	f3 0f 10 05 a0 07 00 	movss  0x7a0(%rip),%xmm0        # 8ca2 <test_med3+0x104>
    8501:	00 
    8502:	f3 0f 11 45 d8       	movss  %xmm0,-0x28(%rbp)
    8507:	48 c7 45 b8 00 00 00 	movq   $0x0,-0x48(%rbp)
    850e:	00 
    850f:	48 c7 45 ac 00 00 00 	movq   $0x0,-0x54(%rbp)
    8516:	00 
    8517:	c7 45 b4 00 00 00 00 	movl   $0x0,-0x4c(%rbp)
    851e:	48 c7 45 90 00 00 00 	movq   $0x0,-0x70(%rbp)
    8525:	00 
    8526:	48 c7 45 98 00 00 00 	movq   $0x0,-0x68(%rbp)
    852d:	00 
    852e:	48 8d 45 b8          	lea    -0x48(%rbp),%rax
    8532:	48 89 c1             	mov    %rax,%rcx
    8535:	e8 00 00 00 00       	call   853a <test_df2x+0x101>
    853a:	f3 0f 10 45 bc       	movss  -0x44(%rbp),%xmm0
    853f:	66 0f ef c9          	pxor   %xmm1,%xmm1
    8543:	0f 2e c1             	ucomiss %xmm1,%xmm0
    8546:	7a 09                	jp     8551 <test_df2x+0x118>
    8548:	66 0f ef c9          	pxor   %xmm1,%xmm1
    854c:	0f 2e c1             	ucomiss %xmm1,%xmm0
    854f:	74 1f                	je     8570 <test_df2x+0x137>
    8551:	41 b8 15 04 00 00    	mov    $0x415,%r8d
    8557:	48 8d 05 49 00 00 00 	lea    0x49(%rip),%rax        # 85a7 <test_df2x+0x16e>
    855e:	48 89 c2             	mov    %rax,%rdx
    8561:	48 8d 05 5a 00 00 00 	lea    0x5a(%rip),%rax        # 85c2 <test_df2x+0x189>
    8568:	48 89 c1             	mov    %rax,%rcx
    856b:	e8 d3 7a ff ff       	call   43 <printf>
    8570:	f3 0f 10 45 b8       	movss  -0x48(%rbp),%xmm0
    8575:	66 0f ef c9          	pxor   %xmm1,%xmm1
    8579:	0f 2e c1             	ucomiss %xmm1,%xmm0
    857c:	7a 09                	jp     8587 <test_df2x+0x14e>
    857e:	66 0f ef c9          	pxor   %xmm1,%xmm1
    8582:	0f 2e c1             	ucomiss %xmm1,%xmm0
    8585:	74 1f                	je     85a6 <test_df2x+0x16d>
    8587:	41 b8 16 04 00 00    	mov    $0x416,%r8d
    858d:	48 8d 05 49 00 00 00 	lea    0x49(%rip),%rax        # 85dd <test_df2x+0x1a4>
    8594:	48 89 c2             	mov    %rax,%rdx
    8597:	48 8d 05 5a 00 00 00 	lea    0x5a(%rip),%rax        # 85f8 <test_df2x+0x1bf>
    859e:	48 89 c1             	mov    %rax,%rcx
    85a1:	e8 9d 7a ff ff       	call   43 <printf>
    85a6:	48 8d 45 ac          	lea    -0x54(%rbp),%rax
    85aa:	48 89 c1             	mov    %rax,%rcx
    85ad:	e8 00 00 00 00       	call   85b2 <test_df2x+0x179>
    85b2:	f3 0f 10 45 b4       	movss  -0x4c(%rbp),%xmm0
    85b7:	66 0f ef c9          	pxor   %xmm1,%xmm1
    85bb:	0f 2e c1             	ucomiss %xmm1,%xmm0
    85be:	7a 09                	jp     85c9 <test_df2x+0x190>
    85c0:	66 0f ef c9          	pxor   %xmm1,%xmm1
    85c4:	0f 2e c1             	ucomiss %xmm1,%xmm0
    85c7:	74 1f                	je     85e8 <test_df2x+0x1af>
    85c9:	41 b8 18 04 00 00    	mov    $0x418,%r8d
    85cf:	48 8d 05 49 00 00 00 	lea    0x49(%rip),%rax        # 861f <test_df2x+0x1e6>
    85d6:	48 89 c2             	mov    %rax,%rdx
    85d9:	48 8d 05 5a 00 00 00 	lea    0x5a(%rip),%rax        # 863a <test_df2x+0x201>
    85e0:	48 89 c1             	mov    %rax,%rcx
    85e3:	e8 5b 7a ff ff       	call   43 <printf>
    85e8:	f3 0f 10 45 ac       	movss  -0x54(%rbp),%xmm0
    85ed:	66 0f ef c9          	pxor   %xmm1,%xmm1
    85f1:	0f 2e c1             	ucomiss %xmm1,%xmm0
    85f4:	7a 09                	jp     85ff <test_df2x+0x1c6>
    85f6:	66 0f ef c9          	pxor   %xmm1,%xmm1
    85fa:	0f 2e c1             	ucomiss %xmm1,%xmm0
    85fd:	74 1f                	je     861e <test_df2x+0x1e5>
    85ff:	41 b8 19 04 00 00    	mov    $0x419,%r8d
    8605:	48 8d 05 49 00 00 00 	lea    0x49(%rip),%rax        # 8655 <test_df2x+0x21c>
    860c:	48 89 c2             	mov    %rax,%rdx
    860f:	48 8d 05 5a 00 00 00 	lea    0x5a(%rip),%rax        # 8670 <test_df2x+0x237>
    8616:	48 89 c1             	mov    %rax,%rcx
    8619:	e8 25 7a ff ff       	call   43 <printf>
    861e:	f3 0f 10 45 b0       	movss  -0x50(%rbp),%xmm0
    8623:	66 0f ef c9          	pxor   %xmm1,%xmm1
    8627:	0f 2e c1             	ucomiss %xmm1,%xmm0
    862a:	7a 09                	jp     8635 <test_df2x+0x1fc>
    862c:	66 0f ef c9          	pxor   %xmm1,%xmm1
    8630:	0f 2e c1             	ucomiss %xmm1,%xmm0
    8633:	74 1f                	je     8654 <test_df2x+0x21b>
    8635:	41 b8 1a 04 00 00    	mov    $0x41a,%r8d
    863b:	48 8d 05 49 00 00 00 	lea    0x49(%rip),%rax        # 868b <test_df2x+0x252>
    8642:	48 89 c2             	mov    %rax,%rdx
    8645:	48 8d 05 5a 00 00 00 	lea    0x5a(%rip),%rax        # 86a6 <test_df2x+0x26d>
    864c:	48 89 c1             	mov    %rax,%rcx
    864f:	e8 ef 79 ff ff       	call   43 <printf>
    8654:	48 8d 45 90          	lea    -0x70(%rbp),%rax
    8658:	48 89 c1             	mov    %rax,%rcx
    865b:	e8 00 00 00 00       	call   8660 <test_df2x+0x227>
    8660:	f3 0f 10 45 9c       	movss  -0x64(%rbp),%xmm0
    8665:	66 0f ef c9          	pxor   %xmm1,%xmm1
    8669:	0f 2e c1             	ucomiss %xmm1,%xmm0
    866c:	7a 09                	jp     8677 <test_df2x+0x23e>
    866e:	66 0f ef c9          	pxor   %xmm1,%xmm1
    8672:	0f 2e c1             	ucomiss %xmm1,%xmm0
    8675:	74 1f                	je     8696 <test_df2x+0x25d>
    8677:	41 b8 1c 04 00 00    	mov    $0x41c,%r8d
    867d:	48 8d 05 49 00 00 00 	lea    0x49(%rip),%rax        # 86cd <test_df2x+0x294>
    8684:	48 89 c2             	mov    %rax,%rdx
    8687:	48 8d 05 5a 00 00 00 	lea    0x5a(%rip),%rax        # 86e8 <test_df2x+0x2af>
    868e:	48 89 c1             	mov    %rax,%rcx
    8691:	e8 ad 79 ff ff       	call   43 <printf>
    8696:	f3 0f 10 45 90       	movss  -0x70(%rbp),%xmm0
    869b:	66 0f ef c9          	pxor   %xmm1,%xmm1
    869f:	0f 2e c1             	ucomiss %xmm1,%xmm0
    86a2:	7a 09                	jp     86ad <test_df2x+0x274>
    86a4:	66 0f ef c9          	pxor   %xmm1,%xmm1
    86a8:	0f 2e c1             	ucomiss %xmm1,%xmm0
    86ab:	74 1f                	je     86cc <test_df2x+0x293>
    86ad:	41 b8 1d 04 00 00    	mov    $0x41d,%r8d
    86b3:	48 8d 05 49 00 00 00 	lea    0x49(%rip),%rax        # 8703 <test_df2x+0x2ca>
    86ba:	48 89 c2             	mov    %rax,%rdx
    86bd:	48 8d 05 5a 00 00 00 	lea    0x5a(%rip),%rax        # 871e <test_df2x+0x2e5>
    86c4:	48 89 c1             	mov    %rax,%rcx
    86c7:	e8 77 79 ff ff       	call   43 <printf>
    86cc:	f3 0f 10 45 94       	movss  -0x6c(%rbp),%xmm0
    86d1:	66 0f ef c9          	pxor   %xmm1,%xmm1
    86d5:	0f 2e c1             	ucomiss %xmm1,%xmm0
    86d8:	7a 09                	jp     86e3 <test_df2x+0x2aa>
    86da:	66 0f ef c9          	pxor   %xmm1,%xmm1
    86de:	0f 2e c1             	ucomiss %xmm1,%xmm0
    86e1:	74 1f                	je     8702 <test_df2x+0x2c9>
    86e3:	41 b8 1e 04 00 00    	mov    $0x41e,%r8d
    86e9:	48 8d 05 49 00 00 00 	lea    0x49(%rip),%rax        # 8739 <test_df2x+0x300>
    86f0:	48 89 c2             	mov    %rax,%rdx
    86f3:	48 8d 05 5a 00 00 00 	lea    0x5a(%rip),%rax        # 8754 <test_df2x+0x31b>
    86fa:	48 89 c1             	mov    %rax,%rcx
    86fd:	e8 41 79 ff ff       	call   43 <printf>
    8702:	f3 0f 10 45 98       	movss  -0x68(%rbp),%xmm0
    8707:	66 0f ef c9          	pxor   %xmm1,%xmm1
    870b:	0f 2e c1             	ucomiss %xmm1,%xmm0
    870e:	7a 09                	jp     8719 <test_df2x+0x2e0>
    8710:	66 0f ef c9          	pxor   %xmm1,%xmm1
    8714:	0f 2e c1             	ucomiss %xmm1,%xmm0
    8717:	74 1f                	je     8738 <test_df2x+0x2ff>
    8719:	41 b8 1f 04 00 00    	mov    $0x41f,%r8d
    871f:	48 8d 05 49 00 00 00 	lea    0x49(%rip),%rax        # 876f <test_df2x+0x336>
    8726:	48 89 c2             	mov    %rax,%rdx
    8729:	48 8d 05 5a 00 00 00 	lea    0x5a(%rip),%rax        # 878a <test_df2x+0x351>
    8730:	48 89 c1             	mov    %rax,%rcx
    8733:	e8 0b 79 ff ff       	call   43 <printf>
    8738:	48 8d 55 b8          	lea    -0x48(%rbp),%rdx
    873c:	48 8d 45 f4          	lea    -0xc(%rbp),%rax
    8740:	f3 0f 10 15 a0 07 00 	movss  0x7a0(%rip),%xmm2        # 8ee8 <test_rollsum+0x1b5>
    8747:	00 
    8748:	48 89 c1             	mov    %rax,%rcx
    874b:	e8 00 00 00 00       	call   8750 <test_df2x+0x317>
    8750:	f3 0f 10 45 bc       	movss  -0x44(%rbp),%xmm0
    8755:	0f 2e 05 9c 07 00 00 	ucomiss 0x79c(%rip),%xmm0        # 8ef8 <test_rollsum+0x1c5>
    875c:	7a 09                	jp     8767 <test_df2x+0x32e>
    875e:	0f 2e 05 9c 07 00 00 	ucomiss 0x79c(%rip),%xmm0        # 8f01 <test_rollsum+0x1ce>
    8765:	74 1f                	je     8786 <test_df2x+0x34d>
    8767:	41 b8 21 04 00 00    	mov    $0x421,%r8d
    876d:	48 8d 05 49 00 00 00 	lea    0x49(%rip),%rax        # 87bd <test_df2x+0x384>
    8774:	48 89 c2             	mov    %rax,%rdx
    8777:	48 8d 05 5a 00 00 00 	lea    0x5a(%rip),%rax        # 87d8 <test_df2x+0x39f>
    877e:	48 89 c1             	mov    %rax,%rcx
    8781:	e8 bd 78 ff ff       	call   43 <printf>
    8786:	f3 0f 10 45 b8       	movss  -0x48(%rbp),%xmm0
    878b:	0f 2e 05 b4 07 00 00 	ucomiss 0x7b4(%rip),%xmm0        # 8f46 <test_rollsum+0x213>
    8792:	7a 09                	jp     879d <test_df2x+0x364>
    8794:	0f 2e 05 b4 07 00 00 	ucomiss 0x7b4(%rip),%xmm0        # 8f4f <test_rollsum+0x21c>
    879b:	74 1f                	je     87bc <test_df2x+0x383>
    879d:	41 b8 22 04 00 00    	mov    $0x422,%r8d
    87a3:	48 8d 05 49 00 00 00 	lea    0x49(%rip),%rax        # 87f3 <test_df2x+0x3ba>
    87aa:	48 89 c2             	mov    %rax,%rdx
    87ad:	48 8d 05 5a 00 00 00 	lea    0x5a(%rip),%rax        # 880e <test_df2x+0x3d5>
    87b4:	48 89 c1             	mov    %rax,%rcx
    87b7:	e8 87 78 ff ff       	call   43 <printf>
    87bc:	48 8d 55 b8          	lea    -0x48(%rbp),%rdx
    87c0:	48 8d 45 f4          	lea    -0xc(%rbp),%rax
    87c4:	f3 0f 10 15 ac 07 00 	movss  0x7ac(%rip),%xmm2        # 8f78 <test_rollsum+0x245>
    87cb:	00 
    87cc:	48 89 c1             	mov    %rax,%rcx
    87cf:	e8 00 00 00 00       	call   87d4 <test_df2x+0x39b>
    87d4:	f3 0f 10 45 bc       	movss  -0x44(%rbp),%xmm0
    87d9:	0f 2e 05 88 08 00 00 	ucomiss 0x888(%rip),%xmm0        # 9068 <test_rollsum+0x335>
    87e0:	7a 09                	jp     87eb <test_df2x+0x3b2>
    87e2:	0f 2e 05 88 08 00 00 	ucomiss 0x888(%rip),%xmm0        # 9071 <test_rollsum+0x33e>
    87e9:	74 1f                	je     880a <test_df2x+0x3d1>
    87eb:	41 b8 24 04 00 00    	mov    $0x424,%r8d
    87f1:	48 8d 05 49 00 00 00 	lea    0x49(%rip),%rax        # 8841 <test_df2x+0x408>
    87f8:	48 89 c2             	mov    %rax,%rdx
    87fb:	48 8d 05 5a 00 00 00 	lea    0x5a(%rip),%rax        # 885c <test_df2x+0x423>
    8802:	48 89 c1             	mov    %rax,%rcx
    8805:	e8 39 78 ff ff       	call   43 <printf>
    880a:	f3 0f 10 45 b8       	movss  -0x48(%rbp),%xmm0
    880f:	0f 2e 05 78 08 00 00 	ucomiss 0x878(%rip),%xmm0        # 908e <test_rollsum+0x35b>
    8816:	7a 09                	jp     8821 <test_df2x+0x3e8>
    8818:	0f 2e 05 78 08 00 00 	ucomiss 0x878(%rip),%xmm0        # 9097 <test_rollsum+0x364>
    881f:	74 1f                	je     8840 <test_df2x+0x407>
    8821:	41 b8 25 04 00 00    	mov    $0x425,%r8d
    8827:	48 8d 05 49 00 00 00 	lea    0x49(%rip),%rax        # 8877 <test_df2x+0x43e>
    882e:	48 89 c2             	mov    %rax,%rdx
    8831:	48 8d 05 5a 00 00 00 	lea    0x5a(%rip),%rax        # 8892 <test_df2x+0x459>
    8838:	48 89 c1             	mov    %rax,%rcx
    883b:	e8 03 78 ff ff       	call   43 <printf>
    8840:	48 8d 55 ac          	lea    -0x54(%rbp),%rdx
    8844:	48 8d 45 e0          	lea    -0x20(%rbp),%rax
    8848:	f3 0f 10 15 a0 07 00 	movss  0x7a0(%rip),%xmm2        # 8ff0 <test_rollsum+0x2bd>
    884f:	00 
    8850:	48 89 c1             	mov    %rax,%rcx
    8853:	e8 00 00 00 00       	call   8858 <test_df2x+0x41f>
    8858:	f3 0f 10 45 b4       	movss  -0x4c(%rbp),%xmm0
    885d:	0f 2e 05 b4 07 00 00 	ucomiss 0x7b4(%rip),%xmm0        # 9018 <test_rollsum+0x2e5>
    8864:	7a 09                	jp     886f <test_df2x+0x436>
    8866:	0f 2e 05 b4 07 00 00 	ucomiss 0x7b4(%rip),%xmm0        # 9021 <test_rollsum+0x2ee>
    886d:	74 1f                	je     888e <test_df2x+0x455>
    886f:	41 b8 27 04 00 00    	mov    $0x427,%r8d
    8875:	48 8d 05 49 00 00 00 	lea    0x49(%rip),%rax        # 88c5 <test_df2x+0x48c>
    887c:	48 89 c2             	mov    %rax,%rdx
    887f:	48 8d 05 5a 00 00 00 	lea    0x5a(%rip),%rax        # 88e0 <test_df2x+0x4a7>
    8886:	48 89 c1             	mov    %rax,%rcx
    8889:	e8 b5 77 ff ff       	call   43 <printf>
    888e:	f3 0f 10 45 ac       	movss  -0x54(%rbp),%xmm0
    8893:	0f 2e 05 f0 07 00 00 	ucomiss 0x7f0(%rip),%xmm0        # 908a <test_rollsum+0x357>
    889a:	7a 09                	jp     88a5 <test_df2x+0x46c>
    889c:	0f 2e 05 f0 07 00 00 	ucomiss 0x7f0(%rip),%xmm0        # 9093 <test_rollsum+0x360>
    88a3:	74 1f                	je     88c4 <test_df2x+0x48b>
    88a5:	41 b8 28 04 00 00    	mov    $0x428,%r8d
    88ab:	48 8d 05 49 00 00 00 	lea    0x49(%rip),%rax        # 88fb <test_df2x+0x4c2>
    88b2:	48 89 c2             	mov    %rax,%rdx
    88b5:	48 8d 05 5a 00 00 00 	lea    0x5a(%rip),%rax        # 8916 <test_df2x+0x4dd>
    88bc:	48 89 c1             	mov    %rax,%rcx
    88bf:	e8 7f 77 ff ff       	call   43 <printf>
    88c4:	f3 0f 10 45 b0       	movss  -0x50(%rbp),%xmm0
    88c9:	0f 2e 05 b8 07 00 00 	ucomiss 0x7b8(%rip),%xmm0        # 9088 <test_rollsum+0x355>
    88d0:	7a 09                	jp     88db <test_df2x+0x4a2>
    88d2:	0f 2e 05 b8 07 00 00 	ucomiss 0x7b8(%rip),%xmm0        # 9091 <test_rollsum+0x35e>
    88d9:	74 1f                	je     88fa <test_df2x+0x4c1>
    88db:	41 b8 29 04 00 00    	mov    $0x429,%r8d
    88e1:	48 8d 05 49 00 00 00 	lea    0x49(%rip),%rax        # 8931 <test_df2x+0x4f8>
    88e8:	48 89 c2             	mov    %rax,%rdx
    88eb:	48 8d 05 5a 00 00 00 	lea    0x5a(%rip),%rax        # 894c <test_df2x+0x513>
    88f2:	48 89 c1             	mov    %rax,%rcx
    88f5:	e8 49 77 ff ff       	call   43 <printf>
    88fa:	48 8d 55 ac          	lea    -0x54(%rbp),%rdx
    88fe:	48 8d 45 e0          	lea    -0x20(%rbp),%rax
    8902:	f3 0f 10 15 ac 07 00 	movss  0x7ac(%rip),%xmm2        # 90b6 <test_rollsum+0x383>
    8909:	00 
    890a:	48 89 c1             	mov    %rax,%rcx
    890d:	e8 00 00 00 00       	call   8912 <test_df2x+0x4d9>
    8912:	f3 0f 10 45 b4       	movss  -0x4c(%rbp),%xmm0
    8917:	0f 2e 05 8c 08 00 00 	ucomiss 0x88c(%rip),%xmm0        # 91aa <test_rollavg+0xa1>
    891e:	7a 09                	jp     8929 <test_df2x+0x4f0>
    8920:	0f 2e 05 8c 08 00 00 	ucomiss 0x88c(%rip),%xmm0        # 91b3 <test_rollavg+0xaa>
    8927:	74 1f                	je     8948 <test_df2x+0x50f>
    8929:	41 b8 2b 04 00 00    	mov    $0x42b,%r8d
    892f:	48 8d 05 49 00 00 00 	lea    0x49(%rip),%rax        # 897f <test_df2x+0x546>
    8936:	48 89 c2             	mov    %rax,%rdx
    8939:	48 8d 05 5a 00 00 00 	lea    0x5a(%rip),%rax        # 899a <test_df2x+0x561>
    8940:	48 89 c1             	mov    %rax,%rcx
    8943:	e8 fb 76 ff ff       	call   43 <printf>
    8948:	f3 0f 10 45 ac       	movss  -0x54(%rbp),%xmm0
    894d:	0f 2e 05 10 08 00 00 	ucomiss 0x810(%rip),%xmm0        # 9164 <test_rollavg+0x5b>
    8954:	7a 09                	jp     895f <test_df2x+0x526>
    8956:	0f 2e 05 10 08 00 00 	ucomiss 0x810(%rip),%xmm0        # 916d <test_rollavg+0x64>
    895d:	74 1f                	je     897e <test_df2x+0x545>
    895f:	41 b8 2c 04 00 00    	mov    $0x42c,%r8d
    8965:	48 8d 05 49 00 00 00 	lea    0x49(%rip),%rax        # 89b5 <test_df2x+0x57c>
    896c:	48 89 c2             	mov    %rax,%rdx
    896f:	48 8d 05 5a 00 00 00 	lea    0x5a(%rip),%rax        # 89d0 <test_df2x+0x597>
    8976:	48 89 c1             	mov    %rax,%rcx
    8979:	e8 c5 76 ff ff       	call   43 <printf>
    897e:	f3 0f 10 45 b0       	movss  -0x50(%rbp),%xmm0
    8983:	0f 2e 05 90 08 00 00 	ucomiss 0x890(%rip),%xmm0        # 921a <test_rollavg+0x111>
    898a:	7a 09                	jp     8995 <test_df2x+0x55c>
    898c:	0f 2e 05 90 08 00 00 	ucomiss 0x890(%rip),%xmm0        # 9223 <test_rollavg+0x11a>
    8993:	74 1f                	je     89b4 <test_df2x+0x57b>
    8995:	41 b8 2d 04 00 00    	mov    $0x42d,%r8d
    899b:	48 8d 05 49 00 00 00 	lea    0x49(%rip),%rax        # 89eb <test_df2x+0x5b2>
    89a2:	48 89 c2             	mov    %rax,%rdx
    89a5:	48 8d 05 5a 00 00 00 	lea    0x5a(%rip),%rax        # 8a06 <test_df2x+0x5cd>
    89ac:	48 89 c1             	mov    %rax,%rcx
    89af:	e8 8f 76 ff ff       	call   43 <printf>
    89b4:	48 8d 55 90          	lea    -0x70(%rbp),%rdx
    89b8:	48 8d 45 c0          	lea    -0x40(%rbp),%rax
    89bc:	f3 0f 10 15 a0 07 00 	movss  0x7a0(%rip),%xmm2        # 9164 <test_rollavg+0x5b>
    89c3:	00 
    89c4:	48 89 c1             	mov    %rax,%rcx
    89c7:	e8 00 00 00 00       	call   89cc <test_df2x+0x593>
    89cc:	f3 0f 10 45 9c       	movss  -0x64(%rbp),%xmm0
    89d1:	0f 2e 05 b8 07 00 00 	ucomiss 0x7b8(%rip),%xmm0        # 9190 <test_rollavg+0x87>
    89d8:	7a 09                	jp     89e3 <test_df2x+0x5aa>
    89da:	0f 2e 05 b8 07 00 00 	ucomiss 0x7b8(%rip),%xmm0        # 9199 <test_rollavg+0x90>
    89e1:	74 1f                	je     8a02 <test_df2x+0x5c9>
    89e3:	41 b8 2f 04 00 00    	mov    $0x42f,%r8d
    89e9:	48 8d 05 49 00 00 00 	lea    0x49(%rip),%rax        # 8a39 <test_df2x+0x600>
    89f0:	48 89 c2             	mov    %rax,%rdx
    89f3:	48 8d 05 5a 00 00 00 	lea    0x5a(%rip),%rax        # 8a54 <test_df2x+0x61b>
    89fa:	48 89 c1             	mov    %rax,%rcx
    89fd:	e8 41 76 ff ff       	call   43 <printf>
    8a02:	f3 0f 10 45 90       	movss  -0x70(%rbp),%xmm0
    8a07:	0f 2e 05 94 08 00 00 	ucomiss 0x894(%rip),%xmm0        # 92a2 <test_rollavg+0x199>
    8a0e:	7a 09                	jp     8a19 <test_df2x+0x5e0>
    8a10:	0f 2e 05 94 08 00 00 	ucomiss 0x894(%rip),%xmm0        # 92ab <test_rollavg+0x1a2>
    8a17:	74 1f                	je     8a38 <test_df2x+0x5ff>
    8a19:	41 b8 30 04 00 00    	mov    $0x430,%r8d
    8a1f:	48 8d 05 49 00 00 00 	lea    0x49(%rip),%rax        # 8a6f <test_df2x+0x636>
    8a26:	48 89 c2             	mov    %rax,%rdx
    8a29:	48 8d 05 5a 00 00 00 	lea    0x5a(%rip),%rax        # 8a8a <test_df2x+0x651>
    8a30:	48 89 c1             	mov    %rax,%rcx
    8a33:	e8 0b 76 ff ff       	call   43 <printf>
    8a38:	f3 0f 10 45 94       	movss  -0x6c(%rbp),%xmm0
    8a3d:	0f 2e 05 ac 07 00 00 	ucomiss 0x7ac(%rip),%xmm0        # 91f0 <test_rollavg+0xe7>
    8a44:	7a 09                	jp     8a4f <test_df2x+0x616>
    8a46:	0f 2e 05 ac 07 00 00 	ucomiss 0x7ac(%rip),%xmm0        # 91f9 <test_rollavg+0xf0>
    8a4d:	74 1f                	je     8a6e <test_df2x+0x635>
    8a4f:	41 b8 31 04 00 00    	mov    $0x431,%r8d
    8a55:	48 8d 05 49 00 00 00 	lea    0x49(%rip),%rax        # 8aa5 <test_df2x+0x66c>
    8a5c:	48 89 c2             	mov    %rax,%rdx
    8a5f:	48 8d 05 5a 00 00 00 	lea    0x5a(%rip),%rax        # 8ac0 <test_df2x+0x687>
    8a66:	48 89 c1             	mov    %rax,%rcx
    8a69:	e8 d5 75 ff ff       	call   43 <printf>
    8a6e:	f3 0f 10 45 98       	movss  -0x68(%rbp),%xmm0
    8a73:	0f 2e 05 e8 07 00 00 	ucomiss 0x7e8(%rip),%xmm0        # 9262 <test_rollavg+0x159>
    8a7a:	7a 09                	jp     8a85 <test_df2x+0x64c>
    8a7c:	0f 2e 05 e8 07 00 00 	ucomiss 0x7e8(%rip),%xmm0        # 926b <test_rollavg+0x162>
    8a83:	74 1f                	je     8aa4 <test_df2x+0x66b>
    8a85:	41 b8 32 04 00 00    	mov    $0x432,%r8d
    8a8b:	48 8d 05 49 00 00 00 	lea    0x49(%rip),%rax        # 8adb <test_df2x+0x6a2>
    8a92:	48 89 c2             	mov    %rax,%rdx
    8a95:	48 8d 05 5a 00 00 00 	lea    0x5a(%rip),%rax        # 8af6 <test_df2x+0x6bd>
    8a9c:	48 89 c1             	mov    %rax,%rcx
    8a9f:	e8 9f 75 ff ff       	call   43 <printf>
    8aa4:	48 8d 55 90          	lea    -0x70(%rbp),%rdx
    8aa8:	48 8d 45 c0          	lea    -0x40(%rbp),%rax
    8aac:	f3 0f 10 15 ac 07 00 	movss  0x7ac(%rip),%xmm2        # 9260 <test_rollavg+0x157>
    8ab3:	00 
    8ab4:	48 89 c1             	mov    %rax,%rcx
    8ab7:	e8 00 00 00 00       	call   8abc <test_df2x+0x683>
    8abc:	f3 0f 10 45 9c       	movss  -0x64(%rbp),%xmm0
    8ac1:	0f 2e 05 98 08 00 00 	ucomiss 0x898(%rip),%xmm0        # 9360 <test_rollrms+0x74>
    8ac8:	7a 09                	jp     8ad3 <test_df2x+0x69a>
    8aca:	0f 2e 05 98 08 00 00 	ucomiss 0x898(%rip),%xmm0        # 9369 <test_rollrms+0x7d>
    8ad1:	74 1f                	je     8af2 <test_df2x+0x6b9>
    8ad3:	41 b8 34 04 00 00    	mov    $0x434,%r8d
    8ad9:	48 8d 05 49 00 00 00 	lea    0x49(%rip),%rax        # 8b29 <test_df2x+0x6f0>
    8ae0:	48 89 c2             	mov    %rax,%rdx
    8ae3:	48 8d 05 5a 00 00 00 	lea    0x5a(%rip),%rax        # 8b44 <test_df2x+0x70b>
    8aea:	48 89 c1             	mov    %rax,%rcx
    8aed:	e8 51 75 ff ff       	call   43 <printf>
    8af2:	f3 0f 10 45 90       	movss  -0x70(%rbp),%xmm0
    8af7:	0f 2e 05 9c 08 00 00 	ucomiss 0x89c(%rip),%xmm0        # 939a <test_rollrms+0xae>
    8afe:	7a 09                	jp     8b09 <test_df2x+0x6d0>
    8b00:	0f 2e 05 9c 08 00 00 	ucomiss 0x89c(%rip),%xmm0        # 93a3 <test_rollrms+0xb7>
    8b07:	74 1f                	je     8b28 <test_df2x+0x6ef>
    8b09:	41 b8 35 04 00 00    	mov    $0x435,%r8d
    8b0f:	48 8d 05 49 00 00 00 	lea    0x49(%rip),%rax        # 8b5f <test_df2x+0x726>
    8b16:	48 89 c2             	mov    %rax,%rdx
    8b19:	48 8d 05 5a 00 00 00 	lea    0x5a(%rip),%rax        # 8b7a <test_df2x+0x741>
    8b20:	48 89 c1             	mov    %rax,%rcx
    8b23:	e8 1b 75 ff ff       	call   43 <printf>
    8b28:	f3 0f 10 45 94       	movss  -0x6c(%rbp),%xmm0
    8b2d:	0f 2e 05 a0 08 00 00 	ucomiss 0x8a0(%rip),%xmm0        # 93d4 <test_delay+0x18>
    8b34:	7a 09                	jp     8b3f <test_df2x+0x706>
    8b36:	0f 2e 05 a0 08 00 00 	ucomiss 0x8a0(%rip),%xmm0        # 93dd <test_delay+0x21>
    8b3d:	74 1f                	je     8b5e <test_df2x+0x725>
    8b3f:	41 b8 36 04 00 00    	mov    $0x436,%r8d
    8b45:	48 8d 05 49 00 00 00 	lea    0x49(%rip),%rax        # 8b95 <test_df2x+0x75c>
    8b4c:	48 89 c2             	mov    %rax,%rdx
    8b4f:	48 8d 05 5a 00 00 00 	lea    0x5a(%rip),%rax        # 8bb0 <test_med3+0x12>
    8b56:	48 89 c1             	mov    %rax,%rcx
    8b59:	e8 e5 74 ff ff       	call   43 <printf>
    8b5e:	f3 0f 10 45 98       	movss  -0x68(%rbp),%xmm0
    8b63:	0f 2e 05 a4 08 00 00 	ucomiss 0x8a4(%rip),%xmm0        # 940e <test_delay+0x52>
    8b6a:	7a 09                	jp     8b75 <test_df2x+0x73c>
    8b6c:	0f 2e 05 a4 08 00 00 	ucomiss 0x8a4(%rip),%xmm0        # 9417 <test_delay+0x5b>
    8b73:	74 1f                	je     8b94 <test_df2x+0x75b>
    8b75:	41 b8 37 04 00 00    	mov    $0x437,%r8d
    8b7b:	48 8d 05 49 00 00 00 	lea    0x49(%rip),%rax        # 8bcb <test_med3+0x2d>
    8b82:	48 89 c2             	mov    %rax,%rdx
    8b85:	48 8d 05 5a 00 00 00 	lea    0x5a(%rip),%rax        # 8be6 <test_med3+0x48>
    8b8c:	48 89 c1             	mov    %rax,%rcx
    8b8f:	e8 af 74 ff ff       	call   43 <printf>
    8b94:	90                   	nop
    8b95:	48 81 c4 90 00 00 00 	add    $0x90,%rsp
    8b9c:	5d                   	pop    %rbp
    8b9d:	c3                   	ret

0000000000008b9e <test_med3>:
    8b9e:	55                   	push   %rbp
    8b9f:	48 89 e5             	mov    %rsp,%rbp
    8ba2:	48 83 ec 30          	sub    $0x30,%rsp
    8ba6:	48 8d 05 d3 05 00 00 	lea    0x5d3(%rip),%rax        # 9180 <test_rollavg+0x77>
    8bad:	48 89 c1             	mov    %rax,%rcx
    8bb0:	e8 8e 74 ff ff       	call   43 <printf>
    8bb5:	48 8d 45 f4          	lea    -0xc(%rbp),%rax
    8bb9:	48 89 c1             	mov    %rax,%rcx
    8bbc:	e8 00 00 00 00       	call   8bc1 <test_med3+0x23>
    8bc1:	48 8d 45 f4          	lea    -0xc(%rbp),%rax
    8bc5:	f3 0f 10 0d ac 07 00 	movss  0x7ac(%rip),%xmm1        # 9379 <test_rollrms+0x8d>
    8bcc:	00 
    8bcd:	48 89 c1             	mov    %rax,%rcx
    8bd0:	e8 00 00 00 00       	call   8bd5 <test_med3+0x37>
    8bd5:	66 0f 7e c0          	movd   %xmm0,%eax
    8bd9:	89 45 fc             	mov    %eax,-0x4(%rbp)
    8bdc:	66 0f ef c0          	pxor   %xmm0,%xmm0
    8be0:	0f 2e 45 fc          	ucomiss -0x4(%rbp),%xmm0
    8be4:	7a 0a                	jp     8bf0 <test_med3+0x52>
    8be6:	66 0f ef c0          	pxor   %xmm0,%xmm0
    8bea:	0f 2e 45 fc          	ucomiss -0x4(%rbp),%xmm0
    8bee:	74 1f                	je     8c0f <test_med3+0x71>
    8bf0:	41 b8 41 04 00 00    	mov    $0x441,%r8d
    8bf6:	48 8d 05 49 00 00 00 	lea    0x49(%rip),%rax        # 8c46 <test_med3+0xa8>
    8bfd:	48 89 c2             	mov    %rax,%rdx
    8c00:	48 8d 05 5a 00 00 00 	lea    0x5a(%rip),%rax        # 8c61 <test_med3+0xc3>
    8c07:	48 89 c1             	mov    %rax,%rcx
    8c0a:	e8 34 74 ff ff       	call   43 <printf>
    8c0f:	48 8d 45 f4          	lea    -0xc(%rbp),%rax
    8c13:	f3 0f 10 0d e8 07 00 	movss  0x7e8(%rip),%xmm1        # 9403 <test_delay+0x47>
    8c1a:	00 
    8c1b:	48 89 c1             	mov    %rax,%rcx
    8c1e:	e8 00 00 00 00       	call   8c23 <test_med3+0x85>
    8c23:	66 0f 7e c0          	movd   %xmm0,%eax
    8c27:	89 45 fc             	mov    %eax,-0x4(%rbp)
    8c2a:	f3 0f 10 45 fc       	movss  -0x4(%rbp),%xmm0
    8c2f:	0f 2e 05 e8 07 00 00 	ucomiss 0x7e8(%rip),%xmm0        # 941e <test_delay+0x62>
    8c36:	7a 0e                	jp     8c46 <test_med3+0xa8>
    8c38:	f3 0f 10 45 fc       	movss  -0x4(%rbp),%xmm0
    8c3d:	0f 2e 05 e8 07 00 00 	ucomiss 0x7e8(%rip),%xmm0        # 942c <test_delay+0x70>
    8c44:	74 1f                	je     8c65 <test_med3+0xc7>
    8c46:	41 b8 43 04 00 00    	mov    $0x443,%r8d
    8c4c:	48 8d 05 49 00 00 00 	lea    0x49(%rip),%rax        # 8c9c <test_med3+0xfe>
    8c53:	48 89 c2             	mov    %rax,%rdx
    8c56:	48 8d 05 5a 00 00 00 	lea    0x5a(%rip),%rax        # 8cb7 <test_med3+0x119>
    8c5d:	48 89 c1             	mov    %rax,%rcx
    8c60:	e8 de 73 ff ff       	call   43 <printf>
    8c65:	48 8d 45 f4          	lea    -0xc(%rbp),%rax
    8c69:	f3 0f 10 0d f8 07 00 	movss  0x7f8(%rip),%xmm1        # 9469 <test_delay+0xad>
    8c70:	00 
    8c71:	48 89 c1             	mov    %rax,%rcx
    8c74:	e8 00 00 00 00       	call   8c79 <test_med3+0xdb>
    8c79:	66 0f 7e c0          	movd   %xmm0,%eax
    8c7d:	89 45 fc             	mov    %eax,-0x4(%rbp)
    8c80:	f3 0f 10 45 fc       	movss  -0x4(%rbp),%xmm0
    8c85:	0f 2e 05 ac 07 00 00 	ucomiss 0x7ac(%rip),%xmm0        # 9438 <test_delay+0x7c>
    8c8c:	7a 0e                	jp     8c9c <test_med3+0xfe>
    8c8e:	f3 0f 10 45 fc       	movss  -0x4(%rbp),%xmm0
    8c93:	0f 2e 05 ac 07 00 00 	ucomiss 0x7ac(%rip),%xmm0        # 9446 <test_delay+0x8a>
    8c9a:	74 1f                	je     8cbb <test_med3+0x11d>
    8c9c:	41 b8 45 04 00 00    	mov    $0x445,%r8d
    8ca2:	48 8d 05 49 00 00 00 	lea    0x49(%rip),%rax        # 8cf2 <test_med3+0x154>
    8ca9:	48 89 c2             	mov    %rax,%rdx
    8cac:	48 8d 05 5a 00 00 00 	lea    0x5a(%rip),%rax        # 8d0d <test_med3+0x16f>
    8cb3:	48 89 c1             	mov    %rax,%rcx
    8cb6:	e8 88 73 ff ff       	call   43 <printf>
    8cbb:	48 8d 45 f4          	lea    -0xc(%rbp),%rax
    8cbf:	f3 0f 10 0d f8 07 00 	movss  0x7f8(%rip),%xmm1        # 94bf <test_delay+0x103>
    8cc6:	00 
    8cc7:	48 89 c1             	mov    %rax,%rcx
    8cca:	e8 00 00 00 00       	call   8ccf <test_med3+0x131>
    8ccf:	66 0f 7e c0          	movd   %xmm0,%eax
    8cd3:	89 45 fc             	mov    %eax,-0x4(%rbp)
    8cd6:	48 8d 45 f4          	lea    -0xc(%rbp),%rax
    8cda:	f3 0f 10 0d f8 07 00 	movss  0x7f8(%rip),%xmm1        # 94da <test_delay+0x11e>
    8ce1:	00 
    8ce2:	48 89 c1             	mov    %rax,%rcx
    8ce5:	e8 00 00 00 00       	call   8cea <test_med3+0x14c>
    8cea:	66 0f 7e c0          	movd   %xmm0,%eax
    8cee:	89 45 fc             	mov    %eax,-0x4(%rbp)
    8cf1:	f3 0f 10 45 fc       	movss  -0x4(%rbp),%xmm0
    8cf6:	0f 2e 05 f8 07 00 00 	ucomiss 0x7f8(%rip),%xmm0        # 94f5 <test_delay+0x139>
    8cfd:	7a 0e                	jp     8d0d <test_med3+0x16f>
    8cff:	f3 0f 10 45 fc       	movss  -0x4(%rbp),%xmm0
    8d04:	0f 2e 05 f8 07 00 00 	ucomiss 0x7f8(%rip),%xmm0        # 9503 <test_delay+0x147>
    8d0b:	74 1f                	je     8d2c <test_med3+0x18e>
    8d0d:	41 b8 48 04 00 00    	mov    $0x448,%r8d
    8d13:	48 8d 05 49 00 00 00 	lea    0x49(%rip),%rax        # 8d63 <test_rollsum+0x30>
    8d1a:	48 89 c2             	mov    %rax,%rdx
    8d1d:	48 8d 05 5a 00 00 00 	lea    0x5a(%rip),%rax        # 8d7e <test_rollsum+0x4b>
    8d24:	48 89 c1             	mov    %rax,%rcx
    8d27:	e8 17 73 ff ff       	call   43 <printf>
    8d2c:	90                   	nop
    8d2d:	48 83 c4 30          	add    $0x30,%rsp
    8d31:	5d                   	pop    %rbp
    8d32:	c3                   	ret

0000000000008d33 <test_rollsum>:
    8d33:	55                   	push   %rbp
    8d34:	48 89 e5             	mov    %rsp,%rbp
    8d37:	48 83 c4 80          	add    $0xffffffffffffff80,%rsp
    8d3b:	48 8d 05 f0 05 00 00 	lea    0x5f0(%rip),%rax        # 9332 <test_rollrms+0x46>
    8d42:	48 89 c1             	mov    %rax,%rcx
    8d45:	e8 f9 72 ff ff       	call   43 <printf>
    8d4a:	f3 0f 10 05 a0 07 00 	movss  0x7a0(%rip),%xmm0        # 94f2 <test_delay+0x136>
    8d51:	00 
    8d52:	f3 0f 11 45 e0       	movss  %xmm0,-0x20(%rbp)
    8d57:	f3 0f 10 05 9c 07 00 	movss  0x79c(%rip),%xmm0        # 94fb <test_delay+0x13f>
    8d5e:	00 
    8d5f:	f3 0f 11 45 e4       	movss  %xmm0,-0x1c(%rbp)
    8d64:	f3 0f 10 05 b4 07 00 	movss  0x7b4(%rip),%xmm0        # 9520 <test_delay+0x164>
    8d6b:	00 
    8d6c:	f3 0f 11 45 e8       	movss  %xmm0,-0x18(%rbp)
    8d71:	f3 0f 10 05 b8 07 00 	movss  0x7b8(%rip),%xmm0        # 9531 <test_delay+0x175>
    8d78:	00 
    8d79:	f3 0f 11 45 ec       	movss  %xmm0,-0x14(%rbp)
    8d7e:	c7 45 da 00 00 00 00 	movl   $0x0,-0x26(%rbp)
    8d85:	66 c7 45 de 00 00    	movw   $0x0,-0x22(%rbp)
    8d8b:	48 c7 45 d0 00 00 00 	movq   $0x0,-0x30(%rbp)
    8d92:	00 
    8d93:	48 8d 45 da          	lea    -0x26(%rbp),%rax
    8d97:	48 89 45 b0          	mov    %rax,-0x50(%rbp)
    8d9b:	48 8d 45 e0          	lea    -0x20(%rbp),%rax
    8d9f:	48 89 45 b8          	mov    %rax,-0x48(%rbp)
    8da3:	66 c7 45 c0 04 00    	movw   $0x4,-0x40(%rbp)
    8da9:	48 8d 45 d0          	lea    -0x30(%rbp),%rax
    8dad:	48 89 45 a0          	mov    %rax,-0x60(%rbp)
    8db1:	48 8d 45 b0          	lea    -0x50(%rbp),%rax
    8db5:	48 89 45 a8          	mov    %rax,-0x58(%rbp)
    8db9:	48 8d 45 a0          	lea    -0x60(%rbp),%rax
    8dbd:	ba 04 00 00 00       	mov    $0x4,%edx
    8dc2:	48 89 c1             	mov    %rax,%rcx
    8dc5:	e8 00 00 00 00       	call   8dca <test_rollsum+0x97>
    8dca:	f3 0f 10 45 e0       	movss  -0x20(%rbp),%xmm0
    8dcf:	66 0f ef c9          	pxor   %xmm1,%xmm1
    8dd3:	0f 2e c1             	ucomiss %xmm1,%xmm0
    8dd6:	7a 4e                	jp     8e26 <test_rollsum+0xf3>
    8dd8:	66 0f ef c9          	pxor   %xmm1,%xmm1
    8ddc:	0f 2e c1             	ucomiss %xmm1,%xmm0
    8ddf:	75 45                	jne    8e26 <test_rollsum+0xf3>
    8de1:	f3 0f 10 45 e4       	movss  -0x1c(%rbp),%xmm0
    8de6:	66 0f ef c9          	pxor   %xmm1,%xmm1
    8dea:	0f 2e c1             	ucomiss %xmm1,%xmm0
    8ded:	7a 37                	jp     8e26 <test_rollsum+0xf3>
    8def:	66 0f ef c9          	pxor   %xmm1,%xmm1
    8df3:	0f 2e c1             	ucomiss %xmm1,%xmm0
    8df6:	75 2e                	jne    8e26 <test_rollsum+0xf3>
    8df8:	f3 0f 10 45 e8       	movss  -0x18(%rbp),%xmm0
    8dfd:	66 0f ef c9          	pxor   %xmm1,%xmm1
    8e01:	0f 2e c1             	ucomiss %xmm1,%xmm0
    8e04:	7a 20                	jp     8e26 <test_rollsum+0xf3>
    8e06:	66 0f ef c9          	pxor   %xmm1,%xmm1
    8e0a:	0f 2e c1             	ucomiss %xmm1,%xmm0
    8e0d:	75 17                	jne    8e26 <test_rollsum+0xf3>
    8e0f:	f3 0f 10 45 ec       	movss  -0x14(%rbp),%xmm0
    8e14:	66 0f ef c9          	pxor   %xmm1,%xmm1
    8e18:	0f 2e c1             	ucomiss %xmm1,%xmm0
    8e1b:	7a 09                	jp     8e26 <test_rollsum+0xf3>
    8e1d:	66 0f ef c9          	pxor   %xmm1,%xmm1
    8e21:	0f 2e c1             	ucomiss %xmm1,%xmm0
    8e24:	74 1f                	je     8e45 <test_rollsum+0x112>
    8e26:	41 b8 56 04 00 00    	mov    $0x456,%r8d
    8e2c:	48 8d 05 49 00 00 00 	lea    0x49(%rip),%rax        # 8e7c <test_rollsum+0x149>
    8e33:	48 89 c2             	mov    %rax,%rdx
    8e36:	48 8d 05 5a 00 00 00 	lea    0x5a(%rip),%rax        # 8e97 <test_rollsum+0x164>
    8e3d:	48 89 c1             	mov    %rax,%rcx
    8e40:	e8 fe 71 ff ff       	call   43 <printf>
    8e45:	48 8d 45 a0          	lea    -0x60(%rbp),%rax
    8e49:	f3 0f 10 0d ac 07 00 	movss  0x7ac(%rip),%xmm1        # 95fd <test_delay+0x241>
    8e50:	00 
    8e51:	48 89 c1             	mov    %rax,%rcx
    8e54:	e8 00 00 00 00       	call   8e59 <test_rollsum+0x126>
    8e59:	66 0f 7e c0          	movd   %xmm0,%eax
    8e5d:	89 45 fc             	mov    %eax,-0x4(%rbp)
    8e60:	f3 0f 10 45 fc       	movss  -0x4(%rbp),%xmm0
    8e65:	0f 2e 05 ac 07 00 00 	ucomiss 0x7ac(%rip),%xmm0        # 9618 <test_delay+0x25c>
    8e6c:	7a 0e                	jp     8e7c <test_rollsum+0x149>
    8e6e:	f3 0f 10 45 fc       	movss  -0x4(%rbp),%xmm0
    8e73:	0f 2e 05 ac 07 00 00 	ucomiss 0x7ac(%rip),%xmm0        # 9626 <test_delay+0x26a>
    8e7a:	74 1f                	je     8e9b <test_rollsum+0x168>
    8e7c:	41 b8 59 04 00 00    	mov    $0x459,%r8d
    8e82:	48 8d 05 49 00 00 00 	lea    0x49(%rip),%rax        # 8ed2 <test_rollsum+0x19f>
    8e89:	48 89 c2             	mov    %rax,%rdx
    8e8c:	48 8d 05 5a 00 00 00 	lea    0x5a(%rip),%rax        # 8eed <test_rollsum+0x1ba>
    8e93:	48 89 c1             	mov    %rax,%rcx
    8e96:	e8 a8 71 ff ff       	call   43 <printf>
    8e9b:	48 8d 45 a0          	lea    -0x60(%rbp),%rax
    8e9f:	f3 0f 10 0d a0 07 00 	movss  0x7a0(%rip),%xmm1        # 9647 <test_delay+0x28b>
    8ea6:	00 
    8ea7:	48 89 c1             	mov    %rax,%rcx
    8eaa:	e8 00 00 00 00       	call   8eaf <test_rollsum+0x17c>
    8eaf:	66 0f 7e c0          	movd   %xmm0,%eax
    8eb3:	89 45 fc             	mov    %eax,-0x4(%rbp)
    8eb6:	f3 0f 10 45 fc       	movss  -0x4(%rbp),%xmm0
    8ebb:	0f 2e 05 a8 08 00 00 	ucomiss 0x8a8(%rip),%xmm0        # 976a <test_delay+0x3ae>
    8ec2:	7a 0e                	jp     8ed2 <test_rollsum+0x19f>
    8ec4:	f3 0f 10 45 fc       	movss  -0x4(%rbp),%xmm0
    8ec9:	0f 2e 05 a8 08 00 00 	ucomiss 0x8a8(%rip),%xmm0        # 9778 <test_delay+0x3bc>
    8ed0:	74 1f                	je     8ef1 <test_rollsum+0x1be>
    8ed2:	41 b8 5b 04 00 00    	mov    $0x45b,%r8d
    8ed8:	48 8d 05 49 00 00 00 	lea    0x49(%rip),%rax        # 8f28 <test_rollsum+0x1f5>
    8edf:	48 89 c2             	mov    %rax,%rdx
    8ee2:	48 8d 05 5a 00 00 00 	lea    0x5a(%rip),%rax        # 8f43 <test_rollsum+0x210>
    8ee9:	48 89 c1             	mov    %rax,%rcx
    8eec:	e8 52 71 ff ff       	call   43 <printf>
    8ef1:	48 8d 45 a0          	lea    -0x60(%rbp),%rax
    8ef5:	f3 0f 10 0d b4 07 00 	movss  0x7b4(%rip),%xmm1        # 96b1 <test_delay+0x2f5>
    8efc:	00 
    8efd:	48 89 c1             	mov    %rax,%rcx
    8f00:	e8 00 00 00 00       	call   8f05 <test_rollsum+0x1d2>
    8f05:	66 0f 7e c0          	movd   %xmm0,%eax
    8f09:	89 45 fc             	mov    %eax,-0x4(%rbp)
    8f0c:	f3 0f 10 45 fc       	movss  -0x4(%rbp),%xmm0
    8f11:	0f 2e 05 ac 08 00 00 	ucomiss 0x8ac(%rip),%xmm0        # 97c4 <test_setp+0x17>
    8f18:	7a 0e                	jp     8f28 <test_rollsum+0x1f5>
    8f1a:	f3 0f 10 45 fc       	movss  -0x4(%rbp),%xmm0
    8f1f:	0f 2e 05 ac 08 00 00 	ucomiss 0x8ac(%rip),%xmm0        # 97d2 <test_setp+0x25>
    8f26:	74 1f                	je     8f47 <test_rollsum+0x214>
    8f28:	41 b8 5d 04 00 00    	mov    $0x45d,%r8d
    8f2e:	48 8d 05 49 00 00 00 	lea    0x49(%rip),%rax        # 8f7e <test_rollsum+0x24b>
    8f35:	48 89 c2             	mov    %rax,%rdx
    8f38:	48 8d 05 5a 00 00 00 	lea    0x5a(%rip),%rax        # 8f99 <test_rollsum+0x266>
    8f3f:	48 89 c1             	mov    %rax,%rcx
    8f42:	e8 fc 70 ff ff       	call   43 <printf>
    8f47:	48 8d 45 a0          	lea    -0x60(%rbp),%rax
    8f4b:	f3 0f 10 0d ec 07 00 	movss  0x7ec(%rip),%xmm1        # 973f <test_delay+0x383>
    8f52:	00 
    8f53:	48 89 c1             	mov    %rax,%rcx
    8f56:	e8 00 00 00 00       	call   8f5b <test_rollsum+0x228>
    8f5b:	66 0f 7e c0          	movd   %xmm0,%eax
    8f5f:	89 45 fc             	mov    %eax,-0x4(%rbp)
    8f62:	f3 0f 10 45 fc       	movss  -0x4(%rbp),%xmm0
    8f67:	0f 2e 05 f8 07 00 00 	ucomiss 0x7f8(%rip),%xmm0        # 9766 <test_delay+0x3aa>
    8f6e:	7a 0e                	jp     8f7e <test_rollsum+0x24b>
    8f70:	f3 0f 10 45 fc       	movss  -0x4(%rbp),%xmm0
    8f75:	0f 2e 05 f8 07 00 00 	ucomiss 0x7f8(%rip),%xmm0        # 9774 <test_delay+0x3b8>
    8f7c:	74 1f                	je     8f9d <test_rollsum+0x26a>
    8f7e:	41 b8 5f 04 00 00    	mov    $0x45f,%r8d
    8f84:	48 8d 05 49 00 00 00 	lea    0x49(%rip),%rax        # 8fd4 <test_rollsum+0x2a1>
    8f8b:	48 89 c2             	mov    %rax,%rdx
    8f8e:	48 8d 05 5a 00 00 00 	lea    0x5a(%rip),%rax        # 8fef <test_rollsum+0x2bc>
    8f95:	48 89 c1             	mov    %rax,%rcx
    8f98:	e8 a6 70 ff ff       	call   43 <printf>
    8f9d:	48 8d 45 a0          	lea    -0x60(%rbp),%rax
    8fa1:	66 0f ef c9          	pxor   %xmm1,%xmm1
    8fa5:	48 89 c1             	mov    %rax,%rcx
    8fa8:	e8 00 00 00 00       	call   8fad <test_rollsum+0x27a>
    8fad:	66 0f 7e c0          	movd   %xmm0,%eax
    8fb1:	89 45 fc             	mov    %eax,-0x4(%rbp)
    8fb4:	f3 0f 10 45 fc       	movss  -0x4(%rbp),%xmm0
    8fb9:	0f 2e 05 ac 07 00 00 	ucomiss 0x7ac(%rip),%xmm0        # 976c <test_delay+0x3b0>
    8fc0:	7a 0e                	jp     8fd0 <test_rollsum+0x29d>
    8fc2:	f3 0f 10 45 fc       	movss  -0x4(%rbp),%xmm0
    8fc7:	0f 2e 05 ac 07 00 00 	ucomiss 0x7ac(%rip),%xmm0        # 977a <test_delay+0x3be>
    8fce:	74 1f                	je     8fef <test_rollsum+0x2bc>
    8fd0:	41 b8 61 04 00 00    	mov    $0x461,%r8d
    8fd6:	48 8d 05 49 00 00 00 	lea    0x49(%rip),%rax        # 9026 <test_rollsum+0x2f3>
    8fdd:	48 89 c2             	mov    %rax,%rdx
    8fe0:	48 8d 05 5a 00 00 00 	lea    0x5a(%rip),%rax        # 9041 <test_rollsum+0x30e>
    8fe7:	48 89 c1             	mov    %rax,%rcx
    8fea:	e8 54 70 ff ff       	call   43 <printf>
    8fef:	48 8d 45 a0          	lea    -0x60(%rbp),%rax
    8ff3:	ba 02 00 00 00       	mov    $0x2,%edx
    8ff8:	48 89 c1             	mov    %rax,%rcx
    8ffb:	e8 00 00 00 00       	call   9000 <test_rollsum+0x2cd>
    9000:	48 8d 45 a0          	lea    -0x60(%rbp),%rax
    9004:	f3 0f 10 0d ac 07 00 	movss  0x7ac(%rip),%xmm1        # 97b8 <test_setp+0xb>
    900b:	00 
    900c:	48 89 c1             	mov    %rax,%rcx
    900f:	e8 00 00 00 00       	call   9014 <test_rollsum+0x2e1>
    9014:	66 0f 7e c0          	movd   %xmm0,%eax
    9018:	89 45 fc             	mov    %eax,-0x4(%rbp)
    901b:	f3 0f 10 45 fc       	movss  -0x4(%rbp),%xmm0
    9020:	0f 2e 05 ac 07 00 00 	ucomiss 0x7ac(%rip),%xmm0        # 97d3 <test_setp+0x26>
    9027:	7a 0e                	jp     9037 <test_rollsum+0x304>
    9029:	f3 0f 10 45 fc       	movss  -0x4(%rbp),%xmm0
    902e:	0f 2e 05 ac 07 00 00 	ucomiss 0x7ac(%rip),%xmm0        # 97e1 <test_setp+0x34>
    9035:	74 1f                	je     9056 <test_rollsum+0x323>
    9037:	41 b8 65 04 00 00    	mov    $0x465,%r8d
    903d:	48 8d 05 49 00 00 00 	lea    0x49(%rip),%rax        # 908d <test_rollsum+0x35a>
    9044:	48 89 c2             	mov    %rax,%rdx
    9047:	48 8d 05 5a 00 00 00 	lea    0x5a(%rip),%rax        # 90a8 <test_rollsum+0x375>
    904e:	48 89 c1             	mov    %rax,%rcx
    9051:	e8 ed 6f ff ff       	call   43 <printf>
    9056:	48 8d 45 a0          	lea    -0x60(%rbp),%rax
    905a:	f3 0f 10 0d a0 07 00 	movss  0x7a0(%rip),%xmm1        # 9802 <test_setp+0x55>
    9061:	00 
    9062:	48 89 c1             	mov    %rax,%rcx
    9065:	e8 00 00 00 00       	call   906a <test_rollsum+0x337>
    906a:	66 0f 7e c0          	movd   %xmm0,%eax
    906e:	89 45 fc             	mov    %eax,-0x4(%rbp)
    9071:	f3 0f 10 45 fc       	movss  -0x4(%rbp),%xmm0
    9076:	0f 2e 05 a8 08 00 00 	ucomiss 0x8a8(%rip),%xmm0        # 9925 <test_setp+0x178>
    907d:	7a 0e                	jp     908d <test_rollsum+0x35a>
    907f:	f3 0f 10 45 fc       	movss  -0x4(%rbp),%xmm0
    9084:	0f 2e 05 a8 08 00 00 	ucomiss 0x8a8(%rip),%xmm0        # 9933 <test_setp+0x186>
    908b:	74 1f                	je     90ac <test_rollsum+0x379>
    908d:	41 b8 67 04 00 00    	mov    $0x467,%r8d
    9093:	48 8d 05 49 00 00 00 	lea    0x49(%rip),%rax        # 90e3 <test_rollsum+0x3b0>
    909a:	48 89 c2             	mov    %rax,%rdx
    909d:	48 8d 05 5a 00 00 00 	lea    0x5a(%rip),%rax        # 90fe <test_rollsum+0x3cb>
    90a4:	48 89 c1             	mov    %rax,%rcx
    90a7:	e8 97 6f ff ff       	call   43 <printf>
    90ac:	48 8d 45 a0          	lea    -0x60(%rbp),%rax
    90b0:	f3 0f 10 0d a0 07 00 	movss  0x7a0(%rip),%xmm1        # 9858 <test_setp+0xab>
    90b7:	00 
    90b8:	48 89 c1             	mov    %rax,%rcx
    90bb:	e8 00 00 00 00       	call   90c0 <test_rollsum+0x38d>
    90c0:	66 0f 7e c0          	movd   %xmm0,%eax
    90c4:	89 45 fc             	mov    %eax,-0x4(%rbp)
    90c7:	f3 0f 10 45 fc       	movss  -0x4(%rbp),%xmm0
    90cc:	0f 2e 05 9c 07 00 00 	ucomiss 0x79c(%rip),%xmm0        # 986f <test_setp+0xc2>
    90d3:	7a 0e                	jp     90e3 <test_rollsum+0x3b0>
    90d5:	f3 0f 10 45 fc       	movss  -0x4(%rbp),%xmm0
    90da:	0f 2e 05 9c 07 00 00 	ucomiss 0x79c(%rip),%xmm0        # 987d <test_setp+0xd0>
    90e1:	74 1f                	je     9102 <test_rollsum+0x3cf>
    90e3:	41 b8 69 04 00 00    	mov    $0x469,%r8d
    90e9:	48 8d 05 49 00 00 00 	lea    0x49(%rip),%rax        # 9139 <test_rollavg+0x30>
    90f0:	48 89 c2             	mov    %rax,%rdx
    90f3:	48 8d 05 5a 00 00 00 	lea    0x5a(%rip),%rax        # 9154 <test_rollavg+0x4b>
    90fa:	48 89 c1             	mov    %rax,%rcx
    90fd:	e8 41 6f ff ff       	call   43 <printf>
    9102:	90                   	nop
    9103:	48 83 ec 80          	sub    $0xffffffffffffff80,%rsp
    9107:	5d                   	pop    %rbp
    9108:	c3                   	ret

0000000000009109 <test_rollavg>:
    9109:	55                   	push   %rbp
    910a:	48 89 e5             	mov    %rsp,%rbp
    910d:	48 83 c4 80          	add    $0xffffffffffffff80,%rsp
    9111:	48 8d 05 10 06 00 00 	lea    0x610(%rip),%rax        # 9728 <test_delay+0x36c>
    9118:	48 89 c1             	mov    %rax,%rcx
    911b:	e8 23 6f ff ff       	call   43 <printf>
    9120:	48 c7 45 e0 00 00 00 	movq   $0x0,-0x20(%rbp)
    9127:	00 
    9128:	48 c7 45 e8 00 00 00 	movq   $0x0,-0x18(%rbp)
    912f:	00 
    9130:	c7 45 da 00 00 00 00 	movl   $0x0,-0x26(%rbp)
    9137:	66 c7 45 de 00 00    	movw   $0x0,-0x22(%rbp)
    913d:	48 c7 45 d0 00 00 00 	movq   $0x0,-0x30(%rbp)
    9144:	00 
    9145:	48 8d 45 da          	lea    -0x26(%rbp),%rax
    9149:	48 89 45 b0          	mov    %rax,-0x50(%rbp)
    914d:	48 8d 45 e0          	lea    -0x20(%rbp),%rax
    9151:	48 89 45 b8          	mov    %rax,-0x48(%rbp)
    9155:	66 c7 45 c0 04 00    	movw   $0x4,-0x40(%rbp)
    915b:	48 8d 45 d0          	lea    -0x30(%rbp),%rax
    915f:	48 89 45 a0          	mov    %rax,-0x60(%rbp)
    9163:	48 8d 45 b0          	lea    -0x50(%rbp),%rax
    9167:	48 89 45 a8          	mov    %rax,-0x58(%rbp)
    916b:	48 8d 45 a0          	lea    -0x60(%rbp),%rax
    916f:	ba 04 00 00 00       	mov    $0x4,%edx
    9174:	48 89 c1             	mov    %rax,%rcx
    9177:	e8 00 00 00 00       	call   917c <test_rollavg+0x73>
    917c:	48 8d 45 a0          	lea    -0x60(%rbp),%rax
    9180:	ba 05 00 00 00       	mov    $0x5,%edx
    9185:	48 89 c1             	mov    %rax,%rcx
    9188:	e8 00 00 00 00       	call   918d <test_rollavg+0x84>
    918d:	48 8d 45 a0          	lea    -0x60(%rbp),%rax
    9191:	f3 0f 10 0d a0 07 00 	movss  0x7a0(%rip),%xmm1        # 9939 <test_setp+0x18c>
    9198:	00 
    9199:	48 89 c1             	mov    %rax,%rcx
    919c:	e8 00 00 00 00       	call   91a1 <test_rollavg+0x98>
    91a1:	66 0f 7e c0          	movd   %xmm0,%eax
    91a5:	89 45 fc             	mov    %eax,-0x4(%rbp)
    91a8:	f3 0f 10 45 fc       	movss  -0x4(%rbp),%xmm0
    91ad:	0f 2e 05 b0 08 00 00 	ucomiss 0x8b0(%rip),%xmm0        # 9a64 <test_setp+0x2b7>
    91b4:	7a 0e                	jp     91c4 <test_rollavg+0xbb>
    91b6:	f3 0f 10 45 fc       	movss  -0x4(%rbp),%xmm0
    91bb:	0f 2e 05 b0 08 00 00 	ucomiss 0x8b0(%rip),%xmm0        # 9a72 <test_setp+0x2c5>
    91c2:	74 1f                	je     91e3 <test_rollavg+0xda>
    91c4:	41 b8 79 04 00 00    	mov    $0x479,%r8d
    91ca:	48 8d 05 49 00 00 00 	lea    0x49(%rip),%rax        # 921a <test_rollavg+0x111>
    91d1:	48 89 c2             	mov    %rax,%rdx
    91d4:	48 8d 05 5a 00 00 00 	lea    0x5a(%rip),%rax        # 9235 <test_rollavg+0x12c>
    91db:	48 89 c1             	mov    %rax,%rcx
    91de:	e8 60 6e ff ff       	call   43 <printf>
    91e3:	48 8d 45 a0          	lea    -0x60(%rbp),%rax
    91e7:	f3 0f 10 0d a0 07 00 	movss  0x7a0(%rip),%xmm1        # 998f <test_setp+0x1e2>
    91ee:	00 
    91ef:	48 89 c1             	mov    %rax,%rcx
    91f2:	e8 00 00 00 00       	call   91f7 <test_rollavg+0xee>
    91f7:	66 0f 7e c0          	movd   %xmm0,%eax
    91fb:	89 45 fc             	mov    %eax,-0x4(%rbp)
    91fe:	f3 0f 10 45 fc       	movss  -0x4(%rbp),%xmm0
    9203:	0f 2e 05 cc 07 00 00 	ucomiss 0x7cc(%rip),%xmm0        # 99d6 <test_setp+0x229>
    920a:	7a 0e                	jp     921a <test_rollavg+0x111>
    920c:	f3 0f 10 45 fc       	movss  -0x4(%rbp),%xmm0
    9211:	0f 2e 05 cc 07 00 00 	ucomiss 0x7cc(%rip),%xmm0        # 99e4 <test_setp+0x237>
    9218:	74 1f                	je     9239 <test_rollavg+0x130>
    921a:	41 b8 7b 04 00 00    	mov    $0x47b,%r8d
    9220:	48 8d 05 49 00 00 00 	lea    0x49(%rip),%rax        # 9270 <test_rollavg+0x167>
    9227:	48 89 c2             	mov    %rax,%rdx
    922a:	48 8d 05 5a 00 00 00 	lea    0x5a(%rip),%rax        # 928b <test_rollavg+0x182>
    9231:	48 89 c1             	mov    %rax,%rcx
    9234:	e8 0a 6e ff ff       	call   43 <printf>
    9239:	48 8d 45 a0          	lea    -0x60(%rbp),%rax
    923d:	f3 0f 10 0d a0 07 00 	movss  0x7a0(%rip),%xmm1        # 99e5 <test_setp+0x238>
    9244:	00 
    9245:	48 89 c1             	mov    %rax,%rcx
    9248:	e8 00 00 00 00       	call   924d <test_rollavg+0x144>
    924d:	66 0f 7e c0          	movd   %xmm0,%eax
    9251:	89 45 fc             	mov    %eax,-0x4(%rbp)
    9254:	f3 0f 10 45 fc       	movss  -0x4(%rbp),%xmm0
    9259:	0f 2e 05 7c 08 00 00 	ucomiss 0x87c(%rip),%xmm0        # 9adc <test_setp+0x32f>
    9260:	7a 0e                	jp     9270 <test_rollavg+0x167>
    9262:	f3 0f 10 45 fc       	movss  -0x4(%rbp),%xmm0
    9267:	0f 2e 05 7c 08 00 00 	ucomiss 0x87c(%rip),%xmm0        # 9aea <test_setp+0x33d>
    926e:	74 1f                	je     928f <test_rollavg+0x186>
    9270:	41 b8 7d 04 00 00    	mov    $0x47d,%r8d
    9276:	48 8d 05 49 00 00 00 	lea    0x49(%rip),%rax        # 92c6 <test_rollavg+0x1bd>
    927d:	48 89 c2             	mov    %rax,%rdx
    9280:	48 8d 05 5a 00 00 00 	lea    0x5a(%rip),%rax        # 92e1 <test_rollavg+0x1d8>
    9287:	48 89 c1             	mov    %rax,%rcx
    928a:	e8 b4 6d ff ff       	call   43 <printf>
    928f:	48 8d 45 a0          	lea    -0x60(%rbp),%rax
    9293:	f3 0f 10 0d a0 07 00 	movss  0x7a0(%rip),%xmm1        # 9a3b <test_setp+0x28e>
    929a:	00 
    929b:	48 89 c1             	mov    %rax,%rcx
    929e:	e8 00 00 00 00       	call   92a3 <test_rollavg+0x19a>
    92a3:	66 0f 7e c0          	movd   %xmm0,%eax
    92a7:	89 45 fc             	mov    %eax,-0x4(%rbp)
    92aa:	f3 0f 10 05 a0 07 00 	movss  0x7a0(%rip),%xmm0        # 9a52 <test_setp+0x2a5>
    92b1:	00 
    92b2:	0f 2e 45 fc          	ucomiss -0x4(%rbp),%xmm0
    92b6:	7a 0e                	jp     92c6 <test_rollavg+0x1bd>
    92b8:	f3 0f 10 05 a0 07 00 	movss  0x7a0(%rip),%xmm0        # 9a60 <test_setp+0x2b3>
    92bf:	00 
    92c0:	0f 2e 45 fc          	ucomiss -0x4(%rbp),%xmm0
    92c4:	74 1f                	je     92e5 <test_rollavg+0x1dc>
    92c6:	41 b8 7f 04 00 00    	mov    $0x47f,%r8d
    92cc:	48 8d 05 49 00 00 00 	lea    0x49(%rip),%rax        # 931c <test_rollrms+0x30>
    92d3:	48 89 c2             	mov    %rax,%rdx
    92d6:	48 8d 05 5a 00 00 00 	lea    0x5a(%rip),%rax        # 9337 <test_rollrms+0x4b>
    92dd:	48 89 c1             	mov    %rax,%rcx
    92e0:	e8 5e 6d ff ff       	call   43 <printf>
    92e5:	90                   	nop
    92e6:	48 83 ec 80          	sub    $0xffffffffffffff80,%rsp
    92ea:	5d                   	pop    %rbp
    92eb:	c3                   	ret

00000000000092ec <test_rollrms>:
    92ec:	55                   	push   %rbp
    92ed:	48 89 e5             	mov    %rsp,%rbp
    92f0:	48 83 c4 80          	add    $0xffffffffffffff80,%rsp
    92f4:	48 8d 05 30 06 00 00 	lea    0x630(%rip),%rax        # 992b <test_setp+0x17e>
    92fb:	48 89 c1             	mov    %rax,%rcx
    92fe:	e8 40 6d ff ff       	call   43 <printf>
    9303:	48 c7 45 e0 00 00 00 	movq   $0x0,-0x20(%rbp)
    930a:	00 
    930b:	48 c7 45 e8 00 00 00 	movq   $0x0,-0x18(%rbp)
    9312:	00 
    9313:	c7 45 da 00 00 00 00 	movl   $0x0,-0x26(%rbp)
    931a:	66 c7 45 de 00 00    	movw   $0x0,-0x22(%rbp)
    9320:	48 c7 45 d0 00 00 00 	movq   $0x0,-0x30(%rbp)
    9327:	00 
    9328:	48 8d 45 da          	lea    -0x26(%rbp),%rax
    932c:	48 89 45 b0          	mov    %rax,-0x50(%rbp)
    9330:	48 8d 45 e0          	lea    -0x20(%rbp),%rax
    9334:	48 89 45 b8          	mov    %rax,-0x48(%rbp)
    9338:	66 c7 45 c0 04 00    	movw   $0x4,-0x40(%rbp)
    933e:	48 8d 45 d0          	lea    -0x30(%rbp),%rax
    9342:	48 89 45 a0          	mov    %rax,-0x60(%rbp)
    9346:	48 8d 45 b0          	lea    -0x50(%rbp),%rax
    934a:	48 89 45 a8          	mov    %rax,-0x58(%rbp)
    934e:	48 8d 45 a0          	lea    -0x60(%rbp),%rax
    9352:	ba 04 00 00 00       	mov    $0x4,%edx
    9357:	48 89 c1             	mov    %rax,%rcx
    935a:	e8 00 00 00 00       	call   935f <test_rollrms+0x73>
    935f:	48 8d 45 a0          	lea    -0x60(%rbp),%rax
    9363:	f3 0f 10 0d a0 07 00 	movss  0x7a0(%rip),%xmm1        # 9b0b <test_setp+0x35e>
    936a:	00 
    936b:	48 89 c1             	mov    %rax,%rcx
    936e:	e8 00 00 00 00       	call   9373 <test_rollrms+0x87>
    9373:	66 0f 7e c0          	movd   %xmm0,%eax
    9377:	89 45 fc             	mov    %eax,-0x4(%rbp)
    937a:	f3 0f 10 45 fc       	movss  -0x4(%rbp),%xmm0
    937f:	0f 2e 05 cc 07 00 00 	ucomiss 0x7cc(%rip),%xmm0        # 9b52 <test_setp+0x3a5>
    9386:	7a 0e                	jp     9396 <test_rollrms+0xaa>
    9388:	f3 0f 10 45 fc       	movss  -0x4(%rbp),%xmm0
    938d:	0f 2e 05 cc 07 00 00 	ucomiss 0x7cc(%rip),%xmm0        # 9b60 <test_setp+0x3b3>
    9394:	74 1f                	je     93b5 <test_rollrms+0xc9>
    9396:	41 b8 8e 04 00 00    	mov    $0x48e,%r8d
    939c:	48 8d 05 49 00 00 00 	lea    0x49(%rip),%rax        # 93ec <test_delay+0x30>
    93a3:	48 89 c2             	mov    %rax,%rdx
    93a6:	48 8d 05 5a 00 00 00 	lea    0x5a(%rip),%rax        # 9407 <test_delay+0x4b>
    93ad:	48 89 c1             	mov    %rax,%rcx
    93b0:	e8 8e 6c ff ff       	call   43 <printf>
    93b5:	90                   	nop
    93b6:	48 83 ec 80          	sub    $0xffffffffffffff80,%rsp
    93ba:	5d                   	pop    %rbp
    93bb:	c3                   	ret

00000000000093bc <test_delay>:
    93bc:	55                   	push   %rbp
    93bd:	48 89 e5             	mov    %rsp,%rbp
    93c0:	48 83 ec 50          	sub    $0x50,%rsp
    93c4:	48 8d 05 4f 06 00 00 	lea    0x64f(%rip),%rax        # 9a1a <test_setp+0x26d>
    93cb:	48 89 c1             	mov    %rax,%rcx
    93ce:	e8 70 6c ff ff       	call   43 <printf>
    93d3:	c7 45 fc 00 00 00 00 	movl   $0x0,-0x4(%rbp)
    93da:	48 8d 45 fc          	lea    -0x4(%rbp),%rax
    93de:	48 89 45 e0          	mov    %rax,-0x20(%rbp)
    93e2:	66 c7 45 e8 02 00    	movw   $0x2,-0x18(%rbp)
    93e8:	66 c7 45 ea 03 00    	movw   $0x3,-0x16(%rbp)
    93ee:	48 8d 45 e0          	lea    -0x20(%rbp),%rax
    93f2:	48 89 c1             	mov    %rax,%rcx
    93f5:	e8 00 00 00 00       	call   93fa <test_delay+0x3e>
    93fa:	48 8d 45 e0          	lea    -0x20(%rbp),%rax
    93fe:	ba 00 00 00 00       	mov    $0x0,%edx
    9403:	48 89 c1             	mov    %rax,%rcx
    9406:	e8 00 00 00 00       	call   940b <test_delay+0x4f>
    940b:	84 c0                	test   %al,%al
    940d:	74 1f                	je     942e <test_delay+0x72>
    940f:	41 b8 99 04 00 00    	mov    $0x499,%r8d
    9415:	48 8d 05 49 00 00 00 	lea    0x49(%rip),%rax        # 9465 <test_delay+0xa9>
    941c:	48 89 c2             	mov    %rax,%rdx
    941f:	48 8d 05 5a 00 00 00 	lea    0x5a(%rip),%rax        # 9480 <test_delay+0xc4>
    9426:	48 89 c1             	mov    %rax,%rcx
    9429:	e8 15 6c ff ff       	call   43 <printf>
    942e:	48 8d 45 e0          	lea    -0x20(%rbp),%rax
    9432:	ba 00 00 00 00       	mov    $0x0,%edx
    9437:	48 89 c1             	mov    %rax,%rcx
    943a:	e8 00 00 00 00       	call   943f <test_delay+0x83>
    943f:	84 c0                	test   %al,%al
    9441:	74 1f                	je     9462 <test_delay+0xa6>
    9443:	41 b8 9a 04 00 00    	mov    $0x49a,%r8d
    9449:	48 8d 05 49 00 00 00 	lea    0x49(%rip),%rax        # 9499 <test_delay+0xdd>
    9450:	48 89 c2             	mov    %rax,%rdx
    9453:	48 8d 05 5a 00 00 00 	lea    0x5a(%rip),%rax        # 94b4 <test_delay+0xf8>
    945a:	48 89 c1             	mov    %rax,%rcx
    945d:	e8 e1 6b ff ff       	call   43 <printf>
    9462:	48 8d 45 e0          	lea    -0x20(%rbp),%rax
    9466:	ba 01 00 00 00       	mov    $0x1,%edx
    946b:	48 89 c1             	mov    %rax,%rcx
    946e:	e8 00 00 00 00       	call   9473 <test_delay+0xb7>
    9473:	84 c0                	test   %al,%al
    9475:	74 1f                	je     9496 <test_delay+0xda>
    9477:	41 b8 9b 04 00 00    	mov    $0x49b,%r8d
    947d:	48 8d 05 49 00 00 00 	lea    0x49(%rip),%rax        # 94cd <test_delay+0x111>
    9484:	48 89 c2             	mov    %rax,%rdx
    9487:	48 8d 05 5a 00 00 00 	lea    0x5a(%rip),%rax        # 94e8 <test_delay+0x12c>
    948e:	48 89 c1             	mov    %rax,%rcx
    9491:	e8 ad 6b ff ff       	call   43 <printf>
    9496:	48 8d 45 e0          	lea    -0x20(%rbp),%rax
    949a:	ba 01 00 00 00       	mov    $0x1,%edx
    949f:	48 89 c1             	mov    %rax,%rcx
    94a2:	e8 00 00 00 00       	call   94a7 <test_delay+0xeb>
    94a7:	84 c0                	test   %al,%al
    94a9:	74 1f                	je     94ca <test_delay+0x10e>
    94ab:	41 b8 9c 04 00 00    	mov    $0x49c,%r8d
    94b1:	48 8d 05 49 00 00 00 	lea    0x49(%rip),%rax        # 9501 <test_delay+0x145>
    94b8:	48 89 c2             	mov    %rax,%rdx
    94bb:	48 8d 05 5a 00 00 00 	lea    0x5a(%rip),%rax        # 951c <test_delay+0x160>
    94c2:	48 89 c1             	mov    %rax,%rcx
    94c5:	e8 79 6b ff ff       	call   43 <printf>
    94ca:	48 8d 45 e0          	lea    -0x20(%rbp),%rax
    94ce:	ba 01 00 00 00       	mov    $0x1,%edx
    94d3:	48 89 c1             	mov    %rax,%rcx
    94d6:	e8 00 00 00 00       	call   94db <test_delay+0x11f>
    94db:	83 f0 01             	xor    $0x1,%eax
    94de:	84 c0                	test   %al,%al
    94e0:	74 1f                	je     9501 <test_delay+0x145>
    94e2:	41 b8 9d 04 00 00    	mov    $0x49d,%r8d
    94e8:	48 8d 05 49 00 00 00 	lea    0x49(%rip),%rax        # 9538 <test_delay+0x17c>
    94ef:	48 89 c2             	mov    %rax,%rdx
    94f2:	48 8d 05 5a 00 00 00 	lea    0x5a(%rip),%rax        # 9553 <test_delay+0x197>
    94f9:	48 89 c1             	mov    %rax,%rcx
    94fc:	e8 42 6b ff ff       	call   43 <printf>
    9501:	48 8d 45 e0          	lea    -0x20(%rbp),%rax
    9505:	ba 01 00 00 00       	mov    $0x1,%edx
    950a:	48 89 c1             	mov    %rax,%rcx
    950d:	e8 00 00 00 00       	call   9512 <test_delay+0x156>
    9512:	83 f0 01             	xor    $0x1,%eax
    9515:	84 c0                	test   %al,%al
    9517:	74 1f                	je     9538 <test_delay+0x17c>
    9519:	41 b8 9e 04 00 00    	mov    $0x49e,%r8d
    951f:	48 8d 05 49 00 00 00 	lea    0x49(%rip),%rax        # 956f <test_delay+0x1b3>
    9526:	48 89 c2             	mov    %rax,%rdx
    9529:	48 8d 05 5a 00 00 00 	lea    0x5a(%rip),%rax        # 958a <test_delay+0x1ce>
    9530:	48 89 c1             	mov    %rax,%rcx
    9533:	e8 0b 6b ff ff       	call   43 <printf>
    9538:	48 8d 45 e0          	lea    -0x20(%rbp),%rax
    953c:	ba 00 00 00 00       	mov    $0x0,%edx
    9541:	48 89 c1             	mov    %rax,%rcx
    9544:	e8 00 00 00 00       	call   9549 <test_delay+0x18d>
    9549:	83 f0 01             	xor    $0x1,%eax
    954c:	84 c0                	test   %al,%al
    954e:	74 1f                	je     956f <test_delay+0x1b3>
    9550:	41 b8 9f 04 00 00    	mov    $0x49f,%r8d
    9556:	48 8d 05 49 00 00 00 	lea    0x49(%rip),%rax        # 95a6 <test_delay+0x1ea>
    955d:	48 89 c2             	mov    %rax,%rdx
    9560:	48 8d 05 5a 00 00 00 	lea    0x5a(%rip),%rax        # 95c1 <test_delay+0x205>
    9567:	48 89 c1             	mov    %rax,%rcx
    956a:	e8 d4 6a ff ff       	call   43 <printf>
    956f:	48 8d 45 e0          	lea    -0x20(%rbp),%rax
    9573:	ba 00 00 00 00       	mov    $0x0,%edx
    9578:	48 89 c1             	mov    %rax,%rcx
    957b:	e8 00 00 00 00       	call   9580 <test_delay+0x1c4>
    9580:	83 f0 01             	xor    $0x1,%eax
    9583:	84 c0                	test   %al,%al
    9585:	74 1f                	je     95a6 <test_delay+0x1ea>
    9587:	41 b8 a0 04 00 00    	mov    $0x4a0,%r8d
    958d:	48 8d 05 49 00 00 00 	lea    0x49(%rip),%rax        # 95dd <test_delay+0x221>
    9594:	48 89 c2             	mov    %rax,%rdx
    9597:	48 8d 05 5a 00 00 00 	lea    0x5a(%rip),%rax        # 95f8 <test_delay+0x23c>
    959e:	48 89 c1             	mov    %rax,%rcx
    95a1:	e8 9d 6a ff ff       	call   43 <printf>
    95a6:	48 8d 45 e0          	lea    -0x20(%rbp),%rax
    95aa:	ba 00 00 00 00       	mov    $0x0,%edx
    95af:	48 89 c1             	mov    %rax,%rcx
    95b2:	e8 00 00 00 00       	call   95b7 <test_delay+0x1fb>
    95b7:	83 f0 01             	xor    $0x1,%eax
    95ba:	84 c0                	test   %al,%al
    95bc:	74 1f                	je     95dd <test_delay+0x221>
    95be:	41 b8 a1 04 00 00    	mov    $0x4a1,%r8d
    95c4:	48 8d 05 49 00 00 00 	lea    0x49(%rip),%rax        # 9614 <test_delay+0x258>
    95cb:	48 89 c2             	mov    %rax,%rdx
    95ce:	48 8d 05 5a 00 00 00 	lea    0x5a(%rip),%rax        # 962f <test_delay+0x273>
    95d5:	48 89 c1             	mov    %rax,%rcx
    95d8:	e8 66 6a ff ff       	call   43 <printf>
    95dd:	48 8d 45 e0          	lea    -0x20(%rbp),%rax
    95e1:	ba 00 00 00 00       	mov    $0x0,%edx
    95e6:	48 89 c1             	mov    %rax,%rcx
    95e9:	e8 00 00 00 00       	call   95ee <test_delay+0x232>
    95ee:	84 c0                	test   %al,%al
    95f0:	74 1f                	je     9611 <test_delay+0x255>
    95f2:	41 b8 a2 04 00 00    	mov    $0x4a2,%r8d
    95f8:	48 8d 05 49 00 00 00 	lea    0x49(%rip),%rax        # 9648 <test_delay+0x28c>
    95ff:	48 89 c2             	mov    %rax,%rdx
    9602:	48 8d 05 5a 00 00 00 	lea    0x5a(%rip),%rax        # 9663 <test_delay+0x2a7>
    9609:	48 89 c1             	mov    %rax,%rcx
    960c:	e8 32 6a ff ff       	call   43 <printf>
    9611:	48 8d 45 e0          	lea    -0x20(%rbp),%rax
    9615:	ba 01 00 00 00       	mov    $0x1,%edx
    961a:	48 89 c1             	mov    %rax,%rcx
    961d:	e8 00 00 00 00       	call   9622 <test_delay+0x266>
    9622:	84 c0                	test   %al,%al
    9624:	74 1f                	je     9645 <test_delay+0x289>
    9626:	41 b8 a3 04 00 00    	mov    $0x4a3,%r8d
    962c:	48 8d 05 49 00 00 00 	lea    0x49(%rip),%rax        # 967c <test_delay+0x2c0>
    9633:	48 89 c2             	mov    %rax,%rdx
    9636:	48 8d 05 5a 00 00 00 	lea    0x5a(%rip),%rax        # 9697 <test_delay+0x2db>
    963d:	48 89 c1             	mov    %rax,%rcx
    9640:	e8 fe 69 ff ff       	call   43 <printf>
    9645:	48 8d 45 e0          	lea    -0x20(%rbp),%rax
    9649:	ba 01 00 00 00       	mov    $0x1,%edx
    964e:	48 89 c1             	mov    %rax,%rcx
    9651:	e8 00 00 00 00       	call   9656 <test_delay+0x29a>
    9656:	84 c0                	test   %al,%al
    9658:	74 1f                	je     9679 <test_delay+0x2bd>
    965a:	41 b8 a4 04 00 00    	mov    $0x4a4,%r8d
    9660:	48 8d 05 49 00 00 00 	lea    0x49(%rip),%rax        # 96b0 <test_delay+0x2f4>
    9667:	48 89 c2             	mov    %rax,%rdx
    966a:	48 8d 05 5a 00 00 00 	lea    0x5a(%rip),%rax        # 96cb <test_delay+0x30f>
    9671:	48 89 c1             	mov    %rax,%rcx
    9674:	e8 ca 69 ff ff       	call   43 <printf>
    9679:	48 8d 45 e0          	lea    -0x20(%rbp),%rax
    967d:	ba 01 00 00 00       	mov    $0x1,%edx
    9682:	48 89 c1             	mov    %rax,%rcx
    9685:	e8 00 00 00 00       	call   968a <test_delay+0x2ce>
    968a:	83 f0 01             	xor    $0x1,%eax
    968d:	84 c0                	test   %al,%al
    968f:	74 1f                	je     96b0 <test_delay+0x2f4>
    9691:	41 b8 a5 04 00 00    	mov    $0x4a5,%r8d
    9697:	48 8d 05 49 00 00 00 	lea    0x49(%rip),%rax        # 96e7 <test_delay+0x32b>
    969e:	48 89 c2             	mov    %rax,%rdx
    96a1:	48 8d 05 5a 00 00 00 	lea    0x5a(%rip),%rax        # 9702 <test_delay+0x346>
    96a8:	48 89 c1             	mov    %rax,%rcx
    96ab:	e8 93 69 ff ff       	call   43 <printf>
    96b0:	48 8d 45 fc          	lea    -0x4(%rbp),%rax
    96b4:	48 89 45 d0          	mov    %rax,-0x30(%rbp)
    96b8:	66 c7 45 d8 00 00    	movw   $0x0,-0x28(%rbp)
    96be:	66 c7 45 da 00 00    	movw   $0x0,-0x26(%rbp)
    96c4:	48 8d 45 d0          	lea    -0x30(%rbp),%rax
    96c8:	48 89 c1             	mov    %rax,%rcx
    96cb:	e8 00 00 00 00       	call   96d0 <test_delay+0x314>
    96d0:	48 8d 45 d0          	lea    -0x30(%rbp),%rax
    96d4:	ba 00 00 00 00       	mov    $0x0,%edx
    96d9:	48 89 c1             	mov    %rax,%rcx
    96dc:	e8 00 00 00 00       	call   96e1 <test_delay+0x325>
    96e1:	84 c0                	test   %al,%al
    96e3:	74 1f                	je     9704 <test_delay+0x348>
    96e5:	41 b8 aa 04 00 00    	mov    $0x4aa,%r8d
    96eb:	48 8d 05 49 00 00 00 	lea    0x49(%rip),%rax        # 973b <test_delay+0x37f>
    96f2:	48 89 c2             	mov    %rax,%rdx
    96f5:	48 8d 05 5a 00 00 00 	lea    0x5a(%rip),%rax        # 9756 <test_delay+0x39a>
    96fc:	48 89 c1             	mov    %rax,%rcx
    96ff:	e8 3f 69 ff ff       	call   43 <printf>
    9704:	48 8d 45 d0          	lea    -0x30(%rbp),%rax
    9708:	ba 01 00 00 00       	mov    $0x1,%edx
    970d:	48 89 c1             	mov    %rax,%rcx
    9710:	e8 00 00 00 00       	call   9715 <test_delay+0x359>
    9715:	83 f0 01             	xor    $0x1,%eax
    9718:	84 c0                	test   %al,%al
    971a:	74 1f                	je     973b <test_delay+0x37f>
    971c:	41 b8 ab 04 00 00    	mov    $0x4ab,%r8d
    9722:	48 8d 05 49 00 00 00 	lea    0x49(%rip),%rax        # 9772 <test_delay+0x3b6>
    9729:	48 89 c2             	mov    %rax,%rdx
    972c:	48 8d 05 5a 00 00 00 	lea    0x5a(%rip),%rax        # 978d <test_delay+0x3d1>
    9733:	48 89 c1             	mov    %rax,%rcx
    9736:	e8 08 69 ff ff       	call   43 <printf>
    973b:	48 8d 45 d0          	lea    -0x30(%rbp),%rax
    973f:	ba 00 00 00 00       	mov    $0x0,%edx
    9744:	48 89 c1             	mov    %rax,%rcx
    9747:	e8 00 00 00 00       	call   974c <test_delay+0x390>
    974c:	84 c0                	test   %al,%al
    974e:	74 1f                	je     976f <test_delay+0x3b3>
    9750:	41 b8 ac 04 00 00    	mov    $0x4ac,%r8d
    9756:	48 8d 05 49 00 00 00 	lea    0x49(%rip),%rax        # 97a6 <test_delay+0x3ea>
    975d:	48 89 c2             	mov    %rax,%rdx
    9760:	48 8d 05 5a 00 00 00 	lea    0x5a(%rip),%rax        # 97c1 <test_setp+0x14>
    9767:	48 89 c1             	mov    %rax,%rcx
    976a:	e8 d4 68 ff ff       	call   43 <printf>
    976f:	48 8d 45 d0          	lea    -0x30(%rbp),%rax
    9773:	ba 01 00 00 00       	mov    $0x1,%edx
    9778:	48 89 c1             	mov    %rax,%rcx
    977b:	e8 00 00 00 00       	call   9780 <test_delay+0x3c4>
    9780:	83 f0 01             	xor    $0x1,%eax
    9783:	84 c0                	test   %al,%al
    9785:	74 1f                	je     97a6 <test_delay+0x3ea>
    9787:	41 b8 ad 04 00 00    	mov    $0x4ad,%r8d
    978d:	48 8d 05 49 00 00 00 	lea    0x49(%rip),%rax        # 97dd <test_setp+0x30>
    9794:	48 89 c2             	mov    %rax,%rdx
    9797:	48 8d 05 5a 00 00 00 	lea    0x5a(%rip),%rax        # 97f8 <test_setp+0x4b>
    979e:	48 89 c1             	mov    %rax,%rcx
    97a1:	e8 9d 68 ff ff       	call   43 <printf>
    97a6:	90                   	nop
    97a7:	48 83 c4 50          	add    $0x50,%rsp
    97ab:	5d                   	pop    %rbp
    97ac:	c3                   	ret

00000000000097ad <test_setp>:
    97ad:	55                   	push   %rbp
    97ae:	53                   	push   %rbx
    97af:	48 83 ec 78          	sub    $0x78,%rsp
    97b3:	48 8d 6c 24 60       	lea    0x60(%rsp),%rbp
    97b8:	0f 11 75 00          	movups %xmm6,0x0(%rbp)
    97bc:	48 8d 05 6c 06 00 00 	lea    0x66c(%rip),%rax        # 9e2f <test_setp+0x682>
    97c3:	48 89 c1             	mov    %rax,%rcx
    97c6:	e8 78 68 ff ff       	call   43 <printf>
    97cb:	48 c7 45 f8 00 00 00 	movq   $0x0,-0x8(%rbp)
    97d2:	00 
    97d3:	48 8d 45 f8          	lea    -0x8(%rbp),%rax
    97d7:	48 89 45 e0          	mov    %rax,-0x20(%rbp)
    97db:	66 0f ef c0          	pxor   %xmm0,%xmm0
    97df:	f3 0f 11 45 e8       	movss  %xmm0,-0x18(%rbp)
    97e4:	f3 0f 10 05 ac 07 00 	movss  0x7ac(%rip),%xmm0        # 9f98 <test_setp+0x7eb>
    97eb:	00 
    97ec:	f3 0f 11 45 ec       	movss  %xmm0,-0x14(%rbp)
    97f1:	f3 0f 10 05 a0 07 00 	movss  0x7a0(%rip),%xmm0        # 9f99 <test_setp+0x7ec>
    97f8:	00 
    97f9:	f3 0f 11 45 f0       	movss  %xmm0,-0x10(%rbp)
    97fe:	48 8d 45 e0          	lea    -0x20(%rbp),%rax
    9802:	48 89 c1             	mov    %rax,%rcx
    9805:	e8 00 00 00 00       	call   980a <test_setp+0x5d>
    980a:	f3 0f 10 45 fc       	movss  -0x4(%rbp),%xmm0
    980f:	66 0f ef c9          	pxor   %xmm1,%xmm1
    9813:	0f 2e c1             	ucomiss %xmm1,%xmm0
    9816:	7a 09                	jp     9821 <test_setp+0x74>
    9818:	66 0f ef c9          	pxor   %xmm1,%xmm1
    981c:	0f 2e c1             	ucomiss %xmm1,%xmm0
    981f:	74 1f                	je     9840 <test_setp+0x93>
    9821:	41 b8 b9 04 00 00    	mov    $0x4b9,%r8d
    9827:	48 8d 05 49 00 00 00 	lea    0x49(%rip),%rax        # 9877 <test_setp+0xca>
    982e:	48 89 c2             	mov    %rax,%rdx
    9831:	48 8d 05 5a 00 00 00 	lea    0x5a(%rip),%rax        # 9892 <test_setp+0xe5>
    9838:	48 89 c1             	mov    %rax,%rcx
    983b:	e8 03 68 ff ff       	call   43 <printf>
    9840:	f3 0f 10 45 f8       	movss  -0x8(%rbp),%xmm0
    9845:	66 0f ef c9          	pxor   %xmm1,%xmm1
    9849:	0f 2e c1             	ucomiss %xmm1,%xmm0
    984c:	7a 09                	jp     9857 <test_setp+0xaa>
    984e:	66 0f ef c9          	pxor   %xmm1,%xmm1
    9852:	0f 2e c1             	ucomiss %xmm1,%xmm0
    9855:	74 1f                	je     9876 <test_setp+0xc9>
    9857:	41 b8 ba 04 00 00    	mov    $0x4ba,%r8d
    985d:	48 8d 05 49 00 00 00 	lea    0x49(%rip),%rax        # 98ad <test_setp+0x100>
    9864:	48 89 c2             	mov    %rax,%rdx
    9867:	48 8d 05 5a 00 00 00 	lea    0x5a(%rip),%rax        # 98c8 <test_setp+0x11b>
    986e:	48 89 c1             	mov    %rax,%rcx
    9871:	e8 cd 67 ff ff       	call   43 <printf>
    9876:	48 8d 45 e0          	lea    -0x20(%rbp),%rax
    987a:	f3 0f 10 0d b4 08 00 	movss  0x8b4(%rip),%xmm1        # a136 <test_setp+0x989>
    9881:	00 
    9882:	48 89 c1             	mov    %rax,%rcx
    9885:	e8 00 00 00 00       	call   988a <test_setp+0xdd>
    988a:	83 f0 01             	xor    $0x1,%eax
    988d:	84 c0                	test   %al,%al
    988f:	74 1f                	je     98b0 <test_setp+0x103>
    9891:	41 b8 bc 04 00 00    	mov    $0x4bc,%r8d
    9897:	48 8d 05 49 00 00 00 	lea    0x49(%rip),%rax        # 98e7 <test_setp+0x13a>
    989e:	48 89 c2             	mov    %rax,%rdx
    98a1:	48 8d 05 5a 00 00 00 	lea    0x5a(%rip),%rax        # 9902 <test_setp+0x155>
    98a8:	48 89 c1             	mov    %rax,%rcx
    98ab:	e8 93 67 ff ff       	call   43 <printf>
    98b0:	48 8d 45 e0          	lea    -0x20(%rbp),%rax
    98b4:	f3 0f 10 0d d4 07 00 	movss  0x7d4(%rip),%xmm1        # a090 <test_setp+0x8e3>
    98bb:	00 
    98bc:	48 89 c1             	mov    %rax,%rcx
    98bf:	e8 00 00 00 00       	call   98c4 <test_setp+0x117>
    98c4:	48 8d 45 e0          	lea    -0x20(%rbp),%rax
    98c8:	f3 0f 10 0d b4 08 00 	movss  0x8b4(%rip),%xmm1        # a184 <test_setp+0x9d7>
    98cf:	00 
    98d0:	48 89 c1             	mov    %rax,%rcx
    98d3:	e8 00 00 00 00       	call   98d8 <test_setp+0x12b>
    98d8:	84 c0                	test   %al,%al
    98da:	74 1f                	je     98fb <test_setp+0x14e>
    98dc:	41 b8 be 04 00 00    	mov    $0x4be,%r8d
    98e2:	48 8d 05 49 00 00 00 	lea    0x49(%rip),%rax        # 9932 <test_setp+0x185>
    98e9:	48 89 c2             	mov    %rax,%rdx
    98ec:	48 8d 05 5a 00 00 00 	lea    0x5a(%rip),%rax        # 994d <test_setp+0x1a0>
    98f3:	48 89 c1             	mov    %rax,%rcx
    98f6:	e8 48 67 ff ff       	call   43 <printf>
    98fb:	48 8d 45 e0          	lea    -0x20(%rbp),%rax
    98ff:	48 89 c1             	mov    %rax,%rcx
    9902:	e8 00 00 00 00       	call   9907 <test_setp+0x15a>
    9907:	66 0f 7e c0          	movd   %xmm0,%eax
    990b:	f3 0f 10 05 a0 07 00 	movss  0x7a0(%rip),%xmm0        # a0b3 <test_setp+0x906>
    9912:	00 
    9913:	66 0f 6e e0          	movd   %eax,%xmm4
    9917:	0f 2e e0             	ucomiss %xmm0,%xmm4
    991a:	7a 11                	jp     992d <test_setp+0x180>
    991c:	f3 0f 10 05 a0 07 00 	movss  0x7a0(%rip),%xmm0        # a0c4 <test_setp+0x917>
    9923:	00 
    9924:	66 0f 6e e8          	movd   %eax,%xmm5
    9928:	0f 2e e8             	ucomiss %xmm0,%xmm5
    992b:	74 1f                	je     994c <test_setp+0x19f>
    992d:	41 b8 bf 04 00 00    	mov    $0x4bf,%r8d
    9933:	48 8d 05 49 00 00 00 	lea    0x49(%rip),%rax        # 9983 <test_setp+0x1d6>
    993a:	48 89 c2             	mov    %rax,%rdx
    993d:	48 8d 05 5a 00 00 00 	lea    0x5a(%rip),%rax        # 999e <test_setp+0x1f1>
    9944:	48 89 c1             	mov    %rax,%rcx
    9947:	e8 f7 66 ff ff       	call   43 <printf>
    994c:	48 8d 45 e0          	lea    -0x20(%rbp),%rax
    9950:	f3 0f 10 0d b4 08 00 	movss  0x8b4(%rip),%xmm1        # a20c <test_setp+0xa5f>
    9957:	00 
    9958:	48 89 c1             	mov    %rax,%rcx
    995b:	e8 00 00 00 00       	call   9960 <test_setp+0x1b3>
    9960:	84 c0                	test   %al,%al
    9962:	74 1f                	je     9983 <test_setp+0x1d6>
    9964:	41 b8 c0 04 00 00    	mov    $0x4c0,%r8d
    996a:	48 8d 05 49 00 00 00 	lea    0x49(%rip),%rax        # 99ba <test_setp+0x20d>
    9971:	48 89 c2             	mov    %rax,%rdx
    9974:	48 8d 05 5a 00 00 00 	lea    0x5a(%rip),%rax        # 99d5 <test_setp+0x228>
    997b:	48 89 c1             	mov    %rax,%rcx
    997e:	e8 c0 66 ff ff       	call   43 <printf>
    9983:	48 8d 45 e0          	lea    -0x20(%rbp),%rax
    9987:	48 89 c1             	mov    %rax,%rcx
    998a:	e8 00 00 00 00       	call   998f <test_setp+0x1e2>
    998f:	66 0f 7e c0          	movd   %xmm0,%eax
    9993:	66 0f 6e e0          	movd   %eax,%xmm4
    9997:	0f 2e 25 9c 07 00 00 	ucomiss 0x79c(%rip),%xmm4        # a13a <test_setp+0x98d>
    999e:	7a 0d                	jp     99ad <test_setp+0x200>
    99a0:	66 0f 6e e8          	movd   %eax,%xmm5
    99a4:	0f 2e 2d 9c 07 00 00 	ucomiss 0x79c(%rip),%xmm5        # a147 <test_setp+0x99a>
    99ab:	74 1f                	je     99cc <test_setp+0x21f>
    99ad:	41 b8 c1 04 00 00    	mov    $0x4c1,%r8d
    99b3:	48 8d 05 49 00 00 00 	lea    0x49(%rip),%rax        # 9a03 <test_setp+0x256>
    99ba:	48 89 c2             	mov    %rax,%rdx
    99bd:	48 8d 05 5a 00 00 00 	lea    0x5a(%rip),%rax        # 9a1e <test_setp+0x271>
    99c4:	48 89 c1             	mov    %rax,%rcx
    99c7:	e8 77 66 ff ff       	call   43 <printf>
    99cc:	48 8d 45 e0          	lea    -0x20(%rbp),%rax
    99d0:	f3 0f 10 0d b4 08 00 	movss  0x8b4(%rip),%xmm1        # a28c <test_setp+0xadf>
    99d7:	00 
    99d8:	48 89 c1             	mov    %rax,%rcx
    99db:	e8 00 00 00 00       	call   99e0 <test_setp+0x233>
    99e0:	84 c0                	test   %al,%al
    99e2:	74 1f                	je     9a03 <test_setp+0x256>
    99e4:	41 b8 c2 04 00 00    	mov    $0x4c2,%r8d
    99ea:	48 8d 05 49 00 00 00 	lea    0x49(%rip),%rax        # 9a3a <test_setp+0x28d>
    99f1:	48 89 c2             	mov    %rax,%rdx
    99f4:	48 8d 05 5a 00 00 00 	lea    0x5a(%rip),%rax        # 9a55 <test_setp+0x2a8>
    99fb:	48 89 c1             	mov    %rax,%rcx
    99fe:	e8 40 66 ff ff       	call   43 <printf>
    9a03:	48 8d 45 e0          	lea    -0x20(%rbp),%rax
    9a07:	48 89 c1             	mov    %rax,%rcx
    9a0a:	e8 00 00 00 00       	call   9a0f <test_setp+0x262>
    9a0f:	66 0f 7e c0          	movd   %xmm0,%eax
    9a13:	66 0f 6e e0          	movd   %eax,%xmm4
    9a17:	0f 2e 25 b4 07 00 00 	ucomiss 0x7b4(%rip),%xmm4        # a1d2 <test_setp+0xa25>
    9a1e:	7a 0d                	jp     9a2d <test_setp+0x280>
    9a20:	66 0f 6e e8          	movd   %eax,%xmm5
    9a24:	0f 2e 2d b4 07 00 00 	ucomiss 0x7b4(%rip),%xmm5        # a1df <test_setp+0xa32>
    9a2b:	74 1f                	je     9a4c <test_setp+0x29f>
    9a2d:	41 b8 c3 04 00 00    	mov    $0x4c3,%r8d
    9a33:	48 8d 05 49 00 00 00 	lea    0x49(%rip),%rax        # 9a83 <test_setp+0x2d6>
    9a3a:	48 89 c2             	mov    %rax,%rdx
    9a3d:	48 8d 05 5a 00 00 00 	lea    0x5a(%rip),%rax        # 9a9e <test_setp+0x2f1>
    9a44:	48 89 c1             	mov    %rax,%rcx
    9a47:	e8 f7 65 ff ff       	call   43 <printf>
    9a4c:	48 8d 45 e0          	lea    -0x20(%rbp),%rax
    9a50:	f3 0f 10 0d b4 08 00 	movss  0x8b4(%rip),%xmm1        # a30c <test_setp+0xb5f>
    9a57:	00 
    9a58:	48 89 c1             	mov    %rax,%rcx
    9a5b:	e8 00 00 00 00       	call   9a60 <test_setp+0x2b3>
    9a60:	84 c0                	test   %al,%al
    9a62:	74 1f                	je     9a83 <test_setp+0x2d6>
    9a64:	41 b8 c4 04 00 00    	mov    $0x4c4,%r8d
    9a6a:	48 8d 05 49 00 00 00 	lea    0x49(%rip),%rax        # 9aba <test_setp+0x30d>
    9a71:	48 89 c2             	mov    %rax,%rdx
    9a74:	48 8d 05 5a 00 00 00 	lea    0x5a(%rip),%rax        # 9ad5 <test_setp+0x328>
    9a7b:	48 89 c1             	mov    %rax,%rcx
    9a7e:	e8 c0 65 ff ff       	call   43 <printf>
    9a83:	48 8d 45 e0          	lea    -0x20(%rbp),%rax
    9a87:	48 89 c1             	mov    %rax,%rcx
    9a8a:	e8 00 00 00 00       	call   9a8f <test_setp+0x2e2>
    9a8f:	66 0f 7e c0          	movd   %xmm0,%eax
    9a93:	66 0f 6e e0          	movd   %eax,%xmm4
    9a97:	0f 2e 25 d4 07 00 00 	ucomiss 0x7d4(%rip),%xmm4        # a272 <test_setp+0xac5>
    9a9e:	7a 0d                	jp     9aad <test_setp+0x300>
    9aa0:	66 0f 6e e8          	movd   %eax,%xmm5
    9aa4:	0f 2e 2d d4 07 00 00 	ucomiss 0x7d4(%rip),%xmm5        # a27f <test_setp+0xad2>
    9aab:	74 1f                	je     9acc <test_setp+0x31f>
    9aad:	41 b8 c5 04 00 00    	mov    $0x4c5,%r8d
    9ab3:	48 8d 05 49 00 00 00 	lea    0x49(%rip),%rax        # 9b03 <test_setp+0x356>
    9aba:	48 89 c2             	mov    %rax,%rdx
    9abd:	48 8d 05 5a 00 00 00 	lea    0x5a(%rip),%rax        # 9b1e <test_setp+0x371>
    9ac4:	48 89 c1             	mov    %rax,%rcx
    9ac7:	e8 77 65 ff ff       	call   43 <printf>
    9acc:	48 8d 45 e0          	lea    -0x20(%rbp),%rax
    9ad0:	f3 0f 10 0d b4 08 00 	movss  0x8b4(%rip),%xmm1        # a38c <test_setp+0xbdf>
    9ad7:	00 
    9ad8:	48 89 c1             	mov    %rax,%rcx
    9adb:	e8 00 00 00 00       	call   9ae0 <test_setp+0x333>
    9ae0:	83 f0 01             	xor    $0x1,%eax
    9ae3:	84 c0                	test   %al,%al
    9ae5:	74 1f                	je     9b06 <test_setp+0x359>
    9ae7:	41 b8 c6 04 00 00    	mov    $0x4c6,%r8d
    9aed:	48 8d 05 49 00 00 00 	lea    0x49(%rip),%rax        # 9b3d <test_setp+0x390>
    9af4:	48 89 c2             	mov    %rax,%rdx
    9af7:	48 8d 05 5a 00 00 00 	lea    0x5a(%rip),%rax        # 9b58 <test_setp+0x3ab>
    9afe:	48 89 c1             	mov    %rax,%rcx
    9b01:	e8 3d 65 ff ff       	call   43 <printf>
    9b06:	48 8d 45 e0          	lea    -0x20(%rbp),%rax
    9b0a:	48 89 c1             	mov    %rax,%rcx
    9b0d:	e8 00 00 00 00       	call   9b12 <test_setp+0x365>
    9b12:	48 8d 45 e0          	lea    -0x20(%rbp),%rax
    9b16:	f3 0f 10 0d b4 08 00 	movss  0x8b4(%rip),%xmm1        # a3d2 <test_setp+0xc25>
    9b1d:	00 
    9b1e:	48 89 c1             	mov    %rax,%rcx
    9b21:	e8 00 00 00 00       	call   9b26 <test_setp+0x379>
    9b26:	83 f0 01             	xor    $0x1,%eax
    9b29:	84 c0                	test   %al,%al
    9b2b:	74 1f                	je     9b4c <test_setp+0x39f>
    9b2d:	41 b8 c9 04 00 00    	mov    $0x4c9,%r8d
    9b33:	48 8d 05 49 00 00 00 	lea    0x49(%rip),%rax        # 9b83 <test_setp+0x3d6>
    9b3a:	48 89 c2             	mov    %rax,%rdx
    9b3d:	48 8d 05 5a 00 00 00 	lea    0x5a(%rip),%rax        # 9b9e <test_setp+0x3f1>
    9b44:	48 89 c1             	mov    %rax,%rcx
    9b47:	e8 f7 64 ff ff       	call   43 <printf>
    9b4c:	48 8d 45 e0          	lea    -0x20(%rbp),%rax
    9b50:	f3 0f 10 0d b4 07 00 	movss  0x7b4(%rip),%xmm1        # a30c <test_setp+0xb5f>
    9b57:	00 
    9b58:	48 89 c1             	mov    %rax,%rcx
    9b5b:	e8 00 00 00 00       	call   9b60 <test_setp+0x3b3>
    9b60:	48 8d 45 e0          	lea    -0x20(%rbp),%rax
    9b64:	f3 0f 10 0d b4 08 00 	movss  0x8b4(%rip),%xmm1        # a420 <test_setp+0xc73>
    9b6b:	00 
    9b6c:	48 89 c1             	mov    %rax,%rcx
    9b6f:	e8 00 00 00 00       	call   9b74 <test_setp+0x3c7>
    9b74:	84 c0                	test   %al,%al
    9b76:	74 1f                	je     9b97 <test_setp+0x3ea>
    9b78:	41 b8 cb 04 00 00    	mov    $0x4cb,%r8d
    9b7e:	48 8d 05 49 00 00 00 	lea    0x49(%rip),%rax        # 9bce <test_setp+0x421>
    9b85:	48 89 c2             	mov    %rax,%rdx
    9b88:	48 8d 05 5a 00 00 00 	lea    0x5a(%rip),%rax        # 9be9 <test_setp+0x43c>
    9b8f:	48 89 c1             	mov    %rax,%rcx
    9b92:	e8 ac 64 ff ff       	call   43 <printf>
    9b97:	48 8d 45 e0          	lea    -0x20(%rbp),%rax
    9b9b:	48 89 c1             	mov    %rax,%rcx
    9b9e:	e8 00 00 00 00       	call   9ba3 <test_setp+0x3f6>
    9ba3:	66 0f 7e c0          	movd   %xmm0,%eax
    9ba7:	66 0f 6e e0          	movd   %eax,%xmm4
    9bab:	0f 2e 25 b4 07 00 00 	ucomiss 0x7b4(%rip),%xmm4        # a366 <test_setp+0xbb9>
    9bb2:	7a 0d                	jp     9bc1 <test_setp+0x414>
    9bb4:	66 0f 6e e8          	movd   %eax,%xmm5
    9bb8:	0f 2e 2d b4 07 00 00 	ucomiss 0x7b4(%rip),%xmm5        # a373 <test_setp+0xbc6>
    9bbf:	74 1f                	je     9be0 <test_setp+0x433>
    9bc1:	41 b8 cc 04 00 00    	mov    $0x4cc,%r8d
    9bc7:	48 8d 05 49 00 00 00 	lea    0x49(%rip),%rax        # 9c17 <test_setp+0x46a>
    9bce:	48 89 c2             	mov    %rax,%rdx
    9bd1:	48 8d 05 5a 00 00 00 	lea    0x5a(%rip),%rax        # 9c32 <test_setp+0x485>
    9bd8:	48 89 c1             	mov    %rax,%rcx
    9bdb:	e8 63 64 ff ff       	call   43 <printf>
    9be0:	48 8d 45 e0          	lea    -0x20(%rbp),%rax
    9be4:	f3 0f 10 0d b4 08 00 	movss  0x8b4(%rip),%xmm1        # a4a0 <test_setp+0xcf3>
    9beb:	00 
    9bec:	48 89 c1             	mov    %rax,%rcx
    9bef:	e8 00 00 00 00       	call   9bf4 <test_setp+0x447>
    9bf4:	83 f0 01             	xor    $0x1,%eax
    9bf7:	84 c0                	test   %al,%al
    9bf9:	74 1f                	je     9c1a <test_setp+0x46d>
    9bfb:	41 b8 cd 04 00 00    	mov    $0x4cd,%r8d
    9c01:	48 8d 05 49 00 00 00 	lea    0x49(%rip),%rax        # 9c51 <test_setp+0x4a4>
    9c08:	48 89 c2             	mov    %rax,%rdx
    9c0b:	48 8d 05 5a 00 00 00 	lea    0x5a(%rip),%rax        # 9c6c <test_setp+0x4bf>
    9c12:	48 89 c1             	mov    %rax,%rcx
    9c15:	e8 29 64 ff ff       	call   43 <printf>
    9c1a:	f3 0f 10 05 cc 07 00 	movss  0x7cc(%rip),%xmm0        # a3ee <test_setp+0xc41>
    9c21:	00 
    9c22:	f3 0f 11 45 f0       	movss  %xmm0,-0x10(%rbp)
    9c27:	48 8d 45 e0          	lea    -0x20(%rbp),%rax
    9c2b:	48 89 c1             	mov    %rax,%rcx
    9c2e:	e8 00 00 00 00       	call   9c33 <test_setp+0x486>
    9c33:	48 8d 45 e0          	lea    -0x20(%rbp),%rax
    9c37:	f3 0f 10 0d b4 08 00 	movss  0x8b4(%rip),%xmm1        # a4f3 <test_setp+0xd46>
    9c3e:	00 
    9c3f:	48 89 c1             	mov    %rax,%rcx
    9c42:	e8 00 00 00 00       	call   9c47 <test_setp+0x49a>
    9c47:	83 f0 01             	xor    $0x1,%eax
    9c4a:	84 c0                	test   %al,%al
    9c4c:	74 1f                	je     9c6d <test_setp+0x4c0>
    9c4e:	41 b8 d1 04 00 00    	mov    $0x4d1,%r8d
    9c54:	48 8d 05 49 00 00 00 	lea    0x49(%rip),%rax        # 9ca4 <test_setp+0x4f7>
    9c5b:	48 89 c2             	mov    %rax,%rdx
    9c5e:	48 8d 05 5a 00 00 00 	lea    0x5a(%rip),%rax        # 9cbf <test_setp+0x512>
    9c65:	48 89 c1             	mov    %rax,%rcx
    9c68:	e8 d6 63 ff ff       	call   43 <printf>
    9c6d:	48 8d 45 e0          	lea    -0x20(%rbp),%rax
    9c71:	f3 0f 10 0d f0 07 00 	movss  0x7f0(%rip),%xmm1        # a469 <test_setp+0xcbc>
    9c78:	00 
    9c79:	48 89 c1             	mov    %rax,%rcx
    9c7c:	e8 00 00 00 00       	call   9c81 <test_setp+0x4d4>
    9c81:	48 8d 45 e0          	lea    -0x20(%rbp),%rax
    9c85:	f3 0f 10 0d b4 08 00 	movss  0x8b4(%rip),%xmm1        # a541 <test_setp+0xd94>
    9c8c:	00 
    9c8d:	48 89 c1             	mov    %rax,%rcx
    9c90:	e8 00 00 00 00       	call   9c95 <test_setp+0x4e8>
    9c95:	84 c0                	test   %al,%al
    9c97:	74 1f                	je     9cb8 <test_setp+0x50b>
    9c99:	41 b8 d3 04 00 00    	mov    $0x4d3,%r8d
    9c9f:	48 8d 05 49 00 00 00 	lea    0x49(%rip),%rax        # 9cef <test_setp+0x542>
    9ca6:	48 89 c2             	mov    %rax,%rdx
    9ca9:	48 8d 05 5a 00 00 00 	lea    0x5a(%rip),%rax        # 9d0a <test_setp+0x55d>
    9cb0:	48 89 c1             	mov    %rax,%rcx
    9cb3:	e8 8b 63 ff ff       	call   43 <printf>
    9cb8:	48 8d 45 e0          	lea    -0x20(%rbp),%rax
    9cbc:	48 89 c1             	mov    %rax,%rcx
    9cbf:	e8 00 00 00 00       	call   9cc4 <test_setp+0x517>
    9cc4:	66 0f 7e c0          	movd   %xmm0,%eax
    9cc8:	66 0f 6e f0          	movd   %eax,%xmm6
    9ccc:	0f 2e 35 b8 07 00 00 	ucomiss 0x7b8(%rip),%xmm6        # a48b <test_setp+0xcde>
    9cd3:	7a 0d                	jp     9ce2 <test_setp+0x535>
    9cd5:	66 0f 6e e0          	movd   %eax,%xmm4
    9cd9:	0f 2e 25 b8 07 00 00 	ucomiss 0x7b8(%rip),%xmm4        # a498 <test_setp+0xceb>
    9ce0:	74 1f                	je     9d01 <test_setp+0x554>
    9ce2:	41 b8 d4 04 00 00    	mov    $0x4d4,%r8d
    9ce8:	48 8d 05 49 00 00 00 	lea    0x49(%rip),%rax        # 9d38 <test_setp+0x58b>
    9cef:	48 89 c2             	mov    %rax,%rdx
    9cf2:	48 8d 05 5a 00 00 00 	lea    0x5a(%rip),%rax        # 9d53 <test_setp+0x5a6>
    9cf9:	48 89 c1             	mov    %rax,%rcx
    9cfc:	e8 42 63 ff ff       	call   43 <printf>
    9d01:	48 8d 45 e0          	lea    -0x20(%rbp),%rax
    9d05:	f3 0f 10 0d b4 08 00 	movss  0x8b4(%rip),%xmm1        # a5c1 <test_setp+0xe14>
    9d0c:	00 
    9d0d:	48 89 c1             	mov    %rax,%rcx
    9d10:	e8 00 00 00 00       	call   9d15 <test_setp+0x568>
    9d15:	84 c0                	test   %al,%al
    9d17:	74 1f                	je     9d38 <test_setp+0x58b>
    9d19:	41 b8 d5 04 00 00    	mov    $0x4d5,%r8d
    9d1f:	48 8d 05 49 00 00 00 	lea    0x49(%rip),%rax        # 9d6f <test_setp+0x5c2>
    9d26:	48 89 c2             	mov    %rax,%rdx
    9d29:	48 8d 05 5a 00 00 00 	lea    0x5a(%rip),%rax        # 9d8a <test_setp+0x5dd>
    9d30:	48 89 c1             	mov    %rax,%rcx
    9d33:	e8 0b 63 ff ff       	call   43 <printf>
    9d38:	48 8d 45 e0          	lea    -0x20(%rbp),%rax
    9d3c:	48 89 c1             	mov    %rax,%rcx
    9d3f:	e8 00 00 00 00       	call   9d44 <test_setp+0x597>
    9d44:	66 0f 7e c0          	movd   %xmm0,%eax
    9d48:	66 0f 6e e8          	movd   %eax,%xmm5
    9d4c:	0f 2e 2d ec 07 00 00 	ucomiss 0x7ec(%rip),%xmm5        # a53f <test_setp+0xd92>
    9d53:	7a 0d                	jp     9d62 <test_setp+0x5b5>
    9d55:	66 0f 6e f0          	movd   %eax,%xmm6
    9d59:	0f 2e 35 ec 07 00 00 	ucomiss 0x7ec(%rip),%xmm6        # a54c <test_setp+0xd9f>
    9d60:	74 1f                	je     9d81 <test_setp+0x5d4>
    9d62:	41 b8 d6 04 00 00    	mov    $0x4d6,%r8d
    9d68:	48 8d 05 49 00 00 00 	lea    0x49(%rip),%rax        # 9db8 <test_setp+0x60b>
    9d6f:	48 89 c2             	mov    %rax,%rdx
    9d72:	48 8d 05 5a 00 00 00 	lea    0x5a(%rip),%rax        # 9dd3 <test_setp+0x626>
    9d79:	48 89 c1             	mov    %rax,%rcx
    9d7c:	e8 c2 62 ff ff       	call   43 <printf>
    9d81:	48 8d 45 e0          	lea    -0x20(%rbp),%rax
    9d85:	f3 0f 10 0d b4 08 00 	movss  0x8b4(%rip),%xmm1        # a641 <test_setp+0xe94>
    9d8c:	00 
    9d8d:	48 89 c1             	mov    %rax,%rcx
    9d90:	e8 00 00 00 00       	call   9d95 <test_setp+0x5e8>
    9d95:	84 c0                	test   %al,%al
    9d97:	74 1f                	je     9db8 <test_setp+0x60b>
    9d99:	41 b8 d7 04 00 00    	mov    $0x4d7,%r8d
    9d9f:	48 8d 05 49 00 00 00 	lea    0x49(%rip),%rax        # 9def <test_setp+0x642>
    9da6:	48 89 c2             	mov    %rax,%rdx
    9da9:	48 8d 05 5a 00 00 00 	lea    0x5a(%rip),%rax        # 9e0a <test_setp+0x65d>
    9db0:	48 89 c1             	mov    %rax,%rcx
    9db3:	e8 8b 62 ff ff       	call   43 <printf>
    9db8:	48 8d 45 e0          	lea    -0x20(%rbp),%rax
    9dbc:	48 89 c1             	mov    %rax,%rcx
    9dbf:	e8 00 00 00 00       	call   9dc4 <test_setp+0x617>
    9dc4:	66 0f 7e c0          	movd   %xmm0,%eax
    9dc8:	66 0f 6e d0          	movd   %eax,%xmm2
    9dcc:	0f 2e 15 b8 08 00 00 	ucomiss 0x8b8(%rip),%xmm2        # a68b <test_setp+0xede>
    9dd3:	7a 0d                	jp     9de2 <test_setp+0x635>
    9dd5:	66 0f 6e d8          	movd   %eax,%xmm3
    9dd9:	0f 2e 1d b8 08 00 00 	ucomiss 0x8b8(%rip),%xmm3        # a698 <test_setp+0xeeb>
    9de0:	74 1f                	je     9e01 <test_setp+0x654>
    9de2:	41 b8 d8 04 00 00    	mov    $0x4d8,%r8d
    9de8:	48 8d 05 49 00 00 00 	lea    0x49(%rip),%rax        # 9e38 <test_setp+0x68b>
    9def:	48 89 c2             	mov    %rax,%rdx
    9df2:	48 8d 05 5a 00 00 00 	lea    0x5a(%rip),%rax        # 9e53 <test_setp+0x6a6>
    9df9:	48 89 c1             	mov    %rax,%rcx
    9dfc:	e8 42 62 ff ff       	call   43 <printf>
    9e01:	48 8d 45 e0          	lea    -0x20(%rbp),%rax
    9e05:	f3 0f 10 0d b4 08 00 	movss  0x8b4(%rip),%xmm1        # a6c1 <test_setp+0xf14>
    9e0c:	00 
    9e0d:	48 89 c1             	mov    %rax,%rcx
    9e10:	e8 00 00 00 00       	call   9e15 <test_setp+0x668>
    9e15:	84 c0                	test   %al,%al
    9e17:	74 1f                	je     9e38 <test_setp+0x68b>
    9e19:	41 b8 d9 04 00 00    	mov    $0x4d9,%r8d
    9e1f:	48 8d 05 49 00 00 00 	lea    0x49(%rip),%rax        # 9e6f <test_setp+0x6c2>
    9e26:	48 89 c2             	mov    %rax,%rdx
    9e29:	48 8d 05 5a 00 00 00 	lea    0x5a(%rip),%rax        # 9e8a <test_setp+0x6dd>
    9e30:	48 89 c1             	mov    %rax,%rcx
    9e33:	e8 0b 62 ff ff       	call   43 <printf>
    9e38:	48 8d 45 e0          	lea    -0x20(%rbp),%rax
    9e3c:	48 89 c1             	mov    %rax,%rcx
    9e3f:	e8 00 00 00 00       	call   9e44 <test_setp+0x697>
    9e44:	66 0f 7e c0          	movd   %xmm0,%eax
    9e48:	66 0f 6e e0          	movd   %eax,%xmm4
    9e4c:	0f 2e 25 bc 08 00 00 	ucomiss 0x8bc(%rip),%xmm4        # a70f <test_setp+0xf62>
    9e53:	7a 0d                	jp     9e62 <test_setp+0x6b5>
    9e55:	66 0f 6e e8          	movd   %eax,%xmm5
    9e59:	0f 2e 2d bc 08 00 00 	ucomiss 0x8bc(%rip),%xmm5        # a71c <test_setp+0xf6f>
    9e60:	74 1f                	je     9e81 <test_setp+0x6d4>
    9e62:	41 b8 da 04 00 00    	mov    $0x4da,%r8d
    9e68:	48 8d 05 49 00 00 00 	lea    0x49(%rip),%rax        # 9eb8 <test_setp+0x70b>
    9e6f:	48 89 c2             	mov    %rax,%rdx
    9e72:	48 8d 05 5a 00 00 00 	lea    0x5a(%rip),%rax        # 9ed3 <test_setp+0x726>
    9e79:	48 89 c1             	mov    %rax,%rcx
    9e7c:	e8 c2 61 ff ff       	call   43 <printf>
    9e81:	48 8d 45 e0          	lea    -0x20(%rbp),%rax
    9e85:	f3 0f 10 0d b4 08 00 	movss  0x8b4(%rip),%xmm1        # a741 <test_setp+0xf94>
    9e8c:	00 
    9e8d:	48 89 c1             	mov    %rax,%rcx
    9e90:	e8 00 00 00 00       	call   9e95 <test_setp+0x6e8>
    9e95:	84 c0                	test   %al,%al
    9e97:	74 1f                	je     9eb8 <test_setp+0x70b>
    9e99:	41 b8 db 04 00 00    	mov    $0x4db,%r8d
    9e9f:	48 8d 05 49 00 00 00 	lea    0x49(%rip),%rax        # 9eef <test_setp+0x742>
    9ea6:	48 89 c2             	mov    %rax,%rdx
    9ea9:	48 8d 05 5a 00 00 00 	lea    0x5a(%rip),%rax        # 9f0a <test_setp+0x75d>
    9eb0:	48 89 c1             	mov    %rax,%rcx
    9eb3:	e8 8b 61 ff ff       	call   43 <printf>
    9eb8:	48 8d 45 e0          	lea    -0x20(%rbp),%rax
    9ebc:	48 89 c1             	mov    %rax,%rcx
    9ebf:	e8 00 00 00 00       	call   9ec4 <test_setp+0x717>
    9ec4:	66 0f 7e c0          	movd   %xmm0,%eax
    9ec8:	66 0f 6e f0          	movd   %eax,%xmm6
    9ecc:	0f 2e 35 c0 08 00 00 	ucomiss 0x8c0(%rip),%xmm6        # a793 <test_setp+0xfe6>
    9ed3:	7a 0d                	jp     9ee2 <test_setp+0x735>
    9ed5:	66 0f 6e d0          	movd   %eax,%xmm2
    9ed9:	0f 2e 15 c0 08 00 00 	ucomiss 0x8c0(%rip),%xmm2        # a7a0 <test_setp+0xff3>
    9ee0:	74 1f                	je     9f01 <test_setp+0x754>
    9ee2:	41 b8 dc 04 00 00    	mov    $0x4dc,%r8d
    9ee8:	48 8d 05 49 00 00 00 	lea    0x49(%rip),%rax        # 9f38 <test_setp+0x78b>
    9eef:	48 89 c2             	mov    %rax,%rdx
    9ef2:	48 8d 05 5a 00 00 00 	lea    0x5a(%rip),%rax        # 9f53 <test_setp+0x7a6>
    9ef9:	48 89 c1             	mov    %rax,%rcx
    9efc:	e8 42 61 ff ff       	call   43 <printf>
    9f01:	48 8d 45 e0          	lea    -0x20(%rbp),%rax
    9f05:	f3 0f 10 0d b4 08 00 	movss  0x8b4(%rip),%xmm1        # a7c1 <test_setp+0x1014>
    9f0c:	00 
    9f0d:	48 89 c1             	mov    %rax,%rcx
    9f10:	e8 00 00 00 00       	call   9f15 <test_setp+0x768>
    9f15:	84 c0                	test   %al,%al
    9f17:	74 1f                	je     9f38 <test_setp+0x78b>
    9f19:	41 b8 dd 04 00 00    	mov    $0x4dd,%r8d
    9f1f:	48 8d 05 49 00 00 00 	lea    0x49(%rip),%rax        # 9f6f <test_setp+0x7c2>
    9f26:	48 89 c2             	mov    %rax,%rdx
    9f29:	48 8d 05 5a 00 00 00 	lea    0x5a(%rip),%rax        # 9f8a <test_setp+0x7dd>
    9f30:	48 89 c1             	mov    %rax,%rcx
    9f33:	e8 0b 61 ff ff       	call   43 <printf>
    9f38:	48 8d 45 e0          	lea    -0x20(%rbp),%rax
    9f3c:	48 89 c1             	mov    %rax,%rcx
    9f3f:	e8 00 00 00 00       	call   9f44 <test_setp+0x797>
    9f44:	66 0f 7e c0          	movd   %xmm0,%eax
    9f48:	66 0f 6e d8          	movd   %eax,%xmm3
    9f4c:	0f 2e 1d c4 08 00 00 	ucomiss 0x8c4(%rip),%xmm3        # a817 <test_setp+0x106a>
    9f53:	7a 0d                	jp     9f62 <test_setp+0x7b5>
    9f55:	66 0f 6e e0          	movd   %eax,%xmm4
    9f59:	0f 2e 25 c4 08 00 00 	ucomiss 0x8c4(%rip),%xmm4        # a824 <test_setp+0x1077>
    9f60:	74 1f                	je     9f81 <test_setp+0x7d4>
    9f62:	41 b8 de 04 00 00    	mov    $0x4de,%r8d
    9f68:	48 8d 05 49 00 00 00 	lea    0x49(%rip),%rax        # 9fb8 <test_setp+0x80b>
    9f6f:	48 89 c2             	mov    %rax,%rdx
    9f72:	48 8d 05 5a 00 00 00 	lea    0x5a(%rip),%rax        # 9fd3 <test_setp+0x826>
    9f79:	48 89 c1             	mov    %rax,%rcx
    9f7c:	e8 c2 60 ff ff       	call   43 <printf>
    9f81:	48 8d 45 e0          	lea    -0x20(%rbp),%rax
    9f85:	f3 0f 10 0d c8 08 00 	movss  0x8c8(%rip),%xmm1        # a855 <test_setp+0x10a8>
    9f8c:	00 
    9f8d:	48 89 c1             	mov    %rax,%rcx
    9f90:	e8 00 00 00 00       	call   9f95 <test_setp+0x7e8>
    9f95:	83 f0 01             	xor    $0x1,%eax
    9f98:	84 c0                	test   %al,%al
    9f9a:	74 1f                	je     9fbb <test_setp+0x80e>
    9f9c:	41 b8 df 04 00 00    	mov    $0x4df,%r8d
    9fa2:	48 8d 05 49 00 00 00 	lea    0x49(%rip),%rax        # 9ff2 <test_setp+0x845>
    9fa9:	48 89 c2             	mov    %rax,%rdx
    9fac:	48 8d 05 5a 00 00 00 	lea    0x5a(%rip),%rax        # a00d <test_setp+0x860>
    9fb3:	48 89 c1             	mov    %rax,%rcx
    9fb6:	e8 88 60 ff ff       	call   43 <printf>
    9fbb:	48 8d 45 e0          	lea    -0x20(%rbp),%rax
    9fbf:	f3 0f 10 0d f0 07 00 	movss  0x7f0(%rip),%xmm1        # a7b7 <test_setp+0x100a>
    9fc6:	00 
    9fc7:	48 89 c1             	mov    %rax,%rcx
    9fca:	e8 00 00 00 00       	call   9fcf <test_setp+0x822>
    9fcf:	66 0f 7e c0          	movd   %xmm0,%eax
    9fd3:	66 0f 6e e8          	movd   %eax,%xmm5
    9fd7:	0f 2e 2d f0 07 00 00 	ucomiss 0x7f0(%rip),%xmm5        # a7ce <test_setp+0x1021>
    9fde:	7a 0d                	jp     9fed <test_setp+0x840>
    9fe0:	66 0f 6e f0          	movd   %eax,%xmm6
    9fe4:	0f 2e 35 f0 07 00 00 	ucomiss 0x7f0(%rip),%xmm6        # a7db <test_setp+0x102e>
    9feb:	74 1f                	je     a00c <test_setp+0x85f>
    9fed:	41 b8 e1 04 00 00    	mov    $0x4e1,%r8d
    9ff3:	48 8d 05 49 00 00 00 	lea    0x49(%rip),%rax        # a043 <test_setp+0x896>
    9ffa:	48 89 c2             	mov    %rax,%rdx
    9ffd:	48 8d 05 5a 00 00 00 	lea    0x5a(%rip),%rax        # a05e <test_setp+0x8b1>
    a004:	48 89 c1             	mov    %rax,%rcx
    a007:	e8 37 60 ff ff       	call   43 <printf>
    a00c:	48 8d 45 e0          	lea    -0x20(%rbp),%rax
    a010:	f3 0f 10 0d cc 08 00 	movss  0x8cc(%rip),%xmm1        # a8e4 <test_setp+0x1137>
    a017:	00 
    a018:	48 89 c1             	mov    %rax,%rcx
    a01b:	e8 00 00 00 00       	call   a020 <test_setp+0x873>
    a020:	83 f0 01             	xor    $0x1,%eax
    a023:	84 c0                	test   %al,%al
    a025:	74 1f                	je     a046 <test_setp+0x899>
    a027:	41 b8 e2 04 00 00    	mov    $0x4e2,%r8d
    a02d:	48 8d 05 49 00 00 00 	lea    0x49(%rip),%rax        # a07d <test_setp+0x8d0>
    a034:	48 89 c2             	mov    %rax,%rdx
    a037:	48 8d 05 5a 00 00 00 	lea    0x5a(%rip),%rax        # a098 <test_setp+0x8eb>
    a03e:	48 89 c1             	mov    %rax,%rcx
    a041:	e8 fd 5f ff ff       	call   43 <printf>
    a046:	48 8d 45 e0          	lea    -0x20(%rbp),%rax
    a04a:	f3 0f 10 0d d0 08 00 	movss  0x8d0(%rip),%xmm1        # a922 <test_setp+0x1175>
    a051:	00 
    a052:	48 89 c1             	mov    %rax,%rcx
    a055:	e8 00 00 00 00       	call   a05a <test_setp+0x8ad>
    a05a:	66 0f 7e c0          	movd   %xmm0,%eax
    a05e:	66 0f 6e d0          	movd   %eax,%xmm2
    a062:	0f 2e 15 ac 07 00 00 	ucomiss 0x7ac(%rip),%xmm2        # a815 <test_setp+0x1068>
    a069:	7a 0d                	jp     a078 <test_setp+0x8cb>
    a06b:	66 0f 6e d8          	movd   %eax,%xmm3
    a06f:	0f 2e 1d ac 07 00 00 	ucomiss 0x7ac(%rip),%xmm3        # a822 <test_setp+0x1075>
    a076:	74 1f                	je     a097 <test_setp+0x8ea>
    a078:	41 b8 e3 04 00 00    	mov    $0x4e3,%r8d
    a07e:	48 8d 05 49 00 00 00 	lea    0x49(%rip),%rax        # a0ce <test_setp+0x921>
    a085:	48 89 c2             	mov    %rax,%rdx
    a088:	48 8d 05 5a 00 00 00 	lea    0x5a(%rip),%rax        # a0e9 <test_setp+0x93c>
    a08f:	48 89 c1             	mov    %rax,%rcx
    a092:	e8 ac 5f ff ff       	call   43 <printf>
    a097:	66 0f ef c0          	pxor   %xmm0,%xmm0
    a09b:	f3 0f 11 45 c0       	movss  %xmm0,-0x40(%rbp)
    a0a0:	f3 0f 10 05 ac 07 00 	movss  0x7ac(%rip),%xmm0        # a854 <test_setp+0x10a7>
    a0a7:	00 
    a0a8:	f3 0f 11 45 c4       	movss  %xmm0,-0x3c(%rbp)
    a0ad:	f3 0f 10 05 a0 07 00 	movss  0x7a0(%rip),%xmm0        # a855 <test_setp+0x10a8>
    a0b4:	00 
    a0b5:	f3 0f 11 45 c8       	movss  %xmm0,-0x38(%rbp)
    a0ba:	66 0f ef c0          	pxor   %xmm0,%xmm0
    a0be:	f3 0f 11 45 cc       	movss  %xmm0,-0x34(%rbp)
    a0c3:	66 0f ef c0          	pxor   %xmm0,%xmm0
    a0c7:	f3 0f 11 45 d0       	movss  %xmm0,-0x30(%rbp)
    a0cc:	66 0f ef c0          	pxor   %xmm0,%xmm0
    a0d0:	f3 0f 11 45 cc       	movss  %xmm0,-0x34(%rbp)
    a0d5:	66 0f ef c0          	pxor   %xmm0,%xmm0
    a0d9:	f3 0f 11 45 d0       	movss  %xmm0,-0x30(%rbp)
    a0de:	f3 0f 10 45 d0       	movss  -0x30(%rbp),%xmm0
    a0e3:	66 0f ef c9          	pxor   %xmm1,%xmm1
    a0e7:	0f 2e c1             	ucomiss %xmm1,%xmm0
    a0ea:	7a 09                	jp     a0f5 <test_setp+0x948>
    a0ec:	66 0f ef c9          	pxor   %xmm1,%xmm1
    a0f0:	0f 2e c1             	ucomiss %xmm1,%xmm0
    a0f3:	74 1f                	je     a114 <test_setp+0x967>
    a0f5:	41 b8 eb 04 00 00    	mov    $0x4eb,%r8d
    a0fb:	48 8d 05 49 00 00 00 	lea    0x49(%rip),%rax        # a14b <test_setp+0x99e>
    a102:	48 89 c2             	mov    %rax,%rdx
    a105:	48 8d 05 5a 00 00 00 	lea    0x5a(%rip),%rax        # a166 <test_setp+0x9b9>
    a10c:	48 89 c1             	mov    %rax,%rcx
    a10f:	e8 2f 5f ff ff       	call   43 <printf>
    a114:	f3 0f 10 45 cc       	movss  -0x34(%rbp),%xmm0
    a119:	66 0f ef c9          	pxor   %xmm1,%xmm1
    a11d:	0f 2e c1             	ucomiss %xmm1,%xmm0
    a120:	7a 09                	jp     a12b <test_setp+0x97e>
    a122:	66 0f ef c9          	pxor   %xmm1,%xmm1
    a126:	0f 2e c1             	ucomiss %xmm1,%xmm0
    a129:	74 1f                	je     a14a <test_setp+0x99d>
    a12b:	41 b8 ec 04 00 00    	mov    $0x4ec,%r8d
    a131:	48 8d 05 49 00 00 00 	lea    0x49(%rip),%rax        # a181 <test_setp+0x9d4>
    a138:	48 89 c2             	mov    %rax,%rdx
    a13b:	48 8d 05 5a 00 00 00 	lea    0x5a(%rip),%rax        # a19c <test_setp+0x9ef>
    a142:	48 89 c1             	mov    %rax,%rcx
    a145:	e8 f9 5e ff ff       	call   43 <printf>
    a14a:	f3 0f 10 45 cc       	movss  -0x34(%rbp),%xmm0
    a14f:	f3 0f 10 4d d0       	movss  -0x30(%rbp),%xmm1
    a154:	f3 0f 5c c1          	subss  %xmm1,%xmm0
    a158:	f3 0f 10 0d e0 08 00 	movss  0x8e0(%rip),%xmm1        # aa40 <test_setp+0x1293>
    a15f:	00 
    a160:	0f 54 c8             	andps  %xmm0,%xmm1
    a163:	f3 0f 10 05 b4 08 00 	movss  0x8b4(%rip),%xmm0        # aa1f <test_setp+0x1272>
    a16a:	00 
    a16b:	0f 2f c1             	comiss %xmm1,%xmm0
    a16e:	0f 97 c0             	seta   %al
    a171:	83 f0 01             	xor    $0x1,%eax
    a174:	84 c0                	test   %al,%al
    a176:	74 1f                	je     a197 <test_setp+0x9ea>
    a178:	41 b8 ee 04 00 00    	mov    $0x4ee,%r8d
    a17e:	48 8d 05 49 00 00 00 	lea    0x49(%rip),%rax        # a1ce <test_setp+0xa21>
    a185:	48 89 c2             	mov    %rax,%rdx
    a188:	48 8d 05 5a 00 00 00 	lea    0x5a(%rip),%rax        # a1e9 <test_setp+0xa3c>
    a18f:	48 89 c1             	mov    %rax,%rcx
    a192:	e8 ac 5e ff ff       	call   43 <printf>
    a197:	8b 5d c0             	mov    -0x40(%rbp),%ebx
    a19a:	8b 45 c4             	mov    -0x3c(%rbp),%eax
    a19d:	f3 0f 10 0d d4 07 00 	movss  0x7d4(%rip),%xmm1        # a979 <test_setp+0x11cc>
    a1a4:	00 
    a1a5:	66 0f 6e c0          	movd   %eax,%xmm0
    a1a9:	e8 00 00 00 00       	call   a1ae <test_setp+0xa01>
    a1ae:	66 0f 7e c0          	movd   %xmm0,%eax
    a1b2:	66 0f 6e c8          	movd   %eax,%xmm1
    a1b6:	66 0f 6e c3          	movd   %ebx,%xmm0
    a1ba:	e8 00 00 00 00       	call   a1bf <test_setp+0xa12>
    a1bf:	66 0f 7e c0          	movd   %xmm0,%eax
    a1c3:	89 45 d0             	mov    %eax,-0x30(%rbp)
    a1c6:	f3 0f 10 45 cc       	movss  -0x34(%rbp),%xmm0
    a1cb:	f3 0f 10 4d d0       	movss  -0x30(%rbp),%xmm1
    a1d0:	f3 0f 5c c1          	subss  %xmm1,%xmm0
    a1d4:	f3 0f 10 0d e0 08 00 	movss  0x8e0(%rip),%xmm1        # aabc <test_setp+0x130f>
    a1db:	00 
    a1dc:	0f 54 c8             	andps  %xmm0,%xmm1
    a1df:	f3 0f 10 05 b4 08 00 	movss  0x8b4(%rip),%xmm0        # aa9b <test_setp+0x12ee>
    a1e6:	00 
    a1e7:	0f 2f c1             	comiss %xmm1,%xmm0
    a1ea:	76 1f                	jbe    a20b <test_setp+0xa5e>
    a1ec:	41 b8 f0 04 00 00    	mov    $0x4f0,%r8d
    a1f2:	48 8d 05 49 00 00 00 	lea    0x49(%rip),%rax        # a242 <test_setp+0xa95>
    a1f9:	48 89 c2             	mov    %rax,%rdx
    a1fc:	48 8d 05 5a 00 00 00 	lea    0x5a(%rip),%rax        # a25d <test_setp+0xab0>
    a203:	48 89 c1             	mov    %rax,%rcx
    a206:	e8 38 5e ff ff       	call   43 <printf>
    a20b:	f3 0f 10 75 cc       	movss  -0x34(%rbp),%xmm6
    a210:	f3 0f 10 45 c8       	movss  -0x38(%rbp),%xmm0
    a215:	f3 0f 10 0d f0 08 00 	movss  0x8f0(%rip),%xmm1        # ab0d <test_setp+0x1360>
    a21c:	00 
    a21d:	0f 57 c1             	xorps  %xmm1,%xmm0
    a220:	66 0f 7e c3          	movd   %xmm0,%ebx
    a224:	8b 45 c8             	mov    -0x38(%rbp),%eax
    a227:	f3 0f 10 45 d0       	movss  -0x30(%rbp),%xmm0
    a22c:	f3 0f 10 4d cc       	movss  -0x34(%rbp),%xmm1
    a231:	f3 0f 5c c1          	subss  %xmm1,%xmm0
    a235:	0f 28 c8             	movaps %xmm0,%xmm1
    a238:	66 0f 6e c0          	movd   %eax,%xmm0
    a23c:	e8 00 00 00 00       	call   a241 <test_setp+0xa94>
    a241:	66 0f 7e c0          	movd   %xmm0,%eax
    a245:	66 0f 6e c8          	movd   %eax,%xmm1
    a249:	66 0f 6e c3          	movd   %ebx,%xmm0
    a24d:	e8 00 00 00 00       	call   a252 <test_setp+0xaa5>
    a252:	f3 0f 58 c6          	addss  %xmm6,%xmm0
    a256:	f3 0f 11 45 cc       	movss  %xmm0,-0x34(%rbp)
    a25b:	f3 0f 10 45 cc       	movss  -0x34(%rbp),%xmm0
    a260:	f3 0f 10 0d a0 07 00 	movss  0x7a0(%rip),%xmm1        # aa08 <test_setp+0x125b>
    a267:	00 
    a268:	0f 2e c1             	ucomiss %xmm1,%xmm0
    a26b:	7a 0d                	jp     a27a <test_setp+0xacd>
    a26d:	f3 0f 10 0d a0 07 00 	movss  0x7a0(%rip),%xmm1        # aa15 <test_setp+0x1268>
    a274:	00 
    a275:	0f 2e c1             	ucomiss %xmm1,%xmm0
    a278:	74 1f                	je     a299 <test_setp+0xaec>
    a27a:	41 b8 f2 04 00 00    	mov    $0x4f2,%r8d
    a280:	48 8d 05 49 00 00 00 	lea    0x49(%rip),%rax        # a2d0 <test_setp+0xb23>
    a287:	48 89 c2             	mov    %rax,%rdx
    a28a:	48 8d 05 5a 00 00 00 	lea    0x5a(%rip),%rax        # a2eb <test_setp+0xb3e>
    a291:	48 89 c1             	mov    %rax,%rcx
    a294:	e8 aa 5d ff ff       	call   43 <printf>
    a299:	f3 0f 10 45 cc       	movss  -0x34(%rbp),%xmm0
    a29e:	f3 0f 10 4d d0       	movss  -0x30(%rbp),%xmm1
    a2a3:	f3 0f 5c c1          	subss  %xmm1,%xmm0
    a2a7:	f3 0f 10 0d e0 08 00 	movss  0x8e0(%rip),%xmm1        # ab8f <test_setp+0x13e2>
    a2ae:	00 
    a2af:	0f 54 c8             	andps  %xmm0,%xmm1
    a2b2:	f3 0f 10 05 b4 08 00 	movss  0x8b4(%rip),%xmm0        # ab6e <test_setp+0x13c1>
    a2b9:	00 
    a2ba:	0f 2f c1             	comiss %xmm1,%xmm0
    a2bd:	76 1f                	jbe    a2de <test_setp+0xb31>
    a2bf:	41 b8 f3 04 00 00    	mov    $0x4f3,%r8d
    a2c5:	48 8d 05 49 00 00 00 	lea    0x49(%rip),%rax        # a315 <test_setp+0xb68>
    a2cc:	48 89 c2             	mov    %rax,%rdx
    a2cf:	48 8d 05 5a 00 00 00 	lea    0x5a(%rip),%rax        # a330 <test_setp+0xb83>
    a2d6:	48 89 c1             	mov    %rax,%rcx
    a2d9:	e8 65 5d ff ff       	call   43 <printf>
    a2de:	f3 0f 10 75 cc       	movss  -0x34(%rbp),%xmm6
    a2e3:	f3 0f 10 45 c8       	movss  -0x38(%rbp),%xmm0
    a2e8:	f3 0f 10 0d f0 08 00 	movss  0x8f0(%rip),%xmm1        # abe0 <test_setp+0x1433>
    a2ef:	00 
    a2f0:	0f 57 c1             	xorps  %xmm1,%xmm0
    a2f3:	66 0f 7e c3          	movd   %xmm0,%ebx
    a2f7:	8b 45 c8             	mov    -0x38(%rbp),%eax
    a2fa:	f3 0f 10 45 d0       	movss  -0x30(%rbp),%xmm0
    a2ff:	f3 0f 10 4d cc       	movss  -0x34(%rbp),%xmm1
    a304:	f3 0f 5c c1          	subss  %xmm1,%xmm0
    a308:	0f 28 c8             	movaps %xmm0,%xmm1
    a30b:	66 0f 6e c0          	movd   %eax,%xmm0
    a30f:	e8 00 00 00 00       	call   a314 <test_setp+0xb67>
    a314:	66 0f 7e c0          	movd   %xmm0,%eax
    a318:	66 0f 6e c8          	movd   %eax,%xmm1
    a31c:	66 0f 6e c3          	movd   %ebx,%xmm0
    a320:	e8 00 00 00 00       	call   a325 <test_setp+0xb78>
    a325:	f3 0f 58 c6          	addss  %xmm6,%xmm0
    a329:	f3 0f 11 45 cc       	movss  %xmm0,-0x34(%rbp)
    a32e:	f3 0f 10 45 cc       	movss  -0x34(%rbp),%xmm0
    a333:	0f 2e 05 9c 07 00 00 	ucomiss 0x79c(%rip),%xmm0        # aad6 <test_setp+0x1329>
    a33a:	7a 09                	jp     a345 <test_setp+0xb98>
    a33c:	0f 2e 05 9c 07 00 00 	ucomiss 0x79c(%rip),%xmm0        # aadf <test_setp+0x1332>
    a343:	74 1f                	je     a364 <test_setp+0xbb7>
    a345:	41 b8 f5 04 00 00    	mov    $0x4f5,%r8d
    a34b:	48 8d 05 49 00 00 00 	lea    0x49(%rip),%rax        # a39b <test_setp+0xbee>
    a352:	48 89 c2             	mov    %rax,%rdx
    a355:	48 8d 05 5a 00 00 00 	lea    0x5a(%rip),%rax        # a3b6 <test_setp+0xc09>
    a35c:	48 89 c1             	mov    %rax,%rcx
    a35f:	e8 df 5c ff ff       	call   43 <printf>
    a364:	f3 0f 10 45 cc       	movss  -0x34(%rbp),%xmm0
    a369:	f3 0f 10 4d d0       	movss  -0x30(%rbp),%xmm1
    a36e:	f3 0f 5c c1          	subss  %xmm1,%xmm0
    a372:	f3 0f 10 0d e0 08 00 	movss  0x8e0(%rip),%xmm1        # ac5a <test_setp+0x14ad>
    a379:	00 
    a37a:	0f 54 c8             	andps  %xmm0,%xmm1
    a37d:	f3 0f 10 05 b4 08 00 	movss  0x8b4(%rip),%xmm0        # ac39 <test_setp+0x148c>
    a384:	00 
    a385:	0f 2f c1             	comiss %xmm1,%xmm0
    a388:	76 1f                	jbe    a3a9 <test_setp+0xbfc>
    a38a:	41 b8 f6 04 00 00    	mov    $0x4f6,%r8d
    a390:	48 8d 05 49 00 00 00 	lea    0x49(%rip),%rax        # a3e0 <test_setp+0xc33>
    a397:	48 89 c2             	mov    %rax,%rdx
    a39a:	48 8d 05 5a 00 00 00 	lea    0x5a(%rip),%rax        # a3fb <test_setp+0xc4e>
    a3a1:	48 89 c1             	mov    %rax,%rcx
    a3a4:	e8 9a 5c ff ff       	call   43 <printf>
    a3a9:	f3 0f 10 75 cc       	movss  -0x34(%rbp),%xmm6
    a3ae:	f3 0f 10 45 c8       	movss  -0x38(%rbp),%xmm0
    a3b3:	f3 0f 10 0d f0 08 00 	movss  0x8f0(%rip),%xmm1        # acab <test_setp_smooth+0x39>
    a3ba:	00 
    a3bb:	0f 57 c1             	xorps  %xmm1,%xmm0
    a3be:	66 0f 7e c3          	movd   %xmm0,%ebx
    a3c2:	8b 45 c8             	mov    -0x38(%rbp),%eax
    a3c5:	f3 0f 10 45 d0       	movss  -0x30(%rbp),%xmm0
    a3ca:	f3 0f 10 4d cc       	movss  -0x34(%rbp),%xmm1
    a3cf:	f3 0f 5c c1          	subss  %xmm1,%xmm0
    a3d3:	0f 28 c8             	movaps %xmm0,%xmm1
    a3d6:	66 0f 6e c0          	movd   %eax,%xmm0
    a3da:	e8 00 00 00 00       	call   a3df <test_setp+0xc32>
    a3df:	66 0f 7e c0          	movd   %xmm0,%eax
    a3e3:	66 0f 6e c8          	movd   %eax,%xmm1
    a3e7:	66 0f 6e c3          	movd   %ebx,%xmm0
    a3eb:	e8 00 00 00 00       	call   a3f0 <test_setp+0xc43>
    a3f0:	f3 0f 58 c6          	addss  %xmm6,%xmm0
    a3f4:	f3 0f 11 45 cc       	movss  %xmm0,-0x34(%rbp)
    a3f9:	f3 0f 10 45 cc       	movss  -0x34(%rbp),%xmm0
    a3fe:	0f 2e 05 b4 07 00 00 	ucomiss 0x7b4(%rip),%xmm0        # abb9 <test_setp+0x140c>
    a405:	7a 09                	jp     a410 <test_setp+0xc63>
    a407:	0f 2e 05 b4 07 00 00 	ucomiss 0x7b4(%rip),%xmm0        # abc2 <test_setp+0x1415>
    a40e:	74 1f                	je     a42f <test_setp+0xc82>
    a410:	41 b8 f8 04 00 00    	mov    $0x4f8,%r8d
    a416:	48 8d 05 49 00 00 00 	lea    0x49(%rip),%rax        # a466 <test_setp+0xcb9>
    a41d:	48 89 c2             	mov    %rax,%rdx
    a420:	48 8d 05 5a 00 00 00 	lea    0x5a(%rip),%rax        # a481 <test_setp+0xcd4>
    a427:	48 89 c1             	mov    %rax,%rcx
    a42a:	e8 14 5c ff ff       	call   43 <printf>
    a42f:	f3 0f 10 45 cc       	movss  -0x34(%rbp),%xmm0
    a434:	f3 0f 10 4d d0       	movss  -0x30(%rbp),%xmm1
    a439:	f3 0f 5c c1          	subss  %xmm1,%xmm0
    a43d:	f3 0f 10 0d e0 08 00 	movss  0x8e0(%rip),%xmm1        # ad25 <test_setp_smooth+0xb3>
    a444:	00 
    a445:	0f 54 c8             	andps  %xmm0,%xmm1
    a448:	f3 0f 10 05 b4 08 00 	movss  0x8b4(%rip),%xmm0        # ad04 <test_setp_smooth+0x92>
    a44f:	00 
    a450:	0f 2f c1             	comiss %xmm1,%xmm0
    a453:	76 1f                	jbe    a474 <test_setp+0xcc7>
    a455:	41 b8 f9 04 00 00    	mov    $0x4f9,%r8d
    a45b:	48 8d 05 49 00 00 00 	lea    0x49(%rip),%rax        # a4ab <test_setp+0xcfe>
    a462:	48 89 c2             	mov    %rax,%rdx
    a465:	48 8d 05 5a 00 00 00 	lea    0x5a(%rip),%rax        # a4c6 <test_setp+0xd19>
    a46c:	48 89 c1             	mov    %rax,%rcx
    a46f:	e8 cf 5b ff ff       	call   43 <printf>
    a474:	f3 0f 10 75 cc       	movss  -0x34(%rbp),%xmm6
    a479:	f3 0f 10 45 c8       	movss  -0x38(%rbp),%xmm0
    a47e:	f3 0f 10 0d f0 08 00 	movss  0x8f0(%rip),%xmm1        # ad76 <test_setp_smooth+0x104>
    a485:	00 
    a486:	0f 57 c1             	xorps  %xmm1,%xmm0
    a489:	66 0f 7e c3          	movd   %xmm0,%ebx
    a48d:	8b 45 c8             	mov    -0x38(%rbp),%eax
    a490:	f3 0f 10 45 d0       	movss  -0x30(%rbp),%xmm0
    a495:	f3 0f 10 4d cc       	movss  -0x34(%rbp),%xmm1
    a49a:	f3 0f 5c c1          	subss  %xmm1,%xmm0
    a49e:	0f 28 c8             	movaps %xmm0,%xmm1
    a4a1:	66 0f 6e c0          	movd   %eax,%xmm0
    a4a5:	e8 00 00 00 00       	call   a4aa <test_setp+0xcfd>
    a4aa:	66 0f 7e c0          	movd   %xmm0,%eax
    a4ae:	66 0f 6e c8          	movd   %eax,%xmm1
    a4b2:	66 0f 6e c3          	movd   %ebx,%xmm0
    a4b6:	e8 00 00 00 00       	call   a4bb <test_setp+0xd0e>
    a4bb:	f3 0f 58 c6          	addss  %xmm6,%xmm0
    a4bf:	f3 0f 11 45 cc       	movss  %xmm0,-0x34(%rbp)
    a4c4:	f3 0f 10 45 cc       	movss  -0x34(%rbp),%xmm0
    a4c9:	0f 2e 05 d4 07 00 00 	ucomiss 0x7d4(%rip),%xmm0        # aca4 <test_setp_smooth+0x32>
    a4d0:	7a 09                	jp     a4db <test_setp+0xd2e>
    a4d2:	0f 2e 05 d4 07 00 00 	ucomiss 0x7d4(%rip),%xmm0        # acad <test_setp_smooth+0x3b>
    a4d9:	74 1f                	je     a4fa <test_setp+0xd4d>
    a4db:	41 b8 fb 04 00 00    	mov    $0x4fb,%r8d
    a4e1:	48 8d 05 49 00 00 00 	lea    0x49(%rip),%rax        # a531 <test_setp+0xd84>
    a4e8:	48 89 c2             	mov    %rax,%rdx
    a4eb:	48 8d 05 5a 00 00 00 	lea    0x5a(%rip),%rax        # a54c <test_setp+0xd9f>
    a4f2:	48 89 c1             	mov    %rax,%rcx
    a4f5:	e8 49 5b ff ff       	call   43 <printf>
    a4fa:	f3 0f 10 45 cc       	movss  -0x34(%rbp),%xmm0
    a4ff:	f3 0f 10 4d d0       	movss  -0x30(%rbp),%xmm1
    a504:	f3 0f 5c c1          	subss  %xmm1,%xmm0
    a508:	f3 0f 10 0d e0 08 00 	movss  0x8e0(%rip),%xmm1        # adf0 <test_setp_smooth+0x17e>
    a50f:	00 
    a510:	0f 54 c8             	andps  %xmm0,%xmm1
    a513:	f3 0f 10 05 b4 08 00 	movss  0x8b4(%rip),%xmm0        # adcf <test_setp_smooth+0x15d>
    a51a:	00 
    a51b:	0f 2f c1             	comiss %xmm1,%xmm0
    a51e:	0f 97 c0             	seta   %al
    a521:	83 f0 01             	xor    $0x1,%eax
    a524:	84 c0                	test   %al,%al
    a526:	74 1f                	je     a547 <test_setp+0xd9a>
    a528:	41 b8 fc 04 00 00    	mov    $0x4fc,%r8d
    a52e:	48 8d 05 49 00 00 00 	lea    0x49(%rip),%rax        # a57e <test_setp+0xdd1>
    a535:	48 89 c2             	mov    %rax,%rdx
    a538:	48 8d 05 5a 00 00 00 	lea    0x5a(%rip),%rax        # a599 <test_setp+0xdec>
    a53f:	48 89 c1             	mov    %rax,%rcx
    a542:	e8 fc 5a ff ff       	call   43 <printf>
    a547:	66 0f ef c0          	pxor   %xmm0,%xmm0
    a54b:	f3 0f 11 45 cc       	movss  %xmm0,-0x34(%rbp)
    a550:	66 0f ef c0          	pxor   %xmm0,%xmm0
    a554:	f3 0f 11 45 d0       	movss  %xmm0,-0x30(%rbp)
    a559:	f3 0f 10 45 cc       	movss  -0x34(%rbp),%xmm0
    a55e:	f3 0f 10 4d d0       	movss  -0x30(%rbp),%xmm1
    a563:	f3 0f 5c c1          	subss  %xmm1,%xmm0
    a567:	f3 0f 10 0d e0 08 00 	movss  0x8e0(%rip),%xmm1        # ae4f <test_setp_smooth+0x1dd>
    a56e:	00 
    a56f:	0f 54 c8             	andps  %xmm0,%xmm1
    a572:	f3 0f 10 05 b4 08 00 	movss  0x8b4(%rip),%xmm0        # ae2e <test_setp_smooth+0x1bc>
    a579:	00 
    a57a:	0f 2f c1             	comiss %xmm1,%xmm0
    a57d:	0f 97 c0             	seta   %al
    a580:	83 f0 01             	xor    $0x1,%eax
    a583:	84 c0                	test   %al,%al
    a585:	74 1f                	je     a5a6 <test_setp+0xdf9>
    a587:	41 b8 ff 04 00 00    	mov    $0x4ff,%r8d
    a58d:	48 8d 05 49 00 00 00 	lea    0x49(%rip),%rax        # a5dd <test_setp+0xe30>
    a594:	48 89 c2             	mov    %rax,%rdx
    a597:	48 8d 05 5a 00 00 00 	lea    0x5a(%rip),%rax        # a5f8 <test_setp+0xe4b>
    a59e:	48 89 c1             	mov    %rax,%rcx
    a5a1:	e8 9d 5a ff ff       	call   43 <printf>
    a5a6:	8b 5d c0             	mov    -0x40(%rbp),%ebx
    a5a9:	8b 45 c4             	mov    -0x3c(%rbp),%eax
    a5ac:	f3 0f 10 0d b4 07 00 	movss  0x7b4(%rip),%xmm1        # ad68 <test_setp_smooth+0xf6>
    a5b3:	00 
    a5b4:	66 0f 6e c0          	movd   %eax,%xmm0
    a5b8:	e8 00 00 00 00       	call   a5bd <test_setp+0xe10>
    a5bd:	66 0f 7e c0          	movd   %xmm0,%eax
    a5c1:	66 0f 6e c8          	movd   %eax,%xmm1
    a5c5:	66 0f 6e c3          	movd   %ebx,%xmm0
    a5c9:	e8 00 00 00 00       	call   a5ce <test_setp+0xe21>
    a5ce:	66 0f 7e c0          	movd   %xmm0,%eax
    a5d2:	89 45 d0             	mov    %eax,-0x30(%rbp)
    a5d5:	f3 0f 10 45 cc       	movss  -0x34(%rbp),%xmm0
    a5da:	f3 0f 10 4d d0       	movss  -0x30(%rbp),%xmm1
    a5df:	f3 0f 5c c1          	subss  %xmm1,%xmm0
    a5e3:	f3 0f 10 0d e0 08 00 	movss  0x8e0(%rip),%xmm1        # aecb <test_setp_smooth+0x259>
    a5ea:	00 
    a5eb:	0f 54 c8             	andps  %xmm0,%xmm1
    a5ee:	f3 0f 10 05 b4 08 00 	movss  0x8b4(%rip),%xmm0        # aeaa <test_setp_smooth+0x238>
    a5f5:	00 
    a5f6:	0f 2f c1             	comiss %xmm1,%xmm0
    a5f9:	76 1f                	jbe    a61a <test_setp+0xe6d>
    a5fb:	41 b8 01 05 00 00    	mov    $0x501,%r8d
    a601:	48 8d 05 49 00 00 00 	lea    0x49(%rip),%rax        # a651 <test_setp+0xea4>
    a608:	48 89 c2             	mov    %rax,%rdx
    a60b:	48 8d 05 5a 00 00 00 	lea    0x5a(%rip),%rax        # a66c <test_setp+0xebf>
    a612:	48 89 c1             	mov    %rax,%rcx
    a615:	e8 29 5a ff ff       	call   43 <printf>
    a61a:	f3 0f 10 45 d0       	movss  -0x30(%rbp),%xmm0
    a61f:	f3 0f 11 45 cc       	movss  %xmm0,-0x34(%rbp)
    a624:	f3 0f 10 45 cc       	movss  -0x34(%rbp),%xmm0
    a629:	0f 2e 05 b4 07 00 00 	ucomiss 0x7b4(%rip),%xmm0        # ade4 <test_setp_smooth+0x172>
    a630:	7a 09                	jp     a63b <test_setp+0xe8e>
    a632:	0f 2e 05 b4 07 00 00 	ucomiss 0x7b4(%rip),%xmm0        # aded <test_setp_smooth+0x17b>
    a639:	74 1f                	je     a65a <test_setp+0xead>
    a63b:	41 b8 03 05 00 00    	mov    $0x503,%r8d
    a641:	48 8d 05 49 00 00 00 	lea    0x49(%rip),%rax        # a691 <test_setp+0xee4>
    a648:	48 89 c2             	mov    %rax,%rdx
    a64b:	48 8d 05 5a 00 00 00 	lea    0x5a(%rip),%rax        # a6ac <test_setp+0xeff>
    a652:	48 89 c1             	mov    %rax,%rcx
    a655:	e8 e9 59 ff ff       	call   43 <printf>
    a65a:	f3 0f 10 45 cc       	movss  -0x34(%rbp),%xmm0
    a65f:	f3 0f 10 4d d0       	movss  -0x30(%rbp),%xmm1
    a664:	f3 0f 5c c1          	subss  %xmm1,%xmm0
    a668:	f3 0f 10 0d e0 08 00 	movss  0x8e0(%rip),%xmm1        # af50 <test_setp_smooth+0x2de>
    a66f:	00 
    a670:	0f 54 c8             	andps  %xmm0,%xmm1
    a673:	f3 0f 10 05 b4 08 00 	movss  0x8b4(%rip),%xmm0        # af2f <test_setp_smooth+0x2bd>
    a67a:	00 
    a67b:	0f 2f c1             	comiss %xmm1,%xmm0
    a67e:	0f 97 c0             	seta   %al
    a681:	83 f0 01             	xor    $0x1,%eax
    a684:	84 c0                	test   %al,%al
    a686:	74 1f                	je     a6a7 <test_setp+0xefa>
    a688:	41 b8 04 05 00 00    	mov    $0x504,%r8d
    a68e:	48 8d 05 49 00 00 00 	lea    0x49(%rip),%rax        # a6de <test_setp+0xf31>
    a695:	48 89 c2             	mov    %rax,%rdx
    a698:	48 8d 05 5a 00 00 00 	lea    0x5a(%rip),%rax        # a6f9 <test_setp+0xf4c>
    a69f:	48 89 c1             	mov    %rax,%rcx
    a6a2:	e8 9c 59 ff ff       	call   43 <printf>
    a6a7:	f3 0f 10 05 cc 07 00 	movss  0x7cc(%rip),%xmm0        # ae7b <test_setp_smooth+0x209>
    a6ae:	00 
    a6af:	f3 0f 11 45 c8       	movss  %xmm0,-0x38(%rbp)
    a6b4:	66 0f ef c0          	pxor   %xmm0,%xmm0
    a6b8:	f3 0f 11 45 cc       	movss  %xmm0,-0x34(%rbp)
    a6bd:	66 0f ef c0          	pxor   %xmm0,%xmm0
    a6c1:	f3 0f 11 45 d0       	movss  %xmm0,-0x30(%rbp)
    a6c6:	f3 0f 10 45 cc       	movss  -0x34(%rbp),%xmm0
    a6cb:	f3 0f 10 4d d0       	movss  -0x30(%rbp),%xmm1
    a6d0:	f3 0f 5c c1          	subss  %xmm1,%xmm0
    a6d4:	f3 0f 10 0d e0 08 00 	movss  0x8e0(%rip),%xmm1        # afbc <test_setp_smooth+0x34a>
    a6db:	00 
    a6dc:	0f 54 c8             	andps  %xmm0,%xmm1
    a6df:	f3 0f 10 05 b4 08 00 	movss  0x8b4(%rip),%xmm0        # af9b <test_setp_smooth+0x329>
    a6e6:	00 
    a6e7:	0f 2f c1             	comiss %xmm1,%xmm0
    a6ea:	0f 97 c0             	seta   %al
    a6ed:	83 f0 01             	xor    $0x1,%eax
    a6f0:	84 c0                	test   %al,%al
    a6f2:	74 1f                	je     a713 <test_setp+0xf66>
    a6f4:	41 b8 08 05 00 00    	mov    $0x508,%r8d
    a6fa:	48 8d 05 49 00 00 00 	lea    0x49(%rip),%rax        # a74a <test_setp+0xf9d>
    a701:	48 89 c2             	mov    %rax,%rdx
    a704:	48 8d 05 5a 00 00 00 	lea    0x5a(%rip),%rax        # a765 <test_setp+0xfb8>
    a70b:	48 89 c1             	mov    %rax,%rcx
    a70e:	e8 30 59 ff ff       	call   43 <printf>
    a713:	8b 5d c0             	mov    -0x40(%rbp),%ebx
    a716:	8b 45 c4             	mov    -0x3c(%rbp),%eax
    a719:	f3 0f 10 0d f0 07 00 	movss  0x7f0(%rip),%xmm1        # af11 <test_setp_smooth+0x29f>
    a720:	00 
    a721:	66 0f 6e c0          	movd   %eax,%xmm0
    a725:	e8 00 00 00 00       	call   a72a <test_setp+0xf7d>
    a72a:	66 0f 7e c0          	movd   %xmm0,%eax
    a72e:	66 0f 6e c8          	movd   %eax,%xmm1
    a732:	66 0f 6e c3          	movd   %ebx,%xmm0
    a736:	e8 00 00 00 00       	call   a73b <test_setp+0xf8e>
    a73b:	66 0f 7e c0          	movd   %xmm0,%eax
    a73f:	89 45 d0             	mov    %eax,-0x30(%rbp)
    a742:	f3 0f 10 45 cc       	movss  -0x34(%rbp),%xmm0
    a747:	f3 0f 10 4d d0       	movss  -0x30(%rbp),%xmm1
    a74c:	f3 0f 5c c1          	subss  %xmm1,%xmm0
    a750:	f3 0f 10 0d e0 08 00 	movss  0x8e0(%rip),%xmm1        # b038 <test_setp_smooth+0x3c6>
    a757:	00 
    a758:	0f 54 c8             	andps  %xmm0,%xmm1
    a75b:	f3 0f 10 05 b4 08 00 	movss  0x8b4(%rip),%xmm0        # b017 <test_setp_smooth+0x3a5>
    a762:	00 
    a763:	0f 2f c1             	comiss %xmm1,%xmm0
    a766:	76 1f                	jbe    a787 <test_setp+0xfda>
    a768:	41 b8 0a 05 00 00    	mov    $0x50a,%r8d
    a76e:	48 8d 05 49 00 00 00 	lea    0x49(%rip),%rax        # a7be <test_setp+0x1011>
    a775:	48 89 c2             	mov    %rax,%rdx
    a778:	48 8d 05 5a 00 00 00 	lea    0x5a(%rip),%rax        # a7d9 <test_setp+0x102c>
    a77f:	48 89 c1             	mov    %rax,%rcx
    a782:	e8 bc 58 ff ff       	call   43 <printf>
    a787:	f3 0f 10 4d cc       	movss  -0x34(%rbp),%xmm1
    a78c:	f3 0f 10 55 c8       	movss  -0x38(%rbp),%xmm2
    a791:	f3 0f 10 45 d0       	movss  -0x30(%rbp),%xmm0
    a796:	f3 0f 10 5d cc       	movss  -0x34(%rbp),%xmm3
    a79b:	f3 0f 5c c3          	subss  %xmm3,%xmm0
    a79f:	f3 0f 59 c2          	mulss  %xmm2,%xmm0
    a7a3:	f3 0f 58 c1          	addss  %xmm1,%xmm0
    a7a7:	f3 0f 11 45 cc       	movss  %xmm0,-0x34(%rbp)
    a7ac:	f3 0f 10 45 cc       	movss  -0x34(%rbp),%xmm0
    a7b1:	0f 2e 05 b8 07 00 00 	ucomiss 0x7b8(%rip),%xmm0        # af70 <test_setp_smooth+0x2fe>
    a7b8:	7a 09                	jp     a7c3 <test_setp+0x1016>
    a7ba:	0f 2e 05 b8 07 00 00 	ucomiss 0x7b8(%rip),%xmm0        # af79 <test_setp_smooth+0x307>
    a7c1:	74 1f                	je     a7e2 <test_setp+0x1035>
    a7c3:	41 b8 0c 05 00 00    	mov    $0x50c,%r8d
    a7c9:	48 8d 05 49 00 00 00 	lea    0x49(%rip),%rax        # a819 <test_setp+0x106c>
    a7d0:	48 89 c2             	mov    %rax,%rdx
    a7d3:	48 8d 05 5a 00 00 00 	lea    0x5a(%rip),%rax        # a834 <test_setp+0x1087>
    a7da:	48 89 c1             	mov    %rax,%rcx
    a7dd:	e8 61 58 ff ff       	call   43 <printf>
    a7e2:	f3 0f 10 45 cc       	movss  -0x34(%rbp),%xmm0
    a7e7:	f3 0f 10 4d d0       	movss  -0x30(%rbp),%xmm1
    a7ec:	f3 0f 5c c1          	subss  %xmm1,%xmm0
    a7f0:	f3 0f 10 0d e0 08 00 	movss  0x8e0(%rip),%xmm1        # b0d8 <test_setp_smooth+0x466>
    a7f7:	00 
    a7f8:	0f 54 c8             	andps  %xmm0,%xmm1
    a7fb:	f3 0f 10 05 b4 08 00 	movss  0x8b4(%rip),%xmm0        # b0b7 <test_setp_smooth+0x445>
    a802:	00 
    a803:	0f 2f c1             	comiss %xmm1,%xmm0
    a806:	76 1f                	jbe    a827 <test_setp+0x107a>
    a808:	41 b8 0d 05 00 00    	mov    $0x50d,%r8d
    a80e:	48 8d 05 49 00 00 00 	lea    0x49(%rip),%rax        # a85e <test_setp+0x10b1>
    a815:	48 89 c2             	mov    %rax,%rdx
    a818:	48 8d 05 5a 00 00 00 	lea    0x5a(%rip),%rax        # a879 <test_setp+0x10cc>
    a81f:	48 89 c1             	mov    %rax,%rcx
    a822:	e8 1c 58 ff ff       	call   43 <printf>
    a827:	f3 0f 10 4d cc       	movss  -0x34(%rbp),%xmm1
    a82c:	f3 0f 10 55 c8       	movss  -0x38(%rbp),%xmm2
    a831:	f3 0f 10 45 d0       	movss  -0x30(%rbp),%xmm0
    a836:	f3 0f 10 5d cc       	movss  -0x34(%rbp),%xmm3
    a83b:	f3 0f 5c c3          	subss  %xmm3,%xmm0
    a83f:	f3 0f 59 c2          	mulss  %xmm2,%xmm0
    a843:	f3 0f 58 c1          	addss  %xmm1,%xmm0
    a847:	f3 0f 11 45 cc       	movss  %xmm0,-0x34(%rbp)
    a84c:	f3 0f 10 45 cc       	movss  -0x34(%rbp),%xmm0
    a851:	0f 2e 05 ec 07 00 00 	ucomiss 0x7ec(%rip),%xmm0        # b044 <test_setp_smooth+0x3d2>
    a858:	7a 09                	jp     a863 <test_setp+0x10b6>
    a85a:	0f 2e 05 ec 07 00 00 	ucomiss 0x7ec(%rip),%xmm0        # b04d <test_setp_smooth+0x3db>
    a861:	74 1f                	je     a882 <test_setp+0x10d5>
    a863:	41 b8 0f 05 00 00    	mov    $0x50f,%r8d
    a869:	48 8d 05 49 00 00 00 	lea    0x49(%rip),%rax        # a8b9 <test_setp+0x110c>
    a870:	48 89 c2             	mov    %rax,%rdx
    a873:	48 8d 05 5a 00 00 00 	lea    0x5a(%rip),%rax        # a8d4 <test_setp+0x1127>
    a87a:	48 89 c1             	mov    %rax,%rcx
    a87d:	e8 c1 57 ff ff       	call   43 <printf>
    a882:	f3 0f 10 45 cc       	movss  -0x34(%rbp),%xmm0
    a887:	f3 0f 10 4d d0       	movss  -0x30(%rbp),%xmm1
    a88c:	f3 0f 5c c1          	subss  %xmm1,%xmm0
    a890:	f3 0f 10 0d e0 08 00 	movss  0x8e0(%rip),%xmm1        # b178 <test_setp_smooth+0x506>
    a897:	00 
    a898:	0f 54 c8             	andps  %xmm0,%xmm1
    a89b:	f3 0f 10 05 b4 08 00 	movss  0x8b4(%rip),%xmm0        # b157 <test_setp_smooth+0x4e5>
    a8a2:	00 
    a8a3:	0f 2f c1             	comiss %xmm1,%xmm0
    a8a6:	76 1f                	jbe    a8c7 <test_setp+0x111a>
    a8a8:	41 b8 10 05 00 00    	mov    $0x510,%r8d
    a8ae:	48 8d 05 49 00 00 00 	lea    0x49(%rip),%rax        # a8fe <test_setp+0x1151>
    a8b5:	48 89 c2             	mov    %rax,%rdx
    a8b8:	48 8d 05 5a 00 00 00 	lea    0x5a(%rip),%rax        # a919 <test_setp+0x116c>
    a8bf:	48 89 c1             	mov    %rax,%rcx
    a8c2:	e8 7c 57 ff ff       	call   43 <printf>
    a8c7:	f3 0f 10 4d cc       	movss  -0x34(%rbp),%xmm1
    a8cc:	f3 0f 10 55 c8       	movss  -0x38(%rbp),%xmm2
    a8d1:	f3 0f 10 45 d0       	movss  -0x30(%rbp),%xmm0
    a8d6:	f3 0f 10 5d cc       	movss  -0x34(%rbp),%xmm3
    a8db:	f3 0f 5c c3          	subss  %xmm3,%xmm0
    a8df:	f3 0f 59 c2          	mulss  %xmm2,%xmm0
    a8e3:	f3 0f 58 c1          	addss  %xmm1,%xmm0
    a8e7:	f3 0f 11 45 cc       	movss  %xmm0,-0x34(%rbp)
    a8ec:	f3 0f 10 45 cc       	movss  -0x34(%rbp),%xmm0
    a8f1:	0f 2e 05 b8 08 00 00 	ucomiss 0x8b8(%rip),%xmm0        # b1b0 <test_setp_smooth+0x53e>
    a8f8:	7a 09                	jp     a903 <test_setp+0x1156>
    a8fa:	0f 2e 05 b8 08 00 00 	ucomiss 0x8b8(%rip),%xmm0        # b1b9 <test_setp_smooth+0x547>
    a901:	74 1f                	je     a922 <test_setp+0x1175>
    a903:	41 b8 12 05 00 00    	mov    $0x512,%r8d
    a909:	48 8d 05 49 00 00 00 	lea    0x49(%rip),%rax        # a959 <test_setp+0x11ac>
    a910:	48 89 c2             	mov    %rax,%rdx
    a913:	48 8d 05 5a 00 00 00 	lea    0x5a(%rip),%rax        # a974 <test_setp+0x11c7>
    a91a:	48 89 c1             	mov    %rax,%rcx
    a91d:	e8 21 57 ff ff       	call   43 <printf>
    a922:	f3 0f 10 45 cc       	movss  -0x34(%rbp),%xmm0
    a927:	f3 0f 10 4d d0       	movss  -0x30(%rbp),%xmm1
    a92c:	f3 0f 5c c1          	subss  %xmm1,%xmm0
    a930:	f3 0f 10 0d e0 08 00 	movss  0x8e0(%rip),%xmm1        # b218 <test_setp_smooth+0x5a6>
    a937:	00 
    a938:	0f 54 c8             	andps  %xmm0,%xmm1
    a93b:	f3 0f 10 05 b4 08 00 	movss  0x8b4(%rip),%xmm0        # b1f7 <test_setp_smooth+0x585>
    a942:	00 
    a943:	0f 2f c1             	comiss %xmm1,%xmm0
    a946:	76 1f                	jbe    a967 <test_setp+0x11ba>
    a948:	41 b8 13 05 00 00    	mov    $0x513,%r8d
    a94e:	48 8d 05 49 00 00 00 	lea    0x49(%rip),%rax        # a99e <test_setp+0x11f1>
    a955:	48 89 c2             	mov    %rax,%rdx
    a958:	48 8d 05 5a 00 00 00 	lea    0x5a(%rip),%rax        # a9b9 <test_setp+0x120c>
    a95f:	48 89 c1             	mov    %rax,%rcx
    a962:	e8 dc 56 ff ff       	call   43 <printf>
    a967:	f3 0f 10 4d cc       	movss  -0x34(%rbp),%xmm1
    a96c:	f3 0f 10 55 c8       	movss  -0x38(%rbp),%xmm2
    a971:	f3 0f 10 45 d0       	movss  -0x30(%rbp),%xmm0
    a976:	f3 0f 10 5d cc       	movss  -0x34(%rbp),%xmm3
    a97b:	f3 0f 5c c3          	subss  %xmm3,%xmm0
    a97f:	f3 0f 59 c2          	mulss  %xmm2,%xmm0
    a983:	f3 0f 58 c1          	addss  %xmm1,%xmm0
    a987:	f3 0f 11 45 cc       	movss  %xmm0,-0x34(%rbp)
    a98c:	f3 0f 10 45 cc       	movss  -0x34(%rbp),%xmm0
    a991:	0f 2e 05 bc 08 00 00 	ucomiss 0x8bc(%rip),%xmm0        # b254 <test_setp_smooth+0x5e2>
    a998:	7a 09                	jp     a9a3 <test_setp+0x11f6>
    a99a:	0f 2e 05 bc 08 00 00 	ucomiss 0x8bc(%rip),%xmm0        # b25d <test_setp_smooth+0x5eb>
    a9a1:	74 1f                	je     a9c2 <test_setp+0x1215>
    a9a3:	41 b8 15 05 00 00    	mov    $0x515,%r8d
    a9a9:	48 8d 05 49 00 00 00 	lea    0x49(%rip),%rax        # a9f9 <test_setp+0x124c>
    a9b0:	48 89 c2             	mov    %rax,%rdx
    a9b3:	48 8d 05 5a 00 00 00 	lea    0x5a(%rip),%rax        # aa14 <test_setp+0x1267>
    a9ba:	48 89 c1             	mov    %rax,%rcx
    a9bd:	e8 81 56 ff ff       	call   43 <printf>
    a9c2:	f3 0f 10 45 cc       	movss  -0x34(%rbp),%xmm0
    a9c7:	f3 0f 10 4d d0       	movss  -0x30(%rbp),%xmm1
    a9cc:	f3 0f 5c c1          	subss  %xmm1,%xmm0
    a9d0:	f3 0f 10 0d e0 08 00 	movss  0x8e0(%rip),%xmm1        # b2b8 <test_setp_smooth+0x646>
    a9d7:	00 
    a9d8:	0f 54 c8             	andps  %xmm0,%xmm1
    a9db:	f3 0f 10 05 b4 08 00 	movss  0x8b4(%rip),%xmm0        # b297 <test_setp_smooth+0x625>
    a9e2:	00 
    a9e3:	0f 2f c1             	comiss %xmm1,%xmm0
    a9e6:	76 1f                	jbe    aa07 <test_setp+0x125a>
    a9e8:	41 b8 16 05 00 00    	mov    $0x516,%r8d
    a9ee:	48 8d 05 49 00 00 00 	lea    0x49(%rip),%rax        # aa3e <test_setp+0x1291>
    a9f5:	48 89 c2             	mov    %rax,%rdx
    a9f8:	48 8d 05 5a 00 00 00 	lea    0x5a(%rip),%rax        # aa59 <test_setp+0x12ac>
    a9ff:	48 89 c1             	mov    %rax,%rcx
    aa02:	e8 3c 56 ff ff       	call   43 <printf>
    aa07:	f3 0f 10 4d cc       	movss  -0x34(%rbp),%xmm1
    aa0c:	f3 0f 10 55 c8       	movss  -0x38(%rbp),%xmm2
    aa11:	f3 0f 10 45 d0       	movss  -0x30(%rbp),%xmm0
    aa16:	f3 0f 10 5d cc       	movss  -0x34(%rbp),%xmm3
    aa1b:	f3 0f 5c c3          	subss  %xmm3,%xmm0
    aa1f:	f3 0f 59 c2          	mulss  %xmm2,%xmm0
    aa23:	f3 0f 58 c1          	addss  %xmm1,%xmm0
    aa27:	f3 0f 11 45 cc       	movss  %xmm0,-0x34(%rbp)
    aa2c:	f3 0f 10 45 cc       	movss  -0x34(%rbp),%xmm0
    aa31:	0f 2e 05 c0 08 00 00 	ucomiss 0x8c0(%rip),%xmm0        # b2f8 <test_setp_smooth+0x686>
    aa38:	7a 09                	jp     aa43 <test_setp+0x1296>
    aa3a:	0f 2e 05 c0 08 00 00 	ucomiss 0x8c0(%rip),%xmm0        # b301 <test_setp_smooth+0x68f>
    aa41:	74 1f                	je     aa62 <test_setp+0x12b5>
    aa43:	41 b8 18 05 00 00    	mov    $0x518,%r8d
    aa49:	48 8d 05 49 00 00 00 	lea    0x49(%rip),%rax        # aa99 <test_setp+0x12ec>
    aa50:	48 89 c2             	mov    %rax,%rdx
    aa53:	48 8d 05 5a 00 00 00 	lea    0x5a(%rip),%rax        # aab4 <test_setp+0x1307>
    aa5a:	48 89 c1             	mov    %rax,%rcx
    aa5d:	e8 e1 55 ff ff       	call   43 <printf>
    aa62:	f3 0f 10 45 cc       	movss  -0x34(%rbp),%xmm0
    aa67:	f3 0f 10 4d d0       	movss  -0x30(%rbp),%xmm1
    aa6c:	f3 0f 5c c1          	subss  %xmm1,%xmm0
    aa70:	f3 0f 10 0d e0 08 00 	movss  0x8e0(%rip),%xmm1        # b358 <test_setp_smooth+0x6e6>
    aa77:	00 
    aa78:	0f 54 c8             	andps  %xmm0,%xmm1
    aa7b:	f3 0f 10 05 b4 08 00 	movss  0x8b4(%rip),%xmm0        # b337 <test_setp_smooth+0x6c5>
    aa82:	00 
    aa83:	0f 2f c1             	comiss %xmm1,%xmm0
    aa86:	76 1f                	jbe    aaa7 <test_setp+0x12fa>
    aa88:	41 b8 19 05 00 00    	mov    $0x519,%r8d
    aa8e:	48 8d 05 49 00 00 00 	lea    0x49(%rip),%rax        # aade <test_setp+0x1331>
    aa95:	48 89 c2             	mov    %rax,%rdx
    aa98:	48 8d 05 5a 00 00 00 	lea    0x5a(%rip),%rax        # aaf9 <test_setp+0x134c>
    aa9f:	48 89 c1             	mov    %rax,%rcx
    aaa2:	e8 9c 55 ff ff       	call   43 <printf>
    aaa7:	f3 0f 10 4d cc       	movss  -0x34(%rbp),%xmm1
    aaac:	f3 0f 10 55 c8       	movss  -0x38(%rbp),%xmm2
    aab1:	f3 0f 10 45 d0       	movss  -0x30(%rbp),%xmm0
    aab6:	f3 0f 10 5d cc       	movss  -0x34(%rbp),%xmm3
    aabb:	f3 0f 5c c3          	subss  %xmm3,%xmm0
    aabf:	f3 0f 59 c2          	mulss  %xmm2,%xmm0
    aac3:	f3 0f 58 c1          	addss  %xmm1,%xmm0
    aac7:	f3 0f 11 45 cc       	movss  %xmm0,-0x34(%rbp)
    aacc:	f3 0f 10 45 cc       	movss  -0x34(%rbp),%xmm0
    aad1:	0f 2e 05 c4 08 00 00 	ucomiss 0x8c4(%rip),%xmm0        # b39c <test_setp_smooth+0x72a>
    aad8:	7a 09                	jp     aae3 <test_setp+0x1336>
    aada:	0f 2e 05 c4 08 00 00 	ucomiss 0x8c4(%rip),%xmm0        # b3a5 <test_setp_smooth+0x733>
    aae1:	74 1f                	je     ab02 <test_setp+0x1355>
    aae3:	41 b8 1b 05 00 00    	mov    $0x51b,%r8d
    aae9:	48 8d 05 49 00 00 00 	lea    0x49(%rip),%rax        # ab39 <test_setp+0x138c>
    aaf0:	48 89 c2             	mov    %rax,%rdx
    aaf3:	48 8d 05 5a 00 00 00 	lea    0x5a(%rip),%rax        # ab54 <test_setp+0x13a7>
    aafa:	48 89 c1             	mov    %rax,%rcx
    aafd:	e8 41 55 ff ff       	call   43 <printf>
    ab02:	f3 0f 10 45 cc       	movss  -0x34(%rbp),%xmm0
    ab07:	f3 0f 10 4d d0       	movss  -0x30(%rbp),%xmm1
    ab0c:	f3 0f 5c c1          	subss  %xmm1,%xmm0
    ab10:	f3 0f 10 0d e0 08 00 	movss  0x8e0(%rip),%xmm1        # b3f8 <test_setp_smooth+0x786>
    ab17:	00 
    ab18:	0f 54 c8             	andps  %xmm0,%xmm1
    ab1b:	f3 0f 10 05 c8 08 00 	movss  0x8c8(%rip),%xmm0        # b3eb <test_setp_smooth+0x779>
    ab22:	00 
    ab23:	0f 2f c1             	comiss %xmm1,%xmm0
    ab26:	0f 97 c0             	seta   %al
    ab29:	83 f0 01             	xor    $0x1,%eax
    ab2c:	84 c0                	test   %al,%al
    ab2e:	74 1f                	je     ab4f <test_setp+0x13a2>
    ab30:	41 b8 1c 05 00 00    	mov    $0x51c,%r8d
    ab36:	48 8d 05 49 00 00 00 	lea    0x49(%rip),%rax        # ab86 <test_setp+0x13d9>
    ab3d:	48 89 c2             	mov    %rax,%rdx
    ab40:	48 8d 05 5a 00 00 00 	lea    0x5a(%rip),%rax        # aba1 <test_setp+0x13f4>
    ab47:	48 89 c1             	mov    %rax,%rcx
    ab4a:	e8 f4 54 ff ff       	call   43 <printf>
    ab4f:	8b 5d c0             	mov    -0x40(%rbp),%ebx
    ab52:	8b 45 c4             	mov    -0x3c(%rbp),%eax
    ab55:	f3 0f 10 0d f0 07 00 	movss  0x7f0(%rip),%xmm1        # b34d <test_setp_smooth+0x6db>
    ab5c:	00 
    ab5d:	66 0f 6e c0          	movd   %eax,%xmm0
    ab61:	e8 00 00 00 00       	call   ab66 <test_setp+0x13b9>
    ab66:	66 0f 7e c0          	movd   %xmm0,%eax
    ab6a:	66 0f 6e c8          	movd   %eax,%xmm1
    ab6e:	66 0f 6e c3          	movd   %ebx,%xmm0
    ab72:	e8 00 00 00 00       	call   ab77 <test_setp+0x13ca>
    ab77:	66 0f 7e c0          	movd   %xmm0,%eax
    ab7b:	89 45 cc             	mov    %eax,-0x34(%rbp)
    ab7e:	f3 0f 10 45 cc       	movss  -0x34(%rbp),%xmm0
    ab83:	0f 2e 05 f0 07 00 00 	ucomiss 0x7f0(%rip),%xmm0        # b37a <test_setp_smooth+0x708>
    ab8a:	7a 09                	jp     ab95 <test_setp+0x13e8>
    ab8c:	0f 2e 05 f0 07 00 00 	ucomiss 0x7f0(%rip),%xmm0        # b383 <test_setp_smooth+0x711>
    ab93:	74 1f                	je     abb4 <test_setp+0x1407>
    ab95:	41 b8 1f 05 00 00    	mov    $0x51f,%r8d
    ab9b:	48 8d 05 49 00 00 00 	lea    0x49(%rip),%rax        # abeb <test_setp+0x143e>
    aba2:	48 89 c2             	mov    %rax,%rdx
    aba5:	48 8d 05 5a 00 00 00 	lea    0x5a(%rip),%rax        # ac06 <test_setp+0x1459>
    abac:	48 89 c1             	mov    %rax,%rcx
    abaf:	e8 8f 54 ff ff       	call   43 <printf>
    abb4:	f3 0f 10 45 cc       	movss  -0x34(%rbp),%xmm0
    abb9:	f3 0f 10 4d d0       	movss  -0x30(%rbp),%xmm1
    abbe:	f3 0f 5c c1          	subss  %xmm1,%xmm0
    abc2:	f3 0f 10 0d e0 08 00 	movss  0x8e0(%rip),%xmm1        # b4aa <test_setp_smooth+0x838>
    abc9:	00 
    abca:	0f 54 c8             	andps  %xmm0,%xmm1
    abcd:	f3 0f 10 05 cc 08 00 	movss  0x8cc(%rip),%xmm0        # b4a1 <test_setp_smooth+0x82f>
    abd4:	00 
    abd5:	0f 2f c1             	comiss %xmm1,%xmm0
    abd8:	0f 97 c0             	seta   %al
    abdb:	83 f0 01             	xor    $0x1,%eax
    abde:	84 c0                	test   %al,%al
    abe0:	74 1f                	je     ac01 <test_setp+0x1454>
    abe2:	41 b8 20 05 00 00    	mov    $0x520,%r8d
    abe8:	48 8d 05 49 00 00 00 	lea    0x49(%rip),%rax        # ac38 <test_setp+0x148b>
    abef:	48 89 c2             	mov    %rax,%rdx
    abf2:	48 8d 05 5a 00 00 00 	lea    0x5a(%rip),%rax        # ac53 <test_setp+0x14a6>
    abf9:	48 89 c1             	mov    %rax,%rcx
    abfc:	e8 42 54 ff ff       	call   43 <printf>
    ac01:	8b 5d c0             	mov    -0x40(%rbp),%ebx
    ac04:	8b 45 c4             	mov    -0x3c(%rbp),%eax
    ac07:	f3 0f 10 0d d0 08 00 	movss  0x8d0(%rip),%xmm1        # b4df <test_setp_smooth+0x86d>
    ac0e:	00 
    ac0f:	66 0f 6e c0          	movd   %eax,%xmm0
    ac13:	e8 00 00 00 00       	call   ac18 <test_setp+0x146b>
    ac18:	66 0f 7e c0          	movd   %xmm0,%eax
    ac1c:	66 0f 6e c8          	movd   %eax,%xmm1
    ac20:	66 0f 6e c3          	movd   %ebx,%xmm0
    ac24:	e8 00 00 00 00       	call   ac29 <test_setp+0x147c>
    ac29:	66 0f 7e c0          	movd   %xmm0,%eax
    ac2d:	89 45 cc             	mov    %eax,-0x34(%rbp)
    ac30:	f3 0f 10 45 cc       	movss  -0x34(%rbp),%xmm0
    ac35:	0f 2e 05 ac 07 00 00 	ucomiss 0x7ac(%rip),%xmm0        # b3e8 <test_setp_smooth+0x776>
    ac3c:	7a 09                	jp     ac47 <test_setp+0x149a>
    ac3e:	0f 2e 05 ac 07 00 00 	ucomiss 0x7ac(%rip),%xmm0        # b3f1 <test_setp_smooth+0x77f>
    ac45:	74 1f                	je     ac66 <test_setp+0x14b9>
    ac47:	41 b8 22 05 00 00    	mov    $0x522,%r8d
    ac4d:	48 8d 05 49 00 00 00 	lea    0x49(%rip),%rax        # ac9d <test_setp_smooth+0x2b>
    ac54:	48 89 c2             	mov    %rax,%rdx
    ac57:	48 8d 05 5a 00 00 00 	lea    0x5a(%rip),%rax        # acb8 <test_setp_smooth+0x46>
    ac5e:	48 89 c1             	mov    %rax,%rcx
    ac61:	e8 dd 53 ff ff       	call   43 <printf>
    ac66:	90                   	nop
    ac67:	0f 10 75 00          	movups 0x0(%rbp),%xmm6
    ac6b:	48 83 c4 78          	add    $0x78,%rsp
    ac6f:	5b                   	pop    %rbx
    ac70:	5d                   	pop    %rbp
    ac71:	c3                   	ret

000000000000ac72 <test_setp_smooth>:
    ac72:	55                   	push   %rbp
    ac73:	48 89 e5             	mov    %rsp,%rbp
    ac76:	48 83 ec 60          	sub    $0x60,%rsp
    ac7a:	48 8d 05 88 06 00 00 	lea    0x688(%rip),%rax        # b309 <test_setp_smooth+0x697>
    ac81:	48 89 c1             	mov    %rax,%rcx
    ac84:	e8 ba 53 ff ff       	call   43 <printf>
    ac89:	66 0f ef c0          	pxor   %xmm0,%xmm0
    ac8d:	0f 11 45 e0          	movups %xmm0,-0x20(%rbp)
    ac91:	66 0f d6 45 f0       	movq   %xmm0,-0x10(%rbp)
    ac96:	48 8d 45 e0          	lea    -0x20(%rbp),%rax
    ac9a:	48 89 45 c0          	mov    %rax,-0x40(%rbp)
    ac9e:	66 0f ef c0          	pxor   %xmm0,%xmm0
    aca2:	f3 0f 11 45 c8       	movss  %xmm0,-0x38(%rbp)
    aca7:	f3 0f 10 05 ac 07 00 	movss  0x7ac(%rip),%xmm0        # b45b <test_setp_smooth+0x7e9>
    acae:	00 
    acaf:	f3 0f 11 45 cc       	movss  %xmm0,-0x34(%rbp)
    acb4:	f3 0f 10 05 a0 07 00 	movss  0x7a0(%rip),%xmm0        # b45c <test_setp_smooth+0x7ea>
    acbb:	00 
    acbc:	f3 0f 11 45 d0       	movss  %xmm0,-0x30(%rbp)
    acc1:	48 8d 45 c0          	lea    -0x40(%rbp),%rax
    acc5:	48 89 c1             	mov    %rax,%rcx
    acc8:	e8 00 00 00 00       	call   accd <test_setp_smooth+0x5b>
    accd:	f3 0f 10 45 e0       	movss  -0x20(%rbp),%xmm0
    acd2:	f3 0f 10 0d a0 07 00 	movss  0x7a0(%rip),%xmm1        # b47a <test_setp_smooth+0x808>
    acd9:	00 
    acda:	0f 2e c1             	ucomiss %xmm1,%xmm0
    acdd:	7a 0d                	jp     acec <test_setp_smooth+0x7a>
    acdf:	f3 0f 10 0d a0 07 00 	movss  0x7a0(%rip),%xmm1        # b487 <test_setp_smooth+0x815>
    ace6:	00 
    ace7:	0f 2e c1             	ucomiss %xmm1,%xmm0
    acea:	74 1f                	je     ad0b <test_setp_smooth+0x99>
    acec:	41 b8 2c 05 00 00    	mov    $0x52c,%r8d
    acf2:	48 8d 05 49 00 00 00 	lea    0x49(%rip),%rax        # ad42 <test_setp_smooth+0xd0>
    acf9:	48 89 c2             	mov    %rax,%rdx
    acfc:	48 8d 05 5a 00 00 00 	lea    0x5a(%rip),%rax        # ad5d <test_setp_smooth+0xeb>
    ad03:	48 89 c1             	mov    %rax,%rcx
    ad06:	e8 38 53 ff ff       	call   43 <printf>
    ad0b:	f3 0f 10 45 e4       	movss  -0x1c(%rbp),%xmm0
    ad10:	0f 2e 05 b4 08 00 00 	ucomiss 0x8b4(%rip),%xmm0        # b5cb <test_setp_smooth+0x959>
    ad17:	7a 09                	jp     ad22 <test_setp_smooth+0xb0>
    ad19:	0f 2e 05 b4 08 00 00 	ucomiss 0x8b4(%rip),%xmm0        # b5d4 <test_setp_smooth+0x962>
    ad20:	74 1f                	je     ad41 <test_setp_smooth+0xcf>
    ad22:	41 b8 2d 05 00 00    	mov    $0x52d,%r8d
    ad28:	48 8d 05 49 00 00 00 	lea    0x49(%rip),%rax        # ad78 <test_setp_smooth+0x106>
    ad2f:	48 89 c2             	mov    %rax,%rdx
    ad32:	48 8d 05 5a 00 00 00 	lea    0x5a(%rip),%rax        # ad93 <test_setp_smooth+0x121>
    ad39:	48 89 c1             	mov    %rax,%rcx
    ad3c:	e8 02 53 ff ff       	call   43 <printf>
    ad41:	f3 0f 10 45 e8       	movss  -0x18(%rbp),%xmm0
    ad46:	66 0f ef c9          	pxor   %xmm1,%xmm1
    ad4a:	0f 2e c1             	ucomiss %xmm1,%xmm0
    ad4d:	7a 09                	jp     ad58 <test_setp_smooth+0xe6>
    ad4f:	66 0f ef c9          	pxor   %xmm1,%xmm1
    ad53:	0f 2e c1             	ucomiss %xmm1,%xmm0
    ad56:	74 1f                	je     ad77 <test_setp_smooth+0x105>
    ad58:	41 b8 2e 05 00 00    	mov    $0x52e,%r8d
    ad5e:	48 8d 05 49 00 00 00 	lea    0x49(%rip),%rax        # adae <test_setp_smooth+0x13c>
    ad65:	48 89 c2             	mov    %rax,%rdx
    ad68:	48 8d 05 5a 00 00 00 	lea    0x5a(%rip),%rax        # adc9 <test_setp_smooth+0x157>
    ad6f:	48 89 c1             	mov    %rax,%rcx
    ad72:	e8 cc 52 ff ff       	call   43 <printf>
    ad77:	f3 0f 10 45 ec       	movss  -0x14(%rbp),%xmm0
    ad7c:	66 0f ef c9          	pxor   %xmm1,%xmm1
    ad80:	0f 2e c1             	ucomiss %xmm1,%xmm0
    ad83:	7a 09                	jp     ad8e <test_setp_smooth+0x11c>
    ad85:	66 0f ef c9          	pxor   %xmm1,%xmm1
    ad89:	0f 2e c1             	ucomiss %xmm1,%xmm0
    ad8c:	74 1f                	je     adad <test_setp_smooth+0x13b>
    ad8e:	41 b8 2f 05 00 00    	mov    $0x52f,%r8d
    ad94:	48 8d 05 49 00 00 00 	lea    0x49(%rip),%rax        # ade4 <test_setp_smooth+0x172>
    ad9b:	48 89 c2             	mov    %rax,%rdx
    ad9e:	48 8d 05 5a 00 00 00 	lea    0x5a(%rip),%rax        # adff <test_setp_smooth+0x18d>
    ada5:	48 89 c1             	mov    %rax,%rcx
    ada8:	e8 96 52 ff ff       	call   43 <printf>
    adad:	f3 0f 10 45 f0       	movss  -0x10(%rbp),%xmm0
    adb2:	66 0f ef c9          	pxor   %xmm1,%xmm1
    adb6:	0f 2e c1             	ucomiss %xmm1,%xmm0
    adb9:	7a 09                	jp     adc4 <test_setp_smooth+0x152>
    adbb:	66 0f ef c9          	pxor   %xmm1,%xmm1
    adbf:	0f 2e c1             	ucomiss %xmm1,%xmm0
    adc2:	74 1f                	je     ade3 <test_setp_smooth+0x171>
    adc4:	41 b8 30 05 00 00    	mov    $0x530,%r8d
    adca:	48 8d 05 49 00 00 00 	lea    0x49(%rip),%rax        # ae1a <test_setp_smooth+0x1a8>
    add1:	48 89 c2             	mov    %rax,%rdx
    add4:	48 8d 05 5a 00 00 00 	lea    0x5a(%rip),%rax        # ae35 <test_setp_smooth+0x1c3>
    addb:	48 89 c1             	mov    %rax,%rcx
    adde:	e8 60 52 ff ff       	call   43 <printf>
    ade3:	f3 0f 10 45 f4       	movss  -0xc(%rbp),%xmm0
    ade8:	66 0f ef c9          	pxor   %xmm1,%xmm1
    adec:	0f 2e c1             	ucomiss %xmm1,%xmm0
    adef:	7a 09                	jp     adfa <test_setp_smooth+0x188>
    adf1:	66 0f ef c9          	pxor   %xmm1,%xmm1
    adf5:	0f 2e c1             	ucomiss %xmm1,%xmm0
    adf8:	74 1f                	je     ae19 <test_setp_smooth+0x1a7>
    adfa:	41 b8 31 05 00 00    	mov    $0x531,%r8d
    ae00:	48 8d 05 49 00 00 00 	lea    0x49(%rip),%rax        # ae50 <test_setp_smooth+0x1de>
    ae07:	48 89 c2             	mov    %rax,%rdx
    ae0a:	48 8d 05 5a 00 00 00 	lea    0x5a(%rip),%rax        # ae6b <test_setp_smooth+0x1f9>
    ae11:	48 89 c1             	mov    %rax,%rcx
    ae14:	e8 2a 52 ff ff       	call   43 <printf>
    ae19:	48 8d 45 c0          	lea    -0x40(%rbp),%rax
    ae1d:	f3 0f 10 0d b4 08 00 	movss  0x8b4(%rip),%xmm1        # b6d9 <test_setp_smooth+0xa67>
    ae24:	00 
    ae25:	48 89 c1             	mov    %rax,%rcx
    ae28:	e8 00 00 00 00       	call   ae2d <test_setp_smooth+0x1bb>
    ae2d:	83 f0 01             	xor    $0x1,%eax
    ae30:	84 c0                	test   %al,%al
    ae32:	74 1f                	je     ae53 <test_setp_smooth+0x1e1>
    ae34:	41 b8 33 05 00 00    	mov    $0x533,%r8d
    ae3a:	48 8d 05 49 00 00 00 	lea    0x49(%rip),%rax        # ae8a <test_setp_smooth+0x218>
    ae41:	48 89 c2             	mov    %rax,%rdx
    ae44:	48 8d 05 5a 00 00 00 	lea    0x5a(%rip),%rax        # aea5 <test_setp_smooth+0x233>
    ae4b:	48 89 c1             	mov    %rax,%rcx
    ae4e:	e8 f0 51 ff ff       	call   43 <printf>
    ae53:	48 8d 45 c0          	lea    -0x40(%rbp),%rax
    ae57:	f3 0f 10 0d 9c 07 00 	movss  0x79c(%rip),%xmm1        # b5fb <test_setp_smooth+0x989>
    ae5e:	00 
    ae5f:	48 89 c1             	mov    %rax,%rcx
    ae62:	e8 00 00 00 00       	call   ae67 <test_setp_smooth+0x1f5>
    ae67:	f3 0f 10 45 e4       	movss  -0x1c(%rbp),%xmm0
    ae6c:	0f 2e 05 cc 07 00 00 	ucomiss 0x7cc(%rip),%xmm0        # b63f <test_setp_smooth+0x9cd>
    ae73:	7a 09                	jp     ae7e <test_setp_smooth+0x20c>
    ae75:	0f 2e 05 cc 07 00 00 	ucomiss 0x7cc(%rip),%xmm0        # b648 <test_setp_smooth+0x9d6>
    ae7c:	74 1f                	je     ae9d <test_setp_smooth+0x22b>
    ae7e:	41 b8 35 05 00 00    	mov    $0x535,%r8d
    ae84:	48 8d 05 49 00 00 00 	lea    0x49(%rip),%rax        # aed4 <test_setp_smooth+0x262>
    ae8b:	48 89 c2             	mov    %rax,%rdx
    ae8e:	48 8d 05 5a 00 00 00 	lea    0x5a(%rip),%rax        # aeef <test_setp_smooth+0x27d>
    ae95:	48 89 c1             	mov    %rax,%rcx
    ae98:	e8 a6 51 ff ff       	call   43 <printf>
    ae9d:	48 8d 45 c0          	lea    -0x40(%rbp),%rax
    aea1:	f3 0f 10 0d b8 07 00 	movss  0x7b8(%rip),%xmm1        # b661 <test_setp_smooth+0x9ef>
    aea8:	00 
    aea9:	48 89 c1             	mov    %rax,%rcx
    aeac:	e8 00 00 00 00       	call   aeb1 <test_setp_smooth+0x23f>
    aeb1:	f3 0f 10 45 f4       	movss  -0xc(%rbp),%xmm0
    aeb6:	0f 2e 05 b8 07 00 00 	ucomiss 0x7b8(%rip),%xmm0        # b675 <test_setp_smooth+0xa03>
    aebd:	7a 09                	jp     aec8 <test_setp_smooth+0x256>
    aebf:	0f 2e 05 b8 07 00 00 	ucomiss 0x7b8(%rip),%xmm0        # b67e <test_setp_smooth+0xa0c>
    aec6:	74 1f                	je     aee7 <test_setp_smooth+0x275>
    aec8:	41 b8 37 05 00 00    	mov    $0x537,%r8d
    aece:	48 8d 05 49 00 00 00 	lea    0x49(%rip),%rax        # af1e <test_setp_smooth+0x2ac>
    aed5:	48 89 c2             	mov    %rax,%rdx
    aed8:	48 8d 05 5a 00 00 00 	lea    0x5a(%rip),%rax        # af39 <test_setp_smooth+0x2c7>
    aedf:	48 89 c1             	mov    %rax,%rcx
    aee2:	e8 5c 51 ff ff       	call   43 <printf>
    aee7:	f3 0f 10 45 f4       	movss  -0xc(%rbp),%xmm0
    aeec:	f3 0f 10 4d f0       	movss  -0x10(%rbp),%xmm1
    aef1:	0f 2e c1             	ucomiss %xmm1,%xmm0
    aef4:	7a 24                	jp     af1a <test_setp_smooth+0x2a8>
    aef6:	0f 2e c1             	ucomiss %xmm1,%xmm0
    aef9:	75 1f                	jne    af1a <test_setp_smooth+0x2a8>
    aefb:	41 b8 38 05 00 00    	mov    $0x538,%r8d
    af01:	48 8d 05 49 00 00 00 	lea    0x49(%rip),%rax        # af51 <test_setp_smooth+0x2df>
    af08:	48 89 c2             	mov    %rax,%rdx
    af0b:	48 8d 05 5a 00 00 00 	lea    0x5a(%rip),%rax        # af6c <test_setp_smooth+0x2fa>
    af12:	48 89 c1             	mov    %rax,%rcx
    af15:	e8 29 51 ff ff       	call   43 <printf>
    af1a:	48 8d 45 c0          	lea    -0x40(%rbp),%rax
    af1e:	f3 0f 10 0d b4 08 00 	movss  0x8b4(%rip),%xmm1        # b7da <test_setp_smooth+0xb68>
    af25:	00 
    af26:	48 89 c1             	mov    %rax,%rcx
    af29:	e8 00 00 00 00       	call   af2e <test_setp_smooth+0x2bc>
    af2e:	83 f0 01             	xor    $0x1,%eax
    af31:	84 c0                	test   %al,%al
    af33:	74 1f                	je     af54 <test_setp_smooth+0x2e2>
    af35:	41 b8 39 05 00 00    	mov    $0x539,%r8d
    af3b:	48 8d 05 49 00 00 00 	lea    0x49(%rip),%rax        # af8b <test_setp_smooth+0x319>
    af42:	48 89 c2             	mov    %rax,%rdx
    af45:	48 8d 05 5a 00 00 00 	lea    0x5a(%rip),%rax        # afa6 <test_setp_smooth+0x334>
    af4c:	48 89 c1             	mov    %rax,%rcx
    af4f:	e8 ef 50 ff ff       	call   43 <printf>
    af54:	48 8d 45 c0          	lea    -0x40(%rbp),%rax
    af58:	48 89 c1             	mov    %rax,%rcx
    af5b:	e8 00 00 00 00       	call   af60 <test_setp_smooth+0x2ee>
    af60:	66 0f 7e c0          	movd   %xmm0,%eax
    af64:	66 0f ef c0          	pxor   %xmm0,%xmm0
    af68:	66 0f 6e d0          	movd   %eax,%xmm2
    af6c:	0f 2e d0             	ucomiss %xmm0,%xmm2
    af6f:	7a 0d                	jp     af7e <test_setp_smooth+0x30c>
    af71:	66 0f ef c0          	pxor   %xmm0,%xmm0
    af75:	66 0f 6e d8          	movd   %eax,%xmm3
    af79:	0f 2e d8             	ucomiss %xmm0,%xmm3
    af7c:	74 1f                	je     af9d <test_setp_smooth+0x32b>
    af7e:	41 b8 3b 05 00 00    	mov    $0x53b,%r8d
    af84:	48 8d 05 49 00 00 00 	lea    0x49(%rip),%rax        # afd4 <test_setp_smooth+0x362>
    af8b:	48 89 c2             	mov    %rax,%rdx
    af8e:	48 8d 05 5a 00 00 00 	lea    0x5a(%rip),%rax        # afef <test_setp_smooth+0x37d>
    af95:	48 89 c1             	mov    %rax,%rcx
    af98:	e8 a6 50 ff ff       	call   43 <printf>
    af9d:	f3 0f 10 45 f4       	movss  -0xc(%rbp),%xmm0
    afa2:	f3 0f 10 4d f0       	movss  -0x10(%rbp),%xmm1
    afa7:	0f 2e c1             	ucomiss %xmm1,%xmm0
    afaa:	7a 05                	jp     afb1 <test_setp_smooth+0x33f>
    afac:	0f 2e c1             	ucomiss %xmm1,%xmm0
    afaf:	74 1f                	je     afd0 <test_setp_smooth+0x35e>
    afb1:	41 b8 3c 05 00 00    	mov    $0x53c,%r8d
    afb7:	48 8d 05 49 00 00 00 	lea    0x49(%rip),%rax        # b007 <test_setp_smooth+0x395>
    afbe:	48 89 c2             	mov    %rax,%rdx
    afc1:	48 8d 05 5a 00 00 00 	lea    0x5a(%rip),%rax        # b022 <test_setp_smooth+0x3b0>
    afc8:	48 89 c1             	mov    %rax,%rcx
    afcb:	e8 73 50 ff ff       	call   43 <printf>
    afd0:	f3 0f 10 45 e0       	movss  -0x20(%rbp),%xmm0
    afd5:	0f 2e 05 cc 07 00 00 	ucomiss 0x7cc(%rip),%xmm0        # b7a8 <test_setp_smooth+0xb36>
    afdc:	7a 09                	jp     afe7 <test_setp_smooth+0x375>
    afde:	0f 2e 05 cc 07 00 00 	ucomiss 0x7cc(%rip),%xmm0        # b7b1 <test_setp_smooth+0xb3f>
    afe5:	74 1f                	je     b006 <test_setp_smooth+0x394>
    afe7:	41 b8 3d 05 00 00    	mov    $0x53d,%r8d
    afed:	48 8d 05 49 00 00 00 	lea    0x49(%rip),%rax        # b03d <test_setp_smooth+0x3cb>
    aff4:	48 89 c2             	mov    %rax,%rdx
    aff7:	48 8d 05 5a 00 00 00 	lea    0x5a(%rip),%rax        # b058 <test_setp_smooth+0x3e6>
    affe:	48 89 c1             	mov    %rax,%rcx
    b001:	e8 3d 50 ff ff       	call   43 <printf>
    b006:	48 8d 45 c0          	lea    -0x40(%rbp),%rax
    b00a:	f3 0f 10 0d b4 08 00 	movss  0x8b4(%rip),%xmm1        # b8c6 <test_setp_smooth+0xc54>
    b011:	00 
    b012:	48 89 c1             	mov    %rax,%rcx
    b015:	e8 00 00 00 00       	call   b01a <test_setp_smooth+0x3a8>
    b01a:	84 c0                	test   %al,%al
    b01c:	74 1f                	je     b03d <test_setp_smooth+0x3cb>
    b01e:	41 b8 3e 05 00 00    	mov    $0x53e,%r8d
    b024:	48 8d 05 49 00 00 00 	lea    0x49(%rip),%rax        # b074 <test_setp_smooth+0x402>
    b02b:	48 89 c2             	mov    %rax,%rdx
    b02e:	48 8d 05 5a 00 00 00 	lea    0x5a(%rip),%rax        # b08f <test_setp_smooth+0x41d>
    b035:	48 89 c1             	mov    %rax,%rcx
    b038:	e8 06 50 ff ff       	call   43 <printf>
    b03d:	48 8d 45 c0          	lea    -0x40(%rbp),%rax
    b041:	48 89 c1             	mov    %rax,%rcx
    b044:	e8 00 00 00 00       	call   b049 <test_setp_smooth+0x3d7>
    b049:	66 0f 7e c0          	movd   %xmm0,%eax
    b04d:	66 0f 6e e0          	movd   %eax,%xmm4
    b051:	0f 2e 25 9c 07 00 00 	ucomiss 0x79c(%rip),%xmm4        # b7f4 <test_setp_smooth+0xb82>
    b058:	7a 0d                	jp     b067 <test_setp_smooth+0x3f5>
    b05a:	66 0f 6e e8          	movd   %eax,%xmm5
    b05e:	0f 2e 2d 9c 07 00 00 	ucomiss 0x79c(%rip),%xmm5        # b801 <test_setp_smooth+0xb8f>
    b065:	74 1f                	je     b086 <test_setp_smooth+0x414>
    b067:	41 b8 40 05 00 00    	mov    $0x540,%r8d
    b06d:	48 8d 05 49 00 00 00 	lea    0x49(%rip),%rax        # b0bd <test_setp_smooth+0x44b>
    b074:	48 89 c2             	mov    %rax,%rdx
    b077:	48 8d 05 5a 00 00 00 	lea    0x5a(%rip),%rax        # b0d8 <test_setp_smooth+0x466>
    b07e:	48 89 c1             	mov    %rax,%rcx
    b081:	e8 bd 4f ff ff       	call   43 <printf>
    b086:	f3 0f 10 45 e0       	movss  -0x20(%rbp),%xmm0
    b08b:	f3 0f 10 0d a0 07 00 	movss  0x7a0(%rip),%xmm1        # b833 <test_setp_smooth+0xbc1>
    b092:	00 
    b093:	0f 2e c1             	ucomiss %xmm1,%xmm0
    b096:	7a 0d                	jp     b0a5 <test_setp_smooth+0x433>
    b098:	f3 0f 10 0d a0 07 00 	movss  0x7a0(%rip),%xmm1        # b840 <test_setp_smooth+0xbce>
    b09f:	00 
    b0a0:	0f 2e c1             	ucomiss %xmm1,%xmm0
    b0a3:	74 1f                	je     b0c4 <test_setp_smooth+0x452>
    b0a5:	41 b8 41 05 00 00    	mov    $0x541,%r8d
    b0ab:	48 8d 05 49 00 00 00 	lea    0x49(%rip),%rax        # b0fb <test_setp_smooth+0x489>
    b0b2:	48 89 c2             	mov    %rax,%rdx
    b0b5:	48 8d 05 5a 00 00 00 	lea    0x5a(%rip),%rax        # b116 <test_setp_smooth+0x4a4>
    b0bc:	48 89 c1             	mov    %rax,%rcx
    b0bf:	e8 7f 4f ff ff       	call   43 <printf>
    b0c4:	48 8d 45 c0          	lea    -0x40(%rbp),%rax
    b0c8:	f3 0f 10 0d b4 08 00 	movss  0x8b4(%rip),%xmm1        # b984 <test_setp_smooth+0xd12>
    b0cf:	00 
    b0d0:	48 89 c1             	mov    %rax,%rcx
    b0d3:	e8 00 00 00 00       	call   b0d8 <test_setp_smooth+0x466>
    b0d8:	83 f0 01             	xor    $0x1,%eax
    b0db:	84 c0                	test   %al,%al
    b0dd:	74 1f                	je     b0fe <test_setp_smooth+0x48c>
    b0df:	41 b8 42 05 00 00    	mov    $0x542,%r8d
    b0e5:	48 8d 05 49 00 00 00 	lea    0x49(%rip),%rax        # b135 <test_setp_smooth+0x4c3>
    b0ec:	48 89 c2             	mov    %rax,%rdx
    b0ef:	48 8d 05 5a 00 00 00 	lea    0x5a(%rip),%rax        # b150 <test_setp_smooth+0x4de>
    b0f6:	48 89 c1             	mov    %rax,%rcx
    b0f9:	e8 45 4f ff ff       	call   43 <printf>
    b0fe:	48 8d 45 c0          	lea    -0x40(%rbp),%rax
    b102:	48 89 c1             	mov    %rax,%rcx
    b105:	e8 00 00 00 00       	call   b10a <test_setp_smooth+0x498>
    b10a:	66 0f 7e c0          	movd   %xmm0,%eax
    b10e:	66 0f 6e d0          	movd   %eax,%xmm2
    b112:	0f 2e 15 b8 07 00 00 	ucomiss 0x7b8(%rip),%xmm2        # b8d1 <test_setp_smooth+0xc5f>
    b119:	7a 0d                	jp     b128 <test_setp_smooth+0x4b6>
    b11b:	66 0f 6e d8          	movd   %eax,%xmm3
    b11f:	0f 2e 1d b8 07 00 00 	ucomiss 0x7b8(%rip),%xmm3        # b8de <test_setp_smooth+0xc6c>
    b126:	74 1f                	je     b147 <test_setp_smooth+0x4d5>
    b128:	41 b8 44 05 00 00    	mov    $0x544,%r8d
    b12e:	48 8d 05 49 00 00 00 	lea    0x49(%rip),%rax        # b17e <test_setp_smooth+0x50c>
    b135:	48 89 c2             	mov    %rax,%rdx
    b138:	48 8d 05 5a 00 00 00 	lea    0x5a(%rip),%rax        # b199 <test_setp_smooth+0x527>
    b13f:	48 89 c1             	mov    %rax,%rcx
    b142:	e8 fc 4e ff ff       	call   43 <printf>
    b147:	f3 0f 10 45 e0       	movss  -0x20(%rbp),%xmm0
    b14c:	f3 0f 10 0d a0 07 00 	movss  0x7a0(%rip),%xmm1        # b8f4 <test_setp_smooth+0xc82>
    b153:	00 
    b154:	0f 2e c1             	ucomiss %xmm1,%xmm0
    b157:	7a 0d                	jp     b166 <test_setp_smooth+0x4f4>
    b159:	f3 0f 10 0d a0 07 00 	movss  0x7a0(%rip),%xmm1        # b901 <test_setp_smooth+0xc8f>
    b160:	00 
    b161:	0f 2e c1             	ucomiss %xmm1,%xmm0
    b164:	74 1f                	je     b185 <test_setp_smooth+0x513>
    b166:	41 b8 45 05 00 00    	mov    $0x545,%r8d
    b16c:	48 8d 05 49 00 00 00 	lea    0x49(%rip),%rax        # b1bc <test_setp_smooth+0x54a>
    b173:	48 89 c2             	mov    %rax,%rdx
    b176:	48 8d 05 5a 00 00 00 	lea    0x5a(%rip),%rax        # b1d7 <test_setp_smooth+0x565>
    b17d:	48 89 c1             	mov    %rax,%rcx
    b180:	e8 be 4e ff ff       	call   43 <printf>
    b185:	48 8d 45 c0          	lea    -0x40(%rbp),%rax
    b189:	f3 0f 10 0d b4 08 00 	movss  0x8b4(%rip),%xmm1        # ba45 <test_setp_smooth+0xdd3>
    b190:	00 
    b191:	48 89 c1             	mov    %rax,%rcx
    b194:	e8 00 00 00 00       	call   b199 <test_setp_smooth+0x527>
    b199:	83 f0 01             	xor    $0x1,%eax
    b19c:	84 c0                	test   %al,%al
    b19e:	74 1f                	je     b1bf <test_setp_smooth+0x54d>
    b1a0:	41 b8 46 05 00 00    	mov    $0x546,%r8d
    b1a6:	48 8d 05 49 00 00 00 	lea    0x49(%rip),%rax        # b1f6 <test_setp_smooth+0x584>
    b1ad:	48 89 c2             	mov    %rax,%rdx
    b1b0:	48 8d 05 5a 00 00 00 	lea    0x5a(%rip),%rax        # b211 <test_setp_smooth+0x59f>
    b1b7:	48 89 c1             	mov    %rax,%rcx
    b1ba:	e8 84 4e ff ff       	call   43 <printf>
    b1bf:	48 8d 45 c0          	lea    -0x40(%rbp),%rax
    b1c3:	48 89 c1             	mov    %rax,%rcx
    b1c6:	e8 00 00 00 00       	call   b1cb <test_setp_smooth+0x559>
    b1cb:	48 8d 45 c0          	lea    -0x40(%rbp),%rax
    b1cf:	66 0f ef c9          	pxor   %xmm1,%xmm1
    b1d3:	48 89 c1             	mov    %rax,%rcx
    b1d6:	e8 00 00 00 00       	call   b1db <test_setp_smooth+0x569>
    b1db:	f3 0f 10 45 e4       	movss  -0x1c(%rbp),%xmm0
    b1e0:	f3 0f 10 0d a0 07 00 	movss  0x7a0(%rip),%xmm1        # b988 <test_setp_smooth+0xd16>
    b1e7:	00 
    b1e8:	0f 2e c1             	ucomiss %xmm1,%xmm0
    b1eb:	7a 0d                	jp     b1fa <test_setp_smooth+0x588>
    b1ed:	f3 0f 10 0d a0 07 00 	movss  0x7a0(%rip),%xmm1        # b995 <test_setp_smooth+0xd23>
    b1f4:	00 
    b1f5:	0f 2e c1             	ucomiss %xmm1,%xmm0
    b1f8:	74 1f                	je     b219 <test_setp_smooth+0x5a7>
    b1fa:	41 b8 4a 05 00 00    	mov    $0x54a,%r8d
    b200:	48 8d 05 49 00 00 00 	lea    0x49(%rip),%rax        # b250 <test_setp_smooth+0x5de>
    b207:	48 89 c2             	mov    %rax,%rdx
    b20a:	48 8d 05 5a 00 00 00 	lea    0x5a(%rip),%rax        # b26b <test_setp_smooth+0x5f9>
    b211:	48 89 c1             	mov    %rax,%rcx
    b214:	e8 2a 4e ff ff       	call   43 <printf>
    b219:	48 8d 45 c0          	lea    -0x40(%rbp),%rax
    b21d:	f3 0f 10 0d b8 07 00 	movss  0x7b8(%rip),%xmm1        # b9dd <test_setp_smooth+0xd6b>
    b224:	00 
    b225:	48 89 c1             	mov    %rax,%rcx
    b228:	e8 00 00 00 00       	call   b22d <test_setp_smooth+0x5bb>
    b22d:	f3 0f 10 45 f4       	movss  -0xc(%rbp),%xmm0
    b232:	0f 2e 05 b8 07 00 00 	ucomiss 0x7b8(%rip),%xmm0        # b9f1 <test_setp_smooth+0xd7f>
    b239:	7a 09                	jp     b244 <test_setp_smooth+0x5d2>
    b23b:	0f 2e 05 b8 07 00 00 	ucomiss 0x7b8(%rip),%xmm0        # b9fa <test_setp_smooth+0xd88>
    b242:	74 1f                	je     b263 <test_setp_smooth+0x5f1>
    b244:	41 b8 4c 05 00 00    	mov    $0x54c,%r8d
    b24a:	48 8d 05 49 00 00 00 	lea    0x49(%rip),%rax        # b29a <test_setp_smooth+0x628>
    b251:	48 89 c2             	mov    %rax,%rdx
    b254:	48 8d 05 5a 00 00 00 	lea    0x5a(%rip),%rax        # b2b5 <test_setp_smooth+0x643>
    b25b:	48 89 c1             	mov    %rax,%rcx
    b25e:	e8 e0 4d ff ff       	call   43 <printf>
    b263:	f3 0f 10 45 f4       	movss  -0xc(%rbp),%xmm0
    b268:	f3 0f 10 4d f0       	movss  -0x10(%rbp),%xmm1
    b26d:	0f 2e c1             	ucomiss %xmm1,%xmm0
    b270:	7a 24                	jp     b296 <test_setp_smooth+0x624>
    b272:	0f 2e c1             	ucomiss %xmm1,%xmm0
    b275:	75 1f                	jne    b296 <test_setp_smooth+0x624>
    b277:	41 b8 4d 05 00 00    	mov    $0x54d,%r8d
    b27d:	48 8d 05 49 00 00 00 	lea    0x49(%rip),%rax        # b2cd <test_setp_smooth+0x65b>
    b284:	48 89 c2             	mov    %rax,%rdx
    b287:	48 8d 05 5a 00 00 00 	lea    0x5a(%rip),%rax        # b2e8 <test_setp_smooth+0x676>
    b28e:	48 89 c1             	mov    %rax,%rcx
    b291:	e8 ad 4d ff ff       	call   43 <printf>
    b296:	48 8d 45 c0          	lea    -0x40(%rbp),%rax
    b29a:	f3 0f 10 0d b4 08 00 	movss  0x8b4(%rip),%xmm1        # bb56 <test_setp_smooth+0xee4>
    b2a1:	00 
    b2a2:	48 89 c1             	mov    %rax,%rcx
    b2a5:	e8 00 00 00 00       	call   b2aa <test_setp_smooth+0x638>
    b2aa:	83 f0 01             	xor    $0x1,%eax
    b2ad:	84 c0                	test   %al,%al
    b2af:	74 1f                	je     b2d0 <test_setp_smooth+0x65e>
    b2b1:	41 b8 4e 05 00 00    	mov    $0x54e,%r8d
    b2b7:	48 8d 05 49 00 00 00 	lea    0x49(%rip),%rax        # b307 <test_setp_smooth+0x695>
    b2be:	48 89 c2             	mov    %rax,%rdx
    b2c1:	48 8d 05 5a 00 00 00 	lea    0x5a(%rip),%rax        # b322 <test_setp_smooth+0x6b0>
    b2c8:	48 89 c1             	mov    %rax,%rcx
    b2cb:	e8 73 4d ff ff       	call   43 <printf>
    b2d0:	48 8d 45 c0          	lea    -0x40(%rbp),%rax
    b2d4:	48 89 c1             	mov    %rax,%rcx
    b2d7:	e8 00 00 00 00       	call   b2dc <test_setp_smooth+0x66a>
    b2dc:	66 0f 7e c0          	movd   %xmm0,%eax
    b2e0:	66 0f ef c0          	pxor   %xmm0,%xmm0
    b2e4:	66 0f 6e e0          	movd   %eax,%xmm4
    b2e8:	0f 2e e0             	ucomiss %xmm0,%xmm4
    b2eb:	7a 0d                	jp     b2fa <test_setp_smooth+0x688>
    b2ed:	66 0f ef c0          	pxor   %xmm0,%xmm0
    b2f1:	66 0f 6e e8          	movd   %eax,%xmm5
    b2f5:	0f 2e e8             	ucomiss %xmm0,%xmm5
    b2f8:	74 1f                	je     b319 <test_setp_smooth+0x6a7>
    b2fa:	41 b8 50 05 00 00    	mov    $0x550,%r8d
    b300:	48 8d 05 49 00 00 00 	lea    0x49(%rip),%rax        # b350 <test_setp_smooth+0x6de>
    b307:	48 89 c2             	mov    %rax,%rdx
    b30a:	48 8d 05 5a 00 00 00 	lea    0x5a(%rip),%rax        # b36b <test_setp_smooth+0x6f9>
    b311:	48 89 c1             	mov    %rax,%rcx
    b314:	e8 2a 4d ff ff       	call   43 <printf>
    b319:	f3 0f 10 45 f4       	movss  -0xc(%rbp),%xmm0
    b31e:	f3 0f 10 4d f0       	movss  -0x10(%rbp),%xmm1
    b323:	0f 2e c1             	ucomiss %xmm1,%xmm0
    b326:	7a 05                	jp     b32d <test_setp_smooth+0x6bb>
    b328:	0f 2e c1             	ucomiss %xmm1,%xmm0
    b32b:	74 1f                	je     b34c <test_setp_smooth+0x6da>
    b32d:	41 b8 51 05 00 00    	mov    $0x551,%r8d
    b333:	48 8d 05 49 00 00 00 	lea    0x49(%rip),%rax        # b383 <test_setp_smooth+0x711>
    b33a:	48 89 c2             	mov    %rax,%rdx
    b33d:	48 8d 05 5a 00 00 00 	lea    0x5a(%rip),%rax        # b39e <test_setp_smooth+0x72c>
    b344:	48 89 c1             	mov    %rax,%rcx
    b347:	e8 f7 4c ff ff       	call   43 <printf>
    b34c:	f3 0f 10 45 e0       	movss  -0x20(%rbp),%xmm0
    b351:	f3 0f 10 0d a0 07 00 	movss  0x7a0(%rip),%xmm1        # baf9 <test_setp_smooth+0xe87>
    b358:	00 
    b359:	0f 2e c1             	ucomiss %xmm1,%xmm0
    b35c:	7a 0d                	jp     b36b <test_setp_smooth+0x6f9>
    b35e:	f3 0f 10 0d a0 07 00 	movss  0x7a0(%rip),%xmm1        # bb06 <test_setp_smooth+0xe94>
    b365:	00 
    b366:	0f 2e c1             	ucomiss %xmm1,%xmm0
    b369:	74 1f                	je     b38a <test_setp_smooth+0x718>
    b36b:	41 b8 52 05 00 00    	mov    $0x552,%r8d
    b371:	48 8d 05 49 00 00 00 	lea    0x49(%rip),%rax        # b3c1 <test_setp_smooth+0x74f>
    b378:	48 89 c2             	mov    %rax,%rdx
    b37b:	48 8d 05 5a 00 00 00 	lea    0x5a(%rip),%rax        # b3dc <test_setp_smooth+0x76a>
    b382:	48 89 c1             	mov    %rax,%rcx
    b385:	e8 b9 4c ff ff       	call   43 <printf>
    b38a:	48 8d 45 c0          	lea    -0x40(%rbp),%rax
    b38e:	f3 0f 10 0d b4 08 00 	movss  0x8b4(%rip),%xmm1        # bc4a <test_setp_smooth+0xfd8>
    b395:	00 
    b396:	48 89 c1             	mov    %rax,%rcx
    b399:	e8 00 00 00 00       	call   b39e <test_setp_smooth+0x72c>
    b39e:	83 f0 01             	xor    $0x1,%eax
    b3a1:	84 c0                	test   %al,%al
    b3a3:	74 1f                	je     b3c4 <test_setp_smooth+0x752>
    b3a5:	41 b8 53 05 00 00    	mov    $0x553,%r8d
    b3ab:	48 8d 05 49 00 00 00 	lea    0x49(%rip),%rax        # b3fb <test_setp_smooth+0x789>
    b3b2:	48 89 c2             	mov    %rax,%rdx
    b3b5:	48 8d 05 5a 00 00 00 	lea    0x5a(%rip),%rax        # b416 <test_setp_smooth+0x7a4>
    b3bc:	48 89 c1             	mov    %rax,%rcx
    b3bf:	e8 7f 4c ff ff       	call   43 <printf>
    b3c4:	48 8d 45 c0          	lea    -0x40(%rbp),%rax
    b3c8:	48 89 c1             	mov    %rax,%rcx
    b3cb:	e8 00 00 00 00       	call   b3d0 <test_setp_smooth+0x75e>
    b3d0:	66 0f 7e c0          	movd   %xmm0,%eax
    b3d4:	66 0f 6e d0          	movd   %eax,%xmm2
    b3d8:	0f 2e 15 b8 07 00 00 	ucomiss 0x7b8(%rip),%xmm2        # bb97 <test_setp_smooth+0xf25>
    b3df:	7a 0d                	jp     b3ee <test_setp_smooth+0x77c>
    b3e1:	66 0f 6e d8          	movd   %eax,%xmm3
    b3e5:	0f 2e 1d b8 07 00 00 	ucomiss 0x7b8(%rip),%xmm3        # bba4 <test_setp_smooth+0xf32>
    b3ec:	74 1f                	je     b40d <test_setp_smooth+0x79b>
    b3ee:	41 b8 55 05 00 00    	mov    $0x555,%r8d
    b3f4:	48 8d 05 49 00 00 00 	lea    0x49(%rip),%rax        # b444 <test_setp_smooth+0x7d2>
    b3fb:	48 89 c2             	mov    %rax,%rdx
    b3fe:	48 8d 05 5a 00 00 00 	lea    0x5a(%rip),%rax        # b45f <test_setp_smooth+0x7ed>
    b405:	48 89 c1             	mov    %rax,%rcx
    b408:	e8 36 4c ff ff       	call   43 <printf>
    b40d:	f3 0f 10 45 e0       	movss  -0x20(%rbp),%xmm0
    b412:	f3 0f 10 0d a0 07 00 	movss  0x7a0(%rip),%xmm1        # bbba <test_setp_smooth+0xf48>
    b419:	00 
    b41a:	0f 2e c1             	ucomiss %xmm1,%xmm0
    b41d:	7a 0d                	jp     b42c <test_setp_smooth+0x7ba>
    b41f:	f3 0f 10 0d a0 07 00 	movss  0x7a0(%rip),%xmm1        # bbc7 <test_setp_smooth+0xf55>
    b426:	00 
    b427:	0f 2e c1             	ucomiss %xmm1,%xmm0
    b42a:	74 1f                	je     b44b <test_setp_smooth+0x7d9>
    b42c:	41 b8 56 05 00 00    	mov    $0x556,%r8d
    b432:	48 8d 05 49 00 00 00 	lea    0x49(%rip),%rax        # b482 <test_setp_smooth+0x810>
    b439:	48 89 c2             	mov    %rax,%rdx
    b43c:	48 8d 05 5a 00 00 00 	lea    0x5a(%rip),%rax        # b49d <test_setp_smooth+0x82b>
    b443:	48 89 c1             	mov    %rax,%rcx
    b446:	e8 f8 4b ff ff       	call   43 <printf>
    b44b:	48 8d 45 c0          	lea    -0x40(%rbp),%rax
    b44f:	f3 0f 10 0d b4 08 00 	movss  0x8b4(%rip),%xmm1        # bd0b <test_setp_smooth+0x1099>
    b456:	00 
    b457:	48 89 c1             	mov    %rax,%rcx
    b45a:	e8 00 00 00 00       	call   b45f <test_setp_smooth+0x7ed>
    b45f:	83 f0 01             	xor    $0x1,%eax
    b462:	84 c0                	test   %al,%al
    b464:	74 1f                	je     b485 <test_setp_smooth+0x813>
    b466:	41 b8 57 05 00 00    	mov    $0x557,%r8d
    b46c:	48 8d 05 49 00 00 00 	lea    0x49(%rip),%rax        # b4bc <test_setp_smooth+0x84a>
    b473:	48 89 c2             	mov    %rax,%rdx
    b476:	48 8d 05 5a 00 00 00 	lea    0x5a(%rip),%rax        # b4d7 <test_setp_smooth+0x865>
    b47d:	48 89 c1             	mov    %rax,%rcx
    b480:	e8 be 4b ff ff       	call   43 <printf>
    b485:	48 8d 45 c0          	lea    -0x40(%rbp),%rax
    b489:	48 89 c1             	mov    %rax,%rcx
    b48c:	e8 00 00 00 00       	call   b491 <test_setp_smooth+0x81f>
    b491:	48 8d 45 c0          	lea    -0x40(%rbp),%rax
    b495:	f3 0f 10 0d b8 07 00 	movss  0x7b8(%rip),%xmm1        # bc55 <test_setp_smooth+0xfe3>
    b49c:	00 
    b49d:	48 89 c1             	mov    %rax,%rcx
    b4a0:	e8 00 00 00 00       	call   b4a5 <test_setp_smooth+0x833>
    b4a5:	f3 0f 10 45 e4       	movss  -0x1c(%rbp),%xmm0
    b4aa:	0f 2e 05 b0 08 00 00 	ucomiss 0x8b0(%rip),%xmm0        # bd61 <test_pi+0x2d>
    b4b1:	7a 09                	jp     b4bc <test_setp_smooth+0x84a>
    b4b3:	0f 2e 05 b0 08 00 00 	ucomiss 0x8b0(%rip),%xmm0        # bd6a <test_pi+0x36>
    b4ba:	74 1f                	je     b4db <test_setp_smooth+0x869>
    b4bc:	41 b8 5b 05 00 00    	mov    $0x55b,%r8d
    b4c2:	48 8d 05 49 00 00 00 	lea    0x49(%rip),%rax        # b512 <test_setp_smooth+0x8a0>
    b4c9:	48 89 c2             	mov    %rax,%rdx
    b4cc:	48 8d 05 5a 00 00 00 	lea    0x5a(%rip),%rax        # b52d <test_setp_smooth+0x8bb>
    b4d3:	48 89 c1             	mov    %rax,%rcx
    b4d6:	e8 68 4b ff ff       	call   43 <printf>
    b4db:	48 8d 45 c0          	lea    -0x40(%rbp),%rax
    b4df:	f3 0f 10 0d b8 07 00 	movss  0x7b8(%rip),%xmm1        # bc9f <test_setp_smooth+0x102d>
    b4e6:	00 
    b4e7:	48 89 c1             	mov    %rax,%rcx
    b4ea:	e8 00 00 00 00       	call   b4ef <test_setp_smooth+0x87d>
    b4ef:	f3 0f 10 45 f4       	movss  -0xc(%rbp),%xmm0
    b4f4:	0f 2e 05 b8 07 00 00 	ucomiss 0x7b8(%rip),%xmm0        # bcb3 <test_setp_smooth+0x1041>
    b4fb:	7a 09                	jp     b506 <test_setp_smooth+0x894>
    b4fd:	0f 2e 05 b8 07 00 00 	ucomiss 0x7b8(%rip),%xmm0        # bcbc <test_setp_smooth+0x104a>
    b504:	74 1f                	je     b525 <test_setp_smooth+0x8b3>
    b506:	41 b8 5d 05 00 00    	mov    $0x55d,%r8d
    b50c:	48 8d 05 49 00 00 00 	lea    0x49(%rip),%rax        # b55c <test_setp_smooth+0x8ea>
    b513:	48 89 c2             	mov    %rax,%rdx
    b516:	48 8d 05 5a 00 00 00 	lea    0x5a(%rip),%rax        # b577 <test_setp_smooth+0x905>
    b51d:	48 89 c1             	mov    %rax,%rcx
    b520:	e8 1e 4b ff ff       	call   43 <printf>
    b525:	f3 0f 10 45 f4       	movss  -0xc(%rbp),%xmm0
    b52a:	f3 0f 10 4d f0       	movss  -0x10(%rbp),%xmm1
    b52f:	0f 2e c1             	ucomiss %xmm1,%xmm0
    b532:	7a 24                	jp     b558 <test_setp_smooth+0x8e6>
    b534:	0f 2e c1             	ucomiss %xmm1,%xmm0
    b537:	75 1f                	jne    b558 <test_setp_smooth+0x8e6>
    b539:	41 b8 5e 05 00 00    	mov    $0x55e,%r8d
    b53f:	48 8d 05 49 00 00 00 	lea    0x49(%rip),%rax        # b58f <test_setp_smooth+0x91d>
    b546:	48 89 c2             	mov    %rax,%rdx
    b549:	48 8d 05 5a 00 00 00 	lea    0x5a(%rip),%rax        # b5aa <test_setp_smooth+0x938>
    b550:	48 89 c1             	mov    %rax,%rcx
    b553:	e8 eb 4a ff ff       	call   43 <printf>
    b558:	48 8d 45 c0          	lea    -0x40(%rbp),%rax
    b55c:	f3 0f 10 0d b4 08 00 	movss  0x8b4(%rip),%xmm1        # be18 <test_pi+0xe4>
    b563:	00 
    b564:	48 89 c1             	mov    %rax,%rcx
    b567:	e8 00 00 00 00       	call   b56c <test_setp_smooth+0x8fa>
    b56c:	83 f0 01             	xor    $0x1,%eax
    b56f:	84 c0                	test   %al,%al
    b571:	74 1f                	je     b592 <test_setp_smooth+0x920>
    b573:	41 b8 5f 05 00 00    	mov    $0x55f,%r8d
    b579:	48 8d 05 49 00 00 00 	lea    0x49(%rip),%rax        # b5c9 <test_setp_smooth+0x957>
    b580:	48 89 c2             	mov    %rax,%rdx
    b583:	48 8d 05 5a 00 00 00 	lea    0x5a(%rip),%rax        # b5e4 <test_setp_smooth+0x972>
    b58a:	48 89 c1             	mov    %rax,%rcx
    b58d:	e8 b1 4a ff ff       	call   43 <printf>
    b592:	48 8d 45 c0          	lea    -0x40(%rbp),%rax
    b596:	48 89 c1             	mov    %rax,%rcx
    b599:	e8 00 00 00 00       	call   b59e <test_setp_smooth+0x92c>
    b59e:	66 0f 7e c0          	movd   %xmm0,%eax
    b5a2:	66 0f ef c0          	pxor   %xmm0,%xmm0
    b5a6:	66 0f 6e e0          	movd   %eax,%xmm4
    b5aa:	0f 2e e0             	ucomiss %xmm0,%xmm4
    b5ad:	7a 0d                	jp     b5bc <test_setp_smooth+0x94a>
    b5af:	66 0f ef c0          	pxor   %xmm0,%xmm0
    b5b3:	66 0f 6e e8          	movd   %eax,%xmm5
    b5b7:	0f 2e e8             	ucomiss %xmm0,%xmm5
    b5ba:	74 1f                	je     b5db <test_setp_smooth+0x969>
    b5bc:	41 b8 61 05 00 00    	mov    $0x561,%r8d
    b5c2:	48 8d 05 49 00 00 00 	lea    0x49(%rip),%rax        # b612 <test_setp_smooth+0x9a0>
    b5c9:	48 89 c2             	mov    %rax,%rdx
    b5cc:	48 8d 05 5a 00 00 00 	lea    0x5a(%rip),%rax        # b62d <test_setp_smooth+0x9bb>
    b5d3:	48 89 c1             	mov    %rax,%rcx
    b5d6:	e8 68 4a ff ff       	call   43 <printf>
    b5db:	f3 0f 10 45 f4       	movss  -0xc(%rbp),%xmm0
    b5e0:	f3 0f 10 4d f0       	movss  -0x10(%rbp),%xmm1
    b5e5:	0f 2e c1             	ucomiss %xmm1,%xmm0
    b5e8:	7a 05                	jp     b5ef <test_setp_smooth+0x97d>
    b5ea:	0f 2e c1             	ucomiss %xmm1,%xmm0
    b5ed:	74 1f                	je     b60e <test_setp_smooth+0x99c>
    b5ef:	41 b8 62 05 00 00    	mov    $0x562,%r8d
    b5f5:	48 8d 05 49 00 00 00 	lea    0x49(%rip),%rax        # b645 <test_setp_smooth+0x9d3>
    b5fc:	48 89 c2             	mov    %rax,%rdx
    b5ff:	48 8d 05 5a 00 00 00 	lea    0x5a(%rip),%rax        # b660 <test_setp_smooth+0x9ee>
    b606:	48 89 c1             	mov    %rax,%rcx
    b609:	e8 35 4a ff ff       	call   43 <printf>
    b60e:	f3 0f 10 45 e0       	movss  -0x20(%rbp),%xmm0
    b613:	0f 2e 05 b0 08 00 00 	ucomiss 0x8b0(%rip),%xmm0        # beca <test_pi+0x196>
    b61a:	7a 09                	jp     b625 <test_setp_smooth+0x9b3>
    b61c:	0f 2e 05 b0 08 00 00 	ucomiss 0x8b0(%rip),%xmm0        # bed3 <test_pi+0x19f>
    b623:	74 1f                	je     b644 <test_setp_smooth+0x9d2>
    b625:	41 b8 63 05 00 00    	mov    $0x563,%r8d
    b62b:	48 8d 05 49 00 00 00 	lea    0x49(%rip),%rax        # b67b <test_setp_smooth+0xa09>
    b632:	48 89 c2             	mov    %rax,%rdx
    b635:	48 8d 05 5a 00 00 00 	lea    0x5a(%rip),%rax        # b696 <test_setp_smooth+0xa24>
    b63c:	48 89 c1             	mov    %rax,%rcx
    b63f:	e8 ff 49 ff ff       	call   43 <printf>
    b644:	48 8d 45 c0          	lea    -0x40(%rbp),%rax
    b648:	f3 0f 10 0d b4 08 00 	movss  0x8b4(%rip),%xmm1        # bf04 <test_pi+0x1d0>
    b64f:	00 
    b650:	48 89 c1             	mov    %rax,%rcx
    b653:	e8 00 00 00 00       	call   b658 <test_setp_smooth+0x9e6>
    b658:	84 c0                	test   %al,%al
    b65a:	74 1f                	je     b67b <test_setp_smooth+0xa09>
    b65c:	41 b8 64 05 00 00    	mov    $0x564,%r8d
    b662:	48 8d 05 49 00 00 00 	lea    0x49(%rip),%rax        # b6b2 <test_setp_smooth+0xa40>
    b669:	48 89 c2             	mov    %rax,%rdx
    b66c:	48 8d 05 5a 00 00 00 	lea    0x5a(%rip),%rax        # b6cd <test_setp_smooth+0xa5b>
    b673:	48 89 c1             	mov    %rax,%rcx
    b676:	e8 c8 49 ff ff       	call   43 <printf>
    b67b:	48 8d 45 c0          	lea    -0x40(%rbp),%rax
    b67f:	48 89 c1             	mov    %rax,%rcx
    b682:	e8 00 00 00 00       	call   b687 <test_setp_smooth+0xa15>
    b687:	66 0f 7e c0          	movd   %xmm0,%eax
    b68b:	66 0f 6e d0          	movd   %eax,%xmm2
    b68f:	0f 2e 15 00 09 00 00 	ucomiss 0x900(%rip),%xmm2        # bf96 <test_pi+0x262>
    b696:	7a 0d                	jp     b6a5 <test_setp_smooth+0xa33>
    b698:	66 0f 6e d8          	movd   %eax,%xmm3
    b69c:	0f 2e 1d 00 09 00 00 	ucomiss 0x900(%rip),%xmm3        # bfa3 <test_pi+0x26f>
    b6a3:	74 1f                	je     b6c4 <test_setp_smooth+0xa52>
    b6a5:	41 b8 66 05 00 00    	mov    $0x566,%r8d
    b6ab:	48 8d 05 49 00 00 00 	lea    0x49(%rip),%rax        # b6fb <test_setp_smooth+0xa89>
    b6b2:	48 89 c2             	mov    %rax,%rdx
    b6b5:	48 8d 05 5a 00 00 00 	lea    0x5a(%rip),%rax        # b716 <test_setp_smooth+0xaa4>
    b6bc:	48 89 c1             	mov    %rax,%rcx
    b6bf:	e8 7f 49 ff ff       	call   43 <printf>
    b6c4:	48 8d 45 c0          	lea    -0x40(%rbp),%rax
    b6c8:	66 0f ef c9          	pxor   %xmm1,%xmm1
    b6cc:	48 89 c1             	mov    %rax,%rcx
    b6cf:	e8 00 00 00 00       	call   b6d4 <test_setp_smooth+0xa62>
    b6d4:	f3 0f 10 45 e0       	movss  -0x20(%rbp),%xmm0
    b6d9:	0f 2e 05 cc 07 00 00 	ucomiss 0x7cc(%rip),%xmm0        # beac <test_pi+0x178>
    b6e0:	7a 09                	jp     b6eb <test_setp_smooth+0xa79>
    b6e2:	0f 2e 05 cc 07 00 00 	ucomiss 0x7cc(%rip),%xmm0        # beb5 <test_pi+0x181>
    b6e9:	74 1f                	je     b70a <test_setp_smooth+0xa98>
    b6eb:	41 b8 68 05 00 00    	mov    $0x568,%r8d
    b6f1:	48 8d 05 49 00 00 00 	lea    0x49(%rip),%rax        # b741 <test_setp_smooth+0xacf>
    b6f8:	48 89 c2             	mov    %rax,%rdx
    b6fb:	48 8d 05 5a 00 00 00 	lea    0x5a(%rip),%rax        # b75c <test_setp_smooth+0xaea>
    b702:	48 89 c1             	mov    %rax,%rcx
    b705:	e8 39 49 ff ff       	call   43 <printf>
    b70a:	48 8d 45 c0          	lea    -0x40(%rbp),%rax
    b70e:	f3 0f 10 0d b4 08 00 	movss  0x8b4(%rip),%xmm1        # bfca <test_pi+0x296>
    b715:	00 
    b716:	48 89 c1             	mov    %rax,%rcx
    b719:	e8 00 00 00 00       	call   b71e <test_setp_smooth+0xaac>
    b71e:	84 c0                	test   %al,%al
    b720:	74 1f                	je     b741 <test_setp_smooth+0xacf>
    b722:	41 b8 69 05 00 00    	mov    $0x569,%r8d
    b728:	48 8d 05 49 00 00 00 	lea    0x49(%rip),%rax        # b778 <test_setp_smooth+0xb06>
    b72f:	48 89 c2             	mov    %rax,%rdx
    b732:	48 8d 05 5a 00 00 00 	lea    0x5a(%rip),%rax        # b793 <test_setp_smooth+0xb21>
    b739:	48 89 c1             	mov    %rax,%rcx
    b73c:	e8 02 49 ff ff       	call   43 <printf>
    b741:	48 8d 45 c0          	lea    -0x40(%rbp),%rax
    b745:	48 89 c1             	mov    %rax,%rcx
    b748:	e8 00 00 00 00       	call   b74d <test_setp_smooth+0xadb>
    b74d:	66 0f 7e c0          	movd   %xmm0,%eax
    b751:	66 0f 6e e0          	movd   %eax,%xmm4
    b755:	0f 2e 25 9c 07 00 00 	ucomiss 0x79c(%rip),%xmm4        # bef8 <test_pi+0x1c4>
    b75c:	7a 0d                	jp     b76b <test_setp_smooth+0xaf9>
    b75e:	66 0f 6e e8          	movd   %eax,%xmm5
    b762:	0f 2e 2d 9c 07 00 00 	ucomiss 0x79c(%rip),%xmm5        # bf05 <test_pi+0x1d1>
    b769:	74 1f                	je     b78a <test_setp_smooth+0xb18>
    b76b:	41 b8 6b 05 00 00    	mov    $0x56b,%r8d
    b771:	48 8d 05 49 00 00 00 	lea    0x49(%rip),%rax        # b7c1 <test_setp_smooth+0xb4f>
    b778:	48 89 c2             	mov    %rax,%rdx
    b77b:	48 8d 05 5a 00 00 00 	lea    0x5a(%rip),%rax        # b7dc <test_setp_smooth+0xb6a>
    b782:	48 89 c1             	mov    %rax,%rcx
    b785:	e8 b9 48 ff ff       	call   43 <printf>
    b78a:	f3 0f 10 45 e0       	movss  -0x20(%rbp),%xmm0
    b78f:	0f 2e 05 7c 08 00 00 	ucomiss 0x87c(%rip),%xmm0        # c012 <test_pi+0x2de>
    b796:	7a 09                	jp     b7a1 <test_setp_smooth+0xb2f>
    b798:	0f 2e 05 7c 08 00 00 	ucomiss 0x87c(%rip),%xmm0        # c01b <test_pi+0x2e7>
    b79f:	74 1f                	je     b7c0 <test_setp_smooth+0xb4e>
    b7a1:	41 b8 6c 05 00 00    	mov    $0x56c,%r8d
    b7a7:	48 8d 05 49 00 00 00 	lea    0x49(%rip),%rax        # b7f7 <test_setp_smooth+0xb85>
    b7ae:	48 89 c2             	mov    %rax,%rdx
    b7b1:	48 8d 05 5a 00 00 00 	lea    0x5a(%rip),%rax        # b812 <test_setp_smooth+0xba0>
    b7b8:	48 89 c1             	mov    %rax,%rcx
    b7bb:	e8 83 48 ff ff       	call   43 <printf>
    b7c0:	48 8d 45 c0          	lea    -0x40(%rbp),%rax
    b7c4:	f3 0f 10 0d b4 08 00 	movss  0x8b4(%rip),%xmm1        # c080 <test_pi+0x34c>
    b7cb:	00 
    b7cc:	48 89 c1             	mov    %rax,%rcx
    b7cf:	e8 00 00 00 00       	call   b7d4 <test_setp_smooth+0xb62>
    b7d4:	84 c0                	test   %al,%al
    b7d6:	74 1f                	je     b7f7 <test_setp_smooth+0xb85>
    b7d8:	41 b8 6d 05 00 00    	mov    $0x56d,%r8d
    b7de:	48 8d 05 49 00 00 00 	lea    0x49(%rip),%rax        # b82e <test_setp_smooth+0xbbc>
    b7e5:	48 89 c2             	mov    %rax,%rdx
    b7e8:	48 8d 05 5a 00 00 00 	lea    0x5a(%rip),%rax        # b849 <test_setp_smooth+0xbd7>
    b7ef:	48 89 c1             	mov    %rax,%rcx
    b7f2:	e8 4c 48 ff ff       	call   43 <printf>
    b7f7:	48 8d 45 c0          	lea    -0x40(%rbp),%rax
    b7fb:	48 89 c1             	mov    %rax,%rcx
    b7fe:	e8 00 00 00 00       	call   b803 <test_setp_smooth+0xb91>
    b803:	66 0f 7e c0          	movd   %xmm0,%eax
    b807:	66 0f 6e d0          	movd   %eax,%xmm2
    b80b:	0f 2e 15 04 09 00 00 	ucomiss 0x904(%rip),%xmm2        # c116 <test_pi+0x3e2>
    b812:	7a 0d                	jp     b821 <test_setp_smooth+0xbaf>
    b814:	66 0f 6e d8          	movd   %eax,%xmm3
    b818:	0f 2e 1d 04 09 00 00 	ucomiss 0x904(%rip),%xmm3        # c123 <test_pi+0x3ef>
    b81f:	74 1f                	je     b840 <test_setp_smooth+0xbce>
    b821:	41 b8 6f 05 00 00    	mov    $0x56f,%r8d
    b827:	48 8d 05 49 00 00 00 	lea    0x49(%rip),%rax        # b877 <test_setp_smooth+0xc05>
    b82e:	48 89 c2             	mov    %rax,%rdx
    b831:	48 8d 05 5a 00 00 00 	lea    0x5a(%rip),%rax        # b892 <test_setp_smooth+0xc20>
    b838:	48 89 c1             	mov    %rax,%rcx
    b83b:	e8 03 48 ff ff       	call   43 <printf>
    b840:	f3 0f 10 45 e0       	movss  -0x20(%rbp),%xmm0
    b845:	f3 0f 10 0d a0 07 00 	movss  0x7a0(%rip),%xmm1        # bfed <test_pi+0x2b9>
    b84c:	00 
    b84d:	0f 2e c1             	ucomiss %xmm1,%xmm0
    b850:	7a 0d                	jp     b85f <test_setp_smooth+0xbed>
    b852:	f3 0f 10 0d a0 07 00 	movss  0x7a0(%rip),%xmm1        # bffa <test_pi+0x2c6>
    b859:	00 
    b85a:	0f 2e c1             	ucomiss %xmm1,%xmm0
    b85d:	74 1f                	je     b87e <test_setp_smooth+0xc0c>
    b85f:	41 b8 70 05 00 00    	mov    $0x570,%r8d
    b865:	48 8d 05 49 00 00 00 	lea    0x49(%rip),%rax        # b8b5 <test_setp_smooth+0xc43>
    b86c:	48 89 c2             	mov    %rax,%rdx
    b86f:	48 8d 05 5a 00 00 00 	lea    0x5a(%rip),%rax        # b8d0 <test_setp_smooth+0xc5e>
    b876:	48 89 c1             	mov    %rax,%rcx
    b879:	e8 c5 47 ff ff       	call   43 <printf>
    b87e:	48 8d 45 c0          	lea    -0x40(%rbp),%rax
    b882:	f3 0f 10 0d b4 08 00 	movss  0x8b4(%rip),%xmm1        # c13e <test_pi+0x40a>
    b889:	00 
    b88a:	48 89 c1             	mov    %rax,%rcx
    b88d:	e8 00 00 00 00       	call   b892 <test_setp_smooth+0xc20>
    b892:	83 f0 01             	xor    $0x1,%eax
    b895:	84 c0                	test   %al,%al
    b897:	74 1f                	je     b8b8 <test_setp_smooth+0xc46>
    b899:	41 b8 71 05 00 00    	mov    $0x571,%r8d
    b89f:	48 8d 05 49 00 00 00 	lea    0x49(%rip),%rax        # b8ef <test_setp_smooth+0xc7d>
    b8a6:	48 89 c2             	mov    %rax,%rdx
    b8a9:	48 8d 05 5a 00 00 00 	lea    0x5a(%rip),%rax        # b90a <test_setp_smooth+0xc98>
    b8b0:	48 89 c1             	mov    %rax,%rcx
    b8b3:	e8 8b 47 ff ff       	call   43 <printf>
    b8b8:	48 8d 45 c0          	lea    -0x40(%rbp),%rax
    b8bc:	48 89 c1             	mov    %rax,%rcx
    b8bf:	e8 00 00 00 00       	call   b8c4 <test_setp_smooth+0xc52>
    b8c4:	66 0f 7e c0          	movd   %xmm0,%eax
    b8c8:	66 0f 6e e0          	movd   %eax,%xmm4
    b8cc:	0f 2e 25 b8 07 00 00 	ucomiss 0x7b8(%rip),%xmm4        # c08b <test_pi+0x357>
    b8d3:	7a 0d                	jp     b8e2 <test_setp_smooth+0xc70>
    b8d5:	66 0f 6e e8          	movd   %eax,%xmm5
    b8d9:	0f 2e 2d b8 07 00 00 	ucomiss 0x7b8(%rip),%xmm5        # c098 <test_pi+0x364>
    b8e0:	74 1f                	je     b901 <test_setp_smooth+0xc8f>
    b8e2:	41 b8 73 05 00 00    	mov    $0x573,%r8d
    b8e8:	48 8d 05 49 00 00 00 	lea    0x49(%rip),%rax        # b938 <test_setp_smooth+0xcc6>
    b8ef:	48 89 c2             	mov    %rax,%rdx
    b8f2:	48 8d 05 5a 00 00 00 	lea    0x5a(%rip),%rax        # b953 <test_setp_smooth+0xce1>
    b8f9:	48 89 c1             	mov    %rax,%rcx
    b8fc:	e8 42 47 ff ff       	call   43 <printf>
    b901:	f3 0f 10 45 e0       	movss  -0x20(%rbp),%xmm0
    b906:	0f 2e 05 b0 08 00 00 	ucomiss 0x8b0(%rip),%xmm0        # c1bd <test_pi+0x489>
    b90d:	7a 09                	jp     b918 <test_setp_smooth+0xca6>
    b90f:	0f 2e 05 b0 08 00 00 	ucomiss 0x8b0(%rip),%xmm0        # c1c6 <test_pi+0x492>
    b916:	74 1f                	je     b937 <test_setp_smooth+0xcc5>
    b918:	41 b8 74 05 00 00    	mov    $0x574,%r8d
    b91e:	48 8d 05 49 00 00 00 	lea    0x49(%rip),%rax        # b96e <test_setp_smooth+0xcfc>
    b925:	48 89 c2             	mov    %rax,%rdx
    b928:	48 8d 05 5a 00 00 00 	lea    0x5a(%rip),%rax        # b989 <test_setp_smooth+0xd17>
    b92f:	48 89 c1             	mov    %rax,%rcx
    b932:	e8 0c 47 ff ff       	call   43 <printf>
    b937:	48 8d 45 c0          	lea    -0x40(%rbp),%rax
    b93b:	f3 0f 10 0d b4 08 00 	movss  0x8b4(%rip),%xmm1        # c1f7 <test_pi+0x4c3>
    b942:	00 
    b943:	48 89 c1             	mov    %rax,%rcx
    b946:	e8 00 00 00 00       	call   b94b <test_setp_smooth+0xcd9>
    b94b:	84 c0                	test   %al,%al
    b94d:	74 1f                	je     b96e <test_setp_smooth+0xcfc>
    b94f:	41 b8 75 05 00 00    	mov    $0x575,%r8d
    b955:	48 8d 05 49 00 00 00 	lea    0x49(%rip),%rax        # b9a5 <test_setp_smooth+0xd33>
    b95c:	48 89 c2             	mov    %rax,%rdx
    b95f:	48 8d 05 5a 00 00 00 	lea    0x5a(%rip),%rax        # b9c0 <test_setp_smooth+0xd4e>
    b966:	48 89 c1             	mov    %rax,%rcx
    b969:	e8 d5 46 ff ff       	call   43 <printf>
    b96e:	48 8d 45 c0          	lea    -0x40(%rbp),%rax
    b972:	48 89 c1             	mov    %rax,%rcx
    b975:	e8 00 00 00 00       	call   b97a <test_setp_smooth+0xd08>
    b97a:	66 0f 7e c0          	movd   %xmm0,%eax
    b97e:	66 0f 6e d0          	movd   %eax,%xmm2
    b982:	0f 2e 15 04 09 00 00 	ucomiss 0x904(%rip),%xmm2        # c28d <test_pi+0x559>
    b989:	7a 0d                	jp     b998 <test_setp_smooth+0xd26>
    b98b:	66 0f 6e d8          	movd   %eax,%xmm3
    b98f:	0f 2e 1d 04 09 00 00 	ucomiss 0x904(%rip),%xmm3        # c29a <test_pi+0x566>
    b996:	74 1f                	je     b9b7 <test_setp_smooth+0xd45>
    b998:	41 b8 77 05 00 00    	mov    $0x577,%r8d
    b99e:	48 8d 05 49 00 00 00 	lea    0x49(%rip),%rax        # b9ee <test_setp_smooth+0xd7c>
    b9a5:	48 89 c2             	mov    %rax,%rdx
    b9a8:	48 8d 05 5a 00 00 00 	lea    0x5a(%rip),%rax        # ba09 <test_setp_smooth+0xd97>
    b9af:	48 89 c1             	mov    %rax,%rcx
    b9b2:	e8 8c 46 ff ff       	call   43 <printf>
    b9b7:	48 8d 45 c0          	lea    -0x40(%rbp),%rax
    b9bb:	66 0f ef c9          	pxor   %xmm1,%xmm1
    b9bf:	48 89 c1             	mov    %rax,%rcx
    b9c2:	e8 00 00 00 00       	call   b9c7 <test_setp_smooth+0xd55>
    b9c7:	f3 0f 10 45 e0       	movss  -0x20(%rbp),%xmm0
    b9cc:	0f 2e 05 cc 07 00 00 	ucomiss 0x7cc(%rip),%xmm0        # c19f <test_pi+0x46b>
    b9d3:	7a 09                	jp     b9de <test_setp_smooth+0xd6c>
    b9d5:	0f 2e 05 cc 07 00 00 	ucomiss 0x7cc(%rip),%xmm0        # c1a8 <test_pi+0x474>
    b9dc:	74 1f                	je     b9fd <test_setp_smooth+0xd8b>
    b9de:	41 b8 79 05 00 00    	mov    $0x579,%r8d
    b9e4:	48 8d 05 49 00 00 00 	lea    0x49(%rip),%rax        # ba34 <test_setp_smooth+0xdc2>
    b9eb:	48 89 c2             	mov    %rax,%rdx
    b9ee:	48 8d 05 5a 00 00 00 	lea    0x5a(%rip),%rax        # ba4f <test_setp_smooth+0xddd>
    b9f5:	48 89 c1             	mov    %rax,%rcx
    b9f8:	e8 46 46 ff ff       	call   43 <printf>
    b9fd:	48 8d 45 c0          	lea    -0x40(%rbp),%rax
    ba01:	f3 0f 10 0d b4 08 00 	movss  0x8b4(%rip),%xmm1        # c2bd <test_pi+0x589>
    ba08:	00 
    ba09:	48 89 c1             	mov    %rax,%rcx
    ba0c:	e8 00 00 00 00       	call   ba11 <test_setp_smooth+0xd9f>
    ba11:	84 c0                	test   %al,%al
    ba13:	74 1f                	je     ba34 <test_setp_smooth+0xdc2>
    ba15:	41 b8 7a 05 00 00    	mov    $0x57a,%r8d
    ba1b:	48 8d 05 49 00 00 00 	lea    0x49(%rip),%rax        # ba6b <test_setp_smooth+0xdf9>
    ba22:	48 89 c2             	mov    %rax,%rdx
    ba25:	48 8d 05 5a 00 00 00 	lea    0x5a(%rip),%rax        # ba86 <test_setp_smooth+0xe14>
    ba2c:	48 89 c1             	mov    %rax,%rcx
    ba2f:	e8 0f 46 ff ff       	call   43 <printf>
    ba34:	48 8d 45 c0          	lea    -0x40(%rbp),%rax
    ba38:	48 89 c1             	mov    %rax,%rcx
    ba3b:	e8 00 00 00 00       	call   ba40 <test_setp_smooth+0xdce>
    ba40:	66 0f 7e c0          	movd   %xmm0,%eax
    ba44:	66 0f 6e e0          	movd   %eax,%xmm4
    ba48:	0f 2e 25 9c 07 00 00 	ucomiss 0x79c(%rip),%xmm4        # c1eb <test_pi+0x4b7>
    ba4f:	7a 0d                	jp     ba5e <test_setp_smooth+0xdec>
    ba51:	66 0f 6e e8          	movd   %eax,%xmm5
    ba55:	0f 2e 2d 9c 07 00 00 	ucomiss 0x79c(%rip),%xmm5        # c1f8 <test_pi+0x4c4>
    ba5c:	74 1f                	je     ba7d <test_setp_smooth+0xe0b>
    ba5e:	41 b8 7c 05 00 00    	mov    $0x57c,%r8d
    ba64:	48 8d 05 49 00 00 00 	lea    0x49(%rip),%rax        # bab4 <test_setp_smooth+0xe42>
    ba6b:	48 89 c2             	mov    %rax,%rdx
    ba6e:	48 8d 05 5a 00 00 00 	lea    0x5a(%rip),%rax        # bacf <test_setp_smooth+0xe5d>
    ba75:	48 89 c1             	mov    %rax,%rcx
    ba78:	e8 c6 45 ff ff       	call   43 <printf>
    ba7d:	f3 0f 10 45 e0       	movss  -0x20(%rbp),%xmm0
    ba82:	0f 2e 05 7c 08 00 00 	ucomiss 0x87c(%rip),%xmm0        # c305 <test_pi+0x5d1>
    ba89:	7a 09                	jp     ba94 <test_setp_smooth+0xe22>
    ba8b:	0f 2e 05 7c 08 00 00 	ucomiss 0x87c(%rip),%xmm0        # c30e <test_pi+0x5da>
    ba92:	74 1f                	je     bab3 <test_setp_smooth+0xe41>
    ba94:	41 b8 7d 05 00 00    	mov    $0x57d,%r8d
    ba9a:	48 8d 05 49 00 00 00 	lea    0x49(%rip),%rax        # baea <test_setp_smooth+0xe78>
    baa1:	48 89 c2             	mov    %rax,%rdx
    baa4:	48 8d 05 5a 00 00 00 	lea    0x5a(%rip),%rax        # bb05 <test_setp_smooth+0xe93>
    baab:	48 89 c1             	mov    %rax,%rcx
    baae:	e8 90 45 ff ff       	call   43 <printf>
    bab3:	48 8d 45 c0          	lea    -0x40(%rbp),%rax
    bab7:	f3 0f 10 0d b4 08 00 	movss  0x8b4(%rip),%xmm1        # c373 <test_pi+0x63f>
    babe:	00 
    babf:	48 89 c1             	mov    %rax,%rcx
    bac2:	e8 00 00 00 00       	call   bac7 <test_setp_smooth+0xe55>
    bac7:	84 c0                	test   %al,%al
    bac9:	74 1f                	je     baea <test_setp_smooth+0xe78>
    bacb:	41 b8 7e 05 00 00    	mov    $0x57e,%r8d
    bad1:	48 8d 05 49 00 00 00 	lea    0x49(%rip),%rax        # bb21 <test_setp_smooth+0xeaf>
    bad8:	48 89 c2             	mov    %rax,%rdx
    badb:	48 8d 05 5a 00 00 00 	lea    0x5a(%rip),%rax        # bb3c <test_setp_smooth+0xeca>
    bae2:	48 89 c1             	mov    %rax,%rcx
    bae5:	e8 59 45 ff ff       	call   43 <printf>
    baea:	48 8d 45 c0          	lea    -0x40(%rbp),%rax
    baee:	48 89 c1             	mov    %rax,%rcx
    baf1:	e8 00 00 00 00       	call   baf6 <test_setp_smooth+0xe84>
    baf6:	66 0f 7e c0          	movd   %xmm0,%eax
    bafa:	66 0f 6e d0          	movd   %eax,%xmm2
    bafe:	0f 2e 15 00 09 00 00 	ucomiss 0x900(%rip),%xmm2        # c405 <test_pi+0x6d1>
    bb05:	7a 0d                	jp     bb14 <test_setp_smooth+0xea2>
    bb07:	66 0f 6e d8          	movd   %eax,%xmm3
    bb0b:	0f 2e 1d 00 09 00 00 	ucomiss 0x900(%rip),%xmm3        # c412 <test_pi+0x6de>
    bb12:	74 1f                	je     bb33 <test_setp_smooth+0xec1>
    bb14:	41 b8 80 05 00 00    	mov    $0x580,%r8d
    bb1a:	48 8d 05 49 00 00 00 	lea    0x49(%rip),%rax        # bb6a <test_setp_smooth+0xef8>
    bb21:	48 89 c2             	mov    %rax,%rdx
    bb24:	48 8d 05 5a 00 00 00 	lea    0x5a(%rip),%rax        # bb85 <test_setp_smooth+0xf13>
    bb2b:	48 89 c1             	mov    %rax,%rcx
    bb2e:	e8 10 45 ff ff       	call   43 <printf>
    bb33:	f3 0f 10 45 e0       	movss  -0x20(%rbp),%xmm0
    bb38:	f3 0f 10 0d a0 07 00 	movss  0x7a0(%rip),%xmm1        # c2e0 <test_pi+0x5ac>
    bb3f:	00 
    bb40:	0f 2e c1             	ucomiss %xmm1,%xmm0
    bb43:	7a 0d                	jp     bb52 <test_setp_smooth+0xee0>
    bb45:	f3 0f 10 0d a0 07 00 	movss  0x7a0(%rip),%xmm1        # c2ed <test_pi+0x5b9>
    bb4c:	00 
    bb4d:	0f 2e c1             	ucomiss %xmm1,%xmm0
    bb50:	74 1f                	je     bb71 <test_setp_smooth+0xeff>
    bb52:	41 b8 81 05 00 00    	mov    $0x581,%r8d
    bb58:	48 8d 05 49 00 00 00 	lea    0x49(%rip),%rax        # bba8 <test_setp_smooth+0xf36>
    bb5f:	48 89 c2             	mov    %rax,%rdx
    bb62:	48 8d 05 5a 00 00 00 	lea    0x5a(%rip),%rax        # bbc3 <test_setp_smooth+0xf51>
    bb69:	48 89 c1             	mov    %rax,%rcx
    bb6c:	e8 d2 44 ff ff       	call   43 <printf>
    bb71:	48 8d 45 c0          	lea    -0x40(%rbp),%rax
    bb75:	f3 0f 10 0d b4 08 00 	movss  0x8b4(%rip),%xmm1        # c431 <test_pi+0x6fd>
    bb7c:	00 
    bb7d:	48 89 c1             	mov    %rax,%rcx
    bb80:	e8 00 00 00 00       	call   bb85 <test_setp_smooth+0xf13>
    bb85:	83 f0 01             	xor    $0x1,%eax
    bb88:	84 c0                	test   %al,%al
    bb8a:	74 1f                	je     bbab <test_setp_smooth+0xf39>
    bb8c:	41 b8 82 05 00 00    	mov    $0x582,%r8d
    bb92:	48 8d 05 49 00 00 00 	lea    0x49(%rip),%rax        # bbe2 <test_setp_smooth+0xf70>
    bb99:	48 89 c2             	mov    %rax,%rdx
    bb9c:	48 8d 05 5a 00 00 00 	lea    0x5a(%rip),%rax        # bbfd <test_setp_smooth+0xf8b>
    bba3:	48 89 c1             	mov    %rax,%rcx
    bba6:	e8 98 44 ff ff       	call   43 <printf>
    bbab:	48 8d 45 c0          	lea    -0x40(%rbp),%rax
    bbaf:	48 89 c1             	mov    %rax,%rcx
    bbb2:	e8 00 00 00 00       	call   bbb7 <test_setp_smooth+0xf45>
    bbb7:	66 0f 7e c0          	movd   %xmm0,%eax
    bbbb:	66 0f ef c0          	pxor   %xmm0,%xmm0
    bbbf:	66 0f 6e e0          	movd   %eax,%xmm4
    bbc3:	0f 2e e0             	ucomiss %xmm0,%xmm4
    bbc6:	7a 0d                	jp     bbd5 <test_setp_smooth+0xf63>
    bbc8:	66 0f ef c0          	pxor   %xmm0,%xmm0
    bbcc:	66 0f 6e e8          	movd   %eax,%xmm5
    bbd0:	0f 2e e8             	ucomiss %xmm0,%xmm5
    bbd3:	74 1f                	je     bbf4 <test_setp_smooth+0xf82>
    bbd5:	41 b8 84 05 00 00    	mov    $0x584,%r8d
    bbdb:	48 8d 05 49 00 00 00 	lea    0x49(%rip),%rax        # bc2b <test_setp_smooth+0xfb9>
    bbe2:	48 89 c2             	mov    %rax,%rdx
    bbe5:	48 8d 05 5a 00 00 00 	lea    0x5a(%rip),%rax        # bc46 <test_setp_smooth+0xfd4>
    bbec:	48 89 c1             	mov    %rax,%rcx
    bbef:	e8 4f 44 ff ff       	call   43 <printf>
    bbf4:	f3 0f 10 45 e0       	movss  -0x20(%rbp),%xmm0
    bbf9:	f3 0f 10 0d a0 07 00 	movss  0x7a0(%rip),%xmm1        # c3a1 <test_pi+0x66d>
    bc00:	00 
    bc01:	0f 2e c1             	ucomiss %xmm1,%xmm0
    bc04:	7a 0d                	jp     bc13 <test_setp_smooth+0xfa1>
    bc06:	f3 0f 10 0d a0 07 00 	movss  0x7a0(%rip),%xmm1        # c3ae <test_pi+0x67a>
    bc0d:	00 
    bc0e:	0f 2e c1             	ucomiss %xmm1,%xmm0
    bc11:	74 1f                	je     bc32 <test_setp_smooth+0xfc0>
    bc13:	41 b8 85 05 00 00    	mov    $0x585,%r8d
    bc19:	48 8d 05 49 00 00 00 	lea    0x49(%rip),%rax        # bc69 <test_setp_smooth+0xff7>
    bc20:	48 89 c2             	mov    %rax,%rdx
    bc23:	48 8d 05 5a 00 00 00 	lea    0x5a(%rip),%rax        # bc84 <test_setp_smooth+0x1012>
    bc2a:	48 89 c1             	mov    %rax,%rcx
    bc2d:	e8 11 44 ff ff       	call   43 <printf>
    bc32:	48 8d 45 c0          	lea    -0x40(%rbp),%rax
    bc36:	f3 0f 10 0d b4 08 00 	movss  0x8b4(%rip),%xmm1        # c4f2 <test_pi+0x7be>
    bc3d:	00 
    bc3e:	48 89 c1             	mov    %rax,%rcx
    bc41:	e8 00 00 00 00       	call   bc46 <test_setp_smooth+0xfd4>
    bc46:	83 f0 01             	xor    $0x1,%eax
    bc49:	84 c0                	test   %al,%al
    bc4b:	74 1f                	je     bc6c <test_setp_smooth+0xffa>
    bc4d:	41 b8 86 05 00 00    	mov    $0x586,%r8d
    bc53:	48 8d 05 49 00 00 00 	lea    0x49(%rip),%rax        # bca3 <test_setp_smooth+0x1031>
    bc5a:	48 89 c2             	mov    %rax,%rdx
    bc5d:	48 8d 05 5a 00 00 00 	lea    0x5a(%rip),%rax        # bcbe <test_setp_smooth+0x104c>
    bc64:	48 89 c1             	mov    %rax,%rcx
    bc67:	e8 d7 43 ff ff       	call   43 <printf>
    bc6c:	48 8d 45 c0          	lea    -0x40(%rbp),%rax
    bc70:	48 89 c1             	mov    %rax,%rcx
    bc73:	e8 00 00 00 00       	call   bc78 <test_setp_smooth+0x1006>
    bc78:	66 0f 7e c0          	movd   %xmm0,%eax
    bc7c:	66 0f ef c0          	pxor   %xmm0,%xmm0
    bc80:	66 0f 6e d0          	movd   %eax,%xmm2
    bc84:	0f 2e d0             	ucomiss %xmm0,%xmm2
    bc87:	7a 0d                	jp     bc96 <test_setp_smooth+0x1024>
    bc89:	66 0f ef c0          	pxor   %xmm0,%xmm0
    bc8d:	66 0f 6e d8          	movd   %eax,%xmm3
    bc91:	0f 2e d8             	ucomiss %xmm0,%xmm3
    bc94:	74 1f                	je     bcb5 <test_setp_smooth+0x1043>
    bc96:	41 b8 88 05 00 00    	mov    $0x588,%r8d
    bc9c:	48 8d 05 49 00 00 00 	lea    0x49(%rip),%rax        # bcec <test_setp_smooth+0x107a>
    bca3:	48 89 c2             	mov    %rax,%rdx
    bca6:	48 8d 05 5a 00 00 00 	lea    0x5a(%rip),%rax        # bd07 <test_setp_smooth+0x1095>
    bcad:	48 89 c1             	mov    %rax,%rcx
    bcb0:	e8 8e 43 ff ff       	call   43 <printf>
    bcb5:	f3 0f 10 45 e0       	movss  -0x20(%rbp),%xmm0
    bcba:	f3 0f 10 0d a0 07 00 	movss  0x7a0(%rip),%xmm1        # c462 <test_pi+0x72e>
    bcc1:	00 
    bcc2:	0f 2e c1             	ucomiss %xmm1,%xmm0
    bcc5:	7a 0d                	jp     bcd4 <test_setp_smooth+0x1062>
    bcc7:	f3 0f 10 0d a0 07 00 	movss  0x7a0(%rip),%xmm1        # c46f <test_pi+0x73b>
    bcce:	00 
    bccf:	0f 2e c1             	ucomiss %xmm1,%xmm0
    bcd2:	74 1f                	je     bcf3 <test_setp_smooth+0x1081>
    bcd4:	41 b8 89 05 00 00    	mov    $0x589,%r8d
    bcda:	48 8d 05 49 00 00 00 	lea    0x49(%rip),%rax        # bd2a <test_setp_smooth+0x10b8>
    bce1:	48 89 c2             	mov    %rax,%rdx
    bce4:	48 8d 05 5a 00 00 00 	lea    0x5a(%rip),%rax        # bd45 <test_pi+0x11>
    bceb:	48 89 c1             	mov    %rax,%rcx
    bcee:	e8 50 43 ff ff       	call   43 <printf>
    bcf3:	48 8d 45 c0          	lea    -0x40(%rbp),%rax
    bcf7:	f3 0f 10 0d b4 08 00 	movss  0x8b4(%rip),%xmm1        # c5b3 <test_pi+0x87f>
    bcfe:	00 
    bcff:	48 89 c1             	mov    %rax,%rcx
    bd02:	e8 00 00 00 00       	call   bd07 <test_setp_smooth+0x1095>
    bd07:	83 f0 01             	xor    $0x1,%eax
    bd0a:	84 c0                	test   %al,%al
    bd0c:	74 1f                	je     bd2d <test_setp_smooth+0x10bb>
    bd0e:	41 b8 8a 05 00 00    	mov    $0x58a,%r8d
    bd14:	48 8d 05 49 00 00 00 	lea    0x49(%rip),%rax        # bd64 <test_pi+0x30>
    bd1b:	48 89 c2             	mov    %rax,%rdx
    bd1e:	48 8d 05 5a 00 00 00 	lea    0x5a(%rip),%rax        # bd7f <test_pi+0x4b>
    bd25:	48 89 c1             	mov    %rax,%rcx
    bd28:	e8 16 43 ff ff       	call   43 <printf>
    bd2d:	90                   	nop
    bd2e:	48 83 c4 60          	add    $0x60,%rsp
    bd32:	5d                   	pop    %rbp
    bd33:	c3                   	ret

000000000000bd34 <test_pi>:
    bd34:	55                   	push   %rbp
    bd35:	48 89 e5             	mov    %rsp,%rbp
    bd38:	48 81 ec f0 00 00 00 	sub    $0xf0,%rsp
    bd3f:	48 8d 05 ab 06 00 00 	lea    0x6ab(%rip),%rax        # c3f1 <test_pi+0x6bd>
    bd46:	48 89 c1             	mov    %rax,%rcx
    bd49:	e8 f5 42 ff ff       	call   43 <printf>
    bd4e:	66 c7 45 f4 02 00    	movw   $0x2,-0xc(%rbp)
    bd54:	66 c7 45 f6 03 00    	movw   $0x3,-0xa(%rbp)
    bd5a:	f3 0f 10 05 78 08 00 	movss  0x878(%rip),%xmm0        # c5da <test_pi+0x8a6>
    bd61:	00 
    bd62:	f3 0f 11 45 f8       	movss  %xmm0,-0x8(%rbp)
    bd67:	f3 0f 10 05 08 09 00 	movss  0x908(%rip),%xmm0        # c677 <test_pi+0x943>
    bd6e:	00 
    bd6f:	f3 0f 11 45 fc       	movss  %xmm0,-0x4(%rbp)
    bd74:	f3 0f 10 05 a0 07 00 	movss  0x7a0(%rip),%xmm0        # c51c <test_pi+0x7e8>
    bd7b:	00 
    bd7c:	f3 0f 11 45 d0       	movss  %xmm0,-0x30(%rbp)
    bd81:	f3 0f 10 05 9c 07 00 	movss  0x79c(%rip),%xmm0        # c525 <test_pi+0x7f1>
    bd88:	00 
    bd89:	f3 0f 11 45 d4       	movss  %xmm0,-0x2c(%rbp)
    bd8e:	f3 0f 10 05 9c 07 00 	movss  0x79c(%rip),%xmm0        # c532 <test_pi+0x7fe>
    bd95:	00 
    bd96:	f3 0f 11 45 d8       	movss  %xmm0,-0x28(%rbp)
    bd9b:	f3 0f 10 05 a0 07 00 	movss  0x7a0(%rip),%xmm0        # c543 <test_pi+0x80f>
    bda2:	00 
    bda3:	f3 0f 11 45 dc       	movss  %xmm0,-0x24(%rbp)
    bda8:	f3 0f 10 05 a4 07 00 	movss  0x7a4(%rip),%xmm0        # c554 <test_pi+0x820>
    bdaf:	00 
    bdb0:	f3 0f 11 45 e0       	movss  %xmm0,-0x20(%rbp)
    bdb5:	f3 0f 10 05 d0 07 00 	movss  0x7d0(%rip),%xmm0        # c58d <test_pi+0x859>
    bdbc:	00 
    bdbd:	f3 0f 11 45 e4       	movss  %xmm0,-0x1c(%rbp)
    bdc2:	f3 0f 10 05 d0 07 00 	movss  0x7d0(%rip),%xmm0        # c59a <test_pi+0x866>
    bdc9:	00 
    bdca:	f3 0f 11 45 e8       	movss  %xmm0,-0x18(%rbp)
    bdcf:	f3 0f 10 05 a0 07 00 	movss  0x7a0(%rip),%xmm0        # c577 <test_pi+0x843>
    bdd6:	00 
    bdd7:	f3 0f 11 45 ec       	movss  %xmm0,-0x14(%rbp)
    bddc:	48 8d 45 d0          	lea    -0x30(%rbp),%rax
    bde0:	48 89 45 b0          	mov    %rax,-0x50(%rbp)
    bde4:	66 c7 45 b8 02 00    	movw   $0x2,-0x48(%rbp)
    bdea:	48 8d 45 f4          	lea    -0xc(%rbp),%rax
    bdee:	48 89 45 c0          	mov    %rax,-0x40(%rbp)
    bdf2:	f3 0f 10 05 e8 07 00 	movss  0x7e8(%rip),%xmm0        # c5e2 <test_pi+0x8ae>
    bdf9:	00 
    bdfa:	f3 0f 11 45 c8       	movss  %xmm0,-0x38(%rbp)
    bdff:	f3 0f 10 05 0c 09 00 	movss  0x90c(%rip),%xmm0        # c713 <test_pi+0x9df>
    be06:	00 
    be07:	f3 0f 11 45 cc       	movss  %xmm0,-0x34(%rbp)
    be0c:	48 8d 45 b0          	lea    -0x50(%rbp),%rax
    be10:	48 89 c1             	mov    %rax,%rcx
    be13:	e8 00 00 00 00       	call   be18 <test_pi+0xe4>
    be18:	0f b7 45 f4          	movzwl -0xc(%rbp),%eax
    be1c:	66 85 c0             	test   %ax,%ax
    be1f:	74 1f                	je     be40 <test_pi+0x10c>
    be21:	41 b8 9a 05 00 00    	mov    $0x59a,%r8d
    be27:	48 8d 05 49 00 00 00 	lea    0x49(%rip),%rax        # be77 <test_pi+0x143>
    be2e:	48 89 c2             	mov    %rax,%rdx
    be31:	48 8d 05 5a 00 00 00 	lea    0x5a(%rip),%rax        # be92 <test_pi+0x15e>
    be38:	48 89 c1             	mov    %rax,%rcx
    be3b:	e8 03 42 ff ff       	call   43 <printf>
    be40:	0f b7 45 f6          	movzwl -0xa(%rbp),%eax
    be44:	66 85 c0             	test   %ax,%ax
    be47:	74 1f                	je     be68 <test_pi+0x134>
    be49:	41 b8 9b 05 00 00    	mov    $0x59b,%r8d
    be4f:	48 8d 05 49 00 00 00 	lea    0x49(%rip),%rax        # be9f <test_pi+0x16b>
    be56:	48 89 c2             	mov    %rax,%rdx
    be59:	48 8d 05 5a 00 00 00 	lea    0x5a(%rip),%rax        # beba <test_pi+0x186>
    be60:	48 89 c1             	mov    %rax,%rcx
    be63:	e8 db 41 ff ff       	call   43 <printf>
    be68:	f3 0f 10 45 f8       	movss  -0x8(%rbp),%xmm0
    be6d:	66 0f ef c9          	pxor   %xmm1,%xmm1
    be71:	0f 2e c1             	ucomiss %xmm1,%xmm0
    be74:	7a 09                	jp     be7f <test_pi+0x14b>
    be76:	66 0f ef c9          	pxor   %xmm1,%xmm1
    be7a:	0f 2e c1             	ucomiss %xmm1,%xmm0
    be7d:	74 1f                	je     be9e <test_pi+0x16a>
    be7f:	41 b8 9c 05 00 00    	mov    $0x59c,%r8d
    be85:	48 8d 05 49 00 00 00 	lea    0x49(%rip),%rax        # bed5 <test_pi+0x1a1>
    be8c:	48 89 c2             	mov    %rax,%rdx
    be8f:	48 8d 05 5a 00 00 00 	lea    0x5a(%rip),%rax        # bef0 <test_pi+0x1bc>
    be96:	48 89 c1             	mov    %rax,%rcx
    be99:	e8 a5 41 ff ff       	call   43 <printf>
    be9e:	f3 0f 10 45 fc       	movss  -0x4(%rbp),%xmm0
    bea3:	66 0f ef c9          	pxor   %xmm1,%xmm1
    bea7:	0f 2e c1             	ucomiss %xmm1,%xmm0
    beaa:	7a 09                	jp     beb5 <test_pi+0x181>
    beac:	66 0f ef c9          	pxor   %xmm1,%xmm1
    beb0:	0f 2e c1             	ucomiss %xmm1,%xmm0
    beb3:	74 1f                	je     bed4 <test_pi+0x1a0>
    beb5:	41 b8 9d 05 00 00    	mov    $0x59d,%r8d
    bebb:	48 8d 05 49 00 00 00 	lea    0x49(%rip),%rax        # bf0b <test_pi+0x1d7>
    bec2:	48 89 c2             	mov    %rax,%rdx
    bec5:	48 8d 05 5a 00 00 00 	lea    0x5a(%rip),%rax        # bf26 <test_pi+0x1f2>
    becc:	48 89 c1             	mov    %rax,%rcx
    becf:	e8 6f 41 ff ff       	call   43 <printf>
    bed4:	48 8d 45 b0          	lea    -0x50(%rbp),%rax
    bed8:	f3 0f 10 0d a0 07 00 	movss  0x7a0(%rip),%xmm1        # c680 <test_pi+0x94c>
    bedf:	00 
    bee0:	48 89 c1             	mov    %rax,%rcx
    bee3:	e8 00 00 00 00       	call   bee8 <test_pi+0x1b4>
    bee8:	66 0f 7e c0          	movd   %xmm0,%eax
    beec:	66 0f 6e d0          	movd   %eax,%xmm2
    bef0:	0f 2e 15 b4 07 00 00 	ucomiss 0x7b4(%rip),%xmm2        # c6ab <test_pi+0x977>
    bef7:	7a 0d                	jp     bf06 <test_pi+0x1d2>
    bef9:	66 0f 6e d8          	movd   %eax,%xmm3
    befd:	0f 2e 1d b4 07 00 00 	ucomiss 0x7b4(%rip),%xmm3        # c6b8 <test_pi+0x984>
    bf04:	74 1f                	je     bf25 <test_pi+0x1f1>
    bf06:	41 b8 9e 05 00 00    	mov    $0x59e,%r8d
    bf0c:	48 8d 05 49 00 00 00 	lea    0x49(%rip),%rax        # bf5c <test_pi+0x228>
    bf13:	48 89 c2             	mov    %rax,%rdx
    bf16:	48 8d 05 5a 00 00 00 	lea    0x5a(%rip),%rax        # bf77 <test_pi+0x243>
    bf1d:	48 89 c1             	mov    %rax,%rcx
    bf20:	e8 1e 41 ff ff       	call   43 <printf>
    bf25:	f3 0f 10 45 f8       	movss  -0x8(%rbp),%xmm0
    bf2a:	0f 2e 05 9c 07 00 00 	ucomiss 0x79c(%rip),%xmm0        # c6cd <test_pi+0x999>
    bf31:	7a 09                	jp     bf3c <test_pi+0x208>
    bf33:	0f 2e 05 9c 07 00 00 	ucomiss 0x79c(%rip),%xmm0        # c6d6 <test_pi+0x9a2>
    bf3a:	74 1f                	je     bf5b <test_pi+0x227>
    bf3c:	41 b8 9f 05 00 00    	mov    $0x59f,%r8d
    bf42:	48 8d 05 49 00 00 00 	lea    0x49(%rip),%rax        # bf92 <test_pi+0x25e>
    bf49:	48 89 c2             	mov    %rax,%rdx
    bf4c:	48 8d 05 5a 00 00 00 	lea    0x5a(%rip),%rax        # bfad <test_pi+0x279>
    bf53:	48 89 c1             	mov    %rax,%rcx
    bf56:	e8 e8 40 ff ff       	call   43 <printf>
    bf5b:	f3 0f 10 45 fc       	movss  -0x4(%rbp),%xmm0
    bf60:	66 0f ef c9          	pxor   %xmm1,%xmm1
    bf64:	0f 2e c1             	ucomiss %xmm1,%xmm0
    bf67:	7a 09                	jp     bf72 <test_pi+0x23e>
    bf69:	66 0f ef c9          	pxor   %xmm1,%xmm1
    bf6d:	0f 2e c1             	ucomiss %xmm1,%xmm0
    bf70:	74 1f                	je     bf91 <test_pi+0x25d>
    bf72:	41 b8 a0 05 00 00    	mov    $0x5a0,%r8d
    bf78:	48 8d 05 49 00 00 00 	lea    0x49(%rip),%rax        # bfc8 <test_pi+0x294>
    bf7f:	48 89 c2             	mov    %rax,%rdx
    bf82:	48 8d 05 5a 00 00 00 	lea    0x5a(%rip),%rax        # bfe3 <test_pi+0x2af>
    bf89:	48 89 c1             	mov    %rax,%rcx
    bf8c:	e8 b2 40 ff ff       	call   43 <printf>
    bf91:	48 8d 45 b0          	lea    -0x50(%rbp),%rax
    bf95:	f3 0f 10 0d a0 07 00 	movss  0x7a0(%rip),%xmm1        # c73d <test_pi+0xa09>
    bf9c:	00 
    bf9d:	48 89 c1             	mov    %rax,%rcx
    bfa0:	e8 00 00 00 00       	call   bfa5 <test_pi+0x271>
    bfa5:	66 0f 7e c0          	movd   %xmm0,%eax
    bfa9:	66 0f 6e e0          	movd   %eax,%xmm4
    bfad:	0f 2e 25 e8 07 00 00 	ucomiss 0x7e8(%rip),%xmm4        # c79c <test_pi+0xa68>
    bfb4:	7a 0d                	jp     bfc3 <test_pi+0x28f>
    bfb6:	66 0f 6e e8          	movd   %eax,%xmm5
    bfba:	0f 2e 2d e8 07 00 00 	ucomiss 0x7e8(%rip),%xmm5        # c7a9 <test_pi+0xa75>
    bfc1:	74 1f                	je     bfe2 <test_pi+0x2ae>
    bfc3:	41 b8 a1 05 00 00    	mov    $0x5a1,%r8d
    bfc9:	48 8d 05 49 00 00 00 	lea    0x49(%rip),%rax        # c019 <test_pi+0x2e5>
    bfd0:	48 89 c2             	mov    %rax,%rdx
    bfd3:	48 8d 05 5a 00 00 00 	lea    0x5a(%rip),%rax        # c034 <test_pi+0x300>
    bfda:	48 89 c1             	mov    %rax,%rcx
    bfdd:	e8 61 40 ff ff       	call   43 <printf>
    bfe2:	f3 0f 10 45 f8       	movss  -0x8(%rbp),%xmm0
    bfe7:	0f 2e 05 b8 07 00 00 	ucomiss 0x7b8(%rip),%xmm0        # c7a6 <test_pi+0xa72>
    bfee:	7a 09                	jp     bff9 <test_pi+0x2c5>
    bff0:	0f 2e 05 b8 07 00 00 	ucomiss 0x7b8(%rip),%xmm0        # c7af <test_pi+0xa7b>
    bff7:	74 1f                	je     c018 <test_pi+0x2e4>
    bff9:	41 b8 a2 05 00 00    	mov    $0x5a2,%r8d
    bfff:	48 8d 05 49 00 00 00 	lea    0x49(%rip),%rax        # c04f <test_pi+0x31b>
    c006:	48 89 c2             	mov    %rax,%rdx
    c009:	48 8d 05 5a 00 00 00 	lea    0x5a(%rip),%rax        # c06a <test_pi+0x336>
    c010:	48 89 c1             	mov    %rax,%rcx
    c013:	e8 2b 40 ff ff       	call   43 <printf>
    c018:	f3 0f 10 45 fc       	movss  -0x4(%rbp),%xmm0
    c01d:	66 0f ef c9          	pxor   %xmm1,%xmm1
    c021:	0f 2e c1             	ucomiss %xmm1,%xmm0
    c024:	7a 09                	jp     c02f <test_pi+0x2fb>
    c026:	66 0f ef c9          	pxor   %xmm1,%xmm1
    c02a:	0f 2e c1             	ucomiss %xmm1,%xmm0
    c02d:	74 1f                	je     c04e <test_pi+0x31a>
    c02f:	41 b8 a3 05 00 00    	mov    $0x5a3,%r8d
    c035:	48 8d 05 49 00 00 00 	lea    0x49(%rip),%rax        # c085 <test_pi+0x351>
    c03c:	48 89 c2             	mov    %rax,%rdx
    c03f:	48 8d 05 5a 00 00 00 	lea    0x5a(%rip),%rax        # c0a0 <test_pi+0x36c>
    c046:	48 89 c1             	mov    %rax,%rcx
    c049:	e8 f5 3f ff ff       	call   43 <printf>
    c04e:	48 8d 45 b0          	lea    -0x50(%rbp),%rax
    c052:	f3 0f 10 0d a0 07 00 	movss  0x7a0(%rip),%xmm1        # c7fa <test_pi+0xac6>
    c059:	00 
    c05a:	48 89 c1             	mov    %rax,%rcx
    c05d:	e8 00 00 00 00       	call   c062 <test_pi+0x32e>
    c062:	66 0f 7e c0          	movd   %xmm0,%eax
    c066:	66 0f 6e d0          	movd   %eax,%xmm2
    c06a:	0f 2e 15 e8 07 00 00 	ucomiss 0x7e8(%rip),%xmm2        # c859 <test_pi+0xb25>
    c071:	7a 0d                	jp     c080 <test_pi+0x34c>
    c073:	66 0f 6e d8          	movd   %eax,%xmm3
    c077:	0f 2e 1d e8 07 00 00 	ucomiss 0x7e8(%rip),%xmm3        # c866 <test_pi+0xb32>
    c07e:	74 1f                	je     c09f <test_pi+0x36b>
    c080:	41 b8 a4 05 00 00    	mov    $0x5a4,%r8d
    c086:	48 8d 05 49 00 00 00 	lea    0x49(%rip),%rax        # c0d6 <test_pi+0x3a2>
    c08d:	48 89 c2             	mov    %rax,%rdx
    c090:	48 8d 05 5a 00 00 00 	lea    0x5a(%rip),%rax        # c0f1 <test_pi+0x3bd>
    c097:	48 89 c1             	mov    %rax,%rcx
    c09a:	e8 a4 3f ff ff       	call   43 <printf>
    c09f:	f3 0f 10 45 f8       	movss  -0x8(%rbp),%xmm0
    c0a4:	0f 2e 05 ec 07 00 00 	ucomiss 0x7ec(%rip),%xmm0        # c897 <test_pi+0xb63>
    c0ab:	7a 09                	jp     c0b6 <test_pi+0x382>
    c0ad:	0f 2e 05 ec 07 00 00 	ucomiss 0x7ec(%rip),%xmm0        # c8a0 <test_pi+0xb6c>
    c0b4:	74 1f                	je     c0d5 <test_pi+0x3a1>
    c0b6:	41 b8 a5 05 00 00    	mov    $0x5a5,%r8d
    c0bc:	48 8d 05 49 00 00 00 	lea    0x49(%rip),%rax        # c10c <test_pi+0x3d8>
    c0c3:	48 89 c2             	mov    %rax,%rdx
    c0c6:	48 8d 05 5a 00 00 00 	lea    0x5a(%rip),%rax        # c127 <test_pi+0x3f3>
    c0cd:	48 89 c1             	mov    %rax,%rcx
    c0d0:	e8 6e 3f ff ff       	call   43 <printf>
    c0d5:	f3 0f 10 45 fc       	movss  -0x4(%rbp),%xmm0
    c0da:	0f 2e 05 bc 07 00 00 	ucomiss 0x7bc(%rip),%xmm0        # c89d <test_pi+0xb69>
    c0e1:	7a 09                	jp     c0ec <test_pi+0x3b8>
    c0e3:	0f 2e 05 bc 07 00 00 	ucomiss 0x7bc(%rip),%xmm0        # c8a6 <test_pi+0xb72>
    c0ea:	74 1f                	je     c10b <test_pi+0x3d7>
    c0ec:	41 b8 a6 05 00 00    	mov    $0x5a6,%r8d
    c0f2:	48 8d 05 49 00 00 00 	lea    0x49(%rip),%rax        # c142 <test_pi+0x40e>
    c0f9:	48 89 c2             	mov    %rax,%rdx
    c0fc:	48 8d 05 5a 00 00 00 	lea    0x5a(%rip),%rax        # c15d <test_pi+0x429>
    c103:	48 89 c1             	mov    %rax,%rcx
    c106:	e8 38 3f ff ff       	call   43 <printf>
    c10b:	48 8d 45 b0          	lea    -0x50(%rbp),%rax
    c10f:	f3 0f 10 0d a0 07 00 	movss  0x7a0(%rip),%xmm1        # c8b7 <test_pi+0xb83>
    c116:	00 
    c117:	48 89 c1             	mov    %rax,%rcx
    c11a:	e8 00 00 00 00       	call   c11f <test_pi+0x3eb>
    c11f:	66 0f 7e c0          	movd   %xmm0,%eax
    c123:	66 0f 6e e0          	movd   %eax,%xmm4
    c127:	0f 2e 25 e8 07 00 00 	ucomiss 0x7e8(%rip),%xmm4        # c916 <test_pi+0xbe2>
    c12e:	7a 0d                	jp     c13d <test_pi+0x409>
    c130:	66 0f 6e e8          	movd   %eax,%xmm5
    c134:	0f 2e 2d e8 07 00 00 	ucomiss 0x7e8(%rip),%xmm5        # c923 <test_pi+0xbef>
    c13b:	74 1f                	je     c15c <test_pi+0x428>
    c13d:	41 b8 a7 05 00 00    	mov    $0x5a7,%r8d
    c143:	48 8d 05 49 00 00 00 	lea    0x49(%rip),%rax        # c193 <test_pi+0x45f>
    c14a:	48 89 c2             	mov    %rax,%rdx
    c14d:	48 8d 05 5a 00 00 00 	lea    0x5a(%rip),%rax        # c1ae <test_pi+0x47a>
    c154:	48 89 c1             	mov    %rax,%rcx
    c157:	e8 e7 3e ff ff       	call   43 <printf>
    c15c:	f3 0f 10 45 f8       	movss  -0x8(%rbp),%xmm0
    c161:	0f 2e 05 b8 07 00 00 	ucomiss 0x7b8(%rip),%xmm0        # c920 <test_pi+0xbec>
    c168:	7a 09                	jp     c173 <test_pi+0x43f>
    c16a:	0f 2e 05 b8 07 00 00 	ucomiss 0x7b8(%rip),%xmm0        # c929 <test_pi+0xbf5>
    c171:	74 1f                	je     c192 <test_pi+0x45e>
    c173:	41 b8 a8 05 00 00    	mov    $0x5a8,%r8d
    c179:	48 8d 05 49 00 00 00 	lea    0x49(%rip),%rax        # c1c9 <test_pi+0x495>
    c180:	48 89 c2             	mov    %rax,%rdx
    c183:	48 8d 05 5a 00 00 00 	lea    0x5a(%rip),%rax        # c1e4 <test_pi+0x4b0>
    c18a:	48 89 c1             	mov    %rax,%rcx
    c18d:	e8 b1 3e ff ff       	call   43 <printf>
    c192:	f3 0f 10 45 fc       	movss  -0x4(%rbp),%xmm0
    c197:	66 0f ef c9          	pxor   %xmm1,%xmm1
    c19b:	0f 2e c1             	ucomiss %xmm1,%xmm0
    c19e:	7a 09                	jp     c1a9 <test_pi+0x475>
    c1a0:	66 0f ef c9          	pxor   %xmm1,%xmm1
    c1a4:	0f 2e c1             	ucomiss %xmm1,%xmm0
    c1a7:	74 1f                	je     c1c8 <test_pi+0x494>
    c1a9:	41 b8 a9 05 00 00    	mov    $0x5a9,%r8d
    c1af:	48 8d 05 49 00 00 00 	lea    0x49(%rip),%rax        # c1ff <test_pi+0x4cb>
    c1b6:	48 89 c2             	mov    %rax,%rdx
    c1b9:	48 8d 05 5a 00 00 00 	lea    0x5a(%rip),%rax        # c21a <test_pi+0x4e6>
    c1c0:	48 89 c1             	mov    %rax,%rcx
    c1c3:	e8 7b 3e ff ff       	call   43 <printf>
    c1c8:	48 8d 45 b0          	lea    -0x50(%rbp),%rax
    c1cc:	66 0f ef c9          	pxor   %xmm1,%xmm1
    c1d0:	48 89 c1             	mov    %rax,%rcx
    c1d3:	e8 00 00 00 00       	call   c1d8 <test_pi+0x4a4>
    c1d8:	66 0f 7e c0          	movd   %xmm0,%eax
    c1dc:	66 0f 6e d0          	movd   %eax,%xmm2
    c1e0:	0f 2e 15 b8 07 00 00 	ucomiss 0x7b8(%rip),%xmm2        # c99f <test_pi+0xc6b>
    c1e7:	7a 0d                	jp     c1f6 <test_pi+0x4c2>
    c1e9:	66 0f 6e d8          	movd   %eax,%xmm3
    c1ed:	0f 2e 1d b8 07 00 00 	ucomiss 0x7b8(%rip),%xmm3        # c9ac <test_pi+0xc78>
    c1f4:	74 1f                	je     c215 <test_pi+0x4e1>
    c1f6:	41 b8 aa 05 00 00    	mov    $0x5aa,%r8d
    c1fc:	48 8d 05 49 00 00 00 	lea    0x49(%rip),%rax        # c24c <test_pi+0x518>
    c203:	48 89 c2             	mov    %rax,%rdx
    c206:	48 8d 05 5a 00 00 00 	lea    0x5a(%rip),%rax        # c267 <test_pi+0x533>
    c20d:	48 89 c1             	mov    %rax,%rcx
    c210:	e8 2e 3e ff ff       	call   43 <printf>
    c215:	f3 0f 10 45 f8       	movss  -0x8(%rbp),%xmm0
    c21a:	0f 2e 05 b8 07 00 00 	ucomiss 0x7b8(%rip),%xmm0        # c9d9 <test_pi+0xca5>
    c221:	7a 09                	jp     c22c <test_pi+0x4f8>
    c223:	0f 2e 05 b8 07 00 00 	ucomiss 0x7b8(%rip),%xmm0        # c9e2 <test_pi+0xcae>
    c22a:	74 1f                	je     c24b <test_pi+0x517>
    c22c:	41 b8 ab 05 00 00    	mov    $0x5ab,%r8d
    c232:	48 8d 05 49 00 00 00 	lea    0x49(%rip),%rax        # c282 <test_pi+0x54e>
    c239:	48 89 c2             	mov    %rax,%rdx
    c23c:	48 8d 05 5a 00 00 00 	lea    0x5a(%rip),%rax        # c29d <test_pi+0x569>
    c243:	48 89 c1             	mov    %rax,%rcx
    c246:	e8 f8 3d ff ff       	call   43 <printf>
    c24b:	f3 0f 10 45 fc       	movss  -0x4(%rbp),%xmm0
    c250:	66 0f ef c9          	pxor   %xmm1,%xmm1
    c254:	0f 2e c1             	ucomiss %xmm1,%xmm0
    c257:	7a 09                	jp     c262 <test_pi+0x52e>
    c259:	66 0f ef c9          	pxor   %xmm1,%xmm1
    c25d:	0f 2e c1             	ucomiss %xmm1,%xmm0
    c260:	74 1f                	je     c281 <test_pi+0x54d>
    c262:	41 b8 ac 05 00 00    	mov    $0x5ac,%r8d
    c268:	48 8d 05 49 00 00 00 	lea    0x49(%rip),%rax        # c2b8 <test_pi+0x584>
    c26f:	48 89 c2             	mov    %rax,%rdx
    c272:	48 8d 05 5a 00 00 00 	lea    0x5a(%rip),%rax        # c2d3 <test_pi+0x59f>
    c279:	48 89 c1             	mov    %rax,%rcx
    c27c:	e8 c2 3d ff ff       	call   43 <printf>
    c281:	48 8d 45 b0          	lea    -0x50(%rbp),%rax
    c285:	f3 0f 10 0d a8 07 00 	movss  0x7a8(%rip),%xmm1        # ca35 <test_pi+0xd01>
    c28c:	00 
    c28d:	48 89 c1             	mov    %rax,%rcx
    c290:	e8 00 00 00 00       	call   c295 <test_pi+0x561>
    c295:	66 0f 7e c0          	movd   %xmm0,%eax
    c299:	f3 0f 10 05 a0 07 00 	movss  0x7a0(%rip),%xmm0        # ca41 <test_pi+0xd0d>
    c2a0:	00 
    c2a1:	66 0f 6e e0          	movd   %eax,%xmm4
    c2a5:	0f 2e e0             	ucomiss %xmm0,%xmm4
    c2a8:	7a 11                	jp     c2bb <test_pi+0x587>
    c2aa:	f3 0f 10 05 a0 07 00 	movss  0x7a0(%rip),%xmm0        # ca52 <test_pi+0xd1e>
    c2b1:	00 
    c2b2:	66 0f 6e e8          	movd   %eax,%xmm5
    c2b6:	0f 2e e8             	ucomiss %xmm0,%xmm5
    c2b9:	74 1f                	je     c2da <test_pi+0x5a6>
    c2bb:	41 b8 ad 05 00 00    	mov    $0x5ad,%r8d
    c2c1:	48 8d 05 49 00 00 00 	lea    0x49(%rip),%rax        # c311 <test_pi+0x5dd>
    c2c8:	48 89 c2             	mov    %rax,%rdx
    c2cb:	48 8d 05 5a 00 00 00 	lea    0x5a(%rip),%rax        # c32c <test_pi+0x5f8>
    c2d2:	48 89 c1             	mov    %rax,%rcx
    c2d5:	e8 69 3d ff ff       	call   43 <printf>
    c2da:	f3 0f 10 45 f8       	movss  -0x8(%rbp),%xmm0
    c2df:	0f 2e 05 9c 07 00 00 	ucomiss 0x79c(%rip),%xmm0        # ca82 <test_pi+0xd4e>
    c2e6:	7a 09                	jp     c2f1 <test_pi+0x5bd>
    c2e8:	0f 2e 05 9c 07 00 00 	ucomiss 0x79c(%rip),%xmm0        # ca8b <test_pi+0xd57>
    c2ef:	74 1f                	je     c310 <test_pi+0x5dc>
    c2f1:	41 b8 ae 05 00 00    	mov    $0x5ae,%r8d
    c2f7:	48 8d 05 49 00 00 00 	lea    0x49(%rip),%rax        # c347 <test_pi+0x613>
    c2fe:	48 89 c2             	mov    %rax,%rdx
    c301:	48 8d 05 5a 00 00 00 	lea    0x5a(%rip),%rax        # c362 <test_pi+0x62e>
    c308:	48 89 c1             	mov    %rax,%rcx
    c30b:	e8 33 3d ff ff       	call   43 <printf>
    c310:	f3 0f 10 45 fc       	movss  -0x4(%rbp),%xmm0
    c315:	66 0f ef c9          	pxor   %xmm1,%xmm1
    c319:	0f 2e c1             	ucomiss %xmm1,%xmm0
    c31c:	7a 09                	jp     c327 <test_pi+0x5f3>
    c31e:	66 0f ef c9          	pxor   %xmm1,%xmm1
    c322:	0f 2e c1             	ucomiss %xmm1,%xmm0
    c325:	74 1f                	je     c346 <test_pi+0x612>
    c327:	41 b8 af 05 00 00    	mov    $0x5af,%r8d
    c32d:	48 8d 05 49 00 00 00 	lea    0x49(%rip),%rax        # c37d <test_pi+0x649>
    c334:	48 89 c2             	mov    %rax,%rdx
    c337:	48 8d 05 5a 00 00 00 	lea    0x5a(%rip),%rax        # c398 <test_pi+0x664>
    c33e:	48 89 c1             	mov    %rax,%rcx
    c341:	e8 fd 3c ff ff       	call   43 <printf>
    c346:	48 8d 45 b0          	lea    -0x50(%rbp),%rax
    c34a:	f3 0f 10 0d a8 07 00 	movss  0x7a8(%rip),%xmm1        # cafa <test_pi+0xdc6>
    c351:	00 
    c352:	48 89 c1             	mov    %rax,%rcx
    c355:	e8 00 00 00 00       	call   c35a <test_pi+0x626>
    c35a:	66 0f 7e c0          	movd   %xmm0,%eax
    c35e:	f3 0f 10 05 a8 07 00 	movss  0x7a8(%rip),%xmm0        # cb0e <test_pi+0xdda>
    c365:	00 
    c366:	66 0f 6e d0          	movd   %eax,%xmm2
    c36a:	0f 2e d0             	ucomiss %xmm0,%xmm2
    c36d:	7a 11                	jp     c380 <test_pi+0x64c>
    c36f:	f3 0f 10 05 a8 07 00 	movss  0x7a8(%rip),%xmm0        # cb1f <test_pi+0xdeb>
    c376:	00 
    c377:	66 0f 6e d8          	movd   %eax,%xmm3
    c37b:	0f 2e d8             	ucomiss %xmm0,%xmm3
    c37e:	74 1f                	je     c39f <test_pi+0x66b>
    c380:	41 b8 b0 05 00 00    	mov    $0x5b0,%r8d
    c386:	48 8d 05 49 00 00 00 	lea    0x49(%rip),%rax        # c3d6 <test_pi+0x6a2>
    c38d:	48 89 c2             	mov    %rax,%rdx
    c390:	48 8d 05 5a 00 00 00 	lea    0x5a(%rip),%rax        # c3f1 <test_pi+0x6bd>
    c397:	48 89 c1             	mov    %rax,%rcx
    c39a:	e8 a4 3c ff ff       	call   43 <printf>
    c39f:	f3 0f 10 45 f8       	movss  -0x8(%rbp),%xmm0
    c3a4:	66 0f ef c9          	pxor   %xmm1,%xmm1
    c3a8:	0f 2e c1             	ucomiss %xmm1,%xmm0
    c3ab:	7a 09                	jp     c3b6 <test_pi+0x682>
    c3ad:	66 0f ef c9          	pxor   %xmm1,%xmm1
    c3b1:	0f 2e c1             	ucomiss %xmm1,%xmm0
    c3b4:	74 1f                	je     c3d5 <test_pi+0x6a1>
    c3b6:	41 b8 b1 05 00 00    	mov    $0x5b1,%r8d
    c3bc:	48 8d 05 49 00 00 00 	lea    0x49(%rip),%rax        # c40c <test_pi+0x6d8>
    c3c3:	48 89 c2             	mov    %rax,%rdx
    c3c6:	48 8d 05 5a 00 00 00 	lea    0x5a(%rip),%rax        # c427 <test_pi+0x6f3>
    c3cd:	48 89 c1             	mov    %rax,%rcx
    c3d0:	e8 6e 3c ff ff       	call   43 <printf>
    c3d5:	f3 0f 10 45 fc       	movss  -0x4(%rbp),%xmm0
    c3da:	66 0f ef c9          	pxor   %xmm1,%xmm1
    c3de:	0f 2e c1             	ucomiss %xmm1,%xmm0
    c3e1:	7a 09                	jp     c3ec <test_pi+0x6b8>
    c3e3:	66 0f ef c9          	pxor   %xmm1,%xmm1
    c3e7:	0f 2e c1             	ucomiss %xmm1,%xmm0
    c3ea:	74 1f                	je     c40b <test_pi+0x6d7>
    c3ec:	41 b8 b2 05 00 00    	mov    $0x5b2,%r8d
    c3f2:	48 8d 05 49 00 00 00 	lea    0x49(%rip),%rax        # c442 <test_pi+0x70e>
    c3f9:	48 89 c2             	mov    %rax,%rdx
    c3fc:	48 8d 05 5a 00 00 00 	lea    0x5a(%rip),%rax        # c45d <test_pi+0x729>
    c403:	48 89 c1             	mov    %rax,%rcx
    c406:	e8 38 3c ff ff       	call   43 <printf>
    c40b:	48 8d 45 b0          	lea    -0x50(%rbp),%rax
    c40f:	f3 0f 10 0d a8 07 00 	movss  0x7a8(%rip),%xmm1        # cbbf <test_pi+0xe8b>
    c416:	00 
    c417:	48 89 c1             	mov    %rax,%rcx
    c41a:	e8 00 00 00 00       	call   c41f <test_pi+0x6eb>
    c41f:	66 0f 7e c0          	movd   %xmm0,%eax
    c423:	66 0f 6e e0          	movd   %eax,%xmm4
    c427:	0f 2e 25 c0 07 00 00 	ucomiss 0x7c0(%rip),%xmm4        # cbee <test_pi+0xeba>
    c42e:	7a 0d                	jp     c43d <test_pi+0x709>
    c430:	66 0f 6e e8          	movd   %eax,%xmm5
    c434:	0f 2e 2d c0 07 00 00 	ucomiss 0x7c0(%rip),%xmm5        # cbfb <test_pi+0xec7>
    c43b:	74 1f                	je     c45c <test_pi+0x728>
    c43d:	41 b8 b3 05 00 00    	mov    $0x5b3,%r8d
    c443:	48 8d 05 49 00 00 00 	lea    0x49(%rip),%rax        # c493 <test_pi+0x75f>
    c44a:	48 89 c2             	mov    %rax,%rdx
    c44d:	48 8d 05 5a 00 00 00 	lea    0x5a(%rip),%rax        # c4ae <test_pi+0x77a>
    c454:	48 89 c1             	mov    %rax,%rcx
    c457:	e8 e7 3b ff ff       	call   43 <printf>
    c45c:	f3 0f 10 45 f8       	movss  -0x8(%rbp),%xmm0
    c461:	0f 2e 05 bc 07 00 00 	ucomiss 0x7bc(%rip),%xmm0        # cc24 <test_pi+0xef0>
    c468:	7a 09                	jp     c473 <test_pi+0x73f>
    c46a:	0f 2e 05 bc 07 00 00 	ucomiss 0x7bc(%rip),%xmm0        # cc2d <test_pi+0xef9>
    c471:	74 1f                	je     c492 <test_pi+0x75e>
    c473:	41 b8 b4 05 00 00    	mov    $0x5b4,%r8d
    c479:	48 8d 05 49 00 00 00 	lea    0x49(%rip),%rax        # c4c9 <test_pi+0x795>
    c480:	48 89 c2             	mov    %rax,%rdx
    c483:	48 8d 05 5a 00 00 00 	lea    0x5a(%rip),%rax        # c4e4 <test_pi+0x7b0>
    c48a:	48 89 c1             	mov    %rax,%rcx
    c48d:	e8 b1 3b ff ff       	call   43 <printf>
    c492:	f3 0f 10 45 fc       	movss  -0x4(%rbp),%xmm0
    c497:	66 0f ef c9          	pxor   %xmm1,%xmm1
    c49b:	0f 2e c1             	ucomiss %xmm1,%xmm0
    c49e:	7a 09                	jp     c4a9 <test_pi+0x775>
    c4a0:	66 0f ef c9          	pxor   %xmm1,%xmm1
    c4a4:	0f 2e c1             	ucomiss %xmm1,%xmm0
    c4a7:	74 1f                	je     c4c8 <test_pi+0x794>
    c4a9:	41 b8 b5 05 00 00    	mov    $0x5b5,%r8d
    c4af:	48 8d 05 49 00 00 00 	lea    0x49(%rip),%rax        # c4ff <test_pi+0x7cb>
    c4b6:	48 89 c2             	mov    %rax,%rdx
    c4b9:	48 8d 05 5a 00 00 00 	lea    0x5a(%rip),%rax        # c51a <test_pi+0x7e6>
    c4c0:	48 89 c1             	mov    %rax,%rcx
    c4c3:	e8 7b 3b ff ff       	call   43 <printf>
    c4c8:	48 8d 45 b0          	lea    -0x50(%rbp),%rax
    c4cc:	f3 0f 10 0d a8 07 00 	movss  0x7a8(%rip),%xmm1        # cc7c <test_bit_read_write+0xf>
    c4d3:	00 
    c4d4:	48 89 c1             	mov    %rax,%rcx
    c4d7:	e8 00 00 00 00       	call   c4dc <test_pi+0x7a8>
    c4dc:	66 0f 7e c0          	movd   %xmm0,%eax
    c4e0:	66 0f 6e d0          	movd   %eax,%xmm2
    c4e4:	0f 2e 15 0c 09 00 00 	ucomiss 0x90c(%rip),%xmm2        # cdf7 <test_bit_read_write+0x18a>
    c4eb:	7a 0d                	jp     c4fa <test_pi+0x7c6>
    c4ed:	66 0f 6e d8          	movd   %eax,%xmm3
    c4f1:	0f 2e 1d 0c 09 00 00 	ucomiss 0x90c(%rip),%xmm3        # ce04 <test_bit_read_write+0x197>
    c4f8:	74 1f                	je     c519 <test_pi+0x7e5>
    c4fa:	41 b8 b6 05 00 00    	mov    $0x5b6,%r8d
    c500:	48 8d 05 49 00 00 00 	lea    0x49(%rip),%rax        # c550 <test_pi+0x81c>
    c507:	48 89 c2             	mov    %rax,%rdx
    c50a:	48 8d 05 5a 00 00 00 	lea    0x5a(%rip),%rax        # c56b <test_pi+0x837>
    c511:	48 89 c1             	mov    %rax,%rcx
    c514:	e8 2a 3b ff ff       	call   43 <printf>
    c519:	f3 0f 10 45 f8       	movss  -0x8(%rbp),%xmm0
    c51e:	0f 2e 05 c4 07 00 00 	ucomiss 0x7c4(%rip),%xmm0        # cce9 <test_bit_read_write+0x7c>
    c525:	7a 09                	jp     c530 <test_pi+0x7fc>
    c527:	0f 2e 05 c4 07 00 00 	ucomiss 0x7c4(%rip),%xmm0        # ccf2 <test_bit_read_write+0x85>
    c52e:	74 1f                	je     c54f <test_pi+0x81b>
    c530:	41 b8 b7 05 00 00    	mov    $0x5b7,%r8d
    c536:	48 8d 05 49 00 00 00 	lea    0x49(%rip),%rax        # c586 <test_pi+0x852>
    c53d:	48 89 c2             	mov    %rax,%rdx
    c540:	48 8d 05 5a 00 00 00 	lea    0x5a(%rip),%rax        # c5a1 <test_pi+0x86d>
    c547:	48 89 c1             	mov    %rax,%rcx
    c54a:	e8 f4 3a ff ff       	call   43 <printf>
    c54f:	f3 0f 10 45 fc       	movss  -0x4(%rbp),%xmm0
    c554:	66 0f ef c9          	pxor   %xmm1,%xmm1
    c558:	0f 2e c1             	ucomiss %xmm1,%xmm0
    c55b:	7a 09                	jp     c566 <test_pi+0x832>
    c55d:	66 0f ef c9          	pxor   %xmm1,%xmm1
    c561:	0f 2e c1             	ucomiss %xmm1,%xmm0
    c564:	74 1f                	je     c585 <test_pi+0x851>
    c566:	41 b8 b8 05 00 00    	mov    $0x5b8,%r8d
    c56c:	48 8d 05 49 00 00 00 	lea    0x49(%rip),%rax        # c5bc <test_pi+0x888>
    c573:	48 89 c2             	mov    %rax,%rdx
    c576:	48 8d 05 5a 00 00 00 	lea    0x5a(%rip),%rax        # c5d7 <test_pi+0x8a3>
    c57d:	48 89 c1             	mov    %rax,%rcx
    c580:	e8 be 3a ff ff       	call   43 <printf>
    c585:	48 8d 45 b0          	lea    -0x50(%rbp),%rax
    c589:	f3 0f 10 0d a8 07 00 	movss  0x7a8(%rip),%xmm1        # cd39 <test_bit_read_write+0xcc>
    c590:	00 
    c591:	48 89 c1             	mov    %rax,%rcx
    c594:	e8 00 00 00 00       	call   c599 <test_pi+0x865>
    c599:	66 0f 7e c0          	movd   %xmm0,%eax
    c59d:	66 0f 6e e0          	movd   %eax,%xmm4
    c5a1:	0f 2e 25 0c 09 00 00 	ucomiss 0x90c(%rip),%xmm4        # ceb4 <test_bit_read_write+0x247>
    c5a8:	7a 0d                	jp     c5b7 <test_pi+0x883>
    c5aa:	66 0f 6e e8          	movd   %eax,%xmm5
    c5ae:	0f 2e 2d 0c 09 00 00 	ucomiss 0x90c(%rip),%xmm5        # cec1 <test_bit_read_write+0x254>
    c5b5:	74 1f                	je     c5d6 <test_pi+0x8a2>
    c5b7:	41 b8 b9 05 00 00    	mov    $0x5b9,%r8d
    c5bd:	48 8d 05 49 00 00 00 	lea    0x49(%rip),%rax        # c60d <test_pi+0x8d9>
    c5c4:	48 89 c2             	mov    %rax,%rdx
    c5c7:	48 8d 05 5a 00 00 00 	lea    0x5a(%rip),%rax        # c628 <test_pi+0x8f4>
    c5ce:	48 89 c1             	mov    %rax,%rcx
    c5d1:	e8 6d 3a ff ff       	call   43 <printf>
    c5d6:	f3 0f 10 45 f8       	movss  -0x8(%rbp),%xmm0
    c5db:	0f 2e 05 10 09 00 00 	ucomiss 0x910(%rip),%xmm0        # cef2 <test_bit_read_write+0x285>
    c5e2:	7a 09                	jp     c5ed <test_pi+0x8b9>
    c5e4:	0f 2e 05 10 09 00 00 	ucomiss 0x910(%rip),%xmm0        # cefb <test_bit_read_write+0x28e>
    c5eb:	74 1f                	je     c60c <test_pi+0x8d8>
    c5ed:	41 b8 ba 05 00 00    	mov    $0x5ba,%r8d
    c5f3:	48 8d 05 49 00 00 00 	lea    0x49(%rip),%rax        # c643 <test_pi+0x90f>
    c5fa:	48 89 c2             	mov    %rax,%rdx
    c5fd:	48 8d 05 5a 00 00 00 	lea    0x5a(%rip),%rax        # c65e <test_pi+0x92a>
    c604:	48 89 c1             	mov    %rax,%rcx
    c607:	e8 37 3a ff ff       	call   43 <printf>
    c60c:	f3 0f 10 45 fc       	movss  -0x4(%rbp),%xmm0
    c611:	0f 2e 05 9c 07 00 00 	ucomiss 0x79c(%rip),%xmm0        # cdb4 <test_bit_read_write+0x147>
    c618:	7a 09                	jp     c623 <test_pi+0x8ef>
    c61a:	0f 2e 05 9c 07 00 00 	ucomiss 0x79c(%rip),%xmm0        # cdbd <test_bit_read_write+0x150>
    c621:	74 1f                	je     c642 <test_pi+0x90e>
    c623:	41 b8 bb 05 00 00    	mov    $0x5bb,%r8d
    c629:	48 8d 05 49 00 00 00 	lea    0x49(%rip),%rax        # c679 <test_pi+0x945>
    c630:	48 89 c2             	mov    %rax,%rdx
    c633:	48 8d 05 5a 00 00 00 	lea    0x5a(%rip),%rax        # c694 <test_pi+0x960>
    c63a:	48 89 c1             	mov    %rax,%rcx
    c63d:	e8 01 3a ff ff       	call   43 <printf>
    c642:	48 c7 45 a8 00 00 00 	movq   $0x0,-0x58(%rbp)
    c649:	00 
    c64a:	66 c7 45 9c 02 00    	movw   $0x2,-0x64(%rbp)
    c650:	66 c7 45 9e 03 00    	movw   $0x3,-0x62(%rbp)
    c656:	f3 0f 10 05 78 08 00 	movss  0x878(%rip),%xmm0        # ced6 <test_bit_read_write+0x269>
    c65d:	00 
    c65e:	f3 0f 11 45 a0       	movss  %xmm0,-0x60(%rbp)
    c663:	f3 0f 10 05 08 09 00 	movss  0x908(%rip),%xmm0        # cf73 <test_bit_read_write+0x306>
    c66a:	00 
    c66b:	f3 0f 11 45 a4       	movss  %xmm0,-0x5c(%rbp)
    c670:	f3 0f 10 05 a0 07 00 	movss  0x7a0(%rip),%xmm0        # ce18 <test_bit_read_write+0x1ab>
    c677:	00 
    c678:	f3 0f 11 85 50 ff ff 	movss  %xmm0,-0xb0(%rbp)
    c67f:	ff 
    c680:	f3 0f 10 05 9c 07 00 	movss  0x79c(%rip),%xmm0        # ce24 <test_bit_read_write+0x1b7>
    c687:	00 
    c688:	f3 0f 11 85 54 ff ff 	movss  %xmm0,-0xac(%rbp)
    c68f:	ff 
    c690:	f3 0f 10 05 9c 07 00 	movss  0x79c(%rip),%xmm0        # ce34 <test_bit_read_write+0x1c7>
    c697:	00 
    c698:	f3 0f 11 85 58 ff ff 	movss  %xmm0,-0xa8(%rbp)
    c69f:	ff 
    c6a0:	f3 0f 10 05 a0 07 00 	movss  0x7a0(%rip),%xmm0        # ce48 <test_bit_read_write+0x1db>
    c6a7:	00 
    c6a8:	f3 0f 11 85 5c ff ff 	movss  %xmm0,-0xa4(%rbp)
    c6af:	ff 
    c6b0:	f3 0f 10 05 a4 07 00 	movss  0x7a4(%rip),%xmm0        # ce5c <test_bit_read_write+0x1ef>
    c6b7:	00 
    c6b8:	f3 0f 11 85 60 ff ff 	movss  %xmm0,-0xa0(%rbp)
    c6bf:	ff 
    c6c0:	f3 0f 10 05 d0 07 00 	movss  0x7d0(%rip),%xmm0        # ce98 <test_bit_read_write+0x22b>
    c6c7:	00 
    c6c8:	f3 0f 11 85 64 ff ff 	movss  %xmm0,-0x9c(%rbp)
    c6cf:	ff 
    c6d0:	f3 0f 10 05 d0 07 00 	movss  0x7d0(%rip),%xmm0        # cea8 <test_bit_read_write+0x23b>
    c6d7:	00 
    c6d8:	f3 0f 11 85 68 ff ff 	movss  %xmm0,-0x98(%rbp)
    c6df:	ff 
    c6e0:	f3 0f 10 05 a0 07 00 	movss  0x7a0(%rip),%xmm0        # ce88 <test_bit_read_write+0x21b>
    c6e7:	00 
    c6e8:	f3 0f 11 85 6c ff ff 	movss  %xmm0,-0x94(%rbp)
    c6ef:	ff 
    c6f0:	f3 0f 10 05 9c 07 00 	movss  0x79c(%rip),%xmm0        # ce94 <test_bit_read_write+0x227>
    c6f7:	00 
    c6f8:	f3 0f 11 85 70 ff ff 	movss  %xmm0,-0x90(%rbp)
    c6ff:	ff 
    c700:	f3 0f 10 05 a0 07 00 	movss  0x7a0(%rip),%xmm0        # cea8 <test_bit_read_write+0x23b>
    c707:	00 
    c708:	f3 0f 11 85 74 ff ff 	movss  %xmm0,-0x8c(%rbp)
    c70f:	ff 
    c710:	f3 0f 10 05 9c 07 00 	movss  0x79c(%rip),%xmm0        # ceb4 <test_bit_read_write+0x247>
    c717:	00 
    c718:	f3 0f 11 85 78 ff ff 	movss  %xmm0,-0x88(%rbp)
    c71f:	ff 
    c720:	f3 0f 10 05 a0 07 00 	movss  0x7a0(%rip),%xmm0        # cec8 <test_bit_read_write+0x25b>
    c727:	00 
    c728:	f3 0f 11 85 7c ff ff 	movss  %xmm0,-0x84(%rbp)
    c72f:	ff 
    c730:	f3 0f 10 05 d0 07 00 	movss  0x7d0(%rip),%xmm0        # cf08 <test_bit_read_write+0x29b>
    c737:	00 
    c738:	f3 0f 11 45 80       	movss  %xmm0,-0x80(%rbp)
    c73d:	f3 0f 10 05 a4 07 00 	movss  0x7a4(%rip),%xmm0        # cee9 <test_bit_read_write+0x27c>
    c744:	00 
    c745:	f3 0f 11 45 84       	movss  %xmm0,-0x7c(%rbp)
    c74a:	f3 0f 10 05 d0 07 00 	movss  0x7d0(%rip),%xmm0        # cf22 <test_bit_read_write+0x2b5>
    c751:	00 
    c752:	f3 0f 11 45 88       	movss  %xmm0,-0x78(%rbp)
    c757:	f3 0f 10 05 a0 07 00 	movss  0x7a0(%rip),%xmm0        # ceff <test_bit_read_write+0x292>
    c75e:	00 
    c75f:	f3 0f 11 45 8c       	movss  %xmm0,-0x74(%rbp)
    c764:	48 8d 85 50 ff ff ff 	lea    -0xb0(%rbp),%rax
    c76b:	48 89 85 30 ff ff ff 	mov    %rax,-0xd0(%rbp)
    c772:	66 c7 85 38 ff ff ff 	movw   $0x2,-0xc8(%rbp)
    c779:	02 00 
    c77b:	48 8d 45 9c          	lea    -0x64(%rbp),%rax
    c77f:	48 89 85 40 ff ff ff 	mov    %rax,-0xc0(%rbp)
    c786:	f3 0f 10 05 ac 07 00 	movss  0x7ac(%rip),%xmm0        # cf3a <test_bit_read_write+0x2cd>
    c78d:	00 
    c78e:	f3 0f 11 85 48 ff ff 	movss  %xmm0,-0xb8(%rbp)
    c795:	ff 
    c796:	f3 0f 10 05 3c 08 00 	movss  0x83c(%rip),%xmm0        # cfda <test_bit_read_write+0x36d>
    c79d:	00 
    c79e:	f3 0f 11 85 4c ff ff 	movss  %xmm0,-0xb4(%rbp)
    c7a5:	ff 
    c7a6:	48 8d 85 30 ff ff ff 	lea    -0xd0(%rbp),%rax
    c7ad:	48 89 c1             	mov    %rax,%rcx
    c7b0:	e8 00 00 00 00       	call   c7b5 <test_pi+0xa81>
    c7b5:	0f b7 45 9c          	movzwl -0x64(%rbp),%eax
    c7b9:	66 85 c0             	test   %ax,%ax
    c7bc:	74 1f                	je     c7dd <test_pi+0xaa9>
    c7be:	41 b8 ca 05 00 00    	mov    $0x5ca,%r8d
    c7c4:	48 8d 05 49 00 00 00 	lea    0x49(%rip),%rax        # c814 <test_pi+0xae0>
    c7cb:	48 89 c2             	mov    %rax,%rdx
    c7ce:	48 8d 05 5a 00 00 00 	lea    0x5a(%rip),%rax        # c82f <test_pi+0xafb>
    c7d5:	48 89 c1             	mov    %rax,%rcx
    c7d8:	e8 66 38 ff ff       	call   43 <printf>
    c7dd:	0f b7 45 9e          	movzwl -0x62(%rbp),%eax
    c7e1:	66 85 c0             	test   %ax,%ax
    c7e4:	74 1f                	je     c805 <test_pi+0xad1>
    c7e6:	41 b8 cb 05 00 00    	mov    $0x5cb,%r8d
    c7ec:	48 8d 05 49 00 00 00 	lea    0x49(%rip),%rax        # c83c <test_pi+0xb08>
    c7f3:	48 89 c2             	mov    %rax,%rdx
    c7f6:	48 8d 05 5a 00 00 00 	lea    0x5a(%rip),%rax        # c857 <test_pi+0xb23>
    c7fd:	48 89 c1             	mov    %rax,%rcx
    c800:	e8 3e 38 ff ff       	call   43 <printf>
    c805:	f3 0f 10 45 a0       	movss  -0x60(%rbp),%xmm0
    c80a:	66 0f ef c9          	pxor   %xmm1,%xmm1
    c80e:	0f 2e c1             	ucomiss %xmm1,%xmm0
    c811:	7a 09                	jp     c81c <test_pi+0xae8>
    c813:	66 0f ef c9          	pxor   %xmm1,%xmm1
    c817:	0f 2e c1             	ucomiss %xmm1,%xmm0
    c81a:	74 1f                	je     c83b <test_pi+0xb07>
    c81c:	41 b8 cc 05 00 00    	mov    $0x5cc,%r8d
    c822:	48 8d 05 49 00 00 00 	lea    0x49(%rip),%rax        # c872 <test_pi+0xb3e>
    c829:	48 89 c2             	mov    %rax,%rdx
    c82c:	48 8d 05 5a 00 00 00 	lea    0x5a(%rip),%rax        # c88d <test_pi+0xb59>
    c833:	48 89 c1             	mov    %rax,%rcx
    c836:	e8 08 38 ff ff       	call   43 <printf>
    c83b:	f3 0f 10 45 a4       	movss  -0x5c(%rbp),%xmm0
    c840:	66 0f ef c9          	pxor   %xmm1,%xmm1
    c844:	0f 2e c1             	ucomiss %xmm1,%xmm0
    c847:	7a 09                	jp     c852 <test_pi+0xb1e>
    c849:	66 0f ef c9          	pxor   %xmm1,%xmm1
    c84d:	0f 2e c1             	ucomiss %xmm1,%xmm0
    c850:	74 1f                	je     c871 <test_pi+0xb3d>
    c852:	41 b8 cd 05 00 00    	mov    $0x5cd,%r8d
    c858:	48 8d 05 49 00 00 00 	lea    0x49(%rip),%rax        # c8a8 <test_pi+0xb74>
    c85f:	48 89 c2             	mov    %rax,%rdx
    c862:	48 8d 05 5a 00 00 00 	lea    0x5a(%rip),%rax        # c8c3 <test_pi+0xb8f>
    c869:	48 89 c1             	mov    %rax,%rcx
    c86c:	e8 d2 37 ff ff       	call   43 <printf>
    c871:	66 0f ef c0          	pxor   %xmm0,%xmm0
    c875:	f3 0f 11 45 a8       	movss  %xmm0,-0x58(%rbp)
    c87a:	66 0f ef c0          	pxor   %xmm0,%xmm0
    c87e:	f3 0f 11 45 ac       	movss  %xmm0,-0x54(%rbp)
    c883:	48 8d 55 a8          	lea    -0x58(%rbp),%rdx
    c887:	48 8d 85 30 ff ff ff 	lea    -0xd0(%rbp),%rax
    c88e:	48 89 c1             	mov    %rax,%rcx
    c891:	e8 00 00 00 00       	call   c896 <test_pi+0xb62>
    c896:	66 0f 7e c0          	movd   %xmm0,%eax
    c89a:	66 0f ef c0          	pxor   %xmm0,%xmm0
    c89e:	66 0f 6e d0          	movd   %eax,%xmm2
    c8a2:	0f 2e d0             	ucomiss %xmm0,%xmm2
    c8a5:	7a 0d                	jp     c8b4 <test_pi+0xb80>
    c8a7:	66 0f ef c0          	pxor   %xmm0,%xmm0
    c8ab:	66 0f 6e d8          	movd   %eax,%xmm3
    c8af:	0f 2e d8             	ucomiss %xmm0,%xmm3
    c8b2:	74 1f                	je     c8d3 <test_pi+0xb9f>
    c8b4:	41 b8 d0 05 00 00    	mov    $0x5d0,%r8d
    c8ba:	48 8d 05 49 00 00 00 	lea    0x49(%rip),%rax        # c90a <test_pi+0xbd6>
    c8c1:	48 89 c2             	mov    %rax,%rdx
    c8c4:	48 8d 05 5a 00 00 00 	lea    0x5a(%rip),%rax        # c925 <test_pi+0xbf1>
    c8cb:	48 89 c1             	mov    %rax,%rcx
    c8ce:	e8 70 37 ff ff       	call   43 <printf>
    c8d3:	0f b7 45 9c          	movzwl -0x64(%rbp),%eax
    c8d7:	66 85 c0             	test   %ax,%ax
    c8da:	74 1f                	je     c8fb <test_pi+0xbc7>
    c8dc:	41 b8 d1 05 00 00    	mov    $0x5d1,%r8d
    c8e2:	48 8d 05 49 00 00 00 	lea    0x49(%rip),%rax        # c932 <test_pi+0xbfe>
    c8e9:	48 89 c2             	mov    %rax,%rdx
    c8ec:	48 8d 05 5a 00 00 00 	lea    0x5a(%rip),%rax        # c94d <test_pi+0xc19>
    c8f3:	48 89 c1             	mov    %rax,%rcx
    c8f6:	e8 48 37 ff ff       	call   43 <printf>
    c8fb:	f3 0f 10 45 a0       	movss  -0x60(%rbp),%xmm0
    c900:	66 0f ef c9          	pxor   %xmm1,%xmm1
    c904:	0f 2e c1             	ucomiss %xmm1,%xmm0
    c907:	7a 09                	jp     c912 <test_pi+0xbde>
    c909:	66 0f ef c9          	pxor   %xmm1,%xmm1
    c90d:	0f 2e c1             	ucomiss %xmm1,%xmm0
    c910:	74 1f                	je     c931 <test_pi+0xbfd>
    c912:	41 b8 d2 05 00 00    	mov    $0x5d2,%r8d
    c918:	48 8d 05 49 00 00 00 	lea    0x49(%rip),%rax        # c968 <test_pi+0xc34>
    c91f:	48 89 c2             	mov    %rax,%rdx
    c922:	48 8d 05 5a 00 00 00 	lea    0x5a(%rip),%rax        # c983 <test_pi+0xc4f>
    c929:	48 89 c1             	mov    %rax,%rcx
    c92c:	e8 12 37 ff ff       	call   43 <printf>
    c931:	f3 0f 10 45 a4       	movss  -0x5c(%rbp),%xmm0
    c936:	66 0f ef c9          	pxor   %xmm1,%xmm1
    c93a:	0f 2e c1             	ucomiss %xmm1,%xmm0
    c93d:	7a 09                	jp     c948 <test_pi+0xc14>
    c93f:	66 0f ef c9          	pxor   %xmm1,%xmm1
    c943:	0f 2e c1             	ucomiss %xmm1,%xmm0
    c946:	74 1f                	je     c967 <test_pi+0xc33>
    c948:	41 b8 d3 05 00 00    	mov    $0x5d3,%r8d
    c94e:	48 8d 05 49 00 00 00 	lea    0x49(%rip),%rax        # c99e <test_pi+0xc6a>
    c955:	48 89 c2             	mov    %rax,%rdx
    c958:	48 8d 05 5a 00 00 00 	lea    0x5a(%rip),%rax        # c9b9 <test_pi+0xc85>
    c95f:	48 89 c1             	mov    %rax,%rcx
    c962:	e8 dc 36 ff ff       	call   43 <printf>
    c967:	f3 0f 10 05 a0 07 00 	movss  0x7a0(%rip),%xmm0        # d10f <test_signal_read_write+0x44>
    c96e:	00 
    c96f:	f3 0f 11 45 a8       	movss  %xmm0,-0x58(%rbp)
    c974:	f3 0f 10 05 9c 07 00 	movss  0x79c(%rip),%xmm0        # d118 <test_signal_read_write+0x4d>
    c97b:	00 
    c97c:	f3 0f 11 45 ac       	movss  %xmm0,-0x54(%rbp)
    c981:	48 8d 55 a8          	lea    -0x58(%rbp),%rdx
    c985:	48 8d 85 30 ff ff ff 	lea    -0xd0(%rbp),%rax
    c98c:	48 89 c1             	mov    %rax,%rcx
    c98f:	e8 00 00 00 00       	call   c994 <test_pi+0xc60>
    c994:	66 0f 7e c0          	movd   %xmm0,%eax
    c998:	66 0f 6e e0          	movd   %eax,%xmm4
    c99c:	0f 2e 25 b4 07 00 00 	ucomiss 0x7b4(%rip),%xmm4        # d157 <test_signal_read_write+0x8c>
    c9a3:	7a 0d                	jp     c9b2 <test_pi+0xc7e>
    c9a5:	66 0f 6e e8          	movd   %eax,%xmm5
    c9a9:	0f 2e 2d b4 07 00 00 	ucomiss 0x7b4(%rip),%xmm5        # d164 <test_signal_read_write+0x99>
    c9b0:	74 1f                	je     c9d1 <test_pi+0xc9d>
    c9b2:	41 b8 d6 05 00 00    	mov    $0x5d6,%r8d
    c9b8:	48 8d 05 49 00 00 00 	lea    0x49(%rip),%rax        # ca08 <test_pi+0xcd4>
    c9bf:	48 89 c2             	mov    %rax,%rdx
    c9c2:	48 8d 05 5a 00 00 00 	lea    0x5a(%rip),%rax        # ca23 <test_pi+0xcef>
    c9c9:	48 89 c1             	mov    %rax,%rcx
    c9cc:	e8 72 36 ff ff       	call   43 <printf>
    c9d1:	0f b7 45 9c          	movzwl -0x64(%rbp),%eax
    c9d5:	66 85 c0             	test   %ax,%ax
    c9d8:	74 1f                	je     c9f9 <test_pi+0xcc5>
    c9da:	41 b8 d7 05 00 00    	mov    $0x5d7,%r8d
    c9e0:	48 8d 05 49 00 00 00 	lea    0x49(%rip),%rax        # ca30 <test_pi+0xcfc>
    c9e7:	48 89 c2             	mov    %rax,%rdx
    c9ea:	48 8d 05 5a 00 00 00 	lea    0x5a(%rip),%rax        # ca4b <test_pi+0xd17>
    c9f1:	48 89 c1             	mov    %rax,%rcx
    c9f4:	e8 4a 36 ff ff       	call   43 <printf>
    c9f9:	f3 0f 10 45 a0       	movss  -0x60(%rbp),%xmm0
    c9fe:	0f 2e 05 9c 07 00 00 	ucomiss 0x79c(%rip),%xmm0        # d1a1 <test_signal_read_write+0xd6>
    ca05:	7a 09                	jp     ca10 <test_pi+0xcdc>
    ca07:	0f 2e 05 9c 07 00 00 	ucomiss 0x79c(%rip),%xmm0        # d1aa <test_signal_read_write+0xdf>
    ca0e:	74 1f                	je     ca2f <test_pi+0xcfb>
    ca10:	41 b8 d8 05 00 00    	mov    $0x5d8,%r8d
    ca16:	48 8d 05 49 00 00 00 	lea    0x49(%rip),%rax        # ca66 <test_pi+0xd32>
    ca1d:	48 89 c2             	mov    %rax,%rdx
    ca20:	48 8d 05 5a 00 00 00 	lea    0x5a(%rip),%rax        # ca81 <test_pi+0xd4d>
    ca27:	48 89 c1             	mov    %rax,%rcx
    ca2a:	e8 14 36 ff ff       	call   43 <printf>
    ca2f:	f3 0f 10 45 a4       	movss  -0x5c(%rbp),%xmm0
    ca34:	66 0f ef c9          	pxor   %xmm1,%xmm1
    ca38:	0f 2e c1             	ucomiss %xmm1,%xmm0
    ca3b:	7a 09                	jp     ca46 <test_pi+0xd12>
    ca3d:	66 0f ef c9          	pxor   %xmm1,%xmm1
    ca41:	0f 2e c1             	ucomiss %xmm1,%xmm0
    ca44:	74 1f                	je     ca65 <test_pi+0xd31>
    ca46:	41 b8 d9 05 00 00    	mov    $0x5d9,%r8d
    ca4c:	48 8d 05 49 00 00 00 	lea    0x49(%rip),%rax        # ca9c <test_pi+0xd68>
    ca53:	48 89 c2             	mov    %rax,%rdx
    ca56:	48 8d 05 5a 00 00 00 	lea    0x5a(%rip),%rax        # cab7 <test_pi+0xd83>
    ca5d:	48 89 c1             	mov    %rax,%rcx
    ca60:	e8 de 35 ff ff       	call   43 <printf>
    ca65:	f3 0f 10 05 9c 07 00 	movss  0x79c(%rip),%xmm0        # d209 <test_signal_read_write+0x13e>
    ca6c:	00 
    ca6d:	f3 0f 11 45 a8       	movss  %xmm0,-0x58(%rbp)
    ca72:	f3 0f 10 05 a0 07 00 	movss  0x7a0(%rip),%xmm0        # d21a <test_signal_read_write+0x14f>
    ca79:	00 
    ca7a:	f3 0f 11 45 ac       	movss  %xmm0,-0x54(%rbp)
    ca7f:	48 8d 55 a8          	lea    -0x58(%rbp),%rdx
    ca83:	48 8d 85 30 ff ff ff 	lea    -0xd0(%rbp),%rax
    ca8a:	48 89 c1             	mov    %rax,%rcx
    ca8d:	e8 00 00 00 00       	call   ca92 <test_pi+0xd5e>
    ca92:	66 0f 7e c0          	movd   %xmm0,%eax
    ca96:	66 0f 6e d0          	movd   %eax,%xmm2
    ca9a:	0f 2e 15 ec 07 00 00 	ucomiss 0x7ec(%rip),%xmm2        # d28d <test_signal_read_write+0x1c2>
    caa1:	7a 0d                	jp     cab0 <test_pi+0xd7c>
    caa3:	66 0f 6e d8          	movd   %eax,%xmm3
    caa7:	0f 2e 1d ec 07 00 00 	ucomiss 0x7ec(%rip),%xmm3        # d29a <test_signal_read_write+0x1cf>
    caae:	74 1f                	je     cacf <test_pi+0xd9b>
    cab0:	41 b8 dc 05 00 00    	mov    $0x5dc,%r8d
    cab6:	48 8d 05 49 00 00 00 	lea    0x49(%rip),%rax        # cb06 <test_pi+0xdd2>
    cabd:	48 89 c2             	mov    %rax,%rdx
    cac0:	48 8d 05 5a 00 00 00 	lea    0x5a(%rip),%rax        # cb21 <test_pi+0xded>
    cac7:	48 89 c1             	mov    %rax,%rcx
    caca:	e8 74 35 ff ff       	call   43 <printf>
    cacf:	0f b7 45 9c          	movzwl -0x64(%rbp),%eax
    cad3:	66 83 f8 01          	cmp    $0x1,%ax
    cad7:	74 1f                	je     caf8 <test_pi+0xdc4>
    cad9:	41 b8 dd 05 00 00    	mov    $0x5dd,%r8d
    cadf:	48 8d 05 49 00 00 00 	lea    0x49(%rip),%rax        # cb2f <test_pi+0xdfb>
    cae6:	48 89 c2             	mov    %rax,%rdx
    cae9:	48 8d 05 5a 00 00 00 	lea    0x5a(%rip),%rax        # cb4a <test_pi+0xe16>
    caf0:	48 89 c1             	mov    %rax,%rcx
    caf3:	e8 4b 35 ff ff       	call   43 <printf>
    caf8:	f3 0f 10 45 a0       	movss  -0x60(%rbp),%xmm0
    cafd:	0f 2e 05 d8 07 00 00 	ucomiss 0x7d8(%rip),%xmm0        # d2dc <test_signal_read_write+0x211>
    cb04:	7a 09                	jp     cb0f <test_pi+0xddb>
    cb06:	0f 2e 05 d8 07 00 00 	ucomiss 0x7d8(%rip),%xmm0        # d2e5 <test_signal_read_write+0x21a>
    cb0d:	74 1f                	je     cb2e <test_pi+0xdfa>
    cb0f:	41 b8 de 05 00 00    	mov    $0x5de,%r8d
    cb15:	48 8d 05 49 00 00 00 	lea    0x49(%rip),%rax        # cb65 <test_pi+0xe31>
    cb1c:	48 89 c2             	mov    %rax,%rdx
    cb1f:	48 8d 05 5a 00 00 00 	lea    0x5a(%rip),%rax        # cb80 <test_pi+0xe4c>
    cb26:	48 89 c1             	mov    %rax,%rcx
    cb29:	e8 15 35 ff ff       	call   43 <printf>
    cb2e:	f3 0f 10 45 a4       	movss  -0x5c(%rbp),%xmm0
    cb33:	66 0f ef c9          	pxor   %xmm1,%xmm1
    cb37:	0f 2e c1             	ucomiss %xmm1,%xmm0
    cb3a:	7a 09                	jp     cb45 <test_pi+0xe11>
    cb3c:	66 0f ef c9          	pxor   %xmm1,%xmm1
    cb40:	0f 2e c1             	ucomiss %xmm1,%xmm0
    cb43:	74 1f                	je     cb64 <test_pi+0xe30>
    cb45:	41 b8 df 05 00 00    	mov    $0x5df,%r8d
    cb4b:	48 8d 05 49 00 00 00 	lea    0x49(%rip),%rax        # cb9b <test_pi+0xe67>
    cb52:	48 89 c2             	mov    %rax,%rdx
    cb55:	48 8d 05 5a 00 00 00 	lea    0x5a(%rip),%rax        # cbb6 <test_pi+0xe82>
    cb5c:	48 89 c1             	mov    %rax,%rcx
    cb5f:	e8 df 34 ff ff       	call   43 <printf>
    cb64:	f3 0f 10 05 9c 07 00 	movss  0x79c(%rip),%xmm0        # d308 <test_signal_read_write+0x23d>
    cb6b:	00 
    cb6c:	f3 0f 11 45 a8       	movss  %xmm0,-0x58(%rbp)
    cb71:	f3 0f 10 05 a8 07 00 	movss  0x7a8(%rip),%xmm0        # d321 <test_signal_read_write+0x256>
    cb78:	00 
    cb79:	f3 0f 11 45 ac       	movss  %xmm0,-0x54(%rbp)
    cb7e:	48 8d 55 a8          	lea    -0x58(%rbp),%rdx
    cb82:	48 8d 85 30 ff ff ff 	lea    -0xd0(%rbp),%rax
    cb89:	48 89 c1             	mov    %rax,%rcx
    cb8c:	e8 00 00 00 00       	call   cb91 <test_pi+0xe5d>
    cb91:	66 0f 7e c0          	movd   %xmm0,%eax
    cb95:	66 0f 6e e0          	movd   %eax,%xmm4
    cb99:	0f 2e 25 cc 07 00 00 	ucomiss 0x7cc(%rip),%xmm4        # d36c <test_signal_read_write+0x2a1>
    cba0:	7a 0d                	jp     cbaf <test_pi+0xe7b>
    cba2:	66 0f 6e e8          	movd   %eax,%xmm5
    cba6:	0f 2e 2d cc 07 00 00 	ucomiss 0x7cc(%rip),%xmm5        # d379 <test_fault+0x9>
    cbad:	74 1f                	je     cbce <test_pi+0xe9a>
    cbaf:	41 b8 e2 05 00 00    	mov    $0x5e2,%r8d
    cbb5:	48 8d 05 49 00 00 00 	lea    0x49(%rip),%rax        # cc05 <test_pi+0xed1>
    cbbc:	48 89 c2             	mov    %rax,%rdx
    cbbf:	48 8d 05 5a 00 00 00 	lea    0x5a(%rip),%rax        # cc20 <test_pi+0xeec>
    cbc6:	48 89 c1             	mov    %rax,%rcx
    cbc9:	e8 75 34 ff ff       	call   43 <printf>
    cbce:	0f b7 45 9c          	movzwl -0x64(%rbp),%eax
    cbd2:	66 83 f8 01          	cmp    $0x1,%ax
    cbd6:	74 1f                	je     cbf7 <test_pi+0xec3>
    cbd8:	41 b8 e3 05 00 00    	mov    $0x5e3,%r8d
    cbde:	48 8d 05 49 00 00 00 	lea    0x49(%rip),%rax        # cc2e <test_pi+0xefa>
    cbe5:	48 89 c2             	mov    %rax,%rdx
    cbe8:	48 8d 05 5a 00 00 00 	lea    0x5a(%rip),%rax        # cc49 <test_pi+0xf15>
    cbef:	48 89 c1             	mov    %rax,%rcx
    cbf2:	e8 4c 34 ff ff       	call   43 <printf>
    cbf7:	f3 0f 10 45 a0       	movss  -0x60(%rbp),%xmm0
    cbfc:	0f 2e 05 9c 07 00 00 	ucomiss 0x79c(%rip),%xmm0        # d39f <test_fault+0x2f>
    cc03:	7a 09                	jp     cc0e <test_pi+0xeda>
    cc05:	0f 2e 05 9c 07 00 00 	ucomiss 0x79c(%rip),%xmm0        # d3a8 <test_fault+0x38>
    cc0c:	74 1f                	je     cc2d <test_pi+0xef9>
    cc0e:	41 b8 e4 05 00 00    	mov    $0x5e4,%r8d
    cc14:	48 8d 05 49 00 00 00 	lea    0x49(%rip),%rax        # cc64 <test_pi+0xf30>
    cc1b:	48 89 c2             	mov    %rax,%rdx
    cc1e:	48 8d 05 5a 00 00 00 	lea    0x5a(%rip),%rax        # cc7f <test_bit_read_write+0x12>
    cc25:	48 89 c1             	mov    %rax,%rcx
    cc28:	e8 16 34 ff ff       	call   43 <printf>
    cc2d:	f3 0f 10 45 a4       	movss  -0x5c(%rbp),%xmm0
    cc32:	66 0f ef c9          	pxor   %xmm1,%xmm1
    cc36:	0f 2e c1             	ucomiss %xmm1,%xmm0
    cc39:	7a 09                	jp     cc44 <test_pi+0xf10>
    cc3b:	66 0f ef c9          	pxor   %xmm1,%xmm1
    cc3f:	0f 2e c1             	ucomiss %xmm1,%xmm0
    cc42:	74 1f                	je     cc63 <test_pi+0xf2f>
    cc44:	41 b8 e5 05 00 00    	mov    $0x5e5,%r8d
    cc4a:	48 8d 05 49 00 00 00 	lea    0x49(%rip),%rax        # cc9a <test_bit_read_write+0x2d>
    cc51:	48 89 c2             	mov    %rax,%rdx
    cc54:	48 8d 05 5a 00 00 00 	lea    0x5a(%rip),%rax        # ccb5 <test_bit_read_write+0x48>
    cc5b:	48 89 c1             	mov    %rax,%rcx
    cc5e:	e8 e0 33 ff ff       	call   43 <printf>
    cc63:	90                   	nop
    cc64:	48 81 c4 f0 00 00 00 	add    $0xf0,%rsp
    cc6b:	5d                   	pop    %rbp
    cc6c:	c3                   	ret

000000000000cc6d <test_bit_read_write>:
    cc6d:	55                   	push   %rbp
    cc6e:	48 89 e5             	mov    %rsp,%rbp
    cc71:	48 83 ec 30          	sub    $0x30,%rsp
    cc75:	48 8d 05 c8 06 00 00 	lea    0x6c8(%rip),%rax        # d344 <test_signal_read_write+0x279>
    cc7c:	48 89 c1             	mov    %rax,%rcx
    cc7f:	e8 bf 33 ff ff       	call   43 <printf>
    cc84:	66 c7 45 fe 00 00    	movw   $0x0,-0x2(%rbp)
    cc8a:	c7 45 f8 00 00 00 00 	movl   $0x0,-0x8(%rbp)
    cc91:	48 8d 45 fe          	lea    -0x2(%rbp),%rax
    cc95:	41 b8 01 00 00 00    	mov    $0x1,%r8d
    cc9b:	ba 04 00 00 00       	mov    $0x4,%edx
    cca0:	48 89 c1             	mov    %rax,%rcx
    cca3:	e8 00 00 00 00       	call   cca8 <test_bit_read_write+0x3b>
    cca8:	48 8d 45 fe          	lea    -0x2(%rbp),%rax
    ccac:	41 b8 01 00 00 00    	mov    $0x1,%r8d
    ccb2:	ba 08 00 00 00       	mov    $0x8,%edx
    ccb7:	48 89 c1             	mov    %rax,%rcx
    ccba:	e8 00 00 00 00       	call   ccbf <test_bit_read_write+0x52>
    ccbf:	48 8d 45 fe          	lea    -0x2(%rbp),%rax
    ccc3:	41 b8 01 00 00 00    	mov    $0x1,%r8d
    ccc9:	ba 0c 00 00 00       	mov    $0xc,%edx
    ccce:	48 89 c1             	mov    %rax,%rcx
    ccd1:	e8 00 00 00 00       	call   ccd6 <test_bit_read_write+0x69>
    ccd6:	0f b7 45 fe          	movzwl -0x2(%rbp),%eax
    ccda:	66 3d 10 11          	cmp    $0x1110,%ax
    ccde:	74 1f                	je     ccff <test_bit_read_write+0x92>
    cce0:	41 b8 f0 05 00 00    	mov    $0x5f0,%r8d
    cce6:	48 8d 05 49 00 00 00 	lea    0x49(%rip),%rax        # cd36 <test_bit_read_write+0xc9>
    cced:	48 89 c2             	mov    %rax,%rdx
    ccf0:	48 8d 05 5a 00 00 00 	lea    0x5a(%rip),%rax        # cd51 <test_bit_read_write+0xe4>
    ccf7:	48 89 c1             	mov    %rax,%rcx
    ccfa:	e8 44 33 ff ff       	call   43 <printf>
    ccff:	48 8d 45 fe          	lea    -0x2(%rbp),%rax
    cd03:	ba 00 00 00 00       	mov    $0x0,%edx
    cd08:	48 89 c1             	mov    %rax,%rcx
    cd0b:	e8 00 00 00 00       	call   cd10 <test_bit_read_write+0xa3>
    cd10:	84 c0                	test   %al,%al
    cd12:	74 1f                	je     cd33 <test_bit_read_write+0xc6>
    cd14:	41 b8 f1 05 00 00    	mov    $0x5f1,%r8d
    cd1a:	48 8d 05 49 00 00 00 	lea    0x49(%rip),%rax        # cd6a <test_bit_read_write+0xfd>
    cd21:	48 89 c2             	mov    %rax,%rdx
    cd24:	48 8d 05 5a 00 00 00 	lea    0x5a(%rip),%rax        # cd85 <test_bit_read_write+0x118>
    cd2b:	48 89 c1             	mov    %rax,%rcx
    cd2e:	e8 10 33 ff ff       	call   43 <printf>
    cd33:	48 8d 45 fe          	lea    -0x2(%rbp),%rax
    cd37:	ba 04 00 00 00       	mov    $0x4,%edx
    cd3c:	48 89 c1             	mov    %rax,%rcx
    cd3f:	e8 00 00 00 00       	call   cd44 <test_bit_read_write+0xd7>
    cd44:	83 f0 01             	xor    $0x1,%eax
    cd47:	84 c0                	test   %al,%al
    cd49:	74 1f                	je     cd6a <test_bit_read_write+0xfd>
    cd4b:	41 b8 f2 05 00 00    	mov    $0x5f2,%r8d
    cd51:	48 8d 05 49 00 00 00 	lea    0x49(%rip),%rax        # cda1 <test_bit_read_write+0x134>
    cd58:	48 89 c2             	mov    %rax,%rdx
    cd5b:	48 8d 05 5a 00 00 00 	lea    0x5a(%rip),%rax        # cdbc <test_bit_read_write+0x14f>
    cd62:	48 89 c1             	mov    %rax,%rcx
    cd65:	e8 d9 32 ff ff       	call   43 <printf>
    cd6a:	48 8d 45 fe          	lea    -0x2(%rbp),%rax
    cd6e:	ba 08 00 00 00       	mov    $0x8,%edx
    cd73:	48 89 c1             	mov    %rax,%rcx
    cd76:	e8 00 00 00 00       	call   cd7b <test_bit_read_write+0x10e>
    cd7b:	83 f0 01             	xor    $0x1,%eax
    cd7e:	84 c0                	test   %al,%al
    cd80:	74 1f                	je     cda1 <test_bit_read_write+0x134>
    cd82:	41 b8 f3 05 00 00    	mov    $0x5f3,%r8d
    cd88:	48 8d 05 49 00 00 00 	lea    0x49(%rip),%rax        # cdd8 <test_bit_read_write+0x16b>
    cd8f:	48 89 c2             	mov    %rax,%rdx
    cd92:	48 8d 05 5a 00 00 00 	lea    0x5a(%rip),%rax        # cdf3 <test_bit_read_write+0x186>
    cd99:	48 89 c1             	mov    %rax,%rcx
    cd9c:	e8 a2 32 ff ff       	call   43 <printf>
    cda1:	48 8d 45 fe          	lea    -0x2(%rbp),%rax
    cda5:	ba 0c 00 00 00       	mov    $0xc,%edx
    cdaa:	48 89 c1             	mov    %rax,%rcx
    cdad:	e8 00 00 00 00       	call   cdb2 <test_bit_read_write+0x145>
    cdb2:	83 f0 01             	xor    $0x1,%eax
    cdb5:	84 c0                	test   %al,%al
    cdb7:	74 1f                	je     cdd8 <test_bit_read_write+0x16b>
    cdb9:	41 b8 f4 05 00 00    	mov    $0x5f4,%r8d
    cdbf:	48 8d 05 49 00 00 00 	lea    0x49(%rip),%rax        # ce0f <test_bit_read_write+0x1a2>
    cdc6:	48 89 c2             	mov    %rax,%rdx
    cdc9:	48 8d 05 5a 00 00 00 	lea    0x5a(%rip),%rax        # ce2a <test_bit_read_write+0x1bd>
    cdd0:	48 89 c1             	mov    %rax,%rcx
    cdd3:	e8 6b 32 ff ff       	call   43 <printf>
    cdd8:	48 8d 45 fe          	lea    -0x2(%rbp),%rax
    cddc:	ba 0f 00 00 00       	mov    $0xf,%edx
    cde1:	48 89 c1             	mov    %rax,%rcx
    cde4:	e8 00 00 00 00       	call   cde9 <test_bit_read_write+0x17c>
    cde9:	84 c0                	test   %al,%al
    cdeb:	74 1f                	je     ce0c <test_bit_read_write+0x19f>
    cded:	41 b8 f5 05 00 00    	mov    $0x5f5,%r8d
    cdf3:	48 8d 05 49 00 00 00 	lea    0x49(%rip),%rax        # ce43 <test_bit_read_write+0x1d6>
    cdfa:	48 89 c2             	mov    %rax,%rdx
    cdfd:	48 8d 05 5a 00 00 00 	lea    0x5a(%rip),%rax        # ce5e <test_bit_read_write+0x1f1>
    ce04:	48 89 c1             	mov    %rax,%rcx
    ce07:	e8 37 32 ff ff       	call   43 <printf>
    ce0c:	48 8d 45 fe          	lea    -0x2(%rbp),%rax
    ce10:	41 b8 00 00 00 00    	mov    $0x0,%r8d
    ce16:	ba 04 00 00 00       	mov    $0x4,%edx
    ce1b:	48 89 c1             	mov    %rax,%rcx
    ce1e:	e8 00 00 00 00       	call   ce23 <test_bit_read_write+0x1b6>
    ce23:	48 8d 45 fe          	lea    -0x2(%rbp),%rax
    ce27:	41 b8 00 00 00 00    	mov    $0x0,%r8d
    ce2d:	ba 08 00 00 00       	mov    $0x8,%edx
    ce32:	48 89 c1             	mov    %rax,%rcx
    ce35:	e8 00 00 00 00       	call   ce3a <test_bit_read_write+0x1cd>
    ce3a:	48 8d 45 fe          	lea    -0x2(%rbp),%rax
    ce3e:	41 b8 00 00 00 00    	mov    $0x0,%r8d
    ce44:	ba 0c 00 00 00       	mov    $0xc,%edx
    ce49:	48 89 c1             	mov    %rax,%rcx
    ce4c:	e8 00 00 00 00       	call   ce51 <test_bit_read_write+0x1e4>
    ce51:	0f b7 45 fe          	movzwl -0x2(%rbp),%eax
    ce55:	66 85 c0             	test   %ax,%ax
    ce58:	74 1f                	je     ce79 <test_bit_read_write+0x20c>
    ce5a:	41 b8 f9 05 00 00    	mov    $0x5f9,%r8d
    ce60:	48 8d 05 49 00 00 00 	lea    0x49(%rip),%rax        # ceb0 <test_bit_read_write+0x243>
    ce67:	48 89 c2             	mov    %rax,%rdx
    ce6a:	48 8d 05 5a 00 00 00 	lea    0x5a(%rip),%rax        # cecb <test_bit_read_write+0x25e>
    ce71:	48 89 c1             	mov    %rax,%rcx
    ce74:	e8 ca 31 ff ff       	call   43 <printf>
    ce79:	48 8d 45 f8          	lea    -0x8(%rbp),%rax
    ce7d:	41 b8 01 00 00 00    	mov    $0x1,%r8d
    ce83:	ba 04 00 00 00       	mov    $0x4,%edx
    ce88:	48 89 c1             	mov    %rax,%rcx
    ce8b:	e8 00 00 00 00       	call   ce90 <test_bit_read_write+0x223>
    ce90:	48 8d 45 f8          	lea    -0x8(%rbp),%rax
    ce94:	41 b8 01 00 00 00    	mov    $0x1,%r8d
    ce9a:	ba 08 00 00 00       	mov    $0x8,%edx
    ce9f:	48 89 c1             	mov    %rax,%rcx
    cea2:	e8 00 00 00 00       	call   cea7 <test_bit_read_write+0x23a>
    cea7:	48 8d 45 f8          	lea    -0x8(%rbp),%rax
    ceab:	41 b8 01 00 00 00    	mov    $0x1,%r8d
    ceb1:	ba 0c 00 00 00       	mov    $0xc,%edx
    ceb6:	48 89 c1             	mov    %rax,%rcx
    ceb9:	e8 00 00 00 00       	call   cebe <test_bit_read_write+0x251>
    cebe:	48 8d 45 f8          	lea    -0x8(%rbp),%rax
    cec2:	41 b8 01 00 00 00    	mov    $0x1,%r8d
    cec8:	ba 18 00 00 00       	mov    $0x18,%edx
    cecd:	48 89 c1             	mov    %rax,%rcx
    ced0:	e8 00 00 00 00       	call   ced5 <test_bit_read_write+0x268>
    ced5:	8b 45 f8             	mov    -0x8(%rbp),%eax
    ced8:	3d 10 11 00 01       	cmp    $0x1001110,%eax
    cedd:	74 1f                	je     cefe <test_bit_read_write+0x291>
    cedf:	41 b8 fe 05 00 00    	mov    $0x5fe,%r8d
    cee5:	48 8d 05 49 00 00 00 	lea    0x49(%rip),%rax        # cf35 <test_bit_read_write+0x2c8>
    ceec:	48 89 c2             	mov    %rax,%rdx
    ceef:	48 8d 05 5a 00 00 00 	lea    0x5a(%rip),%rax        # cf50 <test_bit_read_write+0x2e3>
    cef6:	48 89 c1             	mov    %rax,%rcx
    cef9:	e8 45 31 ff ff       	call   43 <printf>
    cefe:	48 8d 45 f8          	lea    -0x8(%rbp),%rax
    cf02:	ba 00 00 00 00       	mov    $0x0,%edx
    cf07:	48 89 c1             	mov    %rax,%rcx
    cf0a:	e8 00 00 00 00       	call   cf0f <test_bit_read_write+0x2a2>
    cf0f:	84 c0                	test   %al,%al
    cf11:	74 1f                	je     cf32 <test_bit_read_write+0x2c5>
    cf13:	41 b8 ff 05 00 00    	mov    $0x5ff,%r8d
    cf19:	48 8d 05 49 00 00 00 	lea    0x49(%rip),%rax        # cf69 <test_bit_read_write+0x2fc>
    cf20:	48 89 c2             	mov    %rax,%rdx
    cf23:	48 8d 05 5a 00 00 00 	lea    0x5a(%rip),%rax        # cf84 <test_bit_read_write+0x317>
    cf2a:	48 89 c1             	mov    %rax,%rcx
    cf2d:	e8 11 31 ff ff       	call   43 <printf>
    cf32:	48 8d 45 f8          	lea    -0x8(%rbp),%rax
    cf36:	ba 04 00 00 00       	mov    $0x4,%edx
    cf3b:	48 89 c1             	mov    %rax,%rcx
    cf3e:	e8 00 00 00 00       	call   cf43 <test_bit_read_write+0x2d6>
    cf43:	83 f0 01             	xor    $0x1,%eax
    cf46:	84 c0                	test   %al,%al
    cf48:	74 1f                	je     cf69 <test_bit_read_write+0x2fc>
    cf4a:	41 b8 00 06 00 00    	mov    $0x600,%r8d
    cf50:	48 8d 05 49 00 00 00 	lea    0x49(%rip),%rax        # cfa0 <test_bit_read_write+0x333>
    cf57:	48 89 c2             	mov    %rax,%rdx
    cf5a:	48 8d 05 5a 00 00 00 	lea    0x5a(%rip),%rax        # cfbb <test_bit_read_write+0x34e>
    cf61:	48 89 c1             	mov    %rax,%rcx
    cf64:	e8 da 30 ff ff       	call   43 <printf>
    cf69:	48 8d 45 f8          	lea    -0x8(%rbp),%rax
    cf6d:	ba 08 00 00 00       	mov    $0x8,%edx
    cf72:	48 89 c1             	mov    %rax,%rcx
    cf75:	e8 00 00 00 00       	call   cf7a <test_bit_read_write+0x30d>
    cf7a:	83 f0 01             	xor    $0x1,%eax
    cf7d:	84 c0                	test   %al,%al
    cf7f:	74 1f                	je     cfa0 <test_bit_read_write+0x333>
    cf81:	41 b8 01 06 00 00    	mov    $0x601,%r8d
    cf87:	48 8d 05 49 00 00 00 	lea    0x49(%rip),%rax        # cfd7 <test_bit_read_write+0x36a>
    cf8e:	48 89 c2             	mov    %rax,%rdx
    cf91:	48 8d 05 5a 00 00 00 	lea    0x5a(%rip),%rax        # cff2 <test_bit_read_write+0x385>
    cf98:	48 89 c1             	mov    %rax,%rcx
    cf9b:	e8 a3 30 ff ff       	call   43 <printf>
    cfa0:	48 8d 45 f8          	lea    -0x8(%rbp),%rax
    cfa4:	ba 0c 00 00 00       	mov    $0xc,%edx
    cfa9:	48 89 c1             	mov    %rax,%rcx
    cfac:	e8 00 00 00 00       	call   cfb1 <test_bit_read_write+0x344>
    cfb1:	83 f0 01             	xor    $0x1,%eax
    cfb4:	84 c0                	test   %al,%al
    cfb6:	74 1f                	je     cfd7 <test_bit_read_write+0x36a>
    cfb8:	41 b8 02 06 00 00    	mov    $0x602,%r8d
    cfbe:	48 8d 05 49 00 00 00 	lea    0x49(%rip),%rax        # d00e <test_bit_read_write+0x3a1>
    cfc5:	48 89 c2             	mov    %rax,%rdx
    cfc8:	48 8d 05 5a 00 00 00 	lea    0x5a(%rip),%rax        # d029 <test_bit_read_write+0x3bc>
    cfcf:	48 89 c1             	mov    %rax,%rcx
    cfd2:	e8 6c 30 ff ff       	call   43 <printf>
    cfd7:	48 8d 45 f8          	lea    -0x8(%rbp),%rax
    cfdb:	ba 18 00 00 00       	mov    $0x18,%edx
    cfe0:	48 89 c1             	mov    %rax,%rcx
    cfe3:	e8 00 00 00 00       	call   cfe8 <test_bit_read_write+0x37b>
    cfe8:	83 f0 01             	xor    $0x1,%eax
    cfeb:	84 c0                	test   %al,%al
    cfed:	74 1f                	je     d00e <test_bit_read_write+0x3a1>
    cfef:	41 b8 03 06 00 00    	mov    $0x603,%r8d
    cff5:	48 8d 05 49 00 00 00 	lea    0x49(%rip),%rax        # d045 <test_bit_read_write+0x3d8>
    cffc:	48 89 c2             	mov    %rax,%rdx
    cfff:	48 8d 05 5a 00 00 00 	lea    0x5a(%rip),%rax        # d060 <test_bit_read_write+0x3f3>
    d006:	48 89 c1             	mov    %rax,%rcx
    d009:	e8 35 30 ff ff       	call   43 <printf>
    d00e:	48 8d 45 f8          	lea    -0x8(%rbp),%rax
    d012:	ba 1f 00 00 00       	mov    $0x1f,%edx
    d017:	48 89 c1             	mov    %rax,%rcx
    d01a:	e8 00 00 00 00       	call   d01f <test_bit_read_write+0x3b2>
    d01f:	84 c0                	test   %al,%al
    d021:	74 1f                	je     d042 <test_bit_read_write+0x3d5>
    d023:	41 b8 04 06 00 00    	mov    $0x604,%r8d
    d029:	48 8d 05 49 00 00 00 	lea    0x49(%rip),%rax        # d079 <test_bit_read_write+0x40c>
    d030:	48 89 c2             	mov    %rax,%rdx
    d033:	48 8d 05 5a 00 00 00 	lea    0x5a(%rip),%rax        # d094 <test_bit_read_write+0x427>
    d03a:	48 89 c1             	mov    %rax,%rcx
    d03d:	e8 01 30 ff ff       	call   43 <printf>
    d042:	48 8d 45 f8          	lea    -0x8(%rbp),%rax
    d046:	41 b8 00 00 00 00    	mov    $0x0,%r8d
    d04c:	ba 04 00 00 00       	mov    $0x4,%edx
    d051:	48 89 c1             	mov    %rax,%rcx
    d054:	e8 00 00 00 00       	call   d059 <test_bit_read_write+0x3ec>
    d059:	48 8d 45 f8          	lea    -0x8(%rbp),%rax
    d05d:	41 b8 00 00 00 00    	mov    $0x0,%r8d
    d063:	ba 08 00 00 00       	mov    $0x8,%edx
    d068:	48 89 c1             	mov    %rax,%rcx
    d06b:	e8 00 00 00 00       	call   d070 <test_bit_read_write+0x403>
    d070:	48 8d 45 f8          	lea    -0x8(%rbp),%rax
    d074:	41 b8 00 00 00 00    	mov    $0x0,%r8d
    d07a:	ba 0c 00 00 00       	mov    $0xc,%edx
    d07f:	48 89 c1             	mov    %rax,%rcx
    d082:	e8 00 00 00 00       	call   d087 <test_bit_read_write+0x41a>
    d087:	48 8d 45 f8          	lea    -0x8(%rbp),%rax
    d08b:	41 b8 00 00 00 00    	mov    $0x0,%r8d
    d091:	ba 18 00 00 00       	mov    $0x18,%edx
    d096:	48 89 c1             	mov    %rax,%rcx
    d099:	e8 00 00 00 00       	call   d09e <test_bit_read_write+0x431>
    d09e:	8b 45 f8             	mov    -0x8(%rbp),%eax
    d0a1:	85 c0                	test   %eax,%eax
    d0a3:	74 1f                	je     d0c4 <test_bit_read_write+0x457>
    d0a5:	41 b8 09 06 00 00    	mov    $0x609,%r8d
    d0ab:	48 8d 05 49 00 00 00 	lea    0x49(%rip),%rax        # d0fb <test_signal_read_write+0x30>
    d0b2:	48 89 c2             	mov    %rax,%rdx
    d0b5:	48 8d 05 5a 00 00 00 	lea    0x5a(%rip),%rax        # d116 <test_signal_read_write+0x4b>
    d0bc:	48 89 c1             	mov    %rax,%rcx
    d0bf:	e8 7f 2f ff ff       	call   43 <printf>
    d0c4:	90                   	nop
    d0c5:	48 83 c4 30          	add    $0x30,%rsp
    d0c9:	5d                   	pop    %rbp
    d0ca:	c3                   	ret

000000000000d0cb <test_signal_read_write>:
    d0cb:	55                   	push   %rbp
    d0cc:	48 89 e5             	mov    %rsp,%rbp
    d0cf:	48 83 ec 50          	sub    $0x50,%rsp
    d0d3:	48 8d 05 f0 06 00 00 	lea    0x6f0(%rip),%rax        # d7ca <test_fault+0x45a>
    d0da:	48 89 c1             	mov    %rax,%rcx
    d0dd:	e8 61 2f ff ff       	call   43 <printf>
    d0e2:	48 c7 45 f8 00 00 00 	movq   $0x0,-0x8(%rbp)
    d0e9:	00 
    d0ea:	f3 0f 10 05 9c 07 00 	movss  0x79c(%rip),%xmm0        # d88e <test_fault+0x51e>
    d0f1:	00 
    d0f2:	f3 0f 11 45 ec       	movss  %xmm0,-0x14(%rbp)
    d0f7:	f3 0f 10 05 a0 07 00 	movss  0x7a0(%rip),%xmm0        # d89f <test_fault+0x52f>
    d0fe:	00 
    d0ff:	f3 0f 11 45 f0       	movss  %xmm0,-0x10(%rbp)
    d104:	66 c7 45 f4 00 00    	movw   $0x0,-0xc(%rbp)
    d10a:	66 c7 45 f6 08 00    	movw   $0x8,-0xa(%rbp)
    d110:	f3 0f 10 05 9c 07 00 	movss  0x79c(%rip),%xmm0        # d8b4 <test_fault+0x544>
    d117:	00 
    d118:	f3 0f 11 45 e0       	movss  %xmm0,-0x20(%rbp)
    d11d:	f3 0f 10 05 a0 07 00 	movss  0x7a0(%rip),%xmm0        # d8c5 <test_fault+0x555>
    d124:	00 
    d125:	f3 0f 11 45 e4       	movss  %xmm0,-0x1c(%rbp)
    d12a:	66 c7 45 e8 08 00    	movw   $0x8,-0x18(%rbp)
    d130:	66 c7 45 ea 08 00    	movw   $0x8,-0x16(%rbp)
    d136:	f3 0f 10 05 14 09 00 	movss  0x914(%rip),%xmm0        # da52 <test_fault+0x6e2>
    d13d:	00 
    d13e:	f3 0f 11 45 d4       	movss  %xmm0,-0x2c(%rbp)
    d143:	f3 0f 10 05 14 09 00 	movss  0x914(%rip),%xmm0        # da5f <test_fault+0x6ef>
    d14a:	00 
    d14b:	f3 0f 11 45 d8       	movss  %xmm0,-0x28(%rbp)
    d150:	66 c7 45 dc 3f 00    	movw   $0x3f,-0x24(%rbp)
    d156:	66 c7 45 de 01 00    	movw   $0x1,-0x22(%rbp)
    d15c:	48 8d 55 f8          	lea    -0x8(%rbp),%rdx
    d160:	48 8d 45 ec          	lea    -0x14(%rbp),%rax
    d164:	f3 0f 10 15 a8 08 00 	movss  0x8a8(%rip),%xmm2        # da14 <test_fault+0x6a4>
    d16b:	00 
    d16c:	48 89 c1             	mov    %rax,%rcx
    d16f:	e8 00 00 00 00       	call   d174 <test_signal_read_write+0xa9>
    d174:	48 8b 45 f8          	mov    -0x8(%rbp),%rax
    d178:	48 83 f8 17          	cmp    $0x17,%rax
    d17c:	74 1f                	je     d19d <test_signal_read_write+0xd2>
    d17e:	41 b8 17 06 00 00    	mov    $0x617,%r8d
    d184:	48 8d 05 49 00 00 00 	lea    0x49(%rip),%rax        # d1d4 <test_signal_read_write+0x109>
    d18b:	48 89 c2             	mov    %rax,%rdx
    d18e:	48 8d 05 5a 00 00 00 	lea    0x5a(%rip),%rax        # d1ef <test_signal_read_write+0x124>
    d195:	48 89 c1             	mov    %rax,%rcx
    d198:	e8 a6 2e ff ff       	call   43 <printf>
    d19d:	48 8d 55 f8          	lea    -0x8(%rbp),%rdx
    d1a1:	48 8d 45 ec          	lea    -0x14(%rbp),%rax
    d1a5:	48 89 c1             	mov    %rax,%rcx
    d1a8:	e8 00 00 00 00       	call   d1ad <test_signal_read_write+0xe2>
    d1ad:	66 83 f8 17          	cmp    $0x17,%ax
    d1b1:	74 1f                	je     d1d2 <test_signal_read_write+0x107>
    d1b3:	41 b8 18 06 00 00    	mov    $0x618,%r8d
    d1b9:	48 8d 05 49 00 00 00 	lea    0x49(%rip),%rax        # d209 <test_signal_read_write+0x13e>
    d1c0:	48 89 c2             	mov    %rax,%rdx
    d1c3:	48 8d 05 5a 00 00 00 	lea    0x5a(%rip),%rax        # d224 <test_signal_read_write+0x159>
    d1ca:	48 89 c1             	mov    %rax,%rcx
    d1cd:	e8 71 2e ff ff       	call   43 <printf>
    d1d2:	48 8d 55 f8          	lea    -0x8(%rbp),%rdx
    d1d6:	48 8d 45 ec          	lea    -0x14(%rbp),%rax
    d1da:	48 89 c1             	mov    %rax,%rcx
    d1dd:	e8 00 00 00 00       	call   d1e2 <test_signal_read_write+0x117>
    d1e2:	66 0f 7e c0          	movd   %xmm0,%eax
    d1e6:	66 0f 6e c8          	movd   %eax,%xmm1
    d1ea:	0f 2e 0d a8 08 00 00 	ucomiss 0x8a8(%rip),%xmm1        # da99 <test_fault+0x729>
    d1f1:	7a 0d                	jp     d200 <test_signal_read_write+0x135>
    d1f3:	66 0f 6e d8          	movd   %eax,%xmm3
    d1f7:	0f 2e 1d a8 08 00 00 	ucomiss 0x8a8(%rip),%xmm3        # daa6 <test_fault+0x736>
    d1fe:	74 1f                	je     d21f <test_signal_read_write+0x154>
    d200:	41 b8 19 06 00 00    	mov    $0x619,%r8d
    d206:	48 8d 05 49 00 00 00 	lea    0x49(%rip),%rax        # d256 <test_signal_read_write+0x18b>
    d20d:	48 89 c2             	mov    %rax,%rdx
    d210:	48 8d 05 5a 00 00 00 	lea    0x5a(%rip),%rax        # d271 <test_signal_read_write+0x1a6>
    d217:	48 89 c1             	mov    %rax,%rcx
    d21a:	e8 24 2e ff ff       	call   43 <printf>
    d21f:	48 8d 55 f8          	lea    -0x8(%rbp),%rdx
    d223:	48 8d 45 e0          	lea    -0x20(%rbp),%rax
    d227:	f3 0f 10 15 a8 08 00 	movss  0x8a8(%rip),%xmm2        # dad7 <test_fault+0x767>
    d22e:	00 
    d22f:	48 89 c1             	mov    %rax,%rcx
    d232:	e8 00 00 00 00       	call   d237 <test_signal_read_write+0x16c>
    d237:	48 8b 45 f8          	mov    -0x8(%rbp),%rax
    d23b:	48 3d 17 17 00 00    	cmp    $0x1717,%rax
    d241:	74 1f                	je     d262 <test_signal_read_write+0x197>
    d243:	41 b8 1b 06 00 00    	mov    $0x61b,%r8d
    d249:	48 8d 05 49 00 00 00 	lea    0x49(%rip),%rax        # d299 <test_signal_read_write+0x1ce>
    d250:	48 89 c2             	mov    %rax,%rdx
    d253:	48 8d 05 5a 00 00 00 	lea    0x5a(%rip),%rax        # d2b4 <test_signal_read_write+0x1e9>
    d25a:	48 89 c1             	mov    %rax,%rcx
    d25d:	e8 e1 2d ff ff       	call   43 <printf>
    d262:	48 8d 55 f8          	lea    -0x8(%rbp),%rdx
    d266:	48 8d 45 e0          	lea    -0x20(%rbp),%rax
    d26a:	48 89 c1             	mov    %rax,%rcx
    d26d:	e8 00 00 00 00       	call   d272 <test_signal_read_write+0x1a7>
    d272:	66 83 f8 17          	cmp    $0x17,%ax
    d276:	74 1f                	je     d297 <test_signal_read_write+0x1cc>
    d278:	41 b8 1c 06 00 00    	mov    $0x61c,%r8d
    d27e:	48 8d 05 49 00 00 00 	lea    0x49(%rip),%rax        # d2ce <test_signal_read_write+0x203>
    d285:	48 89 c2             	mov    %rax,%rdx
    d288:	48 8d 05 5a 00 00 00 	lea    0x5a(%rip),%rax        # d2e9 <test_signal_read_write+0x21e>
    d28f:	48 89 c1             	mov    %rax,%rcx
    d292:	e8 ac 2d ff ff       	call   43 <printf>
    d297:	48 8d 55 f8          	lea    -0x8(%rbp),%rdx
    d29b:	48 8d 45 e0          	lea    -0x20(%rbp),%rax
    d29f:	48 89 c1             	mov    %rax,%rcx
    d2a2:	e8 00 00 00 00       	call   d2a7 <test_signal_read_write+0x1dc>
    d2a7:	66 0f 7e c0          	movd   %xmm0,%eax
    d2ab:	66 0f 6e e0          	movd   %eax,%xmm4
    d2af:	0f 2e 25 a8 08 00 00 	ucomiss 0x8a8(%rip),%xmm4        # db5e <test_fault+0x7ee>
    d2b6:	7a 0d                	jp     d2c5 <test_signal_read_write+0x1fa>
    d2b8:	66 0f 6e e8          	movd   %eax,%xmm5
    d2bc:	0f 2e 2d a8 08 00 00 	ucomiss 0x8a8(%rip),%xmm5        # db6b <test_fault+0x7fb>
    d2c3:	74 1f                	je     d2e4 <test_signal_read_write+0x219>
    d2c5:	41 b8 1d 06 00 00    	mov    $0x61d,%r8d
    d2cb:	48 8d 05 49 00 00 00 	lea    0x49(%rip),%rax        # d31b <test_signal_read_write+0x250>
    d2d2:	48 89 c2             	mov    %rax,%rdx
    d2d5:	48 8d 05 5a 00 00 00 	lea    0x5a(%rip),%rax        # d336 <test_signal_read_write+0x26b>
    d2dc:	48 89 c1             	mov    %rax,%rcx
    d2df:	e8 5f 2d ff ff       	call   43 <printf>
    d2e4:	48 c7 45 f8 00 00 00 	movq   $0x0,-0x8(%rbp)
    d2eb:	00 
    d2ec:	48 8d 55 f8          	lea    -0x8(%rbp),%rdx
    d2f0:	48 8d 45 d4          	lea    -0x2c(%rbp),%rax
    d2f4:	41 b8 01 00 00 00    	mov    $0x1,%r8d
    d2fa:	48 89 c1             	mov    %rax,%rcx
    d2fd:	e8 00 00 00 00       	call   d302 <test_signal_read_write+0x237>
    d302:	48 8b 55 f8          	mov    -0x8(%rbp),%rdx
    d306:	48 b8 00 00 00 00 00 	movabs $0x8000000000000000,%rax
    d30d:	00 00 80 
    d310:	48 39 c2             	cmp    %rax,%rdx
    d313:	74 1f                	je     d334 <test_signal_read_write+0x269>
    d315:	41 b8 20 06 00 00    	mov    $0x620,%r8d
    d31b:	48 8d 05 49 00 00 00 	lea    0x49(%rip),%rax        # d36b <test_signal_read_write+0x2a0>
    d322:	48 89 c2             	mov    %rax,%rdx
    d325:	48 8d 05 5a 00 00 00 	lea    0x5a(%rip),%rax        # d386 <test_fault+0x16>
    d32c:	48 89 c1             	mov    %rax,%rcx
    d32f:	e8 0f 2d ff ff       	call   43 <printf>
    d334:	48 8d 55 f8          	lea    -0x8(%rbp),%rdx
    d338:	48 8d 45 d4          	lea    -0x2c(%rbp),%rax
    d33c:	48 89 c1             	mov    %rax,%rcx
    d33f:	e8 00 00 00 00       	call   d344 <test_signal_read_write+0x279>
    d344:	66 83 f8 01          	cmp    $0x1,%ax
    d348:	74 1f                	je     d369 <test_signal_read_write+0x29e>
    d34a:	41 b8 21 06 00 00    	mov    $0x621,%r8d
    d350:	48 8d 05 49 00 00 00 	lea    0x49(%rip),%rax        # d3a0 <test_fault+0x30>
    d357:	48 89 c2             	mov    %rax,%rdx
    d35a:	48 8d 05 5a 00 00 00 	lea    0x5a(%rip),%rax        # d3bb <test_fault+0x4b>
    d361:	48 89 c1             	mov    %rax,%rcx
    d364:	e8 da 2c ff ff       	call   43 <printf>
    d369:	90                   	nop
    d36a:	48 83 c4 50          	add    $0x50,%rsp
    d36e:	5d                   	pop    %rbp
    d36f:	c3                   	ret

000000000000d370 <test_fault>:
    d370:	55                   	push   %rbp
    d371:	48 89 e5             	mov    %rsp,%rbp
    d374:	48 83 c4 80          	add    $0xffffffffffffff80,%rsp
    d378:	48 8d 05 19 07 00 00 	lea    0x719(%rip),%rax        # da98 <test_fault+0x728>
    d37f:	48 89 c1             	mov    %rax,%rcx
    d382:	e8 bc 2c ff ff       	call   43 <printf>
    d387:	c7 45 fc 00 00 00 00 	movl   $0x0,-0x4(%rbp)
    d38e:	c7 45 f8 00 00 00 00 	movl   $0x0,-0x8(%rbp)
    d395:	48 c7 45 ec 00 00 00 	movq   $0x0,-0x14(%rbp)
    d39c:	00 
    d39d:	c7 45 f4 00 00 00 00 	movl   $0x0,-0xc(%rbp)
    d3a4:	48 8d 45 ec          	lea    -0x14(%rbp),%rax
    d3a8:	48 89 45 a0          	mov    %rax,-0x60(%rbp)
    d3ac:	f3 0f 10 05 a0 07 00 	movss  0x7a0(%rip),%xmm0        # db54 <test_fault+0x7e4>
    d3b3:	00 
    d3b4:	f3 0f 11 45 a8       	movss  %xmm0,-0x58(%rbp)
    d3b9:	f3 0f 10 05 9c 07 00 	movss  0x79c(%rip),%xmm0        # db5d <test_fault+0x7ed>
    d3c0:	00 
    d3c1:	f3 0f 11 45 ac       	movss  %xmm0,-0x54(%rbp)
    d3c6:	f3 0f 10 05 9c 07 00 	movss  0x79c(%rip),%xmm0        # db6a <test_fault+0x7fa>
    d3cd:	00 
    d3ce:	f3 0f 11 45 b0       	movss  %xmm0,-0x50(%rbp)
    d3d3:	f3 0f 10 05 a4 07 00 	movss  0x7a4(%rip),%xmm0        # db7f <test_fault+0x80f>
    d3da:	00 
    d3db:	f3 0f 11 45 b4       	movss  %xmm0,-0x4c(%rbp)
    d3e0:	f3 0f 10 05 cc 07 00 	movss  0x7cc(%rip),%xmm0        # dbb4 <test_fault+0x844>
    d3e7:	00 
    d3e8:	f3 0f 11 45 b8       	movss  %xmm0,-0x48(%rbp)
    d3ed:	c7 45 bc 01 00 00 00 	movl   $0x1,-0x44(%rbp)
    d3f4:	48 8d 45 fc          	lea    -0x4(%rbp),%rax
    d3f8:	48 89 45 c0          	mov    %rax,-0x40(%rbp)
    d3fc:	c7 45 c8 01 00 00 00 	movl   $0x1,-0x38(%rbp)
    d403:	48 8d 45 f8          	lea    -0x8(%rbp),%rax
    d407:	48 89 45 d0          	mov    %rax,-0x30(%rbp)
    d40b:	c7 45 d8 01 00 00 00 	movl   $0x1,-0x28(%rbp)
    d412:	c7 45 f8 01 00 00 00 	movl   $0x1,-0x8(%rbp)
    d419:	48 8d 45 a0          	lea    -0x60(%rbp),%rax
    d41d:	48 89 c1             	mov    %rax,%rcx
    d420:	e8 00 00 00 00       	call   d425 <test_fault+0xb5>
    d425:	48 8d 45 a0          	lea    -0x60(%rbp),%rax
    d429:	66 0f ef c9          	pxor   %xmm1,%xmm1
    d42d:	48 89 c1             	mov    %rax,%rcx
    d430:	e8 00 00 00 00       	call   d435 <test_fault+0xc5>
    d435:	84 c0                	test   %al,%al
    d437:	74 1f                	je     d458 <test_fault+0xe8>
    d439:	41 b8 37 06 00 00    	mov    $0x637,%r8d
    d43f:	48 8d 05 49 00 00 00 	lea    0x49(%rip),%rax        # d48f <test_fault+0x11f>
    d446:	48 89 c2             	mov    %rax,%rdx
    d449:	48 8d 05 5a 00 00 00 	lea    0x5a(%rip),%rax        # d4aa <test_fault+0x13a>
    d450:	48 89 c1             	mov    %rax,%rcx
    d453:	e8 eb 2b ff ff       	call   43 <printf>
    d458:	48 8d 45 a0          	lea    -0x60(%rbp),%rax
    d45c:	66 0f ef c9          	pxor   %xmm1,%xmm1
    d460:	48 89 c1             	mov    %rax,%rcx
    d463:	e8 00 00 00 00       	call   d468 <test_fault+0xf8>
    d468:	84 c0                	test   %al,%al
    d46a:	74 1f                	je     d48b <test_fault+0x11b>
    d46c:	41 b8 38 06 00 00    	mov    $0x638,%r8d
    d472:	48 8d 05 49 00 00 00 	lea    0x49(%rip),%rax        # d4c2 <test_fault+0x152>
    d479:	48 89 c2             	mov    %rax,%rdx
    d47c:	48 8d 05 5a 00 00 00 	lea    0x5a(%rip),%rax        # d4dd <test_fault+0x16d>
    d483:	48 89 c1             	mov    %rax,%rcx
    d486:	e8 b8 2b ff ff       	call   43 <printf>
    d48b:	48 8d 45 a0          	lea    -0x60(%rbp),%rax
    d48f:	66 0f ef c9          	pxor   %xmm1,%xmm1
    d493:	48 89 c1             	mov    %rax,%rcx
    d496:	e8 00 00 00 00       	call   d49b <test_fault+0x12b>
    d49b:	84 c0                	test   %al,%al
    d49d:	74 1f                	je     d4be <test_fault+0x14e>
    d49f:	41 b8 39 06 00 00    	mov    $0x639,%r8d
    d4a5:	48 8d 05 49 00 00 00 	lea    0x49(%rip),%rax        # d4f5 <test_fault+0x185>
    d4ac:	48 89 c2             	mov    %rax,%rdx
    d4af:	48 8d 05 5a 00 00 00 	lea    0x5a(%rip),%rax        # d510 <test_fault+0x1a0>
    d4b6:	48 89 c1             	mov    %rax,%rcx
    d4b9:	e8 85 2b ff ff       	call   43 <printf>
    d4be:	48 8d 45 a0          	lea    -0x60(%rbp),%rax
    d4c2:	66 0f ef c9          	pxor   %xmm1,%xmm1
    d4c6:	48 89 c1             	mov    %rax,%rcx
    d4c9:	e8 00 00 00 00       	call   d4ce <test_fault+0x15e>
    d4ce:	84 c0                	test   %al,%al
    d4d0:	74 1f                	je     d4f1 <test_fault+0x181>
    d4d2:	41 b8 3a 06 00 00    	mov    $0x63a,%r8d
    d4d8:	48 8d 05 49 00 00 00 	lea    0x49(%rip),%rax        # d528 <test_fault+0x1b8>
    d4df:	48 89 c2             	mov    %rax,%rdx
    d4e2:	48 8d 05 5a 00 00 00 	lea    0x5a(%rip),%rax        # d543 <test_fault+0x1d3>
    d4e9:	48 89 c1             	mov    %rax,%rcx
    d4ec:	e8 52 2b ff ff       	call   43 <printf>
    d4f1:	8b 45 fc             	mov    -0x4(%rbp),%eax
    d4f4:	85 c0                	test   %eax,%eax
    d4f6:	74 1f                	je     d517 <test_fault+0x1a7>
    d4f8:	41 b8 3b 06 00 00    	mov    $0x63b,%r8d
    d4fe:	48 8d 05 49 00 00 00 	lea    0x49(%rip),%rax        # d54e <test_fault+0x1de>
    d505:	48 89 c2             	mov    %rax,%rdx
    d508:	48 8d 05 5a 00 00 00 	lea    0x5a(%rip),%rax        # d569 <test_fault+0x1f9>
    d50f:	48 89 c1             	mov    %rax,%rcx
    d512:	e8 2c 2b ff ff       	call   43 <printf>
    d517:	48 8d 45 a0          	lea    -0x60(%rbp),%rax
    d51b:	f3 0f 10 0d 9c 07 00 	movss  0x79c(%rip),%xmm1        # dcbf <test_fault+0x94f>
    d522:	00 
    d523:	48 89 c1             	mov    %rax,%rcx
    d526:	e8 00 00 00 00       	call   d52b <test_fault+0x1bb>
    d52b:	84 c0                	test   %al,%al
    d52d:	74 1f                	je     d54e <test_fault+0x1de>
    d52f:	41 b8 3c 06 00 00    	mov    $0x63c,%r8d
    d535:	48 8d 05 49 00 00 00 	lea    0x49(%rip),%rax        # d585 <test_fault+0x215>
    d53c:	48 89 c2             	mov    %rax,%rdx
    d53f:	48 8d 05 5a 00 00 00 	lea    0x5a(%rip),%rax        # d5a0 <test_fault+0x230>
    d546:	48 89 c1             	mov    %rax,%rcx
    d549:	e8 f5 2a ff ff       	call   43 <printf>
    d54e:	48 8d 45 a0          	lea    -0x60(%rbp),%rax
    d552:	f3 0f 10 0d 9c 07 00 	movss  0x79c(%rip),%xmm1        # dcf6 <test_fault+0x986>
    d559:	00 
    d55a:	48 89 c1             	mov    %rax,%rcx
    d55d:	e8 00 00 00 00       	call   d562 <test_fault+0x1f2>
    d562:	84 c0                	test   %al,%al
    d564:	74 1f                	je     d585 <test_fault+0x215>
    d566:	41 b8 3d 06 00 00    	mov    $0x63d,%r8d
    d56c:	48 8d 05 49 00 00 00 	lea    0x49(%rip),%rax        # d5bc <test_fault+0x24c>
    d573:	48 89 c2             	mov    %rax,%rdx
    d576:	48 8d 05 5a 00 00 00 	lea    0x5a(%rip),%rax        # d5d7 <test_fault+0x267>
    d57d:	48 89 c1             	mov    %rax,%rcx
    d580:	e8 be 2a ff ff       	call   43 <printf>
    d585:	48 8d 45 a0          	lea    -0x60(%rbp),%rax
    d589:	f3 0f 10 0d a0 07 00 	movss  0x7a0(%rip),%xmm1        # dd31 <test_fault+0x9c1>
    d590:	00 
    d591:	48 89 c1             	mov    %rax,%rcx
    d594:	e8 00 00 00 00       	call   d599 <test_fault+0x229>
    d599:	84 c0                	test   %al,%al
    d59b:	74 1f                	je     d5bc <test_fault+0x24c>
    d59d:	41 b8 3e 06 00 00    	mov    $0x63e,%r8d
    d5a3:	48 8d 05 49 00 00 00 	lea    0x49(%rip),%rax        # d5f3 <test_fault+0x283>
    d5aa:	48 89 c2             	mov    %rax,%rdx
    d5ad:	48 8d 05 5a 00 00 00 	lea    0x5a(%rip),%rax        # d60e <test_fault+0x29e>
    d5b4:	48 89 c1             	mov    %rax,%rcx
    d5b7:	e8 87 2a ff ff       	call   43 <printf>
    d5bc:	48 8d 45 a0          	lea    -0x60(%rbp),%rax
    d5c0:	f3 0f 10 0d a0 07 00 	movss  0x7a0(%rip),%xmm1        # dd68 <test_fault+0x9f8>
    d5c7:	00 
    d5c8:	48 89 c1             	mov    %rax,%rcx
    d5cb:	e8 00 00 00 00       	call   d5d0 <test_fault+0x260>
    d5d0:	84 c0                	test   %al,%al
    d5d2:	74 1f                	je     d5f3 <test_fault+0x283>
    d5d4:	41 b8 3f 06 00 00    	mov    $0x63f,%r8d
    d5da:	48 8d 05 49 00 00 00 	lea    0x49(%rip),%rax        # d62a <test_fault+0x2ba>
    d5e1:	48 89 c2             	mov    %rax,%rdx
    d5e4:	48 8d 05 5a 00 00 00 	lea    0x5a(%rip),%rax        # d645 <test_fault+0x2d5>
    d5eb:	48 89 c1             	mov    %rax,%rcx
    d5ee:	e8 50 2a ff ff       	call   43 <printf>
    d5f3:	48 8d 45 a0          	lea    -0x60(%rbp),%rax
    d5f7:	f3 0f 10 0d a0 07 00 	movss  0x7a0(%rip),%xmm1        # dd9f <test_fault+0xa2f>
    d5fe:	00 
    d5ff:	48 89 c1             	mov    %rax,%rcx
    d602:	e8 00 00 00 00       	call   d607 <test_fault+0x297>
    d607:	84 c0                	test   %al,%al
    d609:	74 1f                	je     d62a <test_fault+0x2ba>
    d60b:	41 b8 40 06 00 00    	mov    $0x640,%r8d
    d611:	48 8d 05 49 00 00 00 	lea    0x49(%rip),%rax        # d661 <test_fault+0x2f1>
    d618:	48 89 c2             	mov    %rax,%rdx
    d61b:	48 8d 05 5a 00 00 00 	lea    0x5a(%rip),%rax        # d67c <test_fault+0x30c>
    d622:	48 89 c1             	mov    %rax,%rcx
    d625:	e8 19 2a ff ff       	call   43 <printf>
    d62a:	48 8d 45 a0          	lea    -0x60(%rbp),%rax
    d62e:	f3 0f 10 0d a0 07 00 	movss  0x7a0(%rip),%xmm1        # ddd6 <test_fault+0xa66>
    d635:	00 
    d636:	48 89 c1             	mov    %rax,%rcx
    d639:	e8 00 00 00 00       	call   d63e <test_fault+0x2ce>
    d63e:	84 c0                	test   %al,%al
    d640:	74 1f                	je     d661 <test_fault+0x2f1>
    d642:	41 b8 41 06 00 00    	mov    $0x641,%r8d
    d648:	48 8d 05 49 00 00 00 	lea    0x49(%rip),%rax        # d698 <test_fault+0x328>
    d64f:	48 89 c2             	mov    %rax,%rdx
    d652:	48 8d 05 5a 00 00 00 	lea    0x5a(%rip),%rax        # d6b3 <test_fault+0x343>
    d659:	48 89 c1             	mov    %rax,%rcx
    d65c:	e8 e2 29 ff ff       	call   43 <printf>
    d661:	8b 45 fc             	mov    -0x4(%rbp),%eax
    d664:	85 c0                	test   %eax,%eax
    d666:	74 1f                	je     d687 <test_fault+0x317>
    d668:	41 b8 42 06 00 00    	mov    $0x642,%r8d
    d66e:	48 8d 05 49 00 00 00 	lea    0x49(%rip),%rax        # d6be <test_fault+0x34e>
    d675:	48 89 c2             	mov    %rax,%rdx
    d678:	48 8d 05 5a 00 00 00 	lea    0x5a(%rip),%rax        # d6d9 <test_fault+0x369>
    d67f:	48 89 c1             	mov    %rax,%rcx
    d682:	e8 bc 29 ff ff       	call   43 <printf>
    d687:	48 8d 45 a0          	lea    -0x60(%rbp),%rax
    d68b:	f3 0f 10 0d 9c 07 00 	movss  0x79c(%rip),%xmm1        # de2f <test_fault+0xabf>
    d692:	00 
    d693:	48 89 c1             	mov    %rax,%rcx
    d696:	e8 00 00 00 00       	call   d69b <test_fault+0x32b>
    d69b:	84 c0                	test   %al,%al
    d69d:	74 1f                	je     d6be <test_fault+0x34e>
    d69f:	41 b8 43 06 00 00    	mov    $0x643,%r8d
    d6a5:	48 8d 05 49 00 00 00 	lea    0x49(%rip),%rax        # d6f5 <test_fault+0x385>
    d6ac:	48 89 c2             	mov    %rax,%rdx
    d6af:	48 8d 05 5a 00 00 00 	lea    0x5a(%rip),%rax        # d710 <test_fault+0x3a0>
    d6b6:	48 89 c1             	mov    %rax,%rcx
    d6b9:	e8 85 29 ff ff       	call   43 <printf>
    d6be:	48 8d 45 a0          	lea    -0x60(%rbp),%rax
    d6c2:	f3 0f 10 0d 9c 07 00 	movss  0x79c(%rip),%xmm1        # de66 <test_fault+0xaf6>
    d6c9:	00 
    d6ca:	48 89 c1             	mov    %rax,%rcx
    d6cd:	e8 00 00 00 00       	call   d6d2 <test_fault+0x362>
    d6d2:	84 c0                	test   %al,%al
    d6d4:	74 1f                	je     d6f5 <test_fault+0x385>
    d6d6:	41 b8 44 06 00 00    	mov    $0x644,%r8d
    d6dc:	48 8d 05 49 00 00 00 	lea    0x49(%rip),%rax        # d72c <test_fault+0x3bc>
    d6e3:	48 89 c2             	mov    %rax,%rdx
    d6e6:	48 8d 05 5a 00 00 00 	lea    0x5a(%rip),%rax        # d747 <test_fault+0x3d7>
    d6ed:	48 89 c1             	mov    %rax,%rcx
    d6f0:	e8 4e 29 ff ff       	call   43 <printf>
    d6f5:	8b 45 fc             	mov    -0x4(%rbp),%eax
    d6f8:	85 c0                	test   %eax,%eax
    d6fa:	74 1f                	je     d71b <test_fault+0x3ab>
    d6fc:	41 b8 45 06 00 00    	mov    $0x645,%r8d
    d702:	48 8d 05 49 00 00 00 	lea    0x49(%rip),%rax        # d752 <test_fault+0x3e2>
    d709:	48 89 c2             	mov    %rax,%rdx
    d70c:	48 8d 05 5a 00 00 00 	lea    0x5a(%rip),%rax        # d76d <test_fault+0x3fd>
    d713:	48 89 c1             	mov    %rax,%rcx
    d716:	e8 28 29 ff ff       	call   43 <printf>
    d71b:	48 8d 45 a0          	lea    -0x60(%rbp),%rax
    d71f:	f3 0f 10 0d 9c 07 00 	movss  0x79c(%rip),%xmm1        # dec3 <test_fault+0xb53>
    d726:	00 
    d727:	48 89 c1             	mov    %rax,%rcx
    d72a:	e8 00 00 00 00       	call   d72f <test_fault+0x3bf>
    d72f:	83 f0 01             	xor    $0x1,%eax
    d732:	84 c0                	test   %al,%al
    d734:	74 1f                	je     d755 <test_fault+0x3e5>
    d736:	41 b8 46 06 00 00    	mov    $0x646,%r8d
    d73c:	48 8d 05 49 00 00 00 	lea    0x49(%rip),%rax        # d78c <test_fault+0x41c>
    d743:	48 89 c2             	mov    %rax,%rdx
    d746:	48 8d 05 5a 00 00 00 	lea    0x5a(%rip),%rax        # d7a7 <test_fault+0x437>
    d74d:	48 89 c1             	mov    %rax,%rcx
    d750:	e8 ee 28 ff ff       	call   43 <printf>
    d755:	8b 45 fc             	mov    -0x4(%rbp),%eax
    d758:	83 f8 01             	cmp    $0x1,%eax
    d75b:	74 1f                	je     d77c <test_fault+0x40c>
    d75d:	41 b8 47 06 00 00    	mov    $0x647,%r8d
    d763:	48 8d 05 49 00 00 00 	lea    0x49(%rip),%rax        # d7b3 <test_fault+0x443>
    d76a:	48 89 c2             	mov    %rax,%rdx
    d76d:	48 8d 05 5a 00 00 00 	lea    0x5a(%rip),%rax        # d7ce <test_fault+0x45e>
    d774:	48 89 c1             	mov    %rax,%rcx
    d777:	e8 c7 28 ff ff       	call   43 <printf>
    d77c:	48 8d 45 a0          	lea    -0x60(%rbp),%rax
    d780:	f3 0f 10 0d 9c 07 00 	movss  0x79c(%rip),%xmm1        # df24 <test_fault+0xbb4>
    d787:	00 
    d788:	48 89 c1             	mov    %rax,%rcx
    d78b:	e8 00 00 00 00       	call   d790 <test_fault+0x420>
    d790:	83 f0 01             	xor    $0x1,%eax
    d793:	84 c0                	test   %al,%al
    d795:	74 1f                	je     d7b6 <test_fault+0x446>
    d797:	41 b8 48 06 00 00    	mov    $0x648,%r8d
    d79d:	48 8d 05 49 00 00 00 	lea    0x49(%rip),%rax        # d7ed <test_fault+0x47d>
    d7a4:	48 89 c2             	mov    %rax,%rdx
    d7a7:	48 8d 05 5a 00 00 00 	lea    0x5a(%rip),%rax        # d808 <test_fault+0x498>
    d7ae:	48 89 c1             	mov    %rax,%rcx
    d7b1:	e8 8d 28 ff ff       	call   43 <printf>
    d7b6:	48 8d 45 a0          	lea    -0x60(%rbp),%rax
    d7ba:	f3 0f 10 0d a0 07 00 	movss  0x7a0(%rip),%xmm1        # df62 <test_fault+0xbf2>
    d7c1:	00 
    d7c2:	48 89 c1             	mov    %rax,%rcx
    d7c5:	e8 00 00 00 00       	call   d7ca <test_fault+0x45a>
    d7ca:	83 f0 01             	xor    $0x1,%eax
    d7cd:	84 c0                	test   %al,%al
    d7cf:	74 1f                	je     d7f0 <test_fault+0x480>
    d7d1:	41 b8 49 06 00 00    	mov    $0x649,%r8d
    d7d7:	48 8d 05 49 00 00 00 	lea    0x49(%rip),%rax        # d827 <test_fault+0x4b7>
    d7de:	48 89 c2             	mov    %rax,%rdx
    d7e1:	48 8d 05 5a 00 00 00 	lea    0x5a(%rip),%rax        # d842 <test_fault+0x4d2>
    d7e8:	48 89 c1             	mov    %rax,%rcx
    d7eb:	e8 53 28 ff ff       	call   43 <printf>
    d7f0:	48 8d 45 a0          	lea    -0x60(%rbp),%rax
    d7f4:	f3 0f 10 0d a0 07 00 	movss  0x7a0(%rip),%xmm1        # df9c <test_fixmath+0x26>
    d7fb:	00 
    d7fc:	48 89 c1             	mov    %rax,%rcx
    d7ff:	e8 00 00 00 00       	call   d804 <test_fault+0x494>
    d804:	83 f0 01             	xor    $0x1,%eax
    d807:	84 c0                	test   %al,%al
    d809:	74 1f                	je     d82a <test_fault+0x4ba>
    d80b:	41 b8 4a 06 00 00    	mov    $0x64a,%r8d
    d811:	48 8d 05 49 00 00 00 	lea    0x49(%rip),%rax        # d861 <test_fault+0x4f1>
    d818:	48 89 c2             	mov    %rax,%rdx
    d81b:	48 8d 05 5a 00 00 00 	lea    0x5a(%rip),%rax        # d87c <test_fault+0x50c>
    d822:	48 89 c1             	mov    %rax,%rcx
    d825:	e8 19 28 ff ff       	call   43 <printf>
    d82a:	48 8d 45 a0          	lea    -0x60(%rbp),%rax
    d82e:	f3 0f 10 0d a0 07 00 	movss  0x7a0(%rip),%xmm1        # dfd6 <test_fixmath+0x60>
    d835:	00 
    d836:	48 89 c1             	mov    %rax,%rcx
    d839:	e8 00 00 00 00       	call   d83e <test_fault+0x4ce>
    d83e:	83 f0 01             	xor    $0x1,%eax
    d841:	84 c0                	test   %al,%al
    d843:	74 1f                	je     d864 <test_fault+0x4f4>
    d845:	41 b8 4b 06 00 00    	mov    $0x64b,%r8d
    d84b:	48 8d 05 49 00 00 00 	lea    0x49(%rip),%rax        # d89b <test_fault+0x52b>
    d852:	48 89 c2             	mov    %rax,%rdx
    d855:	48 8d 05 5a 00 00 00 	lea    0x5a(%rip),%rax        # d8b6 <test_fault+0x546>
    d85c:	48 89 c1             	mov    %rax,%rcx
    d85f:	e8 df 27 ff ff       	call   43 <printf>
    d864:	48 8d 45 a0          	lea    -0x60(%rbp),%rax
    d868:	f3 0f 10 0d a0 07 00 	movss  0x7a0(%rip),%xmm1        # e010 <test_log32+0x22>
    d86f:	00 
    d870:	48 89 c1             	mov    %rax,%rcx
    d873:	e8 00 00 00 00       	call   d878 <test_fault+0x508>
    d878:	83 f0 01             	xor    $0x1,%eax
    d87b:	84 c0                	test   %al,%al
    d87d:	74 1f                	je     d89e <test_fault+0x52e>
    d87f:	41 b8 4c 06 00 00    	mov    $0x64c,%r8d
    d885:	48 8d 05 49 00 00 00 	lea    0x49(%rip),%rax        # d8d5 <test_fault+0x565>
    d88c:	48 89 c2             	mov    %rax,%rdx
    d88f:	48 8d 05 5a 00 00 00 	lea    0x5a(%rip),%rax        # d8f0 <test_fault+0x580>
    d896:	48 89 c1             	mov    %rax,%rcx
    d899:	e8 a5 27 ff ff       	call   43 <printf>
    d89e:	48 8d 45 a0          	lea    -0x60(%rbp),%rax
    d8a2:	f3 0f 10 0d a0 07 00 	movss  0x7a0(%rip),%xmm1        # e04a <test_log32+0x5c>
    d8a9:	00 
    d8aa:	48 89 c1             	mov    %rax,%rcx
    d8ad:	e8 00 00 00 00       	call   d8b2 <test_fault+0x542>
    d8b2:	83 f0 01             	xor    $0x1,%eax
    d8b5:	84 c0                	test   %al,%al
    d8b7:	74 1f                	je     d8d8 <test_fault+0x568>
    d8b9:	41 b8 4d 06 00 00    	mov    $0x64d,%r8d
    d8bf:	48 8d 05 49 00 00 00 	lea    0x49(%rip),%rax        # d90f <test_fault+0x59f>
    d8c6:	48 89 c2             	mov    %rax,%rdx
    d8c9:	48 8d 05 5a 00 00 00 	lea    0x5a(%rip),%rax        # d92a <test_fault+0x5ba>
    d8d0:	48 89 c1             	mov    %rax,%rcx
    d8d3:	e8 6b 27 ff ff       	call   43 <printf>
    d8d8:	8b 45 fc             	mov    -0x4(%rbp),%eax
    d8db:	83 f8 01             	cmp    $0x1,%eax
    d8de:	74 1f                	je     d8ff <test_fault+0x58f>
    d8e0:	41 b8 4e 06 00 00    	mov    $0x64e,%r8d
    d8e6:	48 8d 05 49 00 00 00 	lea    0x49(%rip),%rax        # d936 <test_fault+0x5c6>
    d8ed:	48 89 c2             	mov    %rax,%rdx
    d8f0:	48 8d 05 5a 00 00 00 	lea    0x5a(%rip),%rax        # d951 <test_fault+0x5e1>
    d8f7:	48 89 c1             	mov    %rax,%rcx
    d8fa:	e8 44 27 ff ff       	call   43 <printf>
    d8ff:	48 8d 45 a0          	lea    -0x60(%rbp),%rax
    d903:	66 0f ef c9          	pxor   %xmm1,%xmm1
    d907:	48 89 c1             	mov    %rax,%rcx
    d90a:	e8 00 00 00 00       	call   d90f <test_fault+0x59f>
    d90f:	83 f0 01             	xor    $0x1,%eax
    d912:	84 c0                	test   %al,%al
    d914:	74 1f                	je     d935 <test_fault+0x5c5>
    d916:	41 b8 4f 06 00 00    	mov    $0x64f,%r8d
    d91c:	48 8d 05 49 00 00 00 	lea    0x49(%rip),%rax        # d96c <test_fault+0x5fc>
    d923:	48 89 c2             	mov    %rax,%rdx
    d926:	48 8d 05 5a 00 00 00 	lea    0x5a(%rip),%rax        # d987 <test_fault+0x617>
    d92d:	48 89 c1             	mov    %rax,%rcx
    d930:	e8 0e 27 ff ff       	call   43 <printf>
    d935:	48 8d 45 a0          	lea    -0x60(%rbp),%rax
    d939:	66 0f ef c9          	pxor   %xmm1,%xmm1
    d93d:	48 89 c1             	mov    %rax,%rcx
    d940:	e8 00 00 00 00       	call   d945 <test_fault+0x5d5>
    d945:	83 f0 01             	xor    $0x1,%eax
    d948:	84 c0                	test   %al,%al
    d94a:	74 1f                	je     d96b <test_fault+0x5fb>
    d94c:	41 b8 50 06 00 00    	mov    $0x650,%r8d
    d952:	48 8d 05 49 00 00 00 	lea    0x49(%rip),%rax        # d9a2 <test_fault+0x632>
    d959:	48 89 c2             	mov    %rax,%rdx
    d95c:	48 8d 05 5a 00 00 00 	lea    0x5a(%rip),%rax        # d9bd <test_fault+0x64d>
    d963:	48 89 c1             	mov    %rax,%rcx
    d966:	e8 d8 26 ff ff       	call   43 <printf>
    d96b:	8b 45 fc             	mov    -0x4(%rbp),%eax
    d96e:	83 f8 01             	cmp    $0x1,%eax
    d971:	74 1f                	je     d992 <test_fault+0x622>
    d973:	41 b8 51 06 00 00    	mov    $0x651,%r8d
    d979:	48 8d 05 49 00 00 00 	lea    0x49(%rip),%rax        # d9c9 <test_fault+0x659>
    d980:	48 89 c2             	mov    %rax,%rdx
    d983:	48 8d 05 5a 00 00 00 	lea    0x5a(%rip),%rax        # d9e4 <test_fault+0x674>
    d98a:	48 89 c1             	mov    %rax,%rcx
    d98d:	e8 b1 26 ff ff       	call   43 <printf>
    d992:	48 8d 45 a0          	lea    -0x60(%rbp),%rax
    d996:	66 0f ef c9          	pxor   %xmm1,%xmm1
    d99a:	48 89 c1             	mov    %rax,%rcx
    d99d:	e8 00 00 00 00       	call   d9a2 <test_fault+0x632>
    d9a2:	84 c0                	test   %al,%al
    d9a4:	74 1f                	je     d9c5 <test_fault+0x655>
    d9a6:	41 b8 52 06 00 00    	mov    $0x652,%r8d
    d9ac:	48 8d 05 49 00 00 00 	lea    0x49(%rip),%rax        # d9fc <test_fault+0x68c>
    d9b3:	48 89 c2             	mov    %rax,%rdx
    d9b6:	48 8d 05 5a 00 00 00 	lea    0x5a(%rip),%rax        # da17 <test_fault+0x6a7>
    d9bd:	48 89 c1             	mov    %rax,%rcx
    d9c0:	e8 7e 26 ff ff       	call   43 <printf>
    d9c5:	8b 45 fc             	mov    -0x4(%rbp),%eax
    d9c8:	85 c0                	test   %eax,%eax
    d9ca:	74 1f                	je     d9eb <test_fault+0x67b>
    d9cc:	41 b8 53 06 00 00    	mov    $0x653,%r8d
    d9d2:	48 8d 05 49 00 00 00 	lea    0x49(%rip),%rax        # da22 <test_fault+0x6b2>
    d9d9:	48 89 c2             	mov    %rax,%rdx
    d9dc:	48 8d 05 5a 00 00 00 	lea    0x5a(%rip),%rax        # da3d <test_fault+0x6cd>
    d9e3:	48 89 c1             	mov    %rax,%rcx
    d9e6:	e8 58 26 ff ff       	call   43 <printf>
    d9eb:	48 8d 45 a0          	lea    -0x60(%rbp),%rax
    d9ef:	66 0f ef c9          	pxor   %xmm1,%xmm1
    d9f3:	48 89 c1             	mov    %rax,%rcx
    d9f6:	e8 00 00 00 00       	call   d9fb <test_fault+0x68b>
    d9fb:	84 c0                	test   %al,%al
    d9fd:	74 1f                	je     da1e <test_fault+0x6ae>
    d9ff:	41 b8 54 06 00 00    	mov    $0x654,%r8d
    da05:	48 8d 05 49 00 00 00 	lea    0x49(%rip),%rax        # da55 <test_fault+0x6e5>
    da0c:	48 89 c2             	mov    %rax,%rdx
    da0f:	48 8d 05 5a 00 00 00 	lea    0x5a(%rip),%rax        # da70 <test_fault+0x700>
    da16:	48 89 c1             	mov    %rax,%rcx
    da19:	e8 25 26 ff ff       	call   43 <printf>
    da1e:	48 8d 45 a0          	lea    -0x60(%rbp),%rax
    da22:	66 0f ef c9          	pxor   %xmm1,%xmm1
    da26:	48 89 c1             	mov    %rax,%rcx
    da29:	e8 00 00 00 00       	call   da2e <test_fault+0x6be>
    da2e:	84 c0                	test   %al,%al
    da30:	74 1f                	je     da51 <test_fault+0x6e1>
    da32:	41 b8 55 06 00 00    	mov    $0x655,%r8d
    da38:	48 8d 05 49 00 00 00 	lea    0x49(%rip),%rax        # da88 <test_fault+0x718>
    da3f:	48 89 c2             	mov    %rax,%rdx
    da42:	48 8d 05 5a 00 00 00 	lea    0x5a(%rip),%rax        # daa3 <test_fault+0x733>
    da49:	48 89 c1             	mov    %rax,%rcx
    da4c:	e8 f2 25 ff ff       	call   43 <printf>
    da51:	48 8d 45 a0          	lea    -0x60(%rbp),%rax
    da55:	66 0f ef c9          	pxor   %xmm1,%xmm1
    da59:	48 89 c1             	mov    %rax,%rcx
    da5c:	e8 00 00 00 00       	call   da61 <test_fault+0x6f1>
    da61:	84 c0                	test   %al,%al
    da63:	74 1f                	je     da84 <test_fault+0x714>
    da65:	41 b8 56 06 00 00    	mov    $0x656,%r8d
    da6b:	48 8d 05 49 00 00 00 	lea    0x49(%rip),%rax        # dabb <test_fault+0x74b>
    da72:	48 89 c2             	mov    %rax,%rdx
    da75:	48 8d 05 5a 00 00 00 	lea    0x5a(%rip),%rax        # dad6 <test_fault+0x766>
    da7c:	48 89 c1             	mov    %rax,%rcx
    da7f:	e8 bf 25 ff ff       	call   43 <printf>
    da84:	8b 45 fc             	mov    -0x4(%rbp),%eax
    da87:	85 c0                	test   %eax,%eax
    da89:	74 1f                	je     daaa <test_fault+0x73a>
    da8b:	41 b8 57 06 00 00    	mov    $0x657,%r8d
    da91:	48 8d 05 49 00 00 00 	lea    0x49(%rip),%rax        # dae1 <test_fault+0x771>
    da98:	48 89 c2             	mov    %rax,%rdx
    da9b:	48 8d 05 5a 00 00 00 	lea    0x5a(%rip),%rax        # dafc <test_fault+0x78c>
    daa2:	48 89 c1             	mov    %rax,%rcx
    daa5:	e8 99 25 ff ff       	call   43 <printf>
    daaa:	48 8d 45 a0          	lea    -0x60(%rbp),%rax
    daae:	f3 0f 10 0d 9c 07 00 	movss  0x79c(%rip),%xmm1        # e252 <test_log32+0x264>
    dab5:	00 
    dab6:	48 89 c1             	mov    %rax,%rcx
    dab9:	e8 00 00 00 00       	call   dabe <test_fault+0x74e>
    dabe:	84 c0                	test   %al,%al
    dac0:	74 1f                	je     dae1 <test_fault+0x771>
    dac2:	41 b8 58 06 00 00    	mov    $0x658,%r8d
    dac8:	48 8d 05 49 00 00 00 	lea    0x49(%rip),%rax        # db18 <test_fault+0x7a8>
    dacf:	48 89 c2             	mov    %rax,%rdx
    dad2:	48 8d 05 5a 00 00 00 	lea    0x5a(%rip),%rax        # db33 <test_fault+0x7c3>
    dad9:	48 89 c1             	mov    %rax,%rcx
    dadc:	e8 62 25 ff ff       	call   43 <printf>
    dae1:	48 8d 45 a0          	lea    -0x60(%rbp),%rax
    dae5:	f3 0f 10 0d 9c 07 00 	movss  0x79c(%rip),%xmm1        # e289 <test_log32+0x29b>
    daec:	00 
    daed:	48 89 c1             	mov    %rax,%rcx
    daf0:	e8 00 00 00 00       	call   daf5 <test_fault+0x785>
    daf5:	84 c0                	test   %al,%al
    daf7:	74 1f                	je     db18 <test_fault+0x7a8>
    daf9:	41 b8 59 06 00 00    	mov    $0x659,%r8d
    daff:	48 8d 05 49 00 00 00 	lea    0x49(%rip),%rax        # db4f <test_fault+0x7df>
    db06:	48 89 c2             	mov    %rax,%rdx
    db09:	48 8d 05 5a 00 00 00 	lea    0x5a(%rip),%rax        # db6a <test_fault+0x7fa>
    db10:	48 89 c1             	mov    %rax,%rcx
    db13:	e8 2b 25 ff ff       	call   43 <printf>
    db18:	48 8d 45 a0          	lea    -0x60(%rbp),%rax
    db1c:	f3 0f 10 0d 9c 07 00 	movss  0x79c(%rip),%xmm1        # e2c0 <test_log32+0x2d2>
    db23:	00 
    db24:	48 89 c1             	mov    %rax,%rcx
    db27:	e8 00 00 00 00       	call   db2c <test_fault+0x7bc>
    db2c:	83 f0 01             	xor    $0x1,%eax
    db2f:	84 c0                	test   %al,%al
    db31:	74 1f                	je     db52 <test_fault+0x7e2>
    db33:	41 b8 5a 06 00 00    	mov    $0x65a,%r8d
    db39:	48 8d 05 49 00 00 00 	lea    0x49(%rip),%rax        # db89 <test_fault+0x819>
    db40:	48 89 c2             	mov    %rax,%rdx
    db43:	48 8d 05 5a 00 00 00 	lea    0x5a(%rip),%rax        # dba4 <test_fault+0x834>
    db4a:	48 89 c1             	mov    %rax,%rcx
    db4d:	e8 f1 24 ff ff       	call   43 <printf>
    db52:	8b 45 fc             	mov    -0x4(%rbp),%eax
    db55:	83 f8 01             	cmp    $0x1,%eax
    db58:	74 1f                	je     db79 <test_fault+0x809>
    db5a:	41 b8 5b 06 00 00    	mov    $0x65b,%r8d
    db60:	48 8d 05 49 00 00 00 	lea    0x49(%rip),%rax        # dbb0 <test_fault+0x840>
    db67:	48 89 c2             	mov    %rax,%rdx
    db6a:	48 8d 05 5a 00 00 00 	lea    0x5a(%rip),%rax        # dbcb <test_fault+0x85b>
    db71:	48 89 c1             	mov    %rax,%rcx
    db74:	e8 ca 24 ff ff       	call   43 <printf>
    db79:	48 8d 45 a0          	lea    -0x60(%rbp),%rax
    db7d:	66 0f ef c9          	pxor   %xmm1,%xmm1
    db81:	48 89 c1             	mov    %rax,%rcx
    db84:	e8 00 00 00 00       	call   db89 <test_fault+0x819>
    db89:	83 f0 01             	xor    $0x1,%eax
    db8c:	84 c0                	test   %al,%al
    db8e:	74 1f                	je     dbaf <test_fault+0x83f>
    db90:	41 b8 5c 06 00 00    	mov    $0x65c,%r8d
    db96:	48 8d 05 49 00 00 00 	lea    0x49(%rip),%rax        # dbe6 <test_fault+0x876>
    db9d:	48 89 c2             	mov    %rax,%rdx
    dba0:	48 8d 05 5a 00 00 00 	lea    0x5a(%rip),%rax        # dc01 <test_fault+0x891>
    dba7:	48 89 c1             	mov    %rax,%rcx
    dbaa:	e8 94 24 ff ff       	call   43 <printf>
    dbaf:	48 8d 45 a0          	lea    -0x60(%rbp),%rax
    dbb3:	66 0f ef c9          	pxor   %xmm1,%xmm1
    dbb7:	48 89 c1             	mov    %rax,%rcx
    dbba:	e8 00 00 00 00       	call   dbbf <test_fault+0x84f>
    dbbf:	83 f0 01             	xor    $0x1,%eax
    dbc2:	84 c0                	test   %al,%al
    dbc4:	74 1f                	je     dbe5 <test_fault+0x875>
    dbc6:	41 b8 5d 06 00 00    	mov    $0x65d,%r8d
    dbcc:	48 8d 05 49 00 00 00 	lea    0x49(%rip),%rax        # dc1c <test_fault+0x8ac>
    dbd3:	48 89 c2             	mov    %rax,%rdx
    dbd6:	48 8d 05 5a 00 00 00 	lea    0x5a(%rip),%rax        # dc37 <test_fault+0x8c7>
    dbdd:	48 89 c1             	mov    %rax,%rcx
    dbe0:	e8 5e 24 ff ff       	call   43 <printf>
    dbe5:	48 8d 45 a0          	lea    -0x60(%rbp),%rax
    dbe9:	66 0f ef c9          	pxor   %xmm1,%xmm1
    dbed:	48 89 c1             	mov    %rax,%rcx
    dbf0:	e8 00 00 00 00       	call   dbf5 <test_fault+0x885>
    dbf5:	83 f0 01             	xor    $0x1,%eax
    dbf8:	84 c0                	test   %al,%al
    dbfa:	74 1f                	je     dc1b <test_fault+0x8ab>
    dbfc:	41 b8 5e 06 00 00    	mov    $0x65e,%r8d
    dc02:	48 8d 05 49 00 00 00 	lea    0x49(%rip),%rax        # dc52 <test_fault+0x8e2>
    dc09:	48 89 c2             	mov    %rax,%rdx
    dc0c:	48 8d 05 5a 00 00 00 	lea    0x5a(%rip),%rax        # dc6d <test_fault+0x8fd>
    dc13:	48 89 c1             	mov    %rax,%rcx
    dc16:	e8 28 24 ff ff       	call   43 <printf>
    dc1b:	48 8d 45 a0          	lea    -0x60(%rbp),%rax
    dc1f:	66 0f ef c9          	pxor   %xmm1,%xmm1
    dc23:	48 89 c1             	mov    %rax,%rcx
    dc26:	e8 00 00 00 00       	call   dc2b <test_fault+0x8bb>
    dc2b:	83 f0 01             	xor    $0x1,%eax
    dc2e:	84 c0                	test   %al,%al
    dc30:	74 1f                	je     dc51 <test_fault+0x8e1>
    dc32:	41 b8 5f 06 00 00    	mov    $0x65f,%r8d
    dc38:	48 8d 05 49 00 00 00 	lea    0x49(%rip),%rax        # dc88 <test_fault+0x918>
    dc3f:	48 89 c2             	mov    %rax,%rdx
    dc42:	48 8d 05 5a 00 00 00 	lea    0x5a(%rip),%rax        # dca3 <test_fault+0x933>
    dc49:	48 89 c1             	mov    %rax,%rcx
    dc4c:	e8 f2 23 ff ff       	call   43 <printf>
    dc51:	8b 45 fc             	mov    -0x4(%rbp),%eax
    dc54:	83 f8 01             	cmp    $0x1,%eax
    dc57:	74 1f                	je     dc78 <test_fault+0x908>
    dc59:	41 b8 60 06 00 00    	mov    $0x660,%r8d
    dc5f:	48 8d 05 49 00 00 00 	lea    0x49(%rip),%rax        # dcaf <test_fault+0x93f>
    dc66:	48 89 c2             	mov    %rax,%rdx
    dc69:	48 8d 05 5a 00 00 00 	lea    0x5a(%rip),%rax        # dcca <test_fault+0x95a>
    dc70:	48 89 c1             	mov    %rax,%rcx
    dc73:	e8 cb 23 ff ff       	call   43 <printf>
    dc78:	48 8d 45 a0          	lea    -0x60(%rbp),%rax
    dc7c:	48 89 c1             	mov    %rax,%rcx
    dc7f:	e8 00 00 00 00       	call   dc84 <test_fault+0x914>
    dc84:	c7 45 f8 00 00 00 00 	movl   $0x0,-0x8(%rbp)
    dc8b:	48 8d 45 a0          	lea    -0x60(%rbp),%rax
    dc8f:	f3 0f 10 0d 9c 07 00 	movss  0x79c(%rip),%xmm1        # e433 <test_log32+0x445>
    dc96:	00 
    dc97:	48 89 c1             	mov    %rax,%rcx
    dc9a:	e8 00 00 00 00       	call   dc9f <test_fault+0x92f>
    dc9f:	84 c0                	test   %al,%al
    dca1:	74 1f                	je     dcc2 <test_fault+0x952>
    dca3:	41 b8 64 06 00 00    	mov    $0x664,%r8d
    dca9:	48 8d 05 49 00 00 00 	lea    0x49(%rip),%rax        # dcf9 <test_fault+0x989>
    dcb0:	48 89 c2             	mov    %rax,%rdx
    dcb3:	48 8d 05 5a 00 00 00 	lea    0x5a(%rip),%rax        # dd14 <test_fault+0x9a4>
    dcba:	48 89 c1             	mov    %rax,%rcx
    dcbd:	e8 81 23 ff ff       	call   43 <printf>
    dcc2:	48 8d 45 a0          	lea    -0x60(%rbp),%rax
    dcc6:	f3 0f 10 0d 9c 07 00 	movss  0x79c(%rip),%xmm1        # e46a <test_log32+0x47c>
    dccd:	00 
    dcce:	48 89 c1             	mov    %rax,%rcx
    dcd1:	e8 00 00 00 00       	call   dcd6 <test_fault+0x966>
    dcd6:	84 c0                	test   %al,%al
    dcd8:	74 1f                	je     dcf9 <test_fault+0x989>
    dcda:	41 b8 65 06 00 00    	mov    $0x665,%r8d
    dce0:	48 8d 05 49 00 00 00 	lea    0x49(%rip),%rax        # dd30 <test_fault+0x9c0>
    dce7:	48 89 c2             	mov    %rax,%rdx
    dcea:	48 8d 05 5a 00 00 00 	lea    0x5a(%rip),%rax        # dd4b <test_fault+0x9db>
    dcf1:	48 89 c1             	mov    %rax,%rcx
    dcf4:	e8 4a 23 ff ff       	call   43 <printf>
    dcf9:	48 8d 45 a0          	lea    -0x60(%rbp),%rax
    dcfd:	f3 0f 10 0d 9c 07 00 	movss  0x79c(%rip),%xmm1        # e4a1 <test_log32+0x4b3>
    dd04:	00 
    dd05:	48 89 c1             	mov    %rax,%rcx
    dd08:	e8 00 00 00 00       	call   dd0d <test_fault+0x99d>
    dd0d:	84 c0                	test   %al,%al
    dd0f:	74 1f                	je     dd30 <test_fault+0x9c0>
    dd11:	41 b8 66 06 00 00    	mov    $0x666,%r8d
    dd17:	48 8d 05 49 00 00 00 	lea    0x49(%rip),%rax        # dd67 <test_fault+0x9f7>
    dd1e:	48 89 c2             	mov    %rax,%rdx
    dd21:	48 8d 05 5a 00 00 00 	lea    0x5a(%rip),%rax        # dd82 <test_fault+0xa12>
    dd28:	48 89 c1             	mov    %rax,%rcx
    dd2b:	e8 13 23 ff ff       	call   43 <printf>
    dd30:	48 8d 45 a0          	lea    -0x60(%rbp),%rax
    dd34:	f3 0f 10 0d 9c 07 00 	movss  0x79c(%rip),%xmm1        # e4d8 <test_log32+0x4ea>
    dd3b:	00 
    dd3c:	48 89 c1             	mov    %rax,%rcx
    dd3f:	e8 00 00 00 00       	call   dd44 <test_fault+0x9d4>
    dd44:	84 c0                	test   %al,%al
    dd46:	74 1f                	je     dd67 <test_fault+0x9f7>
    dd48:	41 b8 67 06 00 00    	mov    $0x667,%r8d
    dd4e:	48 8d 05 49 00 00 00 	lea    0x49(%rip),%rax        # dd9e <test_fault+0xa2e>
    dd55:	48 89 c2             	mov    %rax,%rdx
    dd58:	48 8d 05 5a 00 00 00 	lea    0x5a(%rip),%rax        # ddb9 <test_fault+0xa49>
    dd5f:	48 89 c1             	mov    %rax,%rcx
    dd62:	e8 dc 22 ff ff       	call   43 <printf>
    dd67:	c7 45 f8 01 00 00 00 	movl   $0x1,-0x8(%rbp)
    dd6e:	48 8d 45 a0          	lea    -0x60(%rbp),%rax
    dd72:	f3 0f 10 0d 9c 07 00 	movss  0x79c(%rip),%xmm1        # e516 <test_log32+0x528>
    dd79:	00 
    dd7a:	48 89 c1             	mov    %rax,%rcx
    dd7d:	e8 00 00 00 00       	call   dd82 <test_fault+0xa12>
    dd82:	84 c0                	test   %al,%al
    dd84:	74 1f                	je     dda5 <test_fault+0xa35>
    dd86:	41 b8 69 06 00 00    	mov    $0x669,%r8d
    dd8c:	48 8d 05 49 00 00 00 	lea    0x49(%rip),%rax        # dddc <test_fault+0xa6c>
    dd93:	48 89 c2             	mov    %rax,%rdx
    dd96:	48 8d 05 5a 00 00 00 	lea    0x5a(%rip),%rax        # ddf7 <test_fault+0xa87>
    dd9d:	48 89 c1             	mov    %rax,%rcx
    dda0:	e8 9e 22 ff ff       	call   43 <printf>
    dda5:	48 8d 45 a0          	lea    -0x60(%rbp),%rax
    dda9:	f3 0f 10 0d 9c 07 00 	movss  0x79c(%rip),%xmm1        # e54d <test_log32+0x55f>
    ddb0:	00 
    ddb1:	48 89 c1             	mov    %rax,%rcx
    ddb4:	e8 00 00 00 00       	call   ddb9 <test_fault+0xa49>
    ddb9:	84 c0                	test   %al,%al
    ddbb:	74 1f                	je     dddc <test_fault+0xa6c>
    ddbd:	41 b8 6a 06 00 00    	mov    $0x66a,%r8d
    ddc3:	48 8d 05 49 00 00 00 	lea    0x49(%rip),%rax        # de13 <test_fault+0xaa3>
    ddca:	48 89 c2             	mov    %rax,%rdx
    ddcd:	48 8d 05 5a 00 00 00 	lea    0x5a(%rip),%rax        # de2e <test_fault+0xabe>
    ddd4:	48 89 c1             	mov    %rax,%rcx
    ddd7:	e8 67 22 ff ff       	call   43 <printf>
    dddc:	48 8d 45 a0          	lea    -0x60(%rbp),%rax
    dde0:	f3 0f 10 0d 9c 07 00 	movss  0x79c(%rip),%xmm1        # e584 <test_log32+0x596>
    dde7:	00 
    dde8:	48 89 c1             	mov    %rax,%rcx
    ddeb:	e8 00 00 00 00       	call   ddf0 <test_fault+0xa80>
    ddf0:	83 f0 01             	xor    $0x1,%eax
    ddf3:	84 c0                	test   %al,%al
    ddf5:	74 1f                	je     de16 <test_fault+0xaa6>
    ddf7:	41 b8 6b 06 00 00    	mov    $0x66b,%r8d
    ddfd:	48 8d 05 49 00 00 00 	lea    0x49(%rip),%rax        # de4d <test_fault+0xadd>
    de04:	48 89 c2             	mov    %rax,%rdx
    de07:	48 8d 05 5a 00 00 00 	lea    0x5a(%rip),%rax        # de68 <test_fault+0xaf8>
    de0e:	48 89 c1             	mov    %rax,%rcx
    de11:	e8 2d 22 ff ff       	call   43 <printf>
    de16:	8b 45 fc             	mov    -0x4(%rbp),%eax
    de19:	83 f8 01             	cmp    $0x1,%eax
    de1c:	74 1f                	je     de3d <test_fault+0xacd>
    de1e:	41 b8 6c 06 00 00    	mov    $0x66c,%r8d
    de24:	48 8d 05 49 00 00 00 	lea    0x49(%rip),%rax        # de74 <test_fault+0xb04>
    de2b:	48 89 c2             	mov    %rax,%rdx
    de2e:	48 8d 05 5a 00 00 00 	lea    0x5a(%rip),%rax        # de8f <test_fault+0xb1f>
    de35:	48 89 c1             	mov    %rax,%rcx
    de38:	e8 06 22 ff ff       	call   43 <printf>
    de3d:	c7 45 f8 00 00 00 00 	movl   $0x0,-0x8(%rbp)
    de44:	48 8d 45 a0          	lea    -0x60(%rbp),%rax
    de48:	66 0f ef c9          	pxor   %xmm1,%xmm1
    de4c:	48 89 c1             	mov    %rax,%rcx
    de4f:	e8 00 00 00 00       	call   de54 <test_fault+0xae4>
    de54:	83 f0 01             	xor    $0x1,%eax
    de57:	84 c0                	test   %al,%al
    de59:	74 1f                	je     de7a <test_fault+0xb0a>
    de5b:	41 b8 6e 06 00 00    	mov    $0x66e,%r8d
    de61:	48 8d 05 49 00 00 00 	lea    0x49(%rip),%rax        # deb1 <test_fault+0xb41>
    de68:	48 89 c2             	mov    %rax,%rdx
    de6b:	48 8d 05 5a 00 00 00 	lea    0x5a(%rip),%rax        # decc <test_fault+0xb5c>
    de72:	48 89 c1             	mov    %rax,%rcx
    de75:	e8 c9 21 ff ff       	call   43 <printf>
    de7a:	48 8d 45 a0          	lea    -0x60(%rbp),%rax
    de7e:	66 0f ef c9          	pxor   %xmm1,%xmm1
    de82:	48 89 c1             	mov    %rax,%rcx
    de85:	e8 00 00 00 00       	call   de8a <test_fault+0xb1a>
    de8a:	83 f0 01             	xor    $0x1,%eax
    de8d:	84 c0                	test   %al,%al
    de8f:	74 1f                	je     deb0 <test_fault+0xb40>
    de91:	41 b8 6f 06 00 00    	mov    $0x66f,%r8d
    de97:	48 8d 05 49 00 00 00 	lea    0x49(%rip),%rax        # dee7 <test_fault+0xb77>
    de9e:	48 89 c2             	mov    %rax,%rdx
    dea1:	48 8d 05 5a 00 00 00 	lea    0x5a(%rip),%rax        # df02 <test_fault+0xb92>
    dea8:	48 89 c1             	mov    %rax,%rcx
    deab:	e8 93 21 ff ff       	call   43 <printf>
    deb0:	48 8d 45 a0          	lea    -0x60(%rbp),%rax
    deb4:	66 0f ef c9          	pxor   %xmm1,%xmm1
    deb8:	48 89 c1             	mov    %rax,%rcx
    debb:	e8 00 00 00 00       	call   dec0 <test_fault+0xb50>
    dec0:	84 c0                	test   %al,%al
    dec2:	74 1f                	je     dee3 <test_fault+0xb73>
    dec4:	41 b8 70 06 00 00    	mov    $0x670,%r8d
    deca:	48 8d 05 49 00 00 00 	lea    0x49(%rip),%rax        # df1a <test_fault+0xbaa>
    ded1:	48 89 c2             	mov    %rax,%rdx
    ded4:	48 8d 05 5a 00 00 00 	lea    0x5a(%rip),%rax        # df35 <test_fault+0xbc5>
    dedb:	48 89 c1             	mov    %rax,%rcx
    dede:	e8 60 21 ff ff       	call   43 <printf>
    dee3:	48 8d 45 a0          	lea    -0x60(%rbp),%rax
    dee7:	66 0f ef c9          	pxor   %xmm1,%xmm1
    deeb:	48 89 c1             	mov    %rax,%rcx
    deee:	e8 00 00 00 00       	call   def3 <test_fault+0xb83>
    def3:	84 c0                	test   %al,%al
    def5:	74 1f                	je     df16 <test_fault+0xba6>
    def7:	41 b8 71 06 00 00    	mov    $0x671,%r8d
    defd:	48 8d 05 49 00 00 00 	lea    0x49(%rip),%rax        # df4d <test_fault+0xbdd>
    df04:	48 89 c2             	mov    %rax,%rdx
    df07:	48 8d 05 5a 00 00 00 	lea    0x5a(%rip),%rax        # df68 <test_fault+0xbf8>
    df0e:	48 89 c1             	mov    %rax,%rcx
    df11:	e8 2d 21 ff ff       	call   43 <printf>
    df16:	48 8d 45 a0          	lea    -0x60(%rbp),%rax
    df1a:	66 0f ef c9          	pxor   %xmm1,%xmm1
    df1e:	48 89 c1             	mov    %rax,%rcx
    df21:	e8 00 00 00 00       	call   df26 <test_fault+0xbb6>
    df26:	84 c0                	test   %al,%al
    df28:	74 1f                	je     df49 <test_fault+0xbd9>
    df2a:	41 b8 72 06 00 00    	mov    $0x672,%r8d
    df30:	48 8d 05 49 00 00 00 	lea    0x49(%rip),%rax        # df80 <test_fixmath+0xa>
    df37:	48 89 c2             	mov    %rax,%rdx
    df3a:	48 8d 05 5a 00 00 00 	lea    0x5a(%rip),%rax        # df9b <test_fixmath+0x25>
    df41:	48 89 c1             	mov    %rax,%rcx
    df44:	e8 fa 20 ff ff       	call   43 <printf>
    df49:	8b 45 fc             	mov    -0x4(%rbp),%eax
    df4c:	85 c0                	test   %eax,%eax
    df4e:	74 1f                	je     df6f <test_fault+0xbff>
    df50:	41 b8 73 06 00 00    	mov    $0x673,%r8d
    df56:	48 8d 05 49 00 00 00 	lea    0x49(%rip),%rax        # dfa6 <test_fixmath+0x30>
    df5d:	48 89 c2             	mov    %rax,%rdx
    df60:	48 8d 05 5a 00 00 00 	lea    0x5a(%rip),%rax        # dfc1 <test_fixmath+0x4b>
    df67:	48 89 c1             	mov    %rax,%rcx
    df6a:	e8 d4 20 ff ff       	call   43 <printf>
    df6f:	90                   	nop
    df70:	48 83 ec 80          	sub    $0xffffffffffffff80,%rsp
    df74:	5d                   	pop    %rbp
    df75:	c3                   	ret

000000000000df76 <test_fixmath>:
    df76:	55                   	push   %rbp
    df77:	48 89 e5             	mov    %rsp,%rbp
    df7a:	48 83 ec 30          	sub    $0x30,%rsp
    df7e:	48 8d 05 38 07 00 00 	lea    0x738(%rip),%rax        # e6bd <test_log32+0x6cf>
    df85:	48 89 c1             	mov    %rax,%rcx
    df88:	e8 b6 20 ff ff       	call   43 <printf>
    df8d:	66 c7 45 fe 80 01    	movw   $0x180,-0x2(%rbp)
    df93:	66 c7 45 fc 80 0a    	movw   $0xa80,-0x4(%rbp)
    df99:	66 c7 45 fa 00 00    	movw   $0x0,-0x6(%rbp)
    df9f:	0f bf 55 fe          	movswl -0x2(%rbp),%edx
    dfa3:	0f bf 45 fc          	movswl -0x4(%rbp),%eax
    dfa7:	0f af c2             	imul   %edx,%eax
    dfaa:	c1 f8 08             	sar    $0x8,%eax
    dfad:	66 89 45 fa          	mov    %ax,-0x6(%rbp)
    dfb1:	0f bf 55 fc          	movswl -0x4(%rbp),%edx
    dfb5:	0f bf 45 fa          	movswl -0x6(%rbp),%eax
    dfb9:	0f af c2             	imul   %edx,%eax
    dfbc:	c1 f8 08             	sar    $0x8,%eax
    dfbf:	66 89 45 fa          	mov    %ax,-0x6(%rbp)
    dfc3:	0f bf 55 fe          	movswl -0x2(%rbp),%edx
    dfc7:	0f bf 45 fc          	movswl -0x4(%rbp),%eax
    dfcb:	0f af c2             	imul   %edx,%eax
    dfce:	c1 f8 08             	sar    $0x8,%eax
    dfd1:	66 89 45 fa          	mov    %ax,-0x6(%rbp)
    dfd5:	0f bf 55 fc          	movswl -0x4(%rbp),%edx
    dfd9:	0f bf 45 fa          	movswl -0x6(%rbp),%eax
    dfdd:	0f af c2             	imul   %edx,%eax
    dfe0:	c1 f8 08             	sar    $0x8,%eax
    dfe3:	66 89 45 fa          	mov    %ax,-0x6(%rbp)
    dfe7:	90                   	nop
    dfe8:	48 83 c4 30          	add    $0x30,%rsp
    dfec:	5d                   	pop    %rbp
    dfed:	c3                   	ret

000000000000dfee <test_log32>:
    dfee:	55                   	push   %rbp
    dfef:	48 81 ec 90 01 00 00 	sub    $0x190,%rsp
    dff6:	48 8d ac 24 80 00 00 	lea    0x80(%rsp),%rbp
    dffd:	00 
    dffe:	48 8d 05 57 07 00 00 	lea    0x757(%rip),%rax        # e75c <test_log32+0x76e>
    e005:	48 89 c1             	mov    %rax,%rcx
    e008:	e8 36 20 ff ff       	call   43 <printf>
    e00d:	f3 0f 10 05 b4 08 00 	movss  0x8b4(%rip),%xmm0        # e8c9 <test_log32+0x8db>
    e014:	00 
    e015:	f3 0f 11 85 f0 00 00 	movss  %xmm0,0xf0(%rbp)
    e01c:	00 
    e01d:	f3 0f 10 05 c8 08 00 	movss  0x8c8(%rip),%xmm0        # e8ed <test_log32+0x8ff>
    e024:	00 
    e025:	f3 0f 11 85 f4 00 00 	movss  %xmm0,0xf4(%rbp)
    e02c:	00 
    e02d:	f3 0f 10 05 18 09 00 	movss  0x918(%rip),%xmm0        # e94d <test_log32+0x95f>
    e034:	00 
    e035:	f3 0f 11 85 f8 00 00 	movss  %xmm0,0xf8(%rbp)
    e03c:	00 
    e03d:	f3 0f 10 05 1c 09 00 	movss  0x91c(%rip),%xmm0        # e961 <test_log32+0x973>
    e044:	00 
    e045:	f3 0f 11 85 fc 00 00 	movss  %xmm0,0xfc(%rbp)
    e04c:	00 
    e04d:	f3 0f 10 05 cc 07 00 	movss  0x7cc(%rip),%xmm0        # e821 <test_log32+0x833>
    e054:	00 
    e055:	f3 0f 11 85 00 01 00 	movss  %xmm0,0x100(%rbp)
    e05c:	00 
    e05d:	f3 0f 10 05 20 09 00 	movss  0x920(%rip),%xmm0        # e985 <test_log32+0x997>
    e064:	00 
    e065:	f3 0f 11 85 04 01 00 	movss  %xmm0,0x104(%rbp)
    e06c:	00 
    e06d:	f3 0f 10 05 34 08 00 	movss  0x834(%rip),%xmm0        # e8a9 <test_log32+0x8bb>
    e074:	00 
    e075:	f3 0f 11 85 08 01 00 	movss  %xmm0,0x108(%rbp)
    e07c:	00 
    e07d:	f3 0f 10 05 14 08 00 	movss  0x814(%rip),%xmm0        # e899 <test_log32+0x8ab>
    e084:	00 
    e085:	f3 0f 11 85 0c 01 00 	movss  %xmm0,0x10c(%rbp)
    e08c:	00 
    e08d:	f3 0f 10 05 24 09 00 	movss  0x924(%rip),%xmm0        # e9b9 <test_log32+0x9cb>
    e094:	00 
    e095:	f3 0f 11 85 d0 00 00 	movss  %xmm0,0xd0(%rbp)
    e09c:	00 
    e09d:	f3 0f 10 05 20 08 00 	movss  0x820(%rip),%xmm0        # e8c5 <test_log32+0x8d7>
    e0a4:	00 
    e0a5:	f3 0f 11 85 d4 00 00 	movss  %xmm0,0xd4(%rbp)
    e0ac:	00 
    e0ad:	f3 0f 10 05 2c 08 00 	movss  0x82c(%rip),%xmm0        # e8e1 <test_log32+0x8f3>
    e0b4:	00 
    e0b5:	f3 0f 11 85 d8 00 00 	movss  %xmm0,0xd8(%rbp)
    e0bc:	00 
    e0bd:	f3 0f 10 05 44 08 00 	movss  0x844(%rip),%xmm0        # e909 <test_log32+0x91b>
    e0c4:	00 
    e0c5:	f3 0f 11 85 dc 00 00 	movss  %xmm0,0xdc(%rbp)
    e0cc:	00 
    e0cd:	f3 0f 10 05 a4 07 00 	movss  0x7a4(%rip),%xmm0        # e879 <test_log32+0x88b>
    e0d4:	00 
    e0d5:	f3 0f 11 85 e0 00 00 	movss  %xmm0,0xe0(%rbp)
    e0dc:	00 
    e0dd:	f3 0f 10 05 28 09 00 	movss  0x928(%rip),%xmm0        # ea0d <test_log32+0xa1f>
    e0e4:	00 
    e0e5:	f3 0f 11 85 e4 00 00 	movss  %xmm0,0xe4(%rbp)
    e0ec:	00 
    e0ed:	f3 0f 10 05 38 08 00 	movss  0x838(%rip),%xmm0        # e92d <test_log32+0x93f>
    e0f4:	00 
    e0f5:	f3 0f 11 85 e8 00 00 	movss  %xmm0,0xe8(%rbp)
    e0fc:	00 
    e0fd:	f3 0f 10 05 18 08 00 	movss  0x818(%rip),%xmm0        # e91d <test_log32+0x92f>
    e104:	00 
    e105:	f3 0f 11 85 ec 00 00 	movss  %xmm0,0xec(%rbp)
    e10c:	00 
    e10d:	f3 0f 10 05 40 08 00 	movss  0x840(%rip),%xmm0        # e955 <test_log32+0x967>
    e114:	00 
    e115:	f3 0f 11 85 b0 00 00 	movss  %xmm0,0xb0(%rbp)
    e11c:	00 
    e11d:	f3 0f 10 05 24 08 00 	movss  0x824(%rip),%xmm0        # e949 <test_log32+0x95b>
    e124:	00 
    e125:	f3 0f 11 85 b4 00 00 	movss  %xmm0,0xb4(%rbp)
    e12c:	00 
    e12d:	f3 0f 10 05 30 08 00 	movss  0x830(%rip),%xmm0        # e965 <test_log32+0x977>
    e134:	00 
    e135:	f3 0f 11 85 b8 00 00 	movss  %xmm0,0xb8(%rbp)
    e13c:	00 
    e13d:	f3 0f 10 05 2c 09 00 	movss  0x92c(%rip),%xmm0        # ea71 <test_log32+0xa83>
    e144:	00 
    e145:	f3 0f 11 85 bc 00 00 	movss  %xmm0,0xbc(%rbp)
    e14c:	00 
    e14d:	f3 0f 10 05 d0 07 00 	movss  0x7d0(%rip),%xmm0        # e925 <test_log32+0x937>
    e154:	00 
    e155:	f3 0f 11 85 c0 00 00 	movss  %xmm0,0xc0(%rbp)
    e15c:	00 
    e15d:	f3 0f 10 05 30 09 00 	movss  0x930(%rip),%xmm0        # ea95 <test_log32+0xaa7>
    e164:	00 
    e165:	f3 0f 11 85 c4 00 00 	movss  %xmm0,0xc4(%rbp)
    e16c:	00 
    e16d:	f3 0f 10 05 34 09 00 	movss  0x934(%rip),%xmm0        # eaa9 <test_log32+0xabb>
    e174:	00 
    e175:	f3 0f 11 85 c8 00 00 	movss  %xmm0,0xc8(%rbp)
    e17c:	00 
    e17d:	f3 0f 10 05 1c 08 00 	movss  0x81c(%rip),%xmm0        # e9a1 <test_log32+0x9b3>
    e184:	00 
    e185:	f3 0f 11 85 cc 00 00 	movss  %xmm0,0xcc(%rbp)
    e18c:	00 
    e18d:	f3 0f 10 05 38 09 00 	movss  0x938(%rip),%xmm0        # eacd <test_log32+0xadf>
    e194:	00 
    e195:	f3 0f 11 85 90 00 00 	movss  %xmm0,0x90(%rbp)
    e19c:	00 
    e19d:	f3 0f 10 05 28 08 00 	movss  0x828(%rip),%xmm0        # e9cd <test_log32+0x9df>
    e1a4:	00 
    e1a5:	f3 0f 11 85 94 00 00 	movss  %xmm0,0x94(%rbp)
    e1ac:	00 
    e1ad:	f3 0f 10 05 3c 09 00 	movss  0x93c(%rip),%xmm0        # eaf1 <test_log32+0xb03>
    e1b4:	00 
    e1b5:	f3 0f 11 85 98 00 00 	movss  %xmm0,0x98(%rbp)
    e1bc:	00 
    e1bd:	f3 0f 10 05 40 09 00 	movss  0x940(%rip),%xmm0        # eb05 <test_log32+0xb17>
    e1c4:	00 
    e1c5:	f3 0f 11 85 9c 00 00 	movss  %xmm0,0x9c(%rbp)
    e1cc:	00 
    e1cd:	f3 0f 10 05 d4 07 00 	movss  0x7d4(%rip),%xmm0        # e9a9 <test_log32+0x9bb>
    e1d4:	00 
    e1d5:	f3 0f 11 85 a0 00 00 	movss  %xmm0,0xa0(%rbp)
    e1dc:	00 
    e1dd:	f3 0f 10 05 44 09 00 	movss  0x944(%rip),%xmm0        # eb29 <test_log32+0xb3b>
    e1e4:	00 
    e1e5:	f3 0f 11 85 a4 00 00 	movss  %xmm0,0xa4(%rbp)
    e1ec:	00 
    e1ed:	f3 0f 10 05 48 09 00 	movss  0x948(%rip),%xmm0        # eb3d <test_log32+0xb4f>
    e1f4:	00 
    e1f5:	f3 0f 11 85 a8 00 00 	movss  %xmm0,0xa8(%rbp)
    e1fc:	00 
    e1fd:	f3 0f 10 05 4c 09 00 	movss  0x94c(%rip),%xmm0        # eb51 <test_log32+0xb63>
    e204:	00 
    e205:	f3 0f 11 85 ac 00 00 	movss  %xmm0,0xac(%rbp)
    e20c:	00 
    e20d:	48 8d 85 8c 00 00 00 	lea    0x8c(%rbp),%rax
    e214:	48 89 45 60          	mov    %rax,0x60(%rbp)
    e218:	48 8d 85 88 00 00 00 	lea    0x88(%rbp),%rax
    e21f:	48 89 45 68          	mov    %rax,0x68(%rbp)
    e223:	48 8d 85 84 00 00 00 	lea    0x84(%rbp),%rax
    e22a:	48 89 45 70          	mov    %rax,0x70(%rbp)
    e22e:	48 8d 85 80 00 00 00 	lea    0x80(%rbp),%rax
    e235:	48 89 45 78          	mov    %rax,0x78(%rbp)
    e239:	66 0f ef c0          	pxor   %xmm0,%xmm0
    e23d:	0f 11 45 20          	movups %xmm0,0x20(%rbp)
    e241:	0f 11 45 30          	movups %xmm0,0x30(%rbp)
    e245:	0f 11 45 40          	movups %xmm0,0x40(%rbp)
    e249:	0f 11 45 50          	movups %xmm0,0x50(%rbp)
    e24d:	66 0f ef c0          	pxor   %xmm0,%xmm0
    e251:	0f 11 45 e0          	movups %xmm0,-0x20(%rbp)
    e255:	0f 11 45 f0          	movups %xmm0,-0x10(%rbp)
    e259:	0f 11 45 00          	movups %xmm0,0x0(%rbp)
    e25d:	0f 11 45 10          	movups %xmm0,0x10(%rbp)
    e261:	66 0f ef c0          	pxor   %xmm0,%xmm0
    e265:	0f 11 45 c0          	movups %xmm0,-0x40(%rbp)
    e269:	0f 11 45 d0          	movups %xmm0,-0x30(%rbp)
    e26d:	66 0f ef c0          	pxor   %xmm0,%xmm0
    e271:	0f 11 45 a0          	movups %xmm0,-0x60(%rbp)
    e275:	0f 11 45 b0          	movups %xmm0,-0x50(%rbp)
    e279:	66 c7 45 c0 02 00    	movw   $0x2,-0x40(%rbp)
    e27f:	66 c7 45 c2 02 00    	movw   $0x2,-0x3e(%rbp)
    e285:	66 c7 45 c4 03 00    	movw   $0x3,-0x3c(%rbp)
    e28b:	66 c7 45 c6 00 00    	movw   $0x0,-0x3a(%rbp)
    e291:	66 c7 45 c8 01 00    	movw   $0x1,-0x38(%rbp)
    e297:	66 c7 45 ca 01 00    	movw   $0x1,-0x36(%rbp)
    e29d:	66 c7 45 cc 00 00    	movw   $0x0,-0x34(%rbp)
    e2a3:	66 c7 45 ce 00 00    	movw   $0x0,-0x32(%rbp)
    e2a9:	66 c7 45 d2 00 00    	movw   $0x0,-0x2e(%rbp)
    e2af:	66 c7 45 d4 01 00    	movw   $0x1,-0x2c(%rbp)
    e2b5:	66 c7 45 d6 02 00    	movw   $0x2,-0x2a(%rbp)
    e2bb:	66 c7 45 d8 03 00    	movw   $0x3,-0x28(%rbp)
    e2c1:	66 c7 45 d0 00 00    	movw   $0x0,-0x30(%rbp)
    e2c7:	f3 0f 10 05 ac 07 00 	movss  0x7ac(%rip),%xmm0        # ea7b <test_log32+0xa8d>
    e2ce:	00 
    e2cf:	f3 0f 11 45 dc       	movss  %xmm0,-0x24(%rbp)
    e2d4:	f3 0f 10 85 f0 00 00 	movss  0xf0(%rbp),%xmm0
    e2db:	00 
    e2dc:	f3 0f 11 85 8c 00 00 	movss  %xmm0,0x8c(%rbp)
    e2e3:	00 
    e2e4:	f3 0f 10 85 d0 00 00 	movss  0xd0(%rbp),%xmm0
    e2eb:	00 
    e2ec:	f3 0f 11 85 88 00 00 	movss  %xmm0,0x88(%rbp)
    e2f3:	00 
    e2f4:	f3 0f 10 85 b0 00 00 	movss  0xb0(%rbp),%xmm0
    e2fb:	00 
    e2fc:	f3 0f 11 85 84 00 00 	movss  %xmm0,0x84(%rbp)
    e303:	00 
    e304:	f3 0f 10 85 90 00 00 	movss  0x90(%rbp),%xmm0
    e30b:	00 
    e30c:	f3 0f 11 85 80 00 00 	movss  %xmm0,0x80(%rbp)
    e313:	00 
    e314:	0f b7 45 c8          	movzwl -0x38(%rbp),%eax
    e318:	66 83 f8 01          	cmp    $0x1,%ax
    e31c:	0f 85 37 01 00 00    	jne    e459 <test_log32+0x46b>
    e322:	0f b7 45 d2          	movzwl -0x2e(%rbp),%eax
    e326:	0f b7 c0             	movzwl %ax,%eax
    e329:	48 98                	cltq
    e32b:	48 8b 44 c5 60       	mov    0x60(%rbp,%rax,8),%rax
    e330:	0f b7 55 c6          	movzwl -0x3a(%rbp),%edx
    e334:	0f b7 d2             	movzwl %dx,%edx
    e337:	f3 0f 10 00          	movss  (%rax),%xmm0
    e33b:	48 63 c2             	movslq %edx,%rax
    e33e:	48 c1 e0 04          	shl    $0x4,%rax
    e342:	48 8d 80 10 01 00 00 	lea    0x110(%rax),%rax
    e349:	48 01 e8             	add    %rbp,%rax
    e34c:	48 2d f0 00 00 00    	sub    $0xf0,%rax
    e352:	f3 0f 11 00          	movss  %xmm0,(%rax)
    e356:	0f b7 45 d4          	movzwl -0x2c(%rbp),%eax
    e35a:	0f b7 c0             	movzwl %ax,%eax
    e35d:	48 98                	cltq
    e35f:	48 8b 44 c5 60       	mov    0x60(%rbp,%rax,8),%rax
    e364:	0f b7 55 c6          	movzwl -0x3a(%rbp),%edx
    e368:	0f b7 d2             	movzwl %dx,%edx
    e36b:	f3 0f 10 00          	movss  (%rax),%xmm0
    e36f:	48 63 c2             	movslq %edx,%rax
    e372:	48 c1 e0 04          	shl    $0x4,%rax
    e376:	48 8d 80 10 01 00 00 	lea    0x110(%rax),%rax
    e37d:	48 01 e8             	add    %rbp,%rax
    e380:	48 2d ec 00 00 00    	sub    $0xec,%rax
    e386:	f3 0f 11 00          	movss  %xmm0,(%rax)
    e38a:	0f b7 45 d6          	movzwl -0x2a(%rbp),%eax
    e38e:	0f b7 c0             	movzwl %ax,%eax
    e391:	48 98                	cltq
    e393:	48 8b 44 c5 60       	mov    0x60(%rbp,%rax,8),%rax
    e398:	0f b7 55 c6          	movzwl -0x3a(%rbp),%edx
    e39c:	0f b7 d2             	movzwl %dx,%edx
    e39f:	f3 0f 10 00          	movss  (%rax),%xmm0
    e3a3:	48 63 c2             	movslq %edx,%rax
    e3a6:	48 c1 e0 04          	shl    $0x4,%rax
    e3aa:	48 8d 80 10 01 00 00 	lea    0x110(%rax),%rax
    e3b1:	48 01 e8             	add    %rbp,%rax
    e3b4:	48 2d e8 00 00 00    	sub    $0xe8,%rax
    e3ba:	f3 0f 11 00          	movss  %xmm0,(%rax)
    e3be:	0f b7 45 d8          	movzwl -0x28(%rbp),%eax
    e3c2:	0f b7 c0             	movzwl %ax,%eax
    e3c5:	48 98                	cltq
    e3c7:	48 8b 44 c5 60       	mov    0x60(%rbp,%rax,8),%rax
    e3cc:	0f b7 55 c6          	movzwl -0x3a(%rbp),%edx
    e3d0:	0f b7 d2             	movzwl %dx,%edx
    e3d3:	f3 0f 10 00          	movss  (%rax),%xmm0
    e3d7:	48 63 c2             	movslq %edx,%rax
    e3da:	48 c1 e0 04          	shl    $0x4,%rax
    e3de:	48 8d 80 10 01 00 00 	lea    0x110(%rax),%rax
    e3e5:	48 01 e8             	add    %rbp,%rax
    e3e8:	48 2d e4 00 00 00    	sub    $0xe4,%rax
    e3ee:	f3 0f 11 00          	movss  %xmm0,(%rax)
    e3f2:	0f b7 55 c6          	movzwl -0x3a(%rbp),%edx
    e3f6:	0f b7 45 c8          	movzwl -0x38(%rbp),%eax
    e3fa:	01 d0                	add    %edx,%eax
    e3fc:	66 89 45 c6          	mov    %ax,-0x3a(%rbp)
    e400:	0f b7 55 c6          	movzwl -0x3a(%rbp),%edx
    e404:	0f b7 45 c4          	movzwl -0x3c(%rbp),%eax
    e408:	21 d0                	and    %edx,%eax
    e40a:	66 89 45 c6          	mov    %ax,-0x3a(%rbp)
    e40e:	0f b7 55 cc          	movzwl -0x34(%rbp),%edx
    e412:	0f b7 45 ce          	movzwl -0x32(%rbp),%eax
    e416:	01 d0                	add    %edx,%eax
    e418:	66 89 45 cc          	mov    %ax,-0x34(%rbp)
    e41c:	0f b7 45 cc          	movzwl -0x34(%rbp),%eax
    e420:	0f b7 55 c0          	movzwl -0x40(%rbp),%edx
    e424:	66 39 c2             	cmp    %ax,%dx
    e427:	73 0e                	jae    e437 <test_log32+0x449>
    e429:	66 c7 45 c8 00 00    	movw   $0x0,-0x38(%rbp)
    e42f:	66 c7 45 ce 00 00    	movw   $0x0,-0x32(%rbp)
    e435:	eb 22                	jmp    e459 <test_log32+0x46b>
    e437:	0f b7 45 d0          	movzwl -0x30(%rbp),%eax
    e43b:	0f b7 c0             	movzwl %ax,%eax
    e43e:	48 98                	cltq
    e440:	48 8b 44 c5 60       	mov    0x60(%rbp,%rax,8),%rax
    e445:	f3 0f 10 00          	movss  (%rax),%xmm0
    e449:	f3 0f 10 4d dc       	movss  -0x24(%rbp),%xmm1
    e44e:	0f 2f c1             	comiss %xmm1,%xmm0
    e451:	76 06                	jbe    e459 <test_log32+0x46b>
    e453:	66 c7 45 ce 01 00    	movw   $0x1,-0x32(%rbp)
    e459:	f3 0f 10 45 20       	movss  0x20(%rbp),%xmm0
    e45e:	0f 2e 05 b4 08 00 00 	ucomiss 0x8b4(%rip),%xmm0        # ed19 <test_log32+0xd2b>
    e465:	7a 4e                	jp     e4b5 <test_log32+0x4c7>
    e467:	0f 2e 05 b4 08 00 00 	ucomiss 0x8b4(%rip),%xmm0        # ed22 <test_log32+0xd34>
    e46e:	75 45                	jne    e4b5 <test_log32+0x4c7>
    e470:	f3 0f 10 45 24       	movss  0x24(%rbp),%xmm0
    e475:	0f 2e 05 24 09 00 00 	ucomiss 0x924(%rip),%xmm0        # eda0 <test_log32+0xdb2>
    e47c:	7a 37                	jp     e4b5 <test_log32+0x4c7>
    e47e:	0f 2e 05 24 09 00 00 	ucomiss 0x924(%rip),%xmm0        # eda9 <test_log32+0xdbb>
    e485:	75 2e                	jne    e4b5 <test_log32+0x4c7>
    e487:	f3 0f 10 45 28       	movss  0x28(%rbp),%xmm0
    e48c:	0f 2e 05 40 08 00 00 	ucomiss 0x840(%rip),%xmm0        # ecd3 <test_log32+0xce5>
    e493:	7a 20                	jp     e4b5 <test_log32+0x4c7>
    e495:	0f 2e 05 40 08 00 00 	ucomiss 0x840(%rip),%xmm0        # ecdc <test_log32+0xcee>
    e49c:	75 17                	jne    e4b5 <test_log32+0x4c7>
    e49e:	f3 0f 10 45 2c       	movss  0x2c(%rbp),%xmm0
    e4a3:	0f 2e 05 38 09 00 00 	ucomiss 0x938(%rip),%xmm0        # ede2 <test_log32+0xdf4>
    e4aa:	7a 09                	jp     e4b5 <test_log32+0x4c7>
    e4ac:	0f 2e 05 38 09 00 00 	ucomiss 0x938(%rip),%xmm0        # edeb <test_log32+0xdfd>
    e4b3:	74 1f                	je     e4d4 <test_log32+0x4e6>
    e4b5:	41 b8 e7 06 00 00    	mov    $0x6e7,%r8d
    e4bb:	48 8d 05 49 00 00 00 	lea    0x49(%rip),%rax        # e50b <test_log32+0x51d>
    e4c2:	48 89 c2             	mov    %rax,%rdx
    e4c5:	48 8d 05 5a 00 00 00 	lea    0x5a(%rip),%rax        # e526 <test_log32+0x538>
    e4cc:	48 89 c1             	mov    %rax,%rcx
    e4cf:	e8 6f 1b ff ff       	call   43 <printf>
    e4d4:	f3 0f 10 45 30       	movss  0x30(%rbp),%xmm0
    e4d9:	66 0f ef c9          	pxor   %xmm1,%xmm1
    e4dd:	0f 2e c1             	ucomiss %xmm1,%xmm0
    e4e0:	7a 4e                	jp     e530 <test_log32+0x542>
    e4e2:	66 0f ef c9          	pxor   %xmm1,%xmm1
    e4e6:	0f 2e c1             	ucomiss %xmm1,%xmm0
    e4e9:	75 45                	jne    e530 <test_log32+0x542>
    e4eb:	f3 0f 10 45 34       	movss  0x34(%rbp),%xmm0
    e4f0:	66 0f ef c9          	pxor   %xmm1,%xmm1
    e4f4:	0f 2e c1             	ucomiss %xmm1,%xmm0
    e4f7:	7a 37                	jp     e530 <test_log32+0x542>
    e4f9:	66 0f ef c9          	pxor   %xmm1,%xmm1
    e4fd:	0f 2e c1             	ucomiss %xmm1,%xmm0
    e500:	75 2e                	jne    e530 <test_log32+0x542>
    e502:	f3 0f 10 45 38       	movss  0x38(%rbp),%xmm0
    e507:	66 0f ef c9          	pxor   %xmm1,%xmm1
    e50b:	0f 2e c1             	ucomiss %xmm1,%xmm0
    e50e:	7a 20                	jp     e530 <test_log32+0x542>
    e510:	66 0f ef c9          	pxor   %xmm1,%xmm1
    e514:	0f 2e c1             	ucomiss %xmm1,%xmm0
    e517:	75 17                	jne    e530 <test_log32+0x542>
    e519:	f3 0f 10 45 3c       	movss  0x3c(%rbp),%xmm0
    e51e:	66 0f ef c9          	pxor   %xmm1,%xmm1
    e522:	0f 2e c1             	ucomiss %xmm1,%xmm0
    e525:	7a 09                	jp     e530 <test_log32+0x542>
    e527:	66 0f ef c9          	pxor   %xmm1,%xmm1
    e52b:	0f 2e c1             	ucomiss %xmm1,%xmm0
    e52e:	74 1f                	je     e54f <test_log32+0x561>
    e530:	41 b8 e9 06 00 00    	mov    $0x6e9,%r8d
    e536:	48 8d 05 49 00 00 00 	lea    0x49(%rip),%rax        # e586 <test_log32+0x598>
    e53d:	48 89 c2             	mov    %rax,%rdx
    e540:	48 8d 05 5a 00 00 00 	lea    0x5a(%rip),%rax        # e5a1 <test_log32+0x5b3>
    e547:	48 89 c1             	mov    %rax,%rcx
    e54a:	e8 f4 1a ff ff       	call   43 <printf>
    e54f:	f3 0f 10 45 40       	movss  0x40(%rbp),%xmm0
    e554:	66 0f ef c9          	pxor   %xmm1,%xmm1
    e558:	0f 2e c1             	ucomiss %xmm1,%xmm0
    e55b:	7a 4e                	jp     e5ab <test_log32+0x5bd>
    e55d:	66 0f ef c9          	pxor   %xmm1,%xmm1
    e561:	0f 2e c1             	ucomiss %xmm1,%xmm0
    e564:	75 45                	jne    e5ab <test_log32+0x5bd>
    e566:	f3 0f 10 45 44       	movss  0x44(%rbp),%xmm0
    e56b:	66 0f ef c9          	pxor   %xmm1,%xmm1
    e56f:	0f 2e c1             	ucomiss %xmm1,%xmm0
    e572:	7a 37                	jp     e5ab <test_log32+0x5bd>
    e574:	66 0f ef c9          	pxor   %xmm1,%xmm1
    e578:	0f 2e c1             	ucomiss %xmm1,%xmm0
    e57b:	75 2e                	jne    e5ab <test_log32+0x5bd>
    e57d:	f3 0f 10 45 48       	movss  0x48(%rbp),%xmm0
    e582:	66 0f ef c9          	pxor   %xmm1,%xmm1
    e586:	0f 2e c1             	ucomiss %xmm1,%xmm0
    e589:	7a 20                	jp     e5ab <test_log32+0x5bd>
    e58b:	66 0f ef c9          	pxor   %xmm1,%xmm1
    e58f:	0f 2e c1             	ucomiss %xmm1,%xmm0
    e592:	75 17                	jne    e5ab <test_log32+0x5bd>
    e594:	f3 0f 10 45 4c       	movss  0x4c(%rbp),%xmm0
    e599:	66 0f ef c9          	pxor   %xmm1,%xmm1
    e59d:	0f 2e c1             	ucomiss %xmm1,%xmm0
    e5a0:	7a 09                	jp     e5ab <test_log32+0x5bd>
    e5a2:	66 0f ef c9          	pxor   %xmm1,%xmm1
    e5a6:	0f 2e c1             	ucomiss %xmm1,%xmm0
    e5a9:	74 1f                	je     e5ca <test_log32+0x5dc>
    e5ab:	41 b8 eb 06 00 00    	mov    $0x6eb,%r8d
    e5b1:	48 8d 05 49 00 00 00 	lea    0x49(%rip),%rax        # e601 <test_log32+0x613>
    e5b8:	48 89 c2             	mov    %rax,%rdx
    e5bb:	48 8d 05 5a 00 00 00 	lea    0x5a(%rip),%rax        # e61c <test_log32+0x62e>
    e5c2:	48 89 c1             	mov    %rax,%rcx
    e5c5:	e8 79 1a ff ff       	call   43 <printf>
    e5ca:	f3 0f 10 45 50       	movss  0x50(%rbp),%xmm0
    e5cf:	66 0f ef c9          	pxor   %xmm1,%xmm1
    e5d3:	0f 2e c1             	ucomiss %xmm1,%xmm0
    e5d6:	7a 4e                	jp     e626 <test_log32+0x638>
    e5d8:	66 0f ef c9          	pxor   %xmm1,%xmm1
    e5dc:	0f 2e c1             	ucomiss %xmm1,%xmm0
    e5df:	75 45                	jne    e626 <test_log32+0x638>
    e5e1:	f3 0f 10 45 54       	movss  0x54(%rbp),%xmm0
    e5e6:	66 0f ef c9          	pxor   %xmm1,%xmm1
    e5ea:	0f 2e c1             	ucomiss %xmm1,%xmm0
    e5ed:	7a 37                	jp     e626 <test_log32+0x638>
    e5ef:	66 0f ef c9          	pxor   %xmm1,%xmm1
    e5f3:	0f 2e c1             	ucomiss %xmm1,%xmm0
    e5f6:	75 2e                	jne    e626 <test_log32+0x638>
    e5f8:	f3 0f 10 45 58       	movss  0x58(%rbp),%xmm0
    e5fd:	66 0f ef c9          	pxor   %xmm1,%xmm1
    e601:	0f 2e c1             	ucomiss %xmm1,%xmm0
    e604:	7a 20                	jp     e626 <test_log32+0x638>
    e606:	66 0f ef c9          	pxor   %xmm1,%xmm1
    e60a:	0f 2e c1             	ucomiss %xmm1,%xmm0
    e60d:	75 17                	jne    e626 <test_log32+0x638>
    e60f:	f3 0f 10 45 5c       	movss  0x5c(%rbp),%xmm0
    e614:	66 0f ef c9          	pxor   %xmm1,%xmm1
    e618:	0f 2e c1             	ucomiss %xmm1,%xmm0
    e61b:	7a 09                	jp     e626 <test_log32+0x638>
    e61d:	66 0f ef c9          	pxor   %xmm1,%xmm1
    e621:	0f 2e c1             	ucomiss %xmm1,%xmm0
    e624:	74 1f                	je     e645 <test_log32+0x657>
    e626:	41 b8 ed 06 00 00    	mov    $0x6ed,%r8d
    e62c:	48 8d 05 49 00 00 00 	lea    0x49(%rip),%rax        # e67c <test_log32+0x68e>
    e633:	48 89 c2             	mov    %rax,%rdx
    e636:	48 8d 05 5a 00 00 00 	lea    0x5a(%rip),%rax        # e697 <test_log32+0x6a9>
    e63d:	48 89 c1             	mov    %rax,%rcx
    e640:	e8 fe 19 ff ff       	call   43 <printf>
    e645:	0f b7 45 cc          	movzwl -0x34(%rbp),%eax
    e649:	66 85 c0             	test   %ax,%ax
    e64c:	74 1f                	je     e66d <test_log32+0x67f>
    e64e:	41 b8 ef 06 00 00    	mov    $0x6ef,%r8d
    e654:	48 8d 05 49 00 00 00 	lea    0x49(%rip),%rax        # e6a4 <test_log32+0x6b6>
    e65b:	48 89 c2             	mov    %rax,%rdx
    e65e:	48 8d 05 5a 00 00 00 	lea    0x5a(%rip),%rax        # e6bf <test_log32+0x6d1>
    e665:	48 89 c1             	mov    %rax,%rcx
    e668:	e8 d6 19 ff ff       	call   43 <printf>
    e66d:	0f b7 45 c8          	movzwl -0x38(%rbp),%eax
    e671:	66 83 f8 01          	cmp    $0x1,%ax
    e675:	74 1f                	je     e696 <test_log32+0x6a8>
    e677:	41 b8 f0 06 00 00    	mov    $0x6f0,%r8d
    e67d:	48 8d 05 49 00 00 00 	lea    0x49(%rip),%rax        # e6cd <test_log32+0x6df>
    e684:	48 89 c2             	mov    %rax,%rdx
    e687:	48 8d 05 5a 00 00 00 	lea    0x5a(%rip),%rax        # e6e8 <test_log32+0x6fa>
    e68e:	48 89 c1             	mov    %rax,%rcx
    e691:	e8 ad 19 ff ff       	call   43 <printf>
    e696:	0f b7 45 ce          	movzwl -0x32(%rbp),%eax
    e69a:	66 85 c0             	test   %ax,%ax
    e69d:	74 1f                	je     e6be <test_log32+0x6d0>
    e69f:	41 b8 f1 06 00 00    	mov    $0x6f1,%r8d
    e6a5:	48 8d 05 49 00 00 00 	lea    0x49(%rip),%rax        # e6f5 <test_log32+0x707>
    e6ac:	48 89 c2             	mov    %rax,%rdx
    e6af:	48 8d 05 5a 00 00 00 	lea    0x5a(%rip),%rax        # e710 <test_log32+0x722>
    e6b6:	48 89 c1             	mov    %rax,%rcx
    e6b9:	e8 85 19 ff ff       	call   43 <printf>
    e6be:	f3 0f 10 85 f4 00 00 	movss  0xf4(%rbp),%xmm0
    e6c5:	00 
    e6c6:	f3 0f 11 85 8c 00 00 	movss  %xmm0,0x8c(%rbp)
    e6cd:	00 
    e6ce:	f3 0f 10 85 d4 00 00 	movss  0xd4(%rbp),%xmm0
    e6d5:	00 
    e6d6:	f3 0f 11 85 88 00 00 	movss  %xmm0,0x88(%rbp)
    e6dd:	00 
    e6de:	f3 0f 10 85 b4 00 00 	movss  0xb4(%rbp),%xmm0
    e6e5:	00 
    e6e6:	f3 0f 11 85 84 00 00 	movss  %xmm0,0x84(%rbp)
    e6ed:	00 
    e6ee:	f3 0f 10 85 94 00 00 	movss  0x94(%rbp),%xmm0
    e6f5:	00 
    e6f6:	f3 0f 11 85 80 00 00 	movss  %xmm0,0x80(%rbp)
    e6fd:	00 
    e6fe:	0f b7 45 c8          	movzwl -0x38(%rbp),%eax
    e702:	66 83 f8 01          	cmp    $0x1,%ax
    e706:	0f 85 37 01 00 00    	jne    e843 <test_log32+0x855>
    e70c:	0f b7 45 d2          	movzwl -0x2e(%rbp),%eax
    e710:	0f b7 c0             	movzwl %ax,%eax
    e713:	48 98                	cltq
    e715:	48 8b 44 c5 60       	mov    0x60(%rbp,%rax,8),%rax
    e71a:	0f b7 55 c6          	movzwl -0x3a(%rbp),%edx
    e71e:	0f b7 d2             	movzwl %dx,%edx
    e721:	f3 0f 10 00          	movss  (%rax),%xmm0
    e725:	48 63 c2             	movslq %edx,%rax
    e728:	48 c1 e0 04          	shl    $0x4,%rax
    e72c:	48 8d 80 10 01 00 00 	lea    0x110(%rax),%rax
    e733:	48 01 e8             	add    %rbp,%rax
    e736:	48 2d f0 00 00 00    	sub    $0xf0,%rax
    e73c:	f3 0f 11 00          	movss  %xmm0,(%rax)
    e740:	0f b7 45 d4          	movzwl -0x2c(%rbp),%eax
    e744:	0f b7 c0             	movzwl %ax,%eax
    e747:	48 98                	cltq
    e749:	48 8b 44 c5 60       	mov    0x60(%rbp,%rax,8),%rax
    e74e:	0f b7 55 c6          	movzwl -0x3a(%rbp),%edx
    e752:	0f b7 d2             	movzwl %dx,%edx
    e755:	f3 0f 10 00          	movss  (%rax),%xmm0
    e759:	48 63 c2             	movslq %edx,%rax
    e75c:	48 c1 e0 04          	shl    $0x4,%rax
    e760:	48 8d 80 10 01 00 00 	lea    0x110(%rax),%rax
    e767:	48 01 e8             	add    %rbp,%rax
    e76a:	48 2d ec 00 00 00    	sub    $0xec,%rax
    e770:	f3 0f 11 00          	movss  %xmm0,(%rax)
    e774:	0f b7 45 d6          	movzwl -0x2a(%rbp),%eax
    e778:	0f b7 c0             	movzwl %ax,%eax
    e77b:	48 98                	cltq
    e77d:	48 8b 44 c5 60       	mov    0x60(%rbp,%rax,8),%rax
    e782:	0f b7 55 c6          	movzwl -0x3a(%rbp),%edx
    e786:	0f b7 d2             	movzwl %dx,%edx
    e789:	f3 0f 10 00          	movss  (%rax),%xmm0
    e78d:	48 63 c2             	movslq %edx,%rax
    e790:	48 c1 e0 04          	shl    $0x4,%rax
    e794:	48 8d 80 10 01 00 00 	lea    0x110(%rax),%rax
    e79b:	48 01 e8             	add    %rbp,%rax
    e79e:	48 2d e8 00 00 00    	sub    $0xe8,%rax
    e7a4:	f3 0f 11 00          	movss  %xmm0,(%rax)
    e7a8:	0f b7 45 d8          	movzwl -0x28(%rbp),%eax
    e7ac:	0f b7 c0             	movzwl %ax,%eax
    e7af:	48 98                	cltq
    e7b1:	48 8b 44 c5 60       	mov    0x60(%rbp,%rax,8),%rax
    e7b6:	0f b7 55 c6          	movzwl -0x3a(%rbp),%edx
    e7ba:	0f b7 d2             	movzwl %dx,%edx
    e7bd:	f3 0f 10 00          	movss  (%rax),%xmm0
    e7c1:	48 63 c2             	movslq %edx,%rax
    e7c4:	48 c1 e0 04          	shl    $0x4,%rax
    e7c8:	48 8d 80 10 01 00 00 	lea    0x110(%rax),%rax
    e7cf:	48 01 e8             	add    %rbp,%rax
    e7d2:	48 2d e4 00 00 00    	sub    $0xe4,%rax
    e7d8:	f3 0f 11 00          	movss  %xmm0,(%rax)
    e7dc:	0f b7 55 c6          	movzwl -0x3a(%rbp),%edx
    e7e0:	0f b7 45 c8          	movzwl -0x38(%rbp),%eax
    e7e4:	01 d0                	add    %edx,%eax
    e7e6:	66 89 45 c6          	mov    %ax,-0x3a(%rbp)
    e7ea:	0f b7 55 c6          	movzwl -0x3a(%rbp),%edx
    e7ee:	0f b7 45 c4          	movzwl -0x3c(%rbp),%eax
    e7f2:	21 d0                	and    %edx,%eax
    e7f4:	66 89 45 c6          	mov    %ax,-0x3a(%rbp)
    e7f8:	0f b7 55 cc          	movzwl -0x34(%rbp),%edx
    e7fc:	0f b7 45 ce          	movzwl -0x32(%rbp),%eax
    e800:	01 d0                	add    %edx,%eax
    e802:	66 89 45 cc          	mov    %ax,-0x34(%rbp)
    e806:	0f b7 45 cc          	movzwl -0x34(%rbp),%eax
    e80a:	0f b7 55 c0          	movzwl -0x40(%rbp),%edx
    e80e:	66 39 c2             	cmp    %ax,%dx
    e811:	73 0e                	jae    e821 <test_log32+0x833>
    e813:	66 c7 45 c8 00 00    	movw   $0x0,-0x38(%rbp)
    e819:	66 c7 45 ce 00 00    	movw   $0x0,-0x32(%rbp)
    e81f:	eb 22                	jmp    e843 <test_log32+0x855>
    e821:	0f b7 45 d0          	movzwl -0x30(%rbp),%eax
    e825:	0f b7 c0             	movzwl %ax,%eax
    e828:	48 98                	cltq
    e82a:	48 8b 44 c5 60       	mov    0x60(%rbp,%rax,8),%rax
    e82f:	f3 0f 10 00          	movss  (%rax),%xmm0
    e833:	f3 0f 10 4d dc       	movss  -0x24(%rbp),%xmm1
    e838:	0f 2f c1             	comiss %xmm1,%xmm0
    e83b:	76 06                	jbe    e843 <test_log32+0x855>
    e83d:	66 c7 45 ce 01 00    	movw   $0x1,-0x32(%rbp)
    e843:	f3 0f 10 45 20       	movss  0x20(%rbp),%xmm0
    e848:	0f 2e 05 b4 08 00 00 	ucomiss 0x8b4(%rip),%xmm0        # f103 <test_log32+0x1115>
    e84f:	7a 4e                	jp     e89f <test_log32+0x8b1>
    e851:	0f 2e 05 b4 08 00 00 	ucomiss 0x8b4(%rip),%xmm0        # f10c <test_log32+0x111e>
    e858:	75 45                	jne    e89f <test_log32+0x8b1>
    e85a:	f3 0f 10 45 24       	movss  0x24(%rbp),%xmm0
    e85f:	0f 2e 05 24 09 00 00 	ucomiss 0x924(%rip),%xmm0        # f18a <test_log32+0x119c>
    e866:	7a 37                	jp     e89f <test_log32+0x8b1>
    e868:	0f 2e 05 24 09 00 00 	ucomiss 0x924(%rip),%xmm0        # f193 <test_log32+0x11a5>
    e86f:	75 2e                	jne    e89f <test_log32+0x8b1>
    e871:	f3 0f 10 45 28       	movss  0x28(%rbp),%xmm0
    e876:	0f 2e 05 40 08 00 00 	ucomiss 0x840(%rip),%xmm0        # f0bd <test_log32+0x10cf>
    e87d:	7a 20                	jp     e89f <test_log32+0x8b1>
    e87f:	0f 2e 05 40 08 00 00 	ucomiss 0x840(%rip),%xmm0        # f0c6 <test_log32+0x10d8>
    e886:	75 17                	jne    e89f <test_log32+0x8b1>
    e888:	f3 0f 10 45 2c       	movss  0x2c(%rbp),%xmm0
    e88d:	0f 2e 05 38 09 00 00 	ucomiss 0x938(%rip),%xmm0        # f1cc <test_log32+0x11de>
    e894:	7a 09                	jp     e89f <test_log32+0x8b1>
    e896:	0f 2e 05 38 09 00 00 	ucomiss 0x938(%rip),%xmm0        # f1d5 <test_log32+0x11e7>
    e89d:	74 1f                	je     e8be <test_log32+0x8d0>
    e89f:	41 b8 f8 06 00 00    	mov    $0x6f8,%r8d
    e8a5:	48 8d 05 49 00 00 00 	lea    0x49(%rip),%rax        # e8f5 <test_log32+0x907>
    e8ac:	48 89 c2             	mov    %rax,%rdx
    e8af:	48 8d 05 5a 00 00 00 	lea    0x5a(%rip),%rax        # e910 <test_log32+0x922>
    e8b6:	48 89 c1             	mov    %rax,%rcx
    e8b9:	e8 85 17 ff ff       	call   43 <printf>
    e8be:	f3 0f 10 45 30       	movss  0x30(%rbp),%xmm0
    e8c3:	0f 2e 05 c8 08 00 00 	ucomiss 0x8c8(%rip),%xmm0        # f192 <test_log32+0x11a4>
    e8ca:	7a 4e                	jp     e91a <test_log32+0x92c>
    e8cc:	0f 2e 05 c8 08 00 00 	ucomiss 0x8c8(%rip),%xmm0        # f19b <test_log32+0x11ad>
    e8d3:	75 45                	jne    e91a <test_log32+0x92c>
    e8d5:	f3 0f 10 45 34       	movss  0x34(%rbp),%xmm0
    e8da:	0f 2e 05 20 08 00 00 	ucomiss 0x820(%rip),%xmm0        # f101 <test_log32+0x1113>
    e8e1:	7a 37                	jp     e91a <test_log32+0x92c>
    e8e3:	0f 2e 05 20 08 00 00 	ucomiss 0x820(%rip),%xmm0        # f10a <test_log32+0x111c>
    e8ea:	75 2e                	jne    e91a <test_log32+0x92c>
    e8ec:	f3 0f 10 45 38       	movss  0x38(%rbp),%xmm0
    e8f1:	0f 2e 05 24 08 00 00 	ucomiss 0x824(%rip),%xmm0        # f11c <test_log32+0x112e>
    e8f8:	7a 20                	jp     e91a <test_log32+0x92c>
    e8fa:	0f 2e 05 24 08 00 00 	ucomiss 0x824(%rip),%xmm0        # f125 <test_log32+0x1137>
    e901:	75 17                	jne    e91a <test_log32+0x92c>
    e903:	f3 0f 10 45 3c       	movss  0x3c(%rbp),%xmm0
    e908:	0f 2e 05 28 08 00 00 	ucomiss 0x828(%rip),%xmm0        # f137 <test_log32+0x1149>
    e90f:	7a 09                	jp     e91a <test_log32+0x92c>
    e911:	0f 2e 05 28 08 00 00 	ucomiss 0x828(%rip),%xmm0        # f140 <test_log32+0x1152>
    e918:	74 1f                	je     e939 <test_log32+0x94b>
    e91a:	41 b8 fa 06 00 00    	mov    $0x6fa,%r8d
    e920:	48 8d 05 49 00 00 00 	lea    0x49(%rip),%rax        # e970 <test_log32+0x982>
    e927:	48 89 c2             	mov    %rax,%rdx
    e92a:	48 8d 05 5a 00 00 00 	lea    0x5a(%rip),%rax        # e98b <test_log32+0x99d>
    e931:	48 89 c1             	mov    %rax,%rcx
    e934:	e8 0a 17 ff ff       	call   43 <printf>
    e939:	f3 0f 10 45 40       	movss  0x40(%rbp),%xmm0
    e93e:	66 0f ef c9          	pxor   %xmm1,%xmm1
    e942:	0f 2e c1             	ucomiss %xmm1,%xmm0
    e945:	7a 4e                	jp     e995 <test_log32+0x9a7>
    e947:	66 0f ef c9          	pxor   %xmm1,%xmm1
    e94b:	0f 2e c1             	ucomiss %xmm1,%xmm0
    e94e:	75 45                	jne    e995 <test_log32+0x9a7>
    e950:	f3 0f 10 45 44       	movss  0x44(%rbp),%xmm0
    e955:	66 0f ef c9          	pxor   %xmm1,%xmm1
    e959:	0f 2e c1             	ucomiss %xmm1,%xmm0
    e95c:	7a 37                	jp     e995 <test_log32+0x9a7>
    e95e:	66 0f ef c9          	pxor   %xmm1,%xmm1
    e962:	0f 2e c1             	ucomiss %xmm1,%xmm0
    e965:	75 2e                	jne    e995 <test_log32+0x9a7>
    e967:	f3 0f 10 45 48       	movss  0x48(%rbp),%xmm0
    e96c:	66 0f ef c9          	pxor   %xmm1,%xmm1
    e970:	0f 2e c1             	ucomiss %xmm1,%xmm0
    e973:	7a 20                	jp     e995 <test_log32+0x9a7>
    e975:	66 0f ef c9          	pxor   %xmm1,%xmm1
    e979:	0f 2e c1             	ucomiss %xmm1,%xmm0
    e97c:	75 17                	jne    e995 <test_log32+0x9a7>
    e97e:	f3 0f 10 45 4c       	movss  0x4c(%rbp),%xmm0
    e983:	66 0f ef c9          	pxor   %xmm1,%xmm1
    e987:	0f 2e c1             	ucomiss %xmm1,%xmm0
    e98a:	7a 09                	jp     e995 <test_log32+0x9a7>
    e98c:	66 0f ef c9          	pxor   %xmm1,%xmm1
    e990:	0f 2e c1             	ucomiss %xmm1,%xmm0
    e993:	74 1f                	je     e9b4 <test_log32+0x9c6>
    e995:	41 b8 fc 06 00 00    	mov    $0x6fc,%r8d
    e99b:	48 8d 05 49 00 00 00 	lea    0x49(%rip),%rax        # e9eb <test_log32+0x9fd>
    e9a2:	48 89 c2             	mov    %rax,%rdx
    e9a5:	48 8d 05 5a 00 00 00 	lea    0x5a(%rip),%rax        # ea06 <test_log32+0xa18>
    e9ac:	48 89 c1             	mov    %rax,%rcx
    e9af:	e8 8f 16 ff ff       	call   43 <printf>
    e9b4:	f3 0f 10 45 50       	movss  0x50(%rbp),%xmm0
    e9b9:	66 0f ef c9          	pxor   %xmm1,%xmm1
    e9bd:	0f 2e c1             	ucomiss %xmm1,%xmm0
    e9c0:	7a 4e                	jp     ea10 <test_log32+0xa22>
    e9c2:	66 0f ef c9          	pxor   %xmm1,%xmm1
    e9c6:	0f 2e c1             	ucomiss %xmm1,%xmm0
    e9c9:	75 45                	jne    ea10 <test_log32+0xa22>
    e9cb:	f3 0f 10 45 54       	movss  0x54(%rbp),%xmm0
    e9d0:	66 0f ef c9          	pxor   %xmm1,%xmm1
    e9d4:	0f 2e c1             	ucomiss %xmm1,%xmm0
    e9d7:	7a 37                	jp     ea10 <test_log32+0xa22>
    e9d9:	66 0f ef c9          	pxor   %xmm1,%xmm1
    e9dd:	0f 2e c1             	ucomiss %xmm1,%xmm0
    e9e0:	75 2e                	jne    ea10 <test_log32+0xa22>
    e9e2:	f3 0f 10 45 58       	movss  0x58(%rbp),%xmm0
    e9e7:	66 0f ef c9          	pxor   %xmm1,%xmm1
    e9eb:	0f 2e c1             	ucomiss %xmm1,%xmm0
    e9ee:	7a 20                	jp     ea10 <test_log32+0xa22>
    e9f0:	66 0f ef c9          	pxor   %xmm1,%xmm1
    e9f4:	0f 2e c1             	ucomiss %xmm1,%xmm0
    e9f7:	75 17                	jne    ea10 <test_log32+0xa22>
    e9f9:	f3 0f 10 45 5c       	movss  0x5c(%rbp),%xmm0
    e9fe:	66 0f ef c9          	pxor   %xmm1,%xmm1
    ea02:	0f 2e c1             	ucomiss %xmm1,%xmm0
    ea05:	7a 09                	jp     ea10 <test_log32+0xa22>
    ea07:	66 0f ef c9          	pxor   %xmm1,%xmm1
    ea0b:	0f 2e c1             	ucomiss %xmm1,%xmm0
    ea0e:	74 1f                	je     ea2f <test_log32+0xa41>
    ea10:	41 b8 fe 06 00 00    	mov    $0x6fe,%r8d
    ea16:	48 8d 05 49 00 00 00 	lea    0x49(%rip),%rax        # ea66 <test_log32+0xa78>
    ea1d:	48 89 c2             	mov    %rax,%rdx
    ea20:	48 8d 05 5a 00 00 00 	lea    0x5a(%rip),%rax        # ea81 <test_log32+0xa93>
    ea27:	48 89 c1             	mov    %rax,%rcx
    ea2a:	e8 14 16 ff ff       	call   43 <printf>
    ea2f:	0f b7 45 cc          	movzwl -0x34(%rbp),%eax
    ea33:	66 85 c0             	test   %ax,%ax
    ea36:	74 1f                	je     ea57 <test_log32+0xa69>
    ea38:	41 b8 00 07 00 00    	mov    $0x700,%r8d
    ea3e:	48 8d 05 49 00 00 00 	lea    0x49(%rip),%rax        # ea8e <test_log32+0xaa0>
    ea45:	48 89 c2             	mov    %rax,%rdx
    ea48:	48 8d 05 5a 00 00 00 	lea    0x5a(%rip),%rax        # eaa9 <test_log32+0xabb>
    ea4f:	48 89 c1             	mov    %rax,%rcx
    ea52:	e8 ec 15 ff ff       	call   43 <printf>
    ea57:	0f b7 45 c8          	movzwl -0x38(%rbp),%eax
    ea5b:	66 83 f8 01          	cmp    $0x1,%ax
    ea5f:	74 1f                	je     ea80 <test_log32+0xa92>
    ea61:	41 b8 01 07 00 00    	mov    $0x701,%r8d
    ea67:	48 8d 05 49 00 00 00 	lea    0x49(%rip),%rax        # eab7 <test_log32+0xac9>
    ea6e:	48 89 c2             	mov    %rax,%rdx
    ea71:	48 8d 05 5a 00 00 00 	lea    0x5a(%rip),%rax        # ead2 <test_log32+0xae4>
    ea78:	48 89 c1             	mov    %rax,%rcx
    ea7b:	e8 c3 15 ff ff       	call   43 <printf>
    ea80:	0f b7 45 ce          	movzwl -0x32(%rbp),%eax
    ea84:	66 85 c0             	test   %ax,%ax
    ea87:	74 1f                	je     eaa8 <test_log32+0xaba>
    ea89:	41 b8 02 07 00 00    	mov    $0x702,%r8d
    ea8f:	48 8d 05 49 00 00 00 	lea    0x49(%rip),%rax        # eadf <test_log32+0xaf1>
    ea96:	48 89 c2             	mov    %rax,%rdx
    ea99:	48 8d 05 5a 00 00 00 	lea    0x5a(%rip),%rax        # eafa <test_log32+0xb0c>
    eaa0:	48 89 c1             	mov    %rax,%rcx
    eaa3:	e8 9b 15 ff ff       	call   43 <printf>
    eaa8:	f3 0f 10 85 f8 00 00 	movss  0xf8(%rbp),%xmm0
    eaaf:	00 
    eab0:	f3 0f 11 85 8c 00 00 	movss  %xmm0,0x8c(%rbp)
    eab7:	00 
    eab8:	f3 0f 10 85 d8 00 00 	movss  0xd8(%rbp),%xmm0
    eabf:	00 
    eac0:	f3 0f 11 85 88 00 00 	movss  %xmm0,0x88(%rbp)
    eac7:	00 
    eac8:	f3 0f 10 85 b8 00 00 	movss  0xb8(%rbp),%xmm0
    eacf:	00 
    ead0:	f3 0f 11 85 84 00 00 	movss  %xmm0,0x84(%rbp)
    ead7:	00 
    ead8:	f3 0f 10 85 98 00 00 	movss  0x98(%rbp),%xmm0
    eadf:	00 
    eae0:	f3 0f 11 85 80 00 00 	movss  %xmm0,0x80(%rbp)
    eae7:	00 
    eae8:	0f b7 45 c8          	movzwl -0x38(%rbp),%eax
    eaec:	66 83 f8 01          	cmp    $0x1,%ax
    eaf0:	0f 85 37 01 00 00    	jne    ec2d <test_log32+0xc3f>
    eaf6:	0f b7 45 d2          	movzwl -0x2e(%rbp),%eax
    eafa:	0f b7 c0             	movzwl %ax,%eax
    eafd:	48 98                	cltq
    eaff:	48 8b 44 c5 60       	mov    0x60(%rbp,%rax,8),%rax
    eb04:	0f b7 55 c6          	movzwl -0x3a(%rbp),%edx
    eb08:	0f b7 d2             	movzwl %dx,%edx
    eb0b:	f3 0f 10 00          	movss  (%rax),%xmm0
    eb0f:	48 63 c2             	movslq %edx,%rax
    eb12:	48 c1 e0 04          	shl    $0x4,%rax
    eb16:	48 8d 80 10 01 00 00 	lea    0x110(%rax),%rax
    eb1d:	48 01 e8             	add    %rbp,%rax
    eb20:	48 2d f0 00 00 00    	sub    $0xf0,%rax
    eb26:	f3 0f 11 00          	movss  %xmm0,(%rax)
    eb2a:	0f b7 45 d4          	movzwl -0x2c(%rbp),%eax
    eb2e:	0f b7 c0             	movzwl %ax,%eax
    eb31:	48 98                	cltq
    eb33:	48 8b 44 c5 60       	mov    0x60(%rbp,%rax,8),%rax
    eb38:	0f b7 55 c6          	movzwl -0x3a(%rbp),%edx
    eb3c:	0f b7 d2             	movzwl %dx,%edx
    eb3f:	f3 0f 10 00          	movss  (%rax),%xmm0
    eb43:	48 63 c2             	movslq %edx,%rax
    eb46:	48 c1 e0 04          	shl    $0x4,%rax
    eb4a:	48 8d 80 10 01 00 00 	lea    0x110(%rax),%rax
    eb51:	48 01 e8             	add    %rbp,%rax
    eb54:	48 2d ec 00 00 00    	sub    $0xec,%rax
    eb5a:	f3 0f 11 00          	movss  %xmm0,(%rax)
    eb5e:	0f b7 45 d6          	movzwl -0x2a(%rbp),%eax
    eb62:	0f b7 c0             	movzwl %ax,%eax
    eb65:	48 98                	cltq
    eb67:	48 8b 44 c5 60       	mov    0x60(%rbp,%rax,8),%rax
    eb6c:	0f b7 55 c6          	movzwl -0x3a(%rbp),%edx
    eb70:	0f b7 d2             	movzwl %dx,%edx
    eb73:	f3 0f 10 00          	movss  (%rax),%xmm0
    eb77:	48 63 c2             	movslq %edx,%rax
    eb7a:	48 c1 e0 04          	shl    $0x4,%rax
    eb7e:	48 8d 80 10 01 00 00 	lea    0x110(%rax),%rax
    eb85:	48 01 e8             	add    %rbp,%rax
    eb88:	48 2d e8 00 00 00    	sub    $0xe8,%rax
    eb8e:	f3 0f 11 00          	movss  %xmm0,(%rax)
    eb92:	0f b7 45 d8          	movzwl -0x28(%rbp),%eax
    eb96:	0f b7 c0             	movzwl %ax,%eax
    eb99:	48 98                	cltq
    eb9b:	48 8b 44 c5 60       	mov    0x60(%rbp,%rax,8),%rax
    eba0:	0f b7 55 c6          	movzwl -0x3a(%rbp),%edx
    eba4:	0f b7 d2             	movzwl %dx,%edx
    eba7:	f3 0f 10 00          	movss  (%rax),%xmm0
    ebab:	48 63 c2             	movslq %edx,%rax
    ebae:	48 c1 e0 04          	shl    $0x4,%rax
    ebb2:	48 8d 80 10 01 00 00 	lea    0x110(%rax),%rax
    ebb9:	48 01 e8             	add    %rbp,%rax
    ebbc:	48 2d e4 00 00 00    	sub    $0xe4,%rax
    ebc2:	f3 0f 11 00          	movss  %xmm0,(%rax)
    ebc6:	0f b7 55 c6          	movzwl -0x3a(%rbp),%edx
    ebca:	0f b7 45 c8          	movzwl -0x38(%rbp),%eax
    ebce:	01 d0                	add    %edx,%eax
    ebd0:	66 89 45 c6          	mov    %ax,-0x3a(%rbp)
    ebd4:	0f b7 55 c6          	movzwl -0x3a(%rbp),%edx
    ebd8:	0f b7 45 c4          	movzwl -0x3c(%rbp),%eax
    ebdc:	21 d0                	and    %edx,%eax
    ebde:	66 89 45 c6          	mov    %ax,-0x3a(%rbp)
    ebe2:	0f b7 55 cc          	movzwl -0x34(%rbp),%edx
    ebe6:	0f b7 45 ce          	movzwl -0x32(%rbp),%eax
    ebea:	01 d0                	add    %edx,%eax
    ebec:	66 89 45 cc          	mov    %ax,-0x34(%rbp)
    ebf0:	0f b7 45 cc          	movzwl -0x34(%rbp),%eax
    ebf4:	0f b7 55 c0          	movzwl -0x40(%rbp),%edx
    ebf8:	66 39 c2             	cmp    %ax,%dx
    ebfb:	73 0e                	jae    ec0b <test_log32+0xc1d>
    ebfd:	66 c7 45 c8 00 00    	movw   $0x0,-0x38(%rbp)
    ec03:	66 c7 45 ce 00 00    	movw   $0x0,-0x32(%rbp)
    ec09:	eb 22                	jmp    ec2d <test_log32+0xc3f>
    ec0b:	0f b7 45 d0          	movzwl -0x30(%rbp),%eax
    ec0f:	0f b7 c0             	movzwl %ax,%eax
    ec12:	48 98                	cltq
    ec14:	48 8b 44 c5 60       	mov    0x60(%rbp,%rax,8),%rax
    ec19:	f3 0f 10 00          	movss  (%rax),%xmm0
    ec1d:	f3 0f 10 4d dc       	movss  -0x24(%rbp),%xmm1
    ec22:	0f 2f c1             	comiss %xmm1,%xmm0
    ec25:	76 06                	jbe    ec2d <test_log32+0xc3f>
    ec27:	66 c7 45 ce 01 00    	movw   $0x1,-0x32(%rbp)
    ec2d:	f3 0f 10 45 20       	movss  0x20(%rbp),%xmm0
    ec32:	0f 2e 05 b4 08 00 00 	ucomiss 0x8b4(%rip),%xmm0        # f4ed <test_log32+0x14ff>
    ec39:	7a 4e                	jp     ec89 <test_log32+0xc9b>
    ec3b:	0f 2e 05 b4 08 00 00 	ucomiss 0x8b4(%rip),%xmm0        # f4f6 <test_log32+0x1508>
    ec42:	75 45                	jne    ec89 <test_log32+0xc9b>
    ec44:	f3 0f 10 45 24       	movss  0x24(%rbp),%xmm0
    ec49:	0f 2e 05 24 09 00 00 	ucomiss 0x924(%rip),%xmm0        # f574 <test_log32+0x1586>
    ec50:	7a 37                	jp     ec89 <test_log32+0xc9b>
    ec52:	0f 2e 05 24 09 00 00 	ucomiss 0x924(%rip),%xmm0        # f57d <test_log32+0x158f>
    ec59:	75 2e                	jne    ec89 <test_log32+0xc9b>
    ec5b:	f3 0f 10 45 28       	movss  0x28(%rbp),%xmm0
    ec60:	0f 2e 05 40 08 00 00 	ucomiss 0x840(%rip),%xmm0        # f4a7 <test_log32+0x14b9>
    ec67:	7a 20                	jp     ec89 <test_log32+0xc9b>
    ec69:	0f 2e 05 40 08 00 00 	ucomiss 0x840(%rip),%xmm0        # f4b0 <test_log32+0x14c2>
    ec70:	75 17                	jne    ec89 <test_log32+0xc9b>
    ec72:	f3 0f 10 45 2c       	movss  0x2c(%rbp),%xmm0
    ec77:	0f 2e 05 38 09 00 00 	ucomiss 0x938(%rip),%xmm0        # f5b6 <test_log32+0x15c8>
    ec7e:	7a 09                	jp     ec89 <test_log32+0xc9b>
    ec80:	0f 2e 05 38 09 00 00 	ucomiss 0x938(%rip),%xmm0        # f5bf <test_log32+0x15d1>
    ec87:	74 1f                	je     eca8 <test_log32+0xcba>
    ec89:	41 b8 09 07 00 00    	mov    $0x709,%r8d
    ec8f:	48 8d 05 49 00 00 00 	lea    0x49(%rip),%rax        # ecdf <test_log32+0xcf1>
    ec96:	48 89 c2             	mov    %rax,%rdx
    ec99:	48 8d 05 5a 00 00 00 	lea    0x5a(%rip),%rax        # ecfa <test_log32+0xd0c>
    eca0:	48 89 c1             	mov    %rax,%rcx
    eca3:	e8 9b 13 ff ff       	call   43 <printf>
    eca8:	f3 0f 10 45 30       	movss  0x30(%rbp),%xmm0
    ecad:	0f 2e 05 c8 08 00 00 	ucomiss 0x8c8(%rip),%xmm0        # f57c <test_log32+0x158e>
    ecb4:	7a 4e                	jp     ed04 <test_log32+0xd16>
    ecb6:	0f 2e 05 c8 08 00 00 	ucomiss 0x8c8(%rip),%xmm0        # f585 <test_log32+0x1597>
    ecbd:	75 45                	jne    ed04 <test_log32+0xd16>
    ecbf:	f3 0f 10 45 34       	movss  0x34(%rbp),%xmm0
    ecc4:	0f 2e 05 20 08 00 00 	ucomiss 0x820(%rip),%xmm0        # f4eb <test_log32+0x14fd>
    eccb:	7a 37                	jp     ed04 <test_log32+0xd16>
    eccd:	0f 2e 05 20 08 00 00 	ucomiss 0x820(%rip),%xmm0        # f4f4 <test_log32+0x1506>
    ecd4:	75 2e                	jne    ed04 <test_log32+0xd16>
    ecd6:	f3 0f 10 45 38       	movss  0x38(%rbp),%xmm0
    ecdb:	0f 2e 05 24 08 00 00 	ucomiss 0x824(%rip),%xmm0        # f506 <test_log32+0x1518>
    ece2:	7a 20                	jp     ed04 <test_log32+0xd16>
    ece4:	0f 2e 05 24 08 00 00 	ucomiss 0x824(%rip),%xmm0        # f50f <test_log32+0x1521>
    eceb:	75 17                	jne    ed04 <test_log32+0xd16>
    eced:	f3 0f 10 45 3c       	movss  0x3c(%rbp),%xmm0
    ecf2:	0f 2e 05 28 08 00 00 	ucomiss 0x828(%rip),%xmm0        # f521 <test_log32+0x1533>
    ecf9:	7a 09                	jp     ed04 <test_log32+0xd16>
    ecfb:	0f 2e 05 28 08 00 00 	ucomiss 0x828(%rip),%xmm0        # f52a <test_log32+0x153c>
    ed02:	74 1f                	je     ed23 <test_log32+0xd35>
    ed04:	41 b8 0b 07 00 00    	mov    $0x70b,%r8d
    ed0a:	48 8d 05 49 00 00 00 	lea    0x49(%rip),%rax        # ed5a <test_log32+0xd6c>
    ed11:	48 89 c2             	mov    %rax,%rdx
    ed14:	48 8d 05 5a 00 00 00 	lea    0x5a(%rip),%rax        # ed75 <test_log32+0xd87>
    ed1b:	48 89 c1             	mov    %rax,%rcx
    ed1e:	e8 20 13 ff ff       	call   43 <printf>
    ed23:	f3 0f 10 45 40       	movss  0x40(%rbp),%xmm0
    ed28:	0f 2e 05 18 09 00 00 	ucomiss 0x918(%rip),%xmm0        # f647 <test_log32+0x1659>
    ed2f:	7a 4e                	jp     ed7f <test_log32+0xd91>
    ed31:	0f 2e 05 18 09 00 00 	ucomiss 0x918(%rip),%xmm0        # f650 <test_log32+0x1662>
    ed38:	75 45                	jne    ed7f <test_log32+0xd91>
    ed3a:	f3 0f 10 45 44       	movss  0x44(%rbp),%xmm0
    ed3f:	0f 2e 05 2c 08 00 00 	ucomiss 0x82c(%rip),%xmm0        # f572 <test_log32+0x1584>
    ed46:	7a 37                	jp     ed7f <test_log32+0xd91>
    ed48:	0f 2e 05 2c 08 00 00 	ucomiss 0x82c(%rip),%xmm0        # f57b <test_log32+0x158d>
    ed4f:	75 2e                	jne    ed7f <test_log32+0xd91>
    ed51:	f3 0f 10 45 48       	movss  0x48(%rbp),%xmm0
    ed56:	0f 2e 05 30 08 00 00 	ucomiss 0x830(%rip),%xmm0        # f58d <test_log32+0x159f>
    ed5d:	7a 20                	jp     ed7f <test_log32+0xd91>
    ed5f:	0f 2e 05 30 08 00 00 	ucomiss 0x830(%rip),%xmm0        # f596 <test_log32+0x15a8>
    ed66:	75 17                	jne    ed7f <test_log32+0xd91>
    ed68:	f3 0f 10 45 4c       	movss  0x4c(%rbp),%xmm0
    ed6d:	0f 2e 05 3c 09 00 00 	ucomiss 0x93c(%rip),%xmm0        # f6b0 <test_log32+0x16c2>
    ed74:	7a 09                	jp     ed7f <test_log32+0xd91>
    ed76:	0f 2e 05 3c 09 00 00 	ucomiss 0x93c(%rip),%xmm0        # f6b9 <test_log32+0x16cb>
    ed7d:	74 1f                	je     ed9e <test_log32+0xdb0>
    ed7f:	41 b8 0d 07 00 00    	mov    $0x70d,%r8d
    ed85:	48 8d 05 49 00 00 00 	lea    0x49(%rip),%rax        # edd5 <test_log32+0xde7>
    ed8c:	48 89 c2             	mov    %rax,%rdx
    ed8f:	48 8d 05 5a 00 00 00 	lea    0x5a(%rip),%rax        # edf0 <test_log32+0xe02>
    ed96:	48 89 c1             	mov    %rax,%rcx
    ed99:	e8 a5 12 ff ff       	call   43 <printf>
    ed9e:	f3 0f 10 45 50       	movss  0x50(%rbp),%xmm0
    eda3:	66 0f ef c9          	pxor   %xmm1,%xmm1
    eda7:	0f 2e c1             	ucomiss %xmm1,%xmm0
    edaa:	7a 4e                	jp     edfa <test_log32+0xe0c>
    edac:	66 0f ef c9          	pxor   %xmm1,%xmm1
    edb0:	0f 2e c1             	ucomiss %xmm1,%xmm0
    edb3:	75 45                	jne    edfa <test_log32+0xe0c>
    edb5:	f3 0f 10 45 54       	movss  0x54(%rbp),%xmm0
    edba:	66 0f ef c9          	pxor   %xmm1,%xmm1
    edbe:	0f 2e c1             	ucomiss %xmm1,%xmm0
    edc1:	7a 37                	jp     edfa <test_log32+0xe0c>
    edc3:	66 0f ef c9          	pxor   %xmm1,%xmm1
    edc7:	0f 2e c1             	ucomiss %xmm1,%xmm0
    edca:	75 2e                	jne    edfa <test_log32+0xe0c>
    edcc:	f3 0f 10 45 58       	movss  0x58(%rbp),%xmm0
    edd1:	66 0f ef c9          	pxor   %xmm1,%xmm1
    edd5:	0f 2e c1             	ucomiss %xmm1,%xmm0
    edd8:	7a 20                	jp     edfa <test_log32+0xe0c>
    edda:	66 0f ef c9          	pxor   %xmm1,%xmm1
    edde:	0f 2e c1             	ucomiss %xmm1,%xmm0
    ede1:	75 17                	jne    edfa <test_log32+0xe0c>
    ede3:	f3 0f 10 45 5c       	movss  0x5c(%rbp),%xmm0
    ede8:	66 0f ef c9          	pxor   %xmm1,%xmm1
    edec:	0f 2e c1             	ucomiss %xmm1,%xmm0
    edef:	7a 09                	jp     edfa <test_log32+0xe0c>
    edf1:	66 0f ef c9          	pxor   %xmm1,%xmm1
    edf5:	0f 2e c1             	ucomiss %xmm1,%xmm0
    edf8:	74 1f                	je     ee19 <test_log32+0xe2b>
    edfa:	41 b8 0f 07 00 00    	mov    $0x70f,%r8d
    ee00:	48 8d 05 49 00 00 00 	lea    0x49(%rip),%rax        # ee50 <test_log32+0xe62>
    ee07:	48 89 c2             	mov    %rax,%rdx
    ee0a:	48 8d 05 5a 00 00 00 	lea    0x5a(%rip),%rax        # ee6b <test_log32+0xe7d>
    ee11:	48 89 c1             	mov    %rax,%rcx
    ee14:	e8 2a 12 ff ff       	call   43 <printf>
    ee19:	0f b7 45 cc          	movzwl -0x34(%rbp),%eax
    ee1d:	66 85 c0             	test   %ax,%ax
    ee20:	74 1f                	je     ee41 <test_log32+0xe53>
    ee22:	41 b8 11 07 00 00    	mov    $0x711,%r8d
    ee28:	48 8d 05 49 00 00 00 	lea    0x49(%rip),%rax        # ee78 <test_log32+0xe8a>
    ee2f:	48 89 c2             	mov    %rax,%rdx
    ee32:	48 8d 05 5a 00 00 00 	lea    0x5a(%rip),%rax        # ee93 <test_log32+0xea5>
    ee39:	48 89 c1             	mov    %rax,%rcx
    ee3c:	e8 02 12 ff ff       	call   43 <printf>
    ee41:	0f b7 45 c8          	movzwl -0x38(%rbp),%eax
    ee45:	66 83 f8 01          	cmp    $0x1,%ax
    ee49:	74 1f                	je     ee6a <test_log32+0xe7c>
    ee4b:	41 b8 12 07 00 00    	mov    $0x712,%r8d
    ee51:	48 8d 05 49 00 00 00 	lea    0x49(%rip),%rax        # eea1 <test_log32+0xeb3>
    ee58:	48 89 c2             	mov    %rax,%rdx
    ee5b:	48 8d 05 5a 00 00 00 	lea    0x5a(%rip),%rax        # eebc <test_log32+0xece>
    ee62:	48 89 c1             	mov    %rax,%rcx
    ee65:	e8 d9 11 ff ff       	call   43 <printf>
    ee6a:	0f b7 45 ce          	movzwl -0x32(%rbp),%eax
    ee6e:	66 85 c0             	test   %ax,%ax
    ee71:	74 1f                	je     ee92 <test_log32+0xea4>
    ee73:	41 b8 13 07 00 00    	mov    $0x713,%r8d
    ee79:	48 8d 05 49 00 00 00 	lea    0x49(%rip),%rax        # eec9 <test_log32+0xedb>
    ee80:	48 89 c2             	mov    %rax,%rdx
    ee83:	48 8d 05 5a 00 00 00 	lea    0x5a(%rip),%rax        # eee4 <test_log32+0xef6>
    ee8a:	48 89 c1             	mov    %rax,%rcx
    ee8d:	e8 b1 11 ff ff       	call   43 <printf>
    ee92:	f3 0f 10 85 fc 00 00 	movss  0xfc(%rbp),%xmm0
    ee99:	00 
    ee9a:	f3 0f 11 85 8c 00 00 	movss  %xmm0,0x8c(%rbp)
    eea1:	00 
    eea2:	f3 0f 10 85 dc 00 00 	movss  0xdc(%rbp),%xmm0
    eea9:	00 
    eeaa:	f3 0f 11 85 88 00 00 	movss  %xmm0,0x88(%rbp)
    eeb1:	00 
    eeb2:	f3 0f 10 85 bc 00 00 	movss  0xbc(%rbp),%xmm0
    eeb9:	00 
    eeba:	f3 0f 11 85 84 00 00 	movss  %xmm0,0x84(%rbp)
    eec1:	00 
    eec2:	f3 0f 10 85 9c 00 00 	movss  0x9c(%rbp),%xmm0
    eec9:	00 
    eeca:	f3 0f 11 85 80 00 00 	movss  %xmm0,0x80(%rbp)
    eed1:	00 
    eed2:	0f b7 45 c8          	movzwl -0x38(%rbp),%eax
    eed6:	66 83 f8 01          	cmp    $0x1,%ax
    eeda:	0f 85 37 01 00 00    	jne    f017 <test_log32+0x1029>
    eee0:	0f b7 45 d2          	movzwl -0x2e(%rbp),%eax
    eee4:	0f b7 c0             	movzwl %ax,%eax
    eee7:	48 98                	cltq
    eee9:	48 8b 44 c5 60       	mov    0x60(%rbp,%rax,8),%rax
    eeee:	0f b7 55 c6          	movzwl -0x3a(%rbp),%edx
    eef2:	0f b7 d2             	movzwl %dx,%edx
    eef5:	f3 0f 10 00          	movss  (%rax),%xmm0
    eef9:	48 63 c2             	movslq %edx,%rax
    eefc:	48 c1 e0 04          	shl    $0x4,%rax
    ef00:	48 8d 80 10 01 00 00 	lea    0x110(%rax),%rax
    ef07:	48 01 e8             	add    %rbp,%rax
    ef0a:	48 2d f0 00 00 00    	sub    $0xf0,%rax
    ef10:	f3 0f 11 00          	movss  %xmm0,(%rax)
    ef14:	0f b7 45 d4          	movzwl -0x2c(%rbp),%eax
    ef18:	0f b7 c0             	movzwl %ax,%eax
    ef1b:	48 98                	cltq
    ef1d:	48 8b 44 c5 60       	mov    0x60(%rbp,%rax,8),%rax
    ef22:	0f b7 55 c6          	movzwl -0x3a(%rbp),%edx
    ef26:	0f b7 d2             	movzwl %dx,%edx
    ef29:	f3 0f 10 00          	movss  (%rax),%xmm0
    ef2d:	48 63 c2             	movslq %edx,%rax
    ef30:	48 c1 e0 04          	shl    $0x4,%rax
    ef34:	48 8d 80 10 01 00 00 	lea    0x110(%rax),%rax
    ef3b:	48 01 e8             	add    %rbp,%rax
    ef3e:	48 2d ec 00 00 00    	sub    $0xec,%rax
    ef44:	f3 0f 11 00          	movss  %xmm0,(%rax)
    ef48:	0f b7 45 d6          	movzwl -0x2a(%rbp),%eax
    ef4c:	0f b7 c0             	movzwl %ax,%eax
    ef4f:	48 98                	cltq
    ef51:	48 8b 44 c5 60       	mov    0x60(%rbp,%rax,8),%rax
    ef56:	0f b7 55 c6          	movzwl -0x3a(%rbp),%edx
    ef5a:	0f b7 d2             	movzwl %dx,%edx
    ef5d:	f3 0f 10 00          	movss  (%rax),%xmm0
    ef61:	48 63 c2             	movslq %edx,%rax
    ef64:	48 c1 e0 04          	shl    $0x4,%rax
    ef68:	48 8d 80 10 01 00 00 	lea    0x110(%rax),%rax
    ef6f:	48 01 e8             	add    %rbp,%rax
    ef72:	48 2d e8 00 00 00    	sub    $0xe8,%rax
    ef78:	f3 0f 11 00          	movss  %xmm0,(%rax)
    ef7c:	0f b7 45 d8          	movzwl -0x28(%rbp),%eax
    ef80:	0f b7 c0             	movzwl %ax,%eax
    ef83:	48 98                	cltq
    ef85:	48 8b 44 c5 60       	mov    0x60(%rbp,%rax,8),%rax
    ef8a:	0f b7 55 c6          	movzwl -0x3a(%rbp),%edx
    ef8e:	0f b7 d2             	movzwl %dx,%edx
    ef91:	f3 0f 10 00          	movss  (%rax),%xmm0
    ef95:	48 63 c2             	movslq %edx,%rax
    ef98:	48 c1 e0 04          	shl    $0x4,%rax
    ef9c:	48 8d 80 10 01 00 00 	lea    0x110(%rax),%rax
    efa3:	48 01 e8             	add    %rbp,%rax
    efa6:	48 2d e4 00 00 00    	sub    $0xe4,%rax
    efac:	f3 0f 11 00          	movss  %xmm0,(%rax)
    efb0:	0f b7 55 c6          	movzwl -0x3a(%rbp),%edx
    efb4:	0f b7 45 c8          	movzwl -0x38(%rbp),%eax
    efb8:	01 d0                	add    %edx,%eax
    efba:	66 89 45 c6          	mov    %ax,-0x3a(%rbp)
    efbe:	0f b7 55 c6          	movzwl -0x3a(%rbp),%edx
    efc2:	0f b7 45 c4          	movzwl -0x3c(%rbp),%eax
    efc6:	21 d0                	and    %edx,%eax
    efc8:	66 89 45 c6          	mov    %ax,-0x3a(%rbp)
    efcc:	0f b7 55 cc          	movzwl -0x34(%rbp),%edx
    efd0:	0f b7 45 ce          	movzwl -0x32(%rbp),%eax
    efd4:	01 d0                	add    %edx,%eax
    efd6:	66 89 45 cc          	mov    %ax,-0x34(%rbp)
    efda:	0f b7 45 cc          	movzwl -0x34(%rbp),%eax
    efde:	0f b7 55 c0          	movzwl -0x40(%rbp),%edx
    efe2:	66 39 c2             	cmp    %ax,%dx
    efe5:	73 0e                	jae    eff5 <test_log32+0x1007>
    efe7:	66 c7 45 c8 00 00    	movw   $0x0,-0x38(%rbp)
    efed:	66 c7 45 ce 00 00    	movw   $0x0,-0x32(%rbp)
    eff3:	eb 22                	jmp    f017 <test_log32+0x1029>
    eff5:	0f b7 45 d0          	movzwl -0x30(%rbp),%eax
    eff9:	0f b7 c0             	movzwl %ax,%eax
    effc:	48 98                	cltq
    effe:	48 8b 44 c5 60       	mov    0x60(%rbp,%rax,8),%rax
    f003:	f3 0f 10 00          	movss  (%rax),%xmm0
    f007:	f3 0f 10 4d dc       	movss  -0x24(%rbp),%xmm1
    f00c:	0f 2f c1             	comiss %xmm1,%xmm0
    f00f:	76 06                	jbe    f017 <test_log32+0x1029>
    f011:	66 c7 45 ce 01 00    	movw   $0x1,-0x32(%rbp)
    f017:	f3 0f 10 45 20       	movss  0x20(%rbp),%xmm0
    f01c:	0f 2e 05 b4 08 00 00 	ucomiss 0x8b4(%rip),%xmm0        # f8d7 <test_log32+0x18e9>
    f023:	7a 4e                	jp     f073 <test_log32+0x1085>
    f025:	0f 2e 05 b4 08 00 00 	ucomiss 0x8b4(%rip),%xmm0        # f8e0 <test_log32+0x18f2>
    f02c:	75 45                	jne    f073 <test_log32+0x1085>
    f02e:	f3 0f 10 45 24       	movss  0x24(%rbp),%xmm0
    f033:	0f 2e 05 24 09 00 00 	ucomiss 0x924(%rip),%xmm0        # f95e <test_log32+0x1970>
    f03a:	7a 37                	jp     f073 <test_log32+0x1085>
    f03c:	0f 2e 05 24 09 00 00 	ucomiss 0x924(%rip),%xmm0        # f967 <test_log32+0x1979>
    f043:	75 2e                	jne    f073 <test_log32+0x1085>
    f045:	f3 0f 10 45 28       	movss  0x28(%rbp),%xmm0
    f04a:	0f 2e 05 40 08 00 00 	ucomiss 0x840(%rip),%xmm0        # f891 <test_log32+0x18a3>
    f051:	7a 20                	jp     f073 <test_log32+0x1085>
    f053:	0f 2e 05 40 08 00 00 	ucomiss 0x840(%rip),%xmm0        # f89a <test_log32+0x18ac>
    f05a:	75 17                	jne    f073 <test_log32+0x1085>
    f05c:	f3 0f 10 45 2c       	movss  0x2c(%rbp),%xmm0
    f061:	0f 2e 05 38 09 00 00 	ucomiss 0x938(%rip),%xmm0        # f9a0 <test_log32+0x19b2>
    f068:	7a 09                	jp     f073 <test_log32+0x1085>
    f06a:	0f 2e 05 38 09 00 00 	ucomiss 0x938(%rip),%xmm0        # f9a9 <test_log32+0x19bb>
    f071:	74 1f                	je     f092 <test_log32+0x10a4>
    f073:	41 b8 1a 07 00 00    	mov    $0x71a,%r8d
    f079:	48 8d 05 49 00 00 00 	lea    0x49(%rip),%rax        # f0c9 <test_log32+0x10db>
    f080:	48 89 c2             	mov    %rax,%rdx
    f083:	48 8d 05 5a 00 00 00 	lea    0x5a(%rip),%rax        # f0e4 <test_log32+0x10f6>
    f08a:	48 89 c1             	mov    %rax,%rcx
    f08d:	e8 b1 0f ff ff       	call   43 <printf>
    f092:	f3 0f 10 45 30       	movss  0x30(%rbp),%xmm0
    f097:	0f 2e 05 c8 08 00 00 	ucomiss 0x8c8(%rip),%xmm0        # f966 <test_log32+0x1978>
    f09e:	7a 4e                	jp     f0ee <test_log32+0x1100>
    f0a0:	0f 2e 05 c8 08 00 00 	ucomiss 0x8c8(%rip),%xmm0        # f96f <test_log32+0x1981>
    f0a7:	75 45                	jne    f0ee <test_log32+0x1100>
    f0a9:	f3 0f 10 45 34       	movss  0x34(%rbp),%xmm0
    f0ae:	0f 2e 05 20 08 00 00 	ucomiss 0x820(%rip),%xmm0        # f8d5 <test_log32+0x18e7>
    f0b5:	7a 37                	jp     f0ee <test_log32+0x1100>
    f0b7:	0f 2e 05 20 08 00 00 	ucomiss 0x820(%rip),%xmm0        # f8de <test_log32+0x18f0>
    f0be:	75 2e                	jne    f0ee <test_log32+0x1100>
    f0c0:	f3 0f 10 45 38       	movss  0x38(%rbp),%xmm0
    f0c5:	0f 2e 05 24 08 00 00 	ucomiss 0x824(%rip),%xmm0        # f8f0 <test_log32+0x1902>
    f0cc:	7a 20                	jp     f0ee <test_log32+0x1100>
    f0ce:	0f 2e 05 24 08 00 00 	ucomiss 0x824(%rip),%xmm0        # f8f9 <test_log32+0x190b>
    f0d5:	75 17                	jne    f0ee <test_log32+0x1100>
    f0d7:	f3 0f 10 45 3c       	movss  0x3c(%rbp),%xmm0
    f0dc:	0f 2e 05 28 08 00 00 	ucomiss 0x828(%rip),%xmm0        # f90b <test_log32+0x191d>
    f0e3:	7a 09                	jp     f0ee <test_log32+0x1100>
    f0e5:	0f 2e 05 28 08 00 00 	ucomiss 0x828(%rip),%xmm0        # f914 <test_log32+0x1926>
    f0ec:	74 1f                	je     f10d <test_log32+0x111f>
    f0ee:	41 b8 1c 07 00 00    	mov    $0x71c,%r8d
    f0f4:	48 8d 05 49 00 00 00 	lea    0x49(%rip),%rax        # f144 <test_log32+0x1156>
    f0fb:	48 89 c2             	mov    %rax,%rdx
    f0fe:	48 8d 05 5a 00 00 00 	lea    0x5a(%rip),%rax        # f15f <test_log32+0x1171>
    f105:	48 89 c1             	mov    %rax,%rcx
    f108:	e8 36 0f ff ff       	call   43 <printf>
    f10d:	f3 0f 10 45 40       	movss  0x40(%rbp),%xmm0
    f112:	0f 2e 05 18 09 00 00 	ucomiss 0x918(%rip),%xmm0        # fa31 <test_log32+0x1a43>
    f119:	7a 4e                	jp     f169 <test_log32+0x117b>
    f11b:	0f 2e 05 18 09 00 00 	ucomiss 0x918(%rip),%xmm0        # fa3a <test_log32+0x1a4c>
    f122:	75 45                	jne    f169 <test_log32+0x117b>
    f124:	f3 0f 10 45 44       	movss  0x44(%rbp),%xmm0
    f129:	0f 2e 05 2c 08 00 00 	ucomiss 0x82c(%rip),%xmm0        # f95c <test_log32+0x196e>
    f130:	7a 37                	jp     f169 <test_log32+0x117b>
    f132:	0f 2e 05 2c 08 00 00 	ucomiss 0x82c(%rip),%xmm0        # f965 <test_log32+0x1977>
    f139:	75 2e                	jne    f169 <test_log32+0x117b>
    f13b:	f3 0f 10 45 48       	movss  0x48(%rbp),%xmm0
    f140:	0f 2e 05 30 08 00 00 	ucomiss 0x830(%rip),%xmm0        # f977 <test_log32+0x1989>
    f147:	7a 20                	jp     f169 <test_log32+0x117b>
    f149:	0f 2e 05 30 08 00 00 	ucomiss 0x830(%rip),%xmm0        # f980 <test_log32+0x1992>
    f150:	75 17                	jne    f169 <test_log32+0x117b>
    f152:	f3 0f 10 45 4c       	movss  0x4c(%rbp),%xmm0
    f157:	0f 2e 05 3c 09 00 00 	ucomiss 0x93c(%rip),%xmm0        # fa9a <test_log32+0x1aac>
    f15e:	7a 09                	jp     f169 <test_log32+0x117b>
    f160:	0f 2e 05 3c 09 00 00 	ucomiss 0x93c(%rip),%xmm0        # faa3 <test_log32+0x1ab5>
    f167:	74 1f                	je     f188 <test_log32+0x119a>
    f169:	41 b8 1e 07 00 00    	mov    $0x71e,%r8d
    f16f:	48 8d 05 49 00 00 00 	lea    0x49(%rip),%rax        # f1bf <test_log32+0x11d1>
    f176:	48 89 c2             	mov    %rax,%rdx
    f179:	48 8d 05 5a 00 00 00 	lea    0x5a(%rip),%rax        # f1da <test_log32+0x11ec>
    f180:	48 89 c1             	mov    %rax,%rcx
    f183:	e8 bb 0e ff ff       	call   43 <printf>
    f188:	f3 0f 10 45 50       	movss  0x50(%rbp),%xmm0
    f18d:	0f 2e 05 1c 09 00 00 	ucomiss 0x91c(%rip),%xmm0        # fab0 <test_log32+0x1ac2>
    f194:	7a 4e                	jp     f1e4 <test_log32+0x11f6>
    f196:	0f 2e 05 1c 09 00 00 	ucomiss 0x91c(%rip),%xmm0        # fab9 <test_log32+0x1acb>
    f19d:	75 45                	jne    f1e4 <test_log32+0x11f6>
    f19f:	f3 0f 10 45 54       	movss  0x54(%rbp),%xmm0
    f1a4:	0f 2e 05 44 08 00 00 	ucomiss 0x844(%rip),%xmm0        # f9ef <test_log32+0x1a01>
    f1ab:	7a 37                	jp     f1e4 <test_log32+0x11f6>
    f1ad:	0f 2e 05 44 08 00 00 	ucomiss 0x844(%rip),%xmm0        # f9f8 <test_log32+0x1a0a>
    f1b4:	75 2e                	jne    f1e4 <test_log32+0x11f6>
    f1b6:	f3 0f 10 45 58       	movss  0x58(%rbp),%xmm0
    f1bb:	0f 2e 05 2c 09 00 00 	ucomiss 0x92c(%rip),%xmm0        # faee <test_log32+0x1b00>
    f1c2:	7a 20                	jp     f1e4 <test_log32+0x11f6>
    f1c4:	0f 2e 05 2c 09 00 00 	ucomiss 0x92c(%rip),%xmm0        # faf7 <test_log32+0x1b09>
    f1cb:	75 17                	jne    f1e4 <test_log32+0x11f6>
    f1cd:	f3 0f 10 45 5c       	movss  0x5c(%rbp),%xmm0
    f1d2:	0f 2e 05 40 09 00 00 	ucomiss 0x940(%rip),%xmm0        # fb19 <test_log32+0x1b2b>
    f1d9:	7a 09                	jp     f1e4 <test_log32+0x11f6>
    f1db:	0f 2e 05 40 09 00 00 	ucomiss 0x940(%rip),%xmm0        # fb22 <test_log32+0x1b34>
    f1e2:	74 1f                	je     f203 <test_log32+0x1215>
    f1e4:	41 b8 20 07 00 00    	mov    $0x720,%r8d
    f1ea:	48 8d 05 49 00 00 00 	lea    0x49(%rip),%rax        # f23a <test_log32+0x124c>
    f1f1:	48 89 c2             	mov    %rax,%rdx
    f1f4:	48 8d 05 5a 00 00 00 	lea    0x5a(%rip),%rax        # f255 <test_log32+0x1267>
    f1fb:	48 89 c1             	mov    %rax,%rcx
    f1fe:	e8 40 0e ff ff       	call   43 <printf>
    f203:	0f b7 45 cc          	movzwl -0x34(%rbp),%eax
    f207:	66 85 c0             	test   %ax,%ax
    f20a:	74 1f                	je     f22b <test_log32+0x123d>
    f20c:	41 b8 22 07 00 00    	mov    $0x722,%r8d
    f212:	48 8d 05 49 00 00 00 	lea    0x49(%rip),%rax        # f262 <test_log32+0x1274>
    f219:	48 89 c2             	mov    %rax,%rdx
    f21c:	48 8d 05 5a 00 00 00 	lea    0x5a(%rip),%rax        # f27d <test_log32+0x128f>
    f223:	48 89 c1             	mov    %rax,%rcx
    f226:	e8 18 0e ff ff       	call   43 <printf>
    f22b:	0f b7 45 c8          	movzwl -0x38(%rbp),%eax
    f22f:	66 83 f8 01          	cmp    $0x1,%ax
    f233:	74 1f                	je     f254 <test_log32+0x1266>
    f235:	41 b8 23 07 00 00    	mov    $0x723,%r8d
    f23b:	48 8d 05 49 00 00 00 	lea    0x49(%rip),%rax        # f28b <test_log32+0x129d>
    f242:	48 89 c2             	mov    %rax,%rdx
    f245:	48 8d 05 5a 00 00 00 	lea    0x5a(%rip),%rax        # f2a6 <test_log32+0x12b8>
    f24c:	48 89 c1             	mov    %rax,%rcx
    f24f:	e8 ef 0d ff ff       	call   43 <printf>
    f254:	0f b7 45 ce          	movzwl -0x32(%rbp),%eax
    f258:	66 85 c0             	test   %ax,%ax
    f25b:	74 1f                	je     f27c <test_log32+0x128e>
    f25d:	41 b8 24 07 00 00    	mov    $0x724,%r8d
    f263:	48 8d 05 49 00 00 00 	lea    0x49(%rip),%rax        # f2b3 <test_log32+0x12c5>
    f26a:	48 89 c2             	mov    %rax,%rdx
    f26d:	48 8d 05 5a 00 00 00 	lea    0x5a(%rip),%rax        # f2ce <test_log32+0x12e0>
    f274:	48 89 c1             	mov    %rax,%rcx
    f277:	e8 c7 0d ff ff       	call   43 <printf>
    f27c:	f3 0f 10 85 00 01 00 	movss  0x100(%rbp),%xmm0
    f283:	00 
    f284:	f3 0f 11 85 8c 00 00 	movss  %xmm0,0x8c(%rbp)
    f28b:	00 
    f28c:	f3 0f 10 85 e0 00 00 	movss  0xe0(%rbp),%xmm0
    f293:	00 
    f294:	f3 0f 11 85 88 00 00 	movss  %xmm0,0x88(%rbp)
    f29b:	00 
    f29c:	f3 0f 10 85 c0 00 00 	movss  0xc0(%rbp),%xmm0
    f2a3:	00 
    f2a4:	f3 0f 11 85 84 00 00 	movss  %xmm0,0x84(%rbp)
    f2ab:	00 
    f2ac:	f3 0f 10 85 a0 00 00 	movss  0xa0(%rbp),%xmm0
    f2b3:	00 
    f2b4:	f3 0f 11 85 80 00 00 	movss  %xmm0,0x80(%rbp)
    f2bb:	00 
    f2bc:	0f b7 45 c8          	movzwl -0x38(%rbp),%eax
    f2c0:	66 83 f8 01          	cmp    $0x1,%ax
    f2c4:	0f 85 37 01 00 00    	jne    f401 <test_log32+0x1413>
    f2ca:	0f b7 45 d2          	movzwl -0x2e(%rbp),%eax
    f2ce:	0f b7 c0             	movzwl %ax,%eax
    f2d1:	48 98                	cltq
    f2d3:	48 8b 44 c5 60       	mov    0x60(%rbp,%rax,8),%rax
    f2d8:	0f b7 55 c6          	movzwl -0x3a(%rbp),%edx
    f2dc:	0f b7 d2             	movzwl %dx,%edx
    f2df:	f3 0f 10 00          	movss  (%rax),%xmm0
    f2e3:	48 63 c2             	movslq %edx,%rax
    f2e6:	48 c1 e0 04          	shl    $0x4,%rax
    f2ea:	48 8d 80 10 01 00 00 	lea    0x110(%rax),%rax
    f2f1:	48 01 e8             	add    %rbp,%rax
    f2f4:	48 2d f0 00 00 00    	sub    $0xf0,%rax
    f2fa:	f3 0f 11 00          	movss  %xmm0,(%rax)
    f2fe:	0f b7 45 d4          	movzwl -0x2c(%rbp),%eax
    f302:	0f b7 c0             	movzwl %ax,%eax
    f305:	48 98                	cltq
    f307:	48 8b 44 c5 60       	mov    0x60(%rbp,%rax,8),%rax
    f30c:	0f b7 55 c6          	movzwl -0x3a(%rbp),%edx
    f310:	0f b7 d2             	movzwl %dx,%edx
    f313:	f3 0f 10 00          	movss  (%rax),%xmm0
    f317:	48 63 c2             	movslq %edx,%rax
    f31a:	48 c1 e0 04          	shl    $0x4,%rax
    f31e:	48 8d 80 10 01 00 00 	lea    0x110(%rax),%rax
    f325:	48 01 e8             	add    %rbp,%rax
    f328:	48 2d ec 00 00 00    	sub    $0xec,%rax
    f32e:	f3 0f 11 00          	movss  %xmm0,(%rax)
    f332:	0f b7 45 d6          	movzwl -0x2a(%rbp),%eax
    f336:	0f b7 c0             	movzwl %ax,%eax
    f339:	48 98                	cltq
    f33b:	48 8b 44 c5 60       	mov    0x60(%rbp,%rax,8),%rax
    f340:	0f b7 55 c6          	movzwl -0x3a(%rbp),%edx
    f344:	0f b7 d2             	movzwl %dx,%edx
    f347:	f3 0f 10 00          	movss  (%rax),%xmm0
    f34b:	48 63 c2             	movslq %edx,%rax
    f34e:	48 c1 e0 04          	shl    $0x4,%rax
    f352:	48 8d 80 10 01 00 00 	lea    0x110(%rax),%rax
    f359:	48 01 e8             	add    %rbp,%rax
    f35c:	48 2d e8 00 00 00    	sub    $0xe8,%rax
    f362:	f3 0f 11 00          	movss  %xmm0,(%rax)
    f366:	0f b7 45 d8          	movzwl -0x28(%rbp),%eax
    f36a:	0f b7 c0             	movzwl %ax,%eax
    f36d:	48 98                	cltq
    f36f:	48 8b 44 c5 60       	mov    0x60(%rbp,%rax,8),%rax
    f374:	0f b7 55 c6          	movzwl -0x3a(%rbp),%edx
    f378:	0f b7 d2             	movzwl %dx,%edx
    f37b:	f3 0f 10 00          	movss  (%rax),%xmm0
    f37f:	48 63 c2             	movslq %edx,%rax
    f382:	48 c1 e0 04          	shl    $0x4,%rax
    f386:	48 8d 80 10 01 00 00 	lea    0x110(%rax),%rax
    f38d:	48 01 e8             	add    %rbp,%rax
    f390:	48 2d e4 00 00 00    	sub    $0xe4,%rax
    f396:	f3 0f 11 00          	movss  %xmm0,(%rax)
    f39a:	0f b7 55 c6          	movzwl -0x3a(%rbp),%edx
    f39e:	0f b7 45 c8          	movzwl -0x38(%rbp),%eax
    f3a2:	01 d0                	add    %edx,%eax
    f3a4:	66 89 45 c6          	mov    %ax,-0x3a(%rbp)
    f3a8:	0f b7 55 c6          	movzwl -0x3a(%rbp),%edx
    f3ac:	0f b7 45 c4          	movzwl -0x3c(%rbp),%eax
    f3b0:	21 d0                	and    %edx,%eax
    f3b2:	66 89 45 c6          	mov    %ax,-0x3a(%rbp)
    f3b6:	0f b7 55 cc          	movzwl -0x34(%rbp),%edx
    f3ba:	0f b7 45 ce          	movzwl -0x32(%rbp),%eax
    f3be:	01 d0                	add    %edx,%eax
    f3c0:	66 89 45 cc          	mov    %ax,-0x34(%rbp)
    f3c4:	0f b7 45 cc          	movzwl -0x34(%rbp),%eax
    f3c8:	0f b7 55 c0          	movzwl -0x40(%rbp),%edx
    f3cc:	66 39 c2             	cmp    %ax,%dx
    f3cf:	73 0e                	jae    f3df <test_log32+0x13f1>
    f3d1:	66 c7 45 c8 00 00    	movw   $0x0,-0x38(%rbp)
    f3d7:	66 c7 45 ce 00 00    	movw   $0x0,-0x32(%rbp)
    f3dd:	eb 22                	jmp    f401 <test_log32+0x1413>
    f3df:	0f b7 45 d0          	movzwl -0x30(%rbp),%eax
    f3e3:	0f b7 c0             	movzwl %ax,%eax
    f3e6:	48 98                	cltq
    f3e8:	48 8b 44 c5 60       	mov    0x60(%rbp,%rax,8),%rax
    f3ed:	f3 0f 10 00          	movss  (%rax),%xmm0
    f3f1:	f3 0f 10 4d dc       	movss  -0x24(%rbp),%xmm1
    f3f6:	0f 2f c1             	comiss %xmm1,%xmm0
    f3f9:	76 06                	jbe    f401 <test_log32+0x1413>
    f3fb:	66 c7 45 ce 01 00    	movw   $0x1,-0x32(%rbp)
    f401:	f3 0f 10 45 20       	movss  0x20(%rbp),%xmm0
    f406:	0f 2e 05 cc 07 00 00 	ucomiss 0x7cc(%rip),%xmm0        # fbd9 <test_log32+0x1beb>
    f40d:	7a 4e                	jp     f45d <test_log32+0x146f>
    f40f:	0f 2e 05 cc 07 00 00 	ucomiss 0x7cc(%rip),%xmm0        # fbe2 <test_log32+0x1bf4>
    f416:	75 45                	jne    f45d <test_log32+0x146f>
    f418:	f3 0f 10 45 24       	movss  0x24(%rbp),%xmm0
    f41d:	0f 2e 05 a4 07 00 00 	ucomiss 0x7a4(%rip),%xmm0        # fbc8 <test_log32+0x1bda>
    f424:	7a 37                	jp     f45d <test_log32+0x146f>
    f426:	0f 2e 05 a4 07 00 00 	ucomiss 0x7a4(%rip),%xmm0        # fbd1 <test_log32+0x1be3>
    f42d:	75 2e                	jne    f45d <test_log32+0x146f>
    f42f:	f3 0f 10 45 28       	movss  0x28(%rbp),%xmm0
    f434:	0f 2e 05 d0 07 00 00 	ucomiss 0x7d0(%rip),%xmm0        # fc0b <test_log32+0x1c1d>
    f43b:	7a 20                	jp     f45d <test_log32+0x146f>
    f43d:	0f 2e 05 d0 07 00 00 	ucomiss 0x7d0(%rip),%xmm0        # fc14 <test_log32+0x1c26>
    f444:	75 17                	jne    f45d <test_log32+0x146f>
    f446:	f3 0f 10 45 2c       	movss  0x2c(%rbp),%xmm0
    f44b:	0f 2e 05 d4 07 00 00 	ucomiss 0x7d4(%rip),%xmm0        # fc26 <test_log32+0x1c38>
    f452:	7a 09                	jp     f45d <test_log32+0x146f>
    f454:	0f 2e 05 d4 07 00 00 	ucomiss 0x7d4(%rip),%xmm0        # fc2f <test_log32+0x1c41>
    f45b:	74 1f                	je     f47c <test_log32+0x148e>
    f45d:	41 b8 2b 07 00 00    	mov    $0x72b,%r8d
    f463:	48 8d 05 49 00 00 00 	lea    0x49(%rip),%rax        # f4b3 <test_log32+0x14c5>
    f46a:	48 89 c2             	mov    %rax,%rdx
    f46d:	48 8d 05 5a 00 00 00 	lea    0x5a(%rip),%rax        # f4ce <test_log32+0x14e0>
    f474:	48 89 c1             	mov    %rax,%rcx
    f477:	e8 c7 0b ff ff       	call   43 <printf>
    f47c:	f3 0f 10 45 30       	movss  0x30(%rbp),%xmm0
    f481:	0f 2e 05 c8 08 00 00 	ucomiss 0x8c8(%rip),%xmm0        # fd50 <test_log32+0x1d62>
    f488:	7a 4e                	jp     f4d8 <test_log32+0x14ea>
    f48a:	0f 2e 05 c8 08 00 00 	ucomiss 0x8c8(%rip),%xmm0        # fd59 <test_log32+0x1d6b>
    f491:	75 45                	jne    f4d8 <test_log32+0x14ea>
    f493:	f3 0f 10 45 34       	movss  0x34(%rbp),%xmm0
    f498:	0f 2e 05 20 08 00 00 	ucomiss 0x820(%rip),%xmm0        # fcbf <test_log32+0x1cd1>
    f49f:	7a 37                	jp     f4d8 <test_log32+0x14ea>
    f4a1:	0f 2e 05 20 08 00 00 	ucomiss 0x820(%rip),%xmm0        # fcc8 <test_log32+0x1cda>
    f4a8:	75 2e                	jne    f4d8 <test_log32+0x14ea>
    f4aa:	f3 0f 10 45 38       	movss  0x38(%rbp),%xmm0
    f4af:	0f 2e 05 24 08 00 00 	ucomiss 0x824(%rip),%xmm0        # fcda <test_log32+0x1cec>
    f4b6:	7a 20                	jp     f4d8 <test_log32+0x14ea>
    f4b8:	0f 2e 05 24 08 00 00 	ucomiss 0x824(%rip),%xmm0        # fce3 <test_log32+0x1cf5>
    f4bf:	75 17                	jne    f4d8 <test_log32+0x14ea>
    f4c1:	f3 0f 10 45 3c       	movss  0x3c(%rbp),%xmm0
    f4c6:	0f 2e 05 28 08 00 00 	ucomiss 0x828(%rip),%xmm0        # fcf5 <test_log32+0x1d07>
    f4cd:	7a 09                	jp     f4d8 <test_log32+0x14ea>
    f4cf:	0f 2e 05 28 08 00 00 	ucomiss 0x828(%rip),%xmm0        # fcfe <test_log32+0x1d10>
    f4d6:	74 1f                	je     f4f7 <test_log32+0x1509>
    f4d8:	41 b8 2d 07 00 00    	mov    $0x72d,%r8d
    f4de:	48 8d 05 49 00 00 00 	lea    0x49(%rip),%rax        # f52e <test_log32+0x1540>
    f4e5:	48 89 c2             	mov    %rax,%rdx
    f4e8:	48 8d 05 5a 00 00 00 	lea    0x5a(%rip),%rax        # f549 <test_log32+0x155b>
    f4ef:	48 89 c1             	mov    %rax,%rcx
    f4f2:	e8 4c 0b ff ff       	call   43 <printf>
    f4f7:	f3 0f 10 45 40       	movss  0x40(%rbp),%xmm0
    f4fc:	0f 2e 05 18 09 00 00 	ucomiss 0x918(%rip),%xmm0        # fe1b <test_log32+0x1e2d>
    f503:	7a 4e                	jp     f553 <test_log32+0x1565>
    f505:	0f 2e 05 18 09 00 00 	ucomiss 0x918(%rip),%xmm0        # fe24 <test_log32+0x1e36>
    f50c:	75 45                	jne    f553 <test_log32+0x1565>
    f50e:	f3 0f 10 45 44       	movss  0x44(%rbp),%xmm0
    f513:	0f 2e 05 2c 08 00 00 	ucomiss 0x82c(%rip),%xmm0        # fd46 <test_log32+0x1d58>
    f51a:	7a 37                	jp     f553 <test_log32+0x1565>
    f51c:	0f 2e 05 2c 08 00 00 	ucomiss 0x82c(%rip),%xmm0        # fd4f <test_log32+0x1d61>
    f523:	75 2e                	jne    f553 <test_log32+0x1565>
    f525:	f3 0f 10 45 48       	movss  0x48(%rbp),%xmm0
    f52a:	0f 2e 05 30 08 00 00 	ucomiss 0x830(%rip),%xmm0        # fd61 <test_log32+0x1d73>
    f531:	7a 20                	jp     f553 <test_log32+0x1565>
    f533:	0f 2e 05 30 08 00 00 	ucomiss 0x830(%rip),%xmm0        # fd6a <test_log32+0x1d7c>
    f53a:	75 17                	jne    f553 <test_log32+0x1565>
    f53c:	f3 0f 10 45 4c       	movss  0x4c(%rbp),%xmm0
    f541:	0f 2e 05 3c 09 00 00 	ucomiss 0x93c(%rip),%xmm0        # fe84 <test_log32+0x1e96>
    f548:	7a 09                	jp     f553 <test_log32+0x1565>
    f54a:	0f 2e 05 3c 09 00 00 	ucomiss 0x93c(%rip),%xmm0        # fe8d <test_log32+0x1e9f>
    f551:	74 1f                	je     f572 <test_log32+0x1584>
    f553:	41 b8 2f 07 00 00    	mov    $0x72f,%r8d
    f559:	48 8d 05 49 00 00 00 	lea    0x49(%rip),%rax        # f5a9 <test_log32+0x15bb>
    f560:	48 89 c2             	mov    %rax,%rdx
    f563:	48 8d 05 5a 00 00 00 	lea    0x5a(%rip),%rax        # f5c4 <test_log32+0x15d6>
    f56a:	48 89 c1             	mov    %rax,%rcx
    f56d:	e8 d1 0a ff ff       	call   43 <printf>
    f572:	f3 0f 10 45 50       	movss  0x50(%rbp),%xmm0
    f577:	0f 2e 05 1c 09 00 00 	ucomiss 0x91c(%rip),%xmm0        # fe9a <test_log32+0x1eac>
    f57e:	7a 4e                	jp     f5ce <test_log32+0x15e0>
    f580:	0f 2e 05 1c 09 00 00 	ucomiss 0x91c(%rip),%xmm0        # fea3 <test_log32+0x1eb5>
    f587:	75 45                	jne    f5ce <test_log32+0x15e0>
    f589:	f3 0f 10 45 54       	movss  0x54(%rbp),%xmm0
    f58e:	0f 2e 05 44 08 00 00 	ucomiss 0x844(%rip),%xmm0        # fdd9 <test_log32+0x1deb>
    f595:	7a 37                	jp     f5ce <test_log32+0x15e0>
    f597:	0f 2e 05 44 08 00 00 	ucomiss 0x844(%rip),%xmm0        # fde2 <test_log32+0x1df4>
    f59e:	75 2e                	jne    f5ce <test_log32+0x15e0>
    f5a0:	f3 0f 10 45 58       	movss  0x58(%rbp),%xmm0
    f5a5:	0f 2e 05 2c 09 00 00 	ucomiss 0x92c(%rip),%xmm0        # fed8 <test_log32+0x1eea>
    f5ac:	7a 20                	jp     f5ce <test_log32+0x15e0>
    f5ae:	0f 2e 05 2c 09 00 00 	ucomiss 0x92c(%rip),%xmm0        # fee1 <test_log32+0x1ef3>
    f5b5:	75 17                	jne    f5ce <test_log32+0x15e0>
    f5b7:	f3 0f 10 45 5c       	movss  0x5c(%rbp),%xmm0
    f5bc:	0f 2e 05 40 09 00 00 	ucomiss 0x940(%rip),%xmm0        # ff03 <test_log32+0x1f15>
    f5c3:	7a 09                	jp     f5ce <test_log32+0x15e0>
    f5c5:	0f 2e 05 40 09 00 00 	ucomiss 0x940(%rip),%xmm0        # ff0c <test_log32+0x1f1e>
    f5cc:	74 1f                	je     f5ed <test_log32+0x15ff>
    f5ce:	41 b8 31 07 00 00    	mov    $0x731,%r8d
    f5d4:	48 8d 05 49 00 00 00 	lea    0x49(%rip),%rax        # f624 <test_log32+0x1636>
    f5db:	48 89 c2             	mov    %rax,%rdx
    f5de:	48 8d 05 5a 00 00 00 	lea    0x5a(%rip),%rax        # f63f <test_log32+0x1651>
    f5e5:	48 89 c1             	mov    %rax,%rcx
    f5e8:	e8 56 0a ff ff       	call   43 <printf>
    f5ed:	0f b7 45 cc          	movzwl -0x34(%rbp),%eax
    f5f1:	66 85 c0             	test   %ax,%ax
    f5f4:	74 1f                	je     f615 <test_log32+0x1627>
    f5f6:	41 b8 33 07 00 00    	mov    $0x733,%r8d
    f5fc:	48 8d 05 49 00 00 00 	lea    0x49(%rip),%rax        # f64c <test_log32+0x165e>
    f603:	48 89 c2             	mov    %rax,%rdx
    f606:	48 8d 05 5a 00 00 00 	lea    0x5a(%rip),%rax        # f667 <test_log32+0x1679>
    f60d:	48 89 c1             	mov    %rax,%rcx
    f610:	e8 2e 0a ff ff       	call   43 <printf>
    f615:	0f b7 45 c8          	movzwl -0x38(%rbp),%eax
    f619:	66 83 f8 01          	cmp    $0x1,%ax
    f61d:	74 1f                	je     f63e <test_log32+0x1650>
    f61f:	41 b8 34 07 00 00    	mov    $0x734,%r8d
    f625:	48 8d 05 49 00 00 00 	lea    0x49(%rip),%rax        # f675 <test_log32+0x1687>
    f62c:	48 89 c2             	mov    %rax,%rdx
    f62f:	48 8d 05 5a 00 00 00 	lea    0x5a(%rip),%rax        # f690 <test_log32+0x16a2>
    f636:	48 89 c1             	mov    %rax,%rcx
    f639:	e8 05 0a ff ff       	call   43 <printf>
    f63e:	0f b7 45 ce          	movzwl -0x32(%rbp),%eax
    f642:	66 85 c0             	test   %ax,%ax
    f645:	74 1f                	je     f666 <test_log32+0x1678>
    f647:	41 b8 35 07 00 00    	mov    $0x735,%r8d
    f64d:	48 8d 05 49 00 00 00 	lea    0x49(%rip),%rax        # f69d <test_log32+0x16af>
    f654:	48 89 c2             	mov    %rax,%rdx
    f657:	48 8d 05 5a 00 00 00 	lea    0x5a(%rip),%rax        # f6b8 <test_log32+0x16ca>
    f65e:	48 89 c1             	mov    %rax,%rcx
    f661:	e8 dd 09 ff ff       	call   43 <printf>
    f666:	66 c7 45 a0 02 00    	movw   $0x2,-0x60(%rbp)
    f66c:	66 c7 45 a2 02 00    	movw   $0x2,-0x5e(%rbp)
    f672:	66 c7 45 a4 03 00    	movw   $0x3,-0x5c(%rbp)
    f678:	66 c7 45 a6 00 00    	movw   $0x0,-0x5a(%rbp)
    f67e:	66 c7 45 a8 01 00    	movw   $0x1,-0x58(%rbp)
    f684:	66 c7 45 aa 01 00    	movw   $0x1,-0x56(%rbp)
    f68a:	66 c7 45 ac 00 00    	movw   $0x0,-0x54(%rbp)
    f690:	66 c7 45 ae 00 00    	movw   $0x0,-0x52(%rbp)
    f696:	66 c7 45 b2 00 00    	movw   $0x0,-0x4e(%rbp)
    f69c:	66 c7 45 b4 01 00    	movw   $0x1,-0x4c(%rbp)
    f6a2:	66 c7 45 b6 02 00    	movw   $0x2,-0x4a(%rbp)
    f6a8:	66 c7 45 b8 03 00    	movw   $0x3,-0x48(%rbp)
    f6ae:	66 c7 45 b0 00 00    	movw   $0x0,-0x50(%rbp)
    f6b4:	f3 0f 10 05 b4 08 00 	movss  0x8b4(%rip),%xmm0        # ff70 <test_log32+0x1f82>
    f6bb:	00 
    f6bc:	f3 0f 11 45 bc       	movss  %xmm0,-0x44(%rbp)
    f6c1:	f3 0f 10 85 f0 00 00 	movss  0xf0(%rbp),%xmm0
    f6c8:	00 
    f6c9:	f3 0f 11 85 8c 00 00 	movss  %xmm0,0x8c(%rbp)
    f6d0:	00 
    f6d1:	f3 0f 10 85 d0 00 00 	movss  0xd0(%rbp),%xmm0
    f6d8:	00 
    f6d9:	f3 0f 11 85 88 00 00 	movss  %xmm0,0x88(%rbp)
    f6e0:	00 
    f6e1:	f3 0f 10 85 b0 00 00 	movss  0xb0(%rbp),%xmm0
    f6e8:	00 
    f6e9:	f3 0f 11 85 84 00 00 	movss  %xmm0,0x84(%rbp)
    f6f0:	00 
    f6f1:	f3 0f 10 85 90 00 00 	movss  0x90(%rbp),%xmm0
    f6f8:	00 
    f6f9:	f3 0f 11 85 80 00 00 	movss  %xmm0,0x80(%rbp)
    f700:	00 
    f701:	0f b7 45 a8          	movzwl -0x58(%rbp),%eax
    f705:	66 83 f8 01          	cmp    $0x1,%ax
    f709:	0f 85 37 01 00 00    	jne    f846 <test_log32+0x1858>
    f70f:	0f b7 45 b2          	movzwl -0x4e(%rbp),%eax
    f713:	0f b7 c0             	movzwl %ax,%eax
    f716:	48 98                	cltq
    f718:	48 8b 44 c5 60       	mov    0x60(%rbp,%rax,8),%rax
    f71d:	0f b7 55 a6          	movzwl -0x5a(%rbp),%edx
    f721:	0f b7 d2             	movzwl %dx,%edx
    f724:	f3 0f 10 00          	movss  (%rax),%xmm0
    f728:	48 63 c2             	movslq %edx,%rax
    f72b:	48 c1 e0 04          	shl    $0x4,%rax
    f72f:	48 8d 80 10 01 00 00 	lea    0x110(%rax),%rax
    f736:	48 01 e8             	add    %rbp,%rax
    f739:	48 2d 30 01 00 00    	sub    $0x130,%rax
    f73f:	f3 0f 11 00          	movss  %xmm0,(%rax)
    f743:	0f b7 45 b4          	movzwl -0x4c(%rbp),%eax
    f747:	0f b7 c0             	movzwl %ax,%eax
    f74a:	48 98                	cltq
    f74c:	48 8b 44 c5 60       	mov    0x60(%rbp,%rax,8),%rax
    f751:	0f b7 55 a6          	movzwl -0x5a(%rbp),%edx
    f755:	0f b7 d2             	movzwl %dx,%edx
    f758:	f3 0f 10 00          	movss  (%rax),%xmm0
    f75c:	48 63 c2             	movslq %edx,%rax
    f75f:	48 c1 e0 04          	shl    $0x4,%rax
    f763:	48 8d 80 10 01 00 00 	lea    0x110(%rax),%rax
    f76a:	48 01 e8             	add    %rbp,%rax
    f76d:	48 2d 2c 01 00 00    	sub    $0x12c,%rax
    f773:	f3 0f 11 00          	movss  %xmm0,(%rax)
    f777:	0f b7 45 b6          	movzwl -0x4a(%rbp),%eax
    f77b:	0f b7 c0             	movzwl %ax,%eax
    f77e:	48 98                	cltq
    f780:	48 8b 44 c5 60       	mov    0x60(%rbp,%rax,8),%rax
    f785:	0f b7 55 a6          	movzwl -0x5a(%rbp),%edx
    f789:	0f b7 d2             	movzwl %dx,%edx
    f78c:	f3 0f 10 00          	movss  (%rax),%xmm0
    f790:	48 63 c2             	movslq %edx,%rax
    f793:	48 c1 e0 04          	shl    $0x4,%rax
    f797:	48 8d 80 10 01 00 00 	lea    0x110(%rax),%rax
    f79e:	48 01 e8             	add    %rbp,%rax
    f7a1:	48 2d 28 01 00 00    	sub    $0x128,%rax
    f7a7:	f3 0f 11 00          	movss  %xmm0,(%rax)
    f7ab:	0f b7 45 b8          	movzwl -0x48(%rbp),%eax
    f7af:	0f b7 c0             	movzwl %ax,%eax
    f7b2:	48 98                	cltq
    f7b4:	48 8b 44 c5 60       	mov    0x60(%rbp,%rax,8),%rax
    f7b9:	0f b7 55 a6          	movzwl -0x5a(%rbp),%edx
    f7bd:	0f b7 d2             	movzwl %dx,%edx
    f7c0:	f3 0f 10 00          	movss  (%rax),%xmm0
    f7c4:	48 63 c2             	movslq %edx,%rax
    f7c7:	48 c1 e0 04          	shl    $0x4,%rax
    f7cb:	48 8d 80 10 01 00 00 	lea    0x110(%rax),%rax
    f7d2:	48 01 e8             	add    %rbp,%rax
    f7d5:	48 2d 24 01 00 00    	sub    $0x124,%rax
    f7db:	f3 0f 11 00          	movss  %xmm0,(%rax)
    f7df:	0f b7 55 a6          	movzwl -0x5a(%rbp),%edx
    f7e3:	0f b7 45 a8          	movzwl -0x58(%rbp),%eax
    f7e7:	01 d0                	add    %edx,%eax
    f7e9:	66 89 45 a6          	mov    %ax,-0x5a(%rbp)
    f7ed:	0f b7 55 a6          	movzwl -0x5a(%rbp),%edx
    f7f1:	0f b7 45 a4          	movzwl -0x5c(%rbp),%eax
    f7f5:	21 d0                	and    %edx,%eax
    f7f7:	66 89 45 a6          	mov    %ax,-0x5a(%rbp)
    f7fb:	0f b7 55 ac          	movzwl -0x54(%rbp),%edx
    f7ff:	0f b7 45 ae          	movzwl -0x52(%rbp),%eax
    f803:	01 d0                	add    %edx,%eax
    f805:	66 89 45 ac          	mov    %ax,-0x54(%rbp)
    f809:	0f b7 45 ac          	movzwl -0x54(%rbp),%eax
    f80d:	0f b7 55 a0          	movzwl -0x60(%rbp),%edx
    f811:	66 39 c2             	cmp    %ax,%dx
    f814:	73 0e                	jae    f824 <test_log32+0x1836>
    f816:	66 c7 45 a8 00 00    	movw   $0x0,-0x58(%rbp)
    f81c:	66 c7 45 ae 00 00    	movw   $0x0,-0x52(%rbp)
    f822:	eb 22                	jmp    f846 <test_log32+0x1858>
    f824:	0f b7 45 b0          	movzwl -0x50(%rbp),%eax
    f828:	0f b7 c0             	movzwl %ax,%eax
    f82b:	48 98                	cltq
    f82d:	48 8b 44 c5 60       	mov    0x60(%rbp,%rax,8),%rax
    f832:	f3 0f 10 00          	movss  (%rax),%xmm0
    f836:	f3 0f 10 4d bc       	movss  -0x44(%rbp),%xmm1
    f83b:	0f 2f c1             	comiss %xmm1,%xmm0
    f83e:	76 06                	jbe    f846 <test_log32+0x1858>
    f840:	66 c7 45 ae 01 00    	movw   $0x1,-0x52(%rbp)
    f846:	f3 0f 10 45 e0       	movss  -0x20(%rbp),%xmm0
    f84b:	0f 2e 05 b4 08 00 00 	ucomiss 0x8b4(%rip),%xmm0        # 10106 <test_log32+0x2118>
    f852:	7a 4e                	jp     f8a2 <test_log32+0x18b4>
    f854:	0f 2e 05 b4 08 00 00 	ucomiss 0x8b4(%rip),%xmm0        # 1010f <test_log32+0x2121>
    f85b:	75 45                	jne    f8a2 <test_log32+0x18b4>
    f85d:	f3 0f 10 45 e4       	movss  -0x1c(%rbp),%xmm0
    f862:	0f 2e 05 24 09 00 00 	ucomiss 0x924(%rip),%xmm0        # 1018d <test_log32+0x219f>
    f869:	7a 37                	jp     f8a2 <test_log32+0x18b4>
    f86b:	0f 2e 05 24 09 00 00 	ucomiss 0x924(%rip),%xmm0        # 10196 <test_log32+0x21a8>
    f872:	75 2e                	jne    f8a2 <test_log32+0x18b4>
    f874:	f3 0f 10 45 e8       	movss  -0x18(%rbp),%xmm0
    f879:	0f 2e 05 40 08 00 00 	ucomiss 0x840(%rip),%xmm0        # 100c0 <test_log32+0x20d2>
    f880:	7a 20                	jp     f8a2 <test_log32+0x18b4>
    f882:	0f 2e 05 40 08 00 00 	ucomiss 0x840(%rip),%xmm0        # 100c9 <test_log32+0x20db>
    f889:	75 17                	jne    f8a2 <test_log32+0x18b4>
    f88b:	f3 0f 10 45 ec       	movss  -0x14(%rbp),%xmm0
    f890:	0f 2e 05 38 09 00 00 	ucomiss 0x938(%rip),%xmm0        # 101cf <test_log32+0x21e1>
    f897:	7a 09                	jp     f8a2 <test_log32+0x18b4>
    f899:	0f 2e 05 38 09 00 00 	ucomiss 0x938(%rip),%xmm0        # 101d8 <test_log32+0x21ea>
    f8a0:	74 1f                	je     f8c1 <test_log32+0x18d3>
    f8a2:	41 b8 3f 07 00 00    	mov    $0x73f,%r8d
    f8a8:	48 8d 05 49 00 00 00 	lea    0x49(%rip),%rax        # f8f8 <test_log32+0x190a>
    f8af:	48 89 c2             	mov    %rax,%rdx
    f8b2:	48 8d 05 5a 00 00 00 	lea    0x5a(%rip),%rax        # f913 <test_log32+0x1925>
    f8b9:	48 89 c1             	mov    %rax,%rcx
    f8bc:	e8 82 07 ff ff       	call   43 <printf>
    f8c1:	f3 0f 10 45 f0       	movss  -0x10(%rbp),%xmm0
    f8c6:	66 0f ef c9          	pxor   %xmm1,%xmm1
    f8ca:	0f 2e c1             	ucomiss %xmm1,%xmm0
    f8cd:	7a 4e                	jp     f91d <test_log32+0x192f>
    f8cf:	66 0f ef c9          	pxor   %xmm1,%xmm1
    f8d3:	0f 2e c1             	ucomiss %xmm1,%xmm0
    f8d6:	75 45                	jne    f91d <test_log32+0x192f>
    f8d8:	f3 0f 10 45 f4       	movss  -0xc(%rbp),%xmm0
    f8dd:	66 0f ef c9          	pxor   %xmm1,%xmm1
    f8e1:	0f 2e c1             	ucomiss %xmm1,%xmm0
    f8e4:	7a 37                	jp     f91d <test_log32+0x192f>
    f8e6:	66 0f ef c9          	pxor   %xmm1,%xmm1
    f8ea:	0f 2e c1             	ucomiss %xmm1,%xmm0
    f8ed:	75 2e                	jne    f91d <test_log32+0x192f>
    f8ef:	f3 0f 10 45 f8       	movss  -0x8(%rbp),%xmm0
    f8f4:	66 0f ef c9          	pxor   %xmm1,%xmm1
    f8f8:	0f 2e c1             	ucomiss %xmm1,%xmm0
    f8fb:	7a 20                	jp     f91d <test_log32+0x192f>
    f8fd:	66 0f ef c9          	pxor   %xmm1,%xmm1
    f901:	0f 2e c1             	ucomiss %xmm1,%xmm0
    f904:	75 17                	jne    f91d <test_log32+0x192f>
    f906:	f3 0f 10 45 fc       	movss  -0x4(%rbp),%xmm0
    f90b:	66 0f ef c9          	pxor   %xmm1,%xmm1
    f90f:	0f 2e c1             	ucomiss %xmm1,%xmm0
    f912:	7a 09                	jp     f91d <test_log32+0x192f>
    f914:	66 0f ef c9          	pxor   %xmm1,%xmm1
    f918:	0f 2e c1             	ucomiss %xmm1,%xmm0
    f91b:	74 1f                	je     f93c <test_log32+0x194e>
    f91d:	41 b8 41 07 00 00    	mov    $0x741,%r8d
    f923:	48 8d 05 49 00 00 00 	lea    0x49(%rip),%rax        # f973 <test_log32+0x1985>
    f92a:	48 89 c2             	mov    %rax,%rdx
    f92d:	48 8d 05 5a 00 00 00 	lea    0x5a(%rip),%rax        # f98e <test_log32+0x19a0>
    f934:	48 89 c1             	mov    %rax,%rcx
    f937:	e8 07 07 ff ff       	call   43 <printf>
    f93c:	f3 0f 10 45 00       	movss  0x0(%rbp),%xmm0
    f941:	66 0f ef c9          	pxor   %xmm1,%xmm1
    f945:	0f 2e c1             	ucomiss %xmm1,%xmm0
    f948:	7a 4e                	jp     f998 <test_log32+0x19aa>
    f94a:	66 0f ef c9          	pxor   %xmm1,%xmm1
    f94e:	0f 2e c1             	ucomiss %xmm1,%xmm0
    f951:	75 45                	jne    f998 <test_log32+0x19aa>
    f953:	f3 0f 10 45 04       	movss  0x4(%rbp),%xmm0
    f958:	66 0f ef c9          	pxor   %xmm1,%xmm1
    f95c:	0f 2e c1             	ucomiss %xmm1,%xmm0
    f95f:	7a 37                	jp     f998 <test_log32+0x19aa>
    f961:	66 0f ef c9          	pxor   %xmm1,%xmm1
    f965:	0f 2e c1             	ucomiss %xmm1,%xmm0
    f968:	75 2e                	jne    f998 <test_log32+0x19aa>
    f96a:	f3 0f 10 45 08       	movss  0x8(%rbp),%xmm0
    f96f:	66 0f ef c9          	pxor   %xmm1,%xmm1
    f973:	0f 2e c1             	ucomiss %xmm1,%xmm0
    f976:	7a 20                	jp     f998 <test_log32+0x19aa>
    f978:	66 0f ef c9          	pxor   %xmm1,%xmm1
    f97c:	0f 2e c1             	ucomiss %xmm1,%xmm0
    f97f:	75 17                	jne    f998 <test_log32+0x19aa>
    f981:	f3 0f 10 45 0c       	movss  0xc(%rbp),%xmm0
    f986:	66 0f ef c9          	pxor   %xmm1,%xmm1
    f98a:	0f 2e c1             	ucomiss %xmm1,%xmm0
    f98d:	7a 09                	jp     f998 <test_log32+0x19aa>
    f98f:	66 0f ef c9          	pxor   %xmm1,%xmm1
    f993:	0f 2e c1             	ucomiss %xmm1,%xmm0
    f996:	74 1f                	je     f9b7 <test_log32+0x19c9>
    f998:	41 b8 43 07 00 00    	mov    $0x743,%r8d
    f99e:	48 8d 05 49 00 00 00 	lea    0x49(%rip),%rax        # f9ee <test_log32+0x1a00>
    f9a5:	48 89 c2             	mov    %rax,%rdx
    f9a8:	48 8d 05 5a 00 00 00 	lea    0x5a(%rip),%rax        # fa09 <test_log32+0x1a1b>
    f9af:	48 89 c1             	mov    %rax,%rcx
    f9b2:	e8 8c 06 ff ff       	call   43 <printf>
    f9b7:	f3 0f 10 45 10       	movss  0x10(%rbp),%xmm0
    f9bc:	66 0f ef c9          	pxor   %xmm1,%xmm1
    f9c0:	0f 2e c1             	ucomiss %xmm1,%xmm0
    f9c3:	7a 4e                	jp     fa13 <test_log32+0x1a25>
    f9c5:	66 0f ef c9          	pxor   %xmm1,%xmm1
    f9c9:	0f 2e c1             	ucomiss %xmm1,%xmm0
    f9cc:	75 45                	jne    fa13 <test_log32+0x1a25>
    f9ce:	f3 0f 10 45 14       	movss  0x14(%rbp),%xmm0
    f9d3:	66 0f ef c9          	pxor   %xmm1,%xmm1
    f9d7:	0f 2e c1             	ucomiss %xmm1,%xmm0
    f9da:	7a 37                	jp     fa13 <test_log32+0x1a25>
    f9dc:	66 0f ef c9          	pxor   %xmm1,%xmm1
    f9e0:	0f 2e c1             	ucomiss %xmm1,%xmm0
    f9e3:	75 2e                	jne    fa13 <test_log32+0x1a25>
    f9e5:	f3 0f 10 45 18       	movss  0x18(%rbp),%xmm0
    f9ea:	66 0f ef c9          	pxor   %xmm1,%xmm1
    f9ee:	0f 2e c1             	ucomiss %xmm1,%xmm0
    f9f1:	7a 20                	jp     fa13 <test_log32+0x1a25>
    f9f3:	66 0f ef c9          	pxor   %xmm1,%xmm1
    f9f7:	0f 2e c1             	ucomiss %xmm1,%xmm0
    f9fa:	75 17                	jne    fa13 <test_log32+0x1a25>
    f9fc:	f3 0f 10 45 1c       	movss  0x1c(%rbp),%xmm0
    fa01:	66 0f ef c9          	pxor   %xmm1,%xmm1
    fa05:	0f 2e c1             	ucomiss %xmm1,%xmm0
    fa08:	7a 09                	jp     fa13 <test_log32+0x1a25>
    fa0a:	66 0f ef c9          	pxor   %xmm1,%xmm1
    fa0e:	0f 2e c1             	ucomiss %xmm1,%xmm0
    fa11:	74 1f                	je     fa32 <test_log32+0x1a44>
    fa13:	41 b8 45 07 00 00    	mov    $0x745,%r8d
    fa19:	48 8d 05 49 00 00 00 	lea    0x49(%rip),%rax        # fa69 <test_log32+0x1a7b>
    fa20:	48 89 c2             	mov    %rax,%rdx
    fa23:	48 8d 05 5a 00 00 00 	lea    0x5a(%rip),%rax        # fa84 <test_log32+0x1a96>
    fa2a:	48 89 c1             	mov    %rax,%rcx
    fa2d:	e8 11 06 ff ff       	call   43 <printf>
    fa32:	0f b7 45 ac          	movzwl -0x54(%rbp),%eax
    fa36:	66 85 c0             	test   %ax,%ax
    fa39:	74 1f                	je     fa5a <test_log32+0x1a6c>
    fa3b:	41 b8 47 07 00 00    	mov    $0x747,%r8d
    fa41:	48 8d 05 49 00 00 00 	lea    0x49(%rip),%rax        # fa91 <test_log32+0x1aa3>
    fa48:	48 89 c2             	mov    %rax,%rdx
    fa4b:	48 8d 05 5a 00 00 00 	lea    0x5a(%rip),%rax        # faac <test_log32+0x1abe>
    fa52:	48 89 c1             	mov    %rax,%rcx
    fa55:	e8 e9 05 ff ff       	call   43 <printf>
    fa5a:	0f b7 45 a8          	movzwl -0x58(%rbp),%eax
    fa5e:	66 83 f8 01          	cmp    $0x1,%ax
    fa62:	74 1f                	je     fa83 <test_log32+0x1a95>
    fa64:	41 b8 48 07 00 00    	mov    $0x748,%r8d
    fa6a:	48 8d 05 49 00 00 00 	lea    0x49(%rip),%rax        # faba <test_log32+0x1acc>
    fa71:	48 89 c2             	mov    %rax,%rdx
    fa74:	48 8d 05 5a 00 00 00 	lea    0x5a(%rip),%rax        # fad5 <test_log32+0x1ae7>
    fa7b:	48 89 c1             	mov    %rax,%rcx
    fa7e:	e8 c0 05 ff ff       	call   43 <printf>
    fa83:	0f b7 45 ae          	movzwl -0x52(%rbp),%eax
    fa87:	66 85 c0             	test   %ax,%ax
    fa8a:	74 1f                	je     faab <test_log32+0x1abd>
    fa8c:	41 b8 49 07 00 00    	mov    $0x749,%r8d
    fa92:	48 8d 05 49 00 00 00 	lea    0x49(%rip),%rax        # fae2 <test_log32+0x1af4>
    fa99:	48 89 c2             	mov    %rax,%rdx
    fa9c:	48 8d 05 5a 00 00 00 	lea    0x5a(%rip),%rax        # fafd <test_log32+0x1b0f>
    faa3:	48 89 c1             	mov    %rax,%rcx
    faa6:	e8 98 05 ff ff       	call   43 <printf>
    faab:	f3 0f 10 85 f4 00 00 	movss  0xf4(%rbp),%xmm0
    fab2:	00 
    fab3:	f3 0f 11 85 8c 00 00 	movss  %xmm0,0x8c(%rbp)
    faba:	00 
    fabb:	f3 0f 10 85 d4 00 00 	movss  0xd4(%rbp),%xmm0
    fac2:	00 
    fac3:	f3 0f 11 85 88 00 00 	movss  %xmm0,0x88(%rbp)
    faca:	00 
    facb:	f3 0f 10 85 b4 00 00 	movss  0xb4(%rbp),%xmm0
    fad2:	00 
    fad3:	f3 0f 11 85 84 00 00 	movss  %xmm0,0x84(%rbp)
    fada:	00 
    fadb:	f3 0f 10 85 94 00 00 	movss  0x94(%rbp),%xmm0
    fae2:	00 
    fae3:	f3 0f 11 85 80 00 00 	movss  %xmm0,0x80(%rbp)
    faea:	00 
    faeb:	0f b7 45 a8          	movzwl -0x58(%rbp),%eax
    faef:	66 83 f8 01          	cmp    $0x1,%ax
    faf3:	0f 85 37 01 00 00    	jne    fc30 <test_log32+0x1c42>
    faf9:	0f b7 45 b2          	movzwl -0x4e(%rbp),%eax
    fafd:	0f b7 c0             	movzwl %ax,%eax
    fb00:	48 98                	cltq
    fb02:	48 8b 44 c5 60       	mov    0x60(%rbp,%rax,8),%rax
    fb07:	0f b7 55 a6          	movzwl -0x5a(%rbp),%edx
    fb0b:	0f b7 d2             	movzwl %dx,%edx
    fb0e:	f3 0f 10 00          	movss  (%rax),%xmm0
    fb12:	48 63 c2             	movslq %edx,%rax
    fb15:	48 c1 e0 04          	shl    $0x4,%rax
    fb19:	48 8d 80 10 01 00 00 	lea    0x110(%rax),%rax
    fb20:	48 01 e8             	add    %rbp,%rax
    fb23:	48 2d 30 01 00 00    	sub    $0x130,%rax
    fb29:	f3 0f 11 00          	movss  %xmm0,(%rax)
    fb2d:	0f b7 45 b4          	movzwl -0x4c(%rbp),%eax
    fb31:	0f b7 c0             	movzwl %ax,%eax
    fb34:	48 98                	cltq
    fb36:	48 8b 44 c5 60       	mov    0x60(%rbp,%rax,8),%rax
    fb3b:	0f b7 55 a6          	movzwl -0x5a(%rbp),%edx
    fb3f:	0f b7 d2             	movzwl %dx,%edx
    fb42:	f3 0f 10 00          	movss  (%rax),%xmm0
    fb46:	48 63 c2             	movslq %edx,%rax
    fb49:	48 c1 e0 04          	shl    $0x4,%rax
    fb4d:	48 8d 80 10 01 00 00 	lea    0x110(%rax),%rax
    fb54:	48 01 e8             	add    %rbp,%rax
    fb57:	48 2d 2c 01 00 00    	sub    $0x12c,%rax
    fb5d:	f3 0f 11 00          	movss  %xmm0,(%rax)
    fb61:	0f b7 45 b6          	movzwl -0x4a(%rbp),%eax
    fb65:	0f b7 c0             	movzwl %ax,%eax
    fb68:	48 98                	cltq
    fb6a:	48 8b 44 c5 60       	mov    0x60(%rbp,%rax,8),%rax
    fb6f:	0f b7 55 a6          	movzwl -0x5a(%rbp),%edx
    fb73:	0f b7 d2             	movzwl %dx,%edx
    fb76:	f3 0f 10 00          	movss  (%rax),%xmm0
    fb7a:	48 63 c2             	movslq %edx,%rax
    fb7d:	48 c1 e0 04          	shl    $0x4,%rax
    fb81:	48 8d 80 10 01 00 00 	lea    0x110(%rax),%rax
    fb88:	48 01 e8             	add    %rbp,%rax
    fb8b:	48 2d 28 01 00 00    	sub    $0x128,%rax
    fb91:	f3 0f 11 00          	movss  %xmm0,(%rax)
    fb95:	0f b7 45 b8          	movzwl -0x48(%rbp),%eax
    fb99:	0f b7 c0             	movzwl %ax,%eax
    fb9c:	48 98                	cltq
    fb9e:	48 8b 44 c5 60       	mov    0x60(%rbp,%rax,8),%rax
    fba3:	0f b7 55 a6          	movzwl -0x5a(%rbp),%edx
    fba7:	0f b7 d2             	movzwl %dx,%edx
    fbaa:	f3 0f 10 00          	movss  (%rax),%xmm0
    fbae:	48 63 c2             	movslq %edx,%rax
    fbb1:	48 c1 e0 04          	shl    $0x4,%rax
    fbb5:	48 8d 80 10 01 00 00 	lea    0x110(%rax),%rax
    fbbc:	48 01 e8             	add    %rbp,%rax
    fbbf:	48 2d 24 01 00 00    	sub    $0x124,%rax
    fbc5:	f3 0f 11 00          	movss  %xmm0,(%rax)
    fbc9:	0f b7 55 a6          	movzwl -0x5a(%rbp),%edx
    fbcd:	0f b7 45 a8          	movzwl -0x58(%rbp),%eax
    fbd1:	01 d0                	add    %edx,%eax
    fbd3:	66 89 45 a6          	mov    %ax,-0x5a(%rbp)
    fbd7:	0f b7 55 a6          	movzwl -0x5a(%rbp),%edx
    fbdb:	0f b7 45 a4          	movzwl -0x5c(%rbp),%eax
    fbdf:	21 d0                	and    %edx,%eax
    fbe1:	66 89 45 a6          	mov    %ax,-0x5a(%rbp)
    fbe5:	0f b7 55 ac          	movzwl -0x54(%rbp),%edx
    fbe9:	0f b7 45 ae          	movzwl -0x52(%rbp),%eax
    fbed:	01 d0                	add    %edx,%eax
    fbef:	66 89 45 ac          	mov    %ax,-0x54(%rbp)
    fbf3:	0f b7 45 ac          	movzwl -0x54(%rbp),%eax
    fbf7:	0f b7 55 a0          	movzwl -0x60(%rbp),%edx
    fbfb:	66 39 c2             	cmp    %ax,%dx
    fbfe:	73 0e                	jae    fc0e <test_log32+0x1c20>
    fc00:	66 c7 45 a8 00 00    	movw   $0x0,-0x58(%rbp)
    fc06:	66 c7 45 ae 00 00    	movw   $0x0,-0x52(%rbp)
    fc0c:	eb 22                	jmp    fc30 <test_log32+0x1c42>
    fc0e:	0f b7 45 b0          	movzwl -0x50(%rbp),%eax
    fc12:	0f b7 c0             	movzwl %ax,%eax
    fc15:	48 98                	cltq
    fc17:	48 8b 44 c5 60       	mov    0x60(%rbp,%rax,8),%rax
    fc1c:	f3 0f 10 00          	movss  (%rax),%xmm0
    fc20:	f3 0f 10 4d bc       	movss  -0x44(%rbp),%xmm1
    fc25:	0f 2f c1             	comiss %xmm1,%xmm0
    fc28:	76 06                	jbe    fc30 <test_log32+0x1c42>
    fc2a:	66 c7 45 ae 01 00    	movw   $0x1,-0x52(%rbp)
    fc30:	f3 0f 10 45 e0       	movss  -0x20(%rbp),%xmm0
    fc35:	0f 2e 05 b4 08 00 00 	ucomiss 0x8b4(%rip),%xmm0        # 104f0 <test_log32+0x2502>
    fc3c:	7a 4e                	jp     fc8c <test_log32+0x1c9e>
    fc3e:	0f 2e 05 b4 08 00 00 	ucomiss 0x8b4(%rip),%xmm0        # 104f9 <test_log32+0x250b>
    fc45:	75 45                	jne    fc8c <test_log32+0x1c9e>
    fc47:	f3 0f 10 45 e4       	movss  -0x1c(%rbp),%xmm0
    fc4c:	0f 2e 05 24 09 00 00 	ucomiss 0x924(%rip),%xmm0        # 10577 <test_log32+0x2589>
    fc53:	7a 37                	jp     fc8c <test_log32+0x1c9e>
    fc55:	0f 2e 05 24 09 00 00 	ucomiss 0x924(%rip),%xmm0        # 10580 <test_log32+0x2592>
    fc5c:	75 2e                	jne    fc8c <test_log32+0x1c9e>
    fc5e:	f3 0f 10 45 e8       	movss  -0x18(%rbp),%xmm0
    fc63:	0f 2e 05 40 08 00 00 	ucomiss 0x840(%rip),%xmm0        # 104aa <test_log32+0x24bc>
    fc6a:	7a 20                	jp     fc8c <test_log32+0x1c9e>
    fc6c:	0f 2e 05 40 08 00 00 	ucomiss 0x840(%rip),%xmm0        # 104b3 <test_log32+0x24c5>
    fc73:	75 17                	jne    fc8c <test_log32+0x1c9e>
    fc75:	f3 0f 10 45 ec       	movss  -0x14(%rbp),%xmm0
    fc7a:	0f 2e 05 38 09 00 00 	ucomiss 0x938(%rip),%xmm0        # 105b9 <test_log32+0x25cb>
    fc81:	7a 09                	jp     fc8c <test_log32+0x1c9e>
    fc83:	0f 2e 05 38 09 00 00 	ucomiss 0x938(%rip),%xmm0        # 105c2 <test_log32+0x25d4>
    fc8a:	74 1f                	je     fcab <test_log32+0x1cbd>
    fc8c:	41 b8 50 07 00 00    	mov    $0x750,%r8d
    fc92:	48 8d 05 49 00 00 00 	lea    0x49(%rip),%rax        # fce2 <test_log32+0x1cf4>
    fc99:	48 89 c2             	mov    %rax,%rdx
    fc9c:	48 8d 05 5a 00 00 00 	lea    0x5a(%rip),%rax        # fcfd <test_log32+0x1d0f>
    fca3:	48 89 c1             	mov    %rax,%rcx
    fca6:	e8 98 03 ff ff       	call   43 <printf>
    fcab:	f3 0f 10 45 f0       	movss  -0x10(%rbp),%xmm0
    fcb0:	0f 2e 05 c8 08 00 00 	ucomiss 0x8c8(%rip),%xmm0        # 1057f <test_log32+0x2591>
    fcb7:	7a 4e                	jp     fd07 <test_log32+0x1d19>
    fcb9:	0f 2e 05 c8 08 00 00 	ucomiss 0x8c8(%rip),%xmm0        # 10588 <test_log32+0x259a>
    fcc0:	75 45                	jne    fd07 <test_log32+0x1d19>
    fcc2:	f3 0f 10 45 f4       	movss  -0xc(%rbp),%xmm0
    fcc7:	0f 2e 05 20 08 00 00 	ucomiss 0x820(%rip),%xmm0        # 104ee <test_log32+0x2500>
    fcce:	7a 37                	jp     fd07 <test_log32+0x1d19>
    fcd0:	0f 2e 05 20 08 00 00 	ucomiss 0x820(%rip),%xmm0        # 104f7 <test_log32+0x2509>
    fcd7:	75 2e                	jne    fd07 <test_log32+0x1d19>
    fcd9:	f3 0f 10 45 f8       	movss  -0x8(%rbp),%xmm0
    fcde:	0f 2e 05 24 08 00 00 	ucomiss 0x824(%rip),%xmm0        # 10509 <test_log32+0x251b>
    fce5:	7a 20                	jp     fd07 <test_log32+0x1d19>
    fce7:	0f 2e 05 24 08 00 00 	ucomiss 0x824(%rip),%xmm0        # 10512 <test_log32+0x2524>
    fcee:	75 17                	jne    fd07 <test_log32+0x1d19>
    fcf0:	f3 0f 10 45 fc       	movss  -0x4(%rbp),%xmm0
    fcf5:	0f 2e 05 28 08 00 00 	ucomiss 0x828(%rip),%xmm0        # 10524 <test_log32+0x2536>
    fcfc:	7a 09                	jp     fd07 <test_log32+0x1d19>
    fcfe:	0f 2e 05 28 08 00 00 	ucomiss 0x828(%rip),%xmm0        # 1052d <test_log32+0x253f>
    fd05:	74 1f                	je     fd26 <test_log32+0x1d38>
    fd07:	41 b8 52 07 00 00    	mov    $0x752,%r8d
    fd0d:	48 8d 05 49 00 00 00 	lea    0x49(%rip),%rax        # fd5d <test_log32+0x1d6f>
    fd14:	48 89 c2             	mov    %rax,%rdx
    fd17:	48 8d 05 5a 00 00 00 	lea    0x5a(%rip),%rax        # fd78 <test_log32+0x1d8a>
    fd1e:	48 89 c1             	mov    %rax,%rcx
    fd21:	e8 1d 03 ff ff       	call   43 <printf>
    fd26:	f3 0f 10 45 00       	movss  0x0(%rbp),%xmm0
    fd2b:	66 0f ef c9          	pxor   %xmm1,%xmm1
    fd2f:	0f 2e c1             	ucomiss %xmm1,%xmm0
    fd32:	7a 4e                	jp     fd82 <test_log32+0x1d94>
    fd34:	66 0f ef c9          	pxor   %xmm1,%xmm1
    fd38:	0f 2e c1             	ucomiss %xmm1,%xmm0
    fd3b:	75 45                	jne    fd82 <test_log32+0x1d94>
    fd3d:	f3 0f 10 45 04       	movss  0x4(%rbp),%xmm0
    fd42:	66 0f ef c9          	pxor   %xmm1,%xmm1
    fd46:	0f 2e c1             	ucomiss %xmm1,%xmm0
    fd49:	7a 37                	jp     fd82 <test_log32+0x1d94>
    fd4b:	66 0f ef c9          	pxor   %xmm1,%xmm1
    fd4f:	0f 2e c1             	ucomiss %xmm1,%xmm0
    fd52:	75 2e                	jne    fd82 <test_log32+0x1d94>
    fd54:	f3 0f 10 45 08       	movss  0x8(%rbp),%xmm0
    fd59:	66 0f ef c9          	pxor   %xmm1,%xmm1
    fd5d:	0f 2e c1             	ucomiss %xmm1,%xmm0
    fd60:	7a 20                	jp     fd82 <test_log32+0x1d94>
    fd62:	66 0f ef c9          	pxor   %xmm1,%xmm1
    fd66:	0f 2e c1             	ucomiss %xmm1,%xmm0
    fd69:	75 17                	jne    fd82 <test_log32+0x1d94>
    fd6b:	f3 0f 10 45 0c       	movss  0xc(%rbp),%xmm0
    fd70:	66 0f ef c9          	pxor   %xmm1,%xmm1
    fd74:	0f 2e c1             	ucomiss %xmm1,%xmm0
    fd77:	7a 09                	jp     fd82 <test_log32+0x1d94>
    fd79:	66 0f ef c9          	pxor   %xmm1,%xmm1
    fd7d:	0f 2e c1             	ucomiss %xmm1,%xmm0
    fd80:	74 1f                	je     fda1 <test_log32+0x1db3>
    fd82:	41 b8 54 07 00 00    	mov    $0x754,%r8d
    fd88:	48 8d 05 49 00 00 00 	lea    0x49(%rip),%rax        # fdd8 <test_log32+0x1dea>
    fd8f:	48 89 c2             	mov    %rax,%rdx
    fd92:	48 8d 05 5a 00 00 00 	lea    0x5a(%rip),%rax        # fdf3 <test_log32+0x1e05>
    fd99:	48 89 c1             	mov    %rax,%rcx
    fd9c:	e8 a2 02 ff ff       	call   43 <printf>
    fda1:	f3 0f 10 45 10       	movss  0x10(%rbp),%xmm0
    fda6:	66 0f ef c9          	pxor   %xmm1,%xmm1
    fdaa:	0f 2e c1             	ucomiss %xmm1,%xmm0
    fdad:	7a 4e                	jp     fdfd <test_log32+0x1e0f>
    fdaf:	66 0f ef c9          	pxor   %xmm1,%xmm1
    fdb3:	0f 2e c1             	ucomiss %xmm1,%xmm0
    fdb6:	75 45                	jne    fdfd <test_log32+0x1e0f>
    fdb8:	f3 0f 10 45 14       	movss  0x14(%rbp),%xmm0
    fdbd:	66 0f ef c9          	pxor   %xmm1,%xmm1
    fdc1:	0f 2e c1             	ucomiss %xmm1,%xmm0
    fdc4:	7a 37                	jp     fdfd <test_log32+0x1e0f>
    fdc6:	66 0f ef c9          	pxor   %xmm1,%xmm1
    fdca:	0f 2e c1             	ucomiss %xmm1,%xmm0
    fdcd:	75 2e                	jne    fdfd <test_log32+0x1e0f>
    fdcf:	f3 0f 10 45 18       	movss  0x18(%rbp),%xmm0
    fdd4:	66 0f ef c9          	pxor   %xmm1,%xmm1
    fdd8:	0f 2e c1             	ucomiss %xmm1,%xmm0
    fddb:	7a 20                	jp     fdfd <test_log32+0x1e0f>
    fddd:	66 0f ef c9          	pxor   %xmm1,%xmm1
    fde1:	0f 2e c1             	ucomiss %xmm1,%xmm0
    fde4:	75 17                	jne    fdfd <test_log32+0x1e0f>
    fde6:	f3 0f 10 45 1c       	movss  0x1c(%rbp),%xmm0
    fdeb:	66 0f ef c9          	pxor   %xmm1,%xmm1
    fdef:	0f 2e c1             	ucomiss %xmm1,%xmm0
    fdf2:	7a 09                	jp     fdfd <test_log32+0x1e0f>
    fdf4:	66 0f ef c9          	pxor   %xmm1,%xmm1
    fdf8:	0f 2e c1             	ucomiss %xmm1,%xmm0
    fdfb:	74 1f                	je     fe1c <test_log32+0x1e2e>
    fdfd:	41 b8 56 07 00 00    	mov    $0x756,%r8d
    fe03:	48 8d 05 49 00 00 00 	lea    0x49(%rip),%rax        # fe53 <test_log32+0x1e65>
    fe0a:	48 89 c2             	mov    %rax,%rdx
    fe0d:	48 8d 05 5a 00 00 00 	lea    0x5a(%rip),%rax        # fe6e <test_log32+0x1e80>
    fe14:	48 89 c1             	mov    %rax,%rcx
    fe17:	e8 27 02 ff ff       	call   43 <printf>
    fe1c:	0f b7 45 ac          	movzwl -0x54(%rbp),%eax
    fe20:	66 85 c0             	test   %ax,%ax
    fe23:	74 1f                	je     fe44 <test_log32+0x1e56>
    fe25:	41 b8 58 07 00 00    	mov    $0x758,%r8d
    fe2b:	48 8d 05 49 00 00 00 	lea    0x49(%rip),%rax        # fe7b <test_log32+0x1e8d>
    fe32:	48 89 c2             	mov    %rax,%rdx
    fe35:	48 8d 05 5a 00 00 00 	lea    0x5a(%rip),%rax        # fe96 <test_log32+0x1ea8>
    fe3c:	48 89 c1             	mov    %rax,%rcx
    fe3f:	e8 ff 01 ff ff       	call   43 <printf>
    fe44:	0f b7 45 a8          	movzwl -0x58(%rbp),%eax
    fe48:	66 83 f8 01          	cmp    $0x1,%ax
    fe4c:	74 1f                	je     fe6d <test_log32+0x1e7f>
    fe4e:	41 b8 59 07 00 00    	mov    $0x759,%r8d
    fe54:	48 8d 05 49 00 00 00 	lea    0x49(%rip),%rax        # fea4 <test_log32+0x1eb6>
    fe5b:	48 89 c2             	mov    %rax,%rdx
    fe5e:	48 8d 05 5a 00 00 00 	lea    0x5a(%rip),%rax        # febf <test_log32+0x1ed1>
    fe65:	48 89 c1             	mov    %rax,%rcx
    fe68:	e8 d6 01 ff ff       	call   43 <printf>
    fe6d:	0f b7 45 ae          	movzwl -0x52(%rbp),%eax
    fe71:	66 83 f8 01          	cmp    $0x1,%ax
    fe75:	74 1f                	je     fe96 <test_log32+0x1ea8>
    fe77:	41 b8 5a 07 00 00    	mov    $0x75a,%r8d
    fe7d:	48 8d 05 49 00 00 00 	lea    0x49(%rip),%rax        # fecd <test_log32+0x1edf>
    fe84:	48 89 c2             	mov    %rax,%rdx
    fe87:	48 8d 05 5a 00 00 00 	lea    0x5a(%rip),%rax        # fee8 <test_log32+0x1efa>
    fe8e:	48 89 c1             	mov    %rax,%rcx
    fe91:	e8 ad 01 ff ff       	call   43 <printf>
    fe96:	f3 0f 10 85 f8 00 00 	movss  0xf8(%rbp),%xmm0
    fe9d:	00 
    fe9e:	f3 0f 11 85 8c 00 00 	movss  %xmm0,0x8c(%rbp)
    fea5:	00 
    fea6:	f3 0f 10 85 d8 00 00 	movss  0xd8(%rbp),%xmm0
    fead:	00 
    feae:	f3 0f 11 85 88 00 00 	movss  %xmm0,0x88(%rbp)
    feb5:	00 
    feb6:	f3 0f 10 85 b8 00 00 	movss  0xb8(%rbp),%xmm0
    febd:	00 
    febe:	f3 0f 11 85 84 00 00 	movss  %xmm0,0x84(%rbp)
    fec5:	00 
    fec6:	f3 0f 10 85 98 00 00 	movss  0x98(%rbp),%xmm0
    fecd:	00 
    fece:	f3 0f 11 85 80 00 00 	movss  %xmm0,0x80(%rbp)
    fed5:	00 
    fed6:	0f b7 45 a8          	movzwl -0x58(%rbp),%eax
    feda:	66 83 f8 01          	cmp    $0x1,%ax
    fede:	0f 85 37 01 00 00    	jne    1001b <test_log32+0x202d>
    fee4:	0f b7 45 b2          	movzwl -0x4e(%rbp),%eax
    fee8:	0f b7 c0             	movzwl %ax,%eax
    feeb:	48 98                	cltq
    feed:	48 8b 44 c5 60       	mov    0x60(%rbp,%rax,8),%rax
    fef2:	0f b7 55 a6          	movzwl -0x5a(%rbp),%edx
    fef6:	0f b7 d2             	movzwl %dx,%edx
    fef9:	f3 0f 10 00          	movss  (%rax),%xmm0
    fefd:	48 63 c2             	movslq %edx,%rax
    ff00:	48 c1 e0 04          	shl    $0x4,%rax
    ff04:	48 8d 80 10 01 00 00 	lea    0x110(%rax),%rax
    ff0b:	48 01 e8             	add    %rbp,%rax
    ff0e:	48 2d 30 01 00 00    	sub    $0x130,%rax
    ff14:	f3 0f 11 00          	movss  %xmm0,(%rax)
    ff18:	0f b7 45 b4          	movzwl -0x4c(%rbp),%eax
    ff1c:	0f b7 c0             	movzwl %ax,%eax
    ff1f:	48 98                	cltq
    ff21:	48 8b 44 c5 60       	mov    0x60(%rbp,%rax,8),%rax
    ff26:	0f b7 55 a6          	movzwl -0x5a(%rbp),%edx
    ff2a:	0f b7 d2             	movzwl %dx,%edx
    ff2d:	f3 0f 10 00          	movss  (%rax),%xmm0
    ff31:	48 63 c2             	movslq %edx,%rax
    ff34:	48 c1 e0 04          	shl    $0x4,%rax
    ff38:	48 8d 80 10 01 00 00 	lea    0x110(%rax),%rax
    ff3f:	48 01 e8             	add    %rbp,%rax
    ff42:	48 2d 2c 01 00 00    	sub    $0x12c,%rax
    ff48:	f3 0f 11 00          	movss  %xmm0,(%rax)
    ff4c:	0f b7 45 b6          	movzwl -0x4a(%rbp),%eax
    ff50:	0f b7 c0             	movzwl %ax,%eax
    ff53:	48 98                	cltq
    ff55:	48 8b 44 c5 60       	mov    0x60(%rbp,%rax,8),%rax
    ff5a:	0f b7 55 a6          	movzwl -0x5a(%rbp),%edx
    ff5e:	0f b7 d2             	movzwl %dx,%edx
    ff61:	f3 0f 10 00          	movss  (%rax),%xmm0
    ff65:	48 63 c2             	movslq %edx,%rax
    ff68:	48 c1 e0 04          	shl    $0x4,%rax
    ff6c:	48 8d 80 10 01 00 00 	lea    0x110(%rax),%rax
    ff73:	48 01 e8             	add    %rbp,%rax
    ff76:	48 2d 28 01 00 00    	sub    $0x128,%rax
    ff7c:	f3 0f 11 00          	movss  %xmm0,(%rax)
    ff80:	0f b7 45 b8          	movzwl -0x48(%rbp),%eax
    ff84:	0f b7 c0             	movzwl %ax,%eax
    ff87:	48 98                	cltq
    ff89:	48 8b 44 c5 60       	mov    0x60(%rbp,%rax,8),%rax
    ff8e:	0f b7 55 a6          	movzwl -0x5a(%rbp),%edx
    ff92:	0f b7 d2             	movzwl %dx,%edx
    ff95:	f3 0f 10 00          	movss  (%rax),%xmm0
    ff99:	48 63 c2             	movslq %edx,%rax
    ff9c:	48 c1 e0 04          	shl    $0x4,%rax
    ffa0:	48 8d 80 10 01 00 00 	lea    0x110(%rax),%rax
    ffa7:	48 01 e8             	add    %rbp,%rax
    ffaa:	48 2d 24 01 00 00    	sub    $0x124,%rax
    ffb0:	f3 0f 11 00          	movss  %xmm0,(%rax)
    ffb4:	0f b7 55 a6          	movzwl -0x5a(%rbp),%edx
    ffb8:	0f b7 45 a8          	movzwl -0x58(%rbp),%eax
    ffbc:	01 d0                	add    %edx,%eax
    ffbe:	66 89 45 a6          	mov    %ax,-0x5a(%rbp)
    ffc2:	0f b7 55 a6          	movzwl -0x5a(%rbp),%edx
    ffc6:	0f b7 45 a4          	movzwl -0x5c(%rbp),%eax
    ffca:	21 d0                	and    %edx,%eax
    ffcc:	66 89 45 a6          	mov    %ax,-0x5a(%rbp)
    ffd0:	0f b7 55 ac          	movzwl -0x54(%rbp),%edx
    ffd4:	0f b7 45 ae          	movzwl -0x52(%rbp),%eax
    ffd8:	01 d0                	add    %edx,%eax
    ffda:	66 89 45 ac          	mov    %ax,-0x54(%rbp)
    ffde:	0f b7 45 ac          	movzwl -0x54(%rbp),%eax
    ffe2:	0f b7 55 a0          	movzwl -0x60(%rbp),%edx
    ffe6:	66 39 c2             	cmp    %ax,%dx
    ffe9:	73 0e                	jae    fff9 <test_log32+0x200b>
    ffeb:	66 c7 45 a8 00 00    	movw   $0x0,-0x58(%rbp)
    fff1:	66 c7 45 ae 00 00    	movw   $0x0,-0x52(%rbp)
    fff7:	eb 22                	jmp    1001b <test_log32+0x202d>
    fff9:	0f b7 45 b0          	movzwl -0x50(%rbp),%eax
    fffd:	0f b7 c0             	movzwl %ax,%eax
   10000:	48 98                	cltq
   10002:	48 8b 44 c5 60       	mov    0x60(%rbp,%rax,8),%rax
   10007:	f3 0f 10 00          	movss  (%rax),%xmm0
   1000b:	f3 0f 10 4d bc       	movss  -0x44(%rbp),%xmm1
   10010:	0f 2f c1             	comiss %xmm1,%xmm0
   10013:	76 06                	jbe    1001b <test_log32+0x202d>
   10015:	66 c7 45 ae 01 00    	movw   $0x1,-0x52(%rbp)
   1001b:	f3 0f 10 45 e0       	movss  -0x20(%rbp),%xmm0
   10020:	0f 2e 05 b4 08 00 00 	ucomiss 0x8b4(%rip),%xmm0        # 108db <test_log32+0x28ed>
   10027:	7a 4e                	jp     10077 <test_log32+0x2089>
   10029:	0f 2e 05 b4 08 00 00 	ucomiss 0x8b4(%rip),%xmm0        # 108e4 <test_log32+0x28f6>
   10030:	75 45                	jne    10077 <test_log32+0x2089>
   10032:	f3 0f 10 45 e4       	movss  -0x1c(%rbp),%xmm0
   10037:	0f 2e 05 24 09 00 00 	ucomiss 0x924(%rip),%xmm0        # 10962 <test_log32+0x2974>
   1003e:	7a 37                	jp     10077 <test_log32+0x2089>
   10040:	0f 2e 05 24 09 00 00 	ucomiss 0x924(%rip),%xmm0        # 1096b <test_log32+0x297d>
   10047:	75 2e                	jne    10077 <test_log32+0x2089>
   10049:	f3 0f 10 45 e8       	movss  -0x18(%rbp),%xmm0
   1004e:	0f 2e 05 40 08 00 00 	ucomiss 0x840(%rip),%xmm0        # 10895 <test_log32+0x28a7>
   10055:	7a 20                	jp     10077 <test_log32+0x2089>
   10057:	0f 2e 05 40 08 00 00 	ucomiss 0x840(%rip),%xmm0        # 1089e <test_log32+0x28b0>
   1005e:	75 17                	jne    10077 <test_log32+0x2089>
   10060:	f3 0f 10 45 ec       	movss  -0x14(%rbp),%xmm0
   10065:	0f 2e 05 38 09 00 00 	ucomiss 0x938(%rip),%xmm0        # 109a4 <test_log32+0x29b6>
   1006c:	7a 09                	jp     10077 <test_log32+0x2089>
   1006e:	0f 2e 05 38 09 00 00 	ucomiss 0x938(%rip),%xmm0        # 109ad <test_log32+0x29bf>
   10075:	74 1f                	je     10096 <test_log32+0x20a8>
   10077:	41 b8 61 07 00 00    	mov    $0x761,%r8d
   1007d:	48 8d 05 49 00 00 00 	lea    0x49(%rip),%rax        # 100cd <test_log32+0x20df>
   10084:	48 89 c2             	mov    %rax,%rdx
   10087:	48 8d 05 5a 00 00 00 	lea    0x5a(%rip),%rax        # 100e8 <test_log32+0x20fa>
   1008e:	48 89 c1             	mov    %rax,%rcx
   10091:	e8 ad ff fe ff       	call   43 <printf>
   10096:	f3 0f 10 45 f0       	movss  -0x10(%rbp),%xmm0
   1009b:	0f 2e 05 c8 08 00 00 	ucomiss 0x8c8(%rip),%xmm0        # 1096a <test_log32+0x297c>
   100a2:	7a 4e                	jp     100f2 <test_log32+0x2104>
   100a4:	0f 2e 05 c8 08 00 00 	ucomiss 0x8c8(%rip),%xmm0        # 10973 <test_log32+0x2985>
   100ab:	75 45                	jne    100f2 <test_log32+0x2104>
   100ad:	f3 0f 10 45 f4       	movss  -0xc(%rbp),%xmm0
   100b2:	0f 2e 05 20 08 00 00 	ucomiss 0x820(%rip),%xmm0        # 108d9 <test_log32+0x28eb>
   100b9:	7a 37                	jp     100f2 <test_log32+0x2104>
   100bb:	0f 2e 05 20 08 00 00 	ucomiss 0x820(%rip),%xmm0        # 108e2 <test_log32+0x28f4>
   100c2:	75 2e                	jne    100f2 <test_log32+0x2104>
   100c4:	f3 0f 10 45 f8       	movss  -0x8(%rbp),%xmm0
   100c9:	0f 2e 05 24 08 00 00 	ucomiss 0x824(%rip),%xmm0        # 108f4 <test_log32+0x2906>
   100d0:	7a 20                	jp     100f2 <test_log32+0x2104>
   100d2:	0f 2e 05 24 08 00 00 	ucomiss 0x824(%rip),%xmm0        # 108fd <test_log32+0x290f>
   100d9:	75 17                	jne    100f2 <test_log32+0x2104>
   100db:	f3 0f 10 45 fc       	movss  -0x4(%rbp),%xmm0
   100e0:	0f 2e 05 28 08 00 00 	ucomiss 0x828(%rip),%xmm0        # 1090f <test_log32+0x2921>
   100e7:	7a 09                	jp     100f2 <test_log32+0x2104>
   100e9:	0f 2e 05 28 08 00 00 	ucomiss 0x828(%rip),%xmm0        # 10918 <test_log32+0x292a>
   100f0:	74 1f                	je     10111 <test_log32+0x2123>
   100f2:	41 b8 63 07 00 00    	mov    $0x763,%r8d
   100f8:	48 8d 05 49 00 00 00 	lea    0x49(%rip),%rax        # 10148 <test_log32+0x215a>
   100ff:	48 89 c2             	mov    %rax,%rdx
   10102:	48 8d 05 5a 00 00 00 	lea    0x5a(%rip),%rax        # 10163 <test_log32+0x2175>
   10109:	48 89 c1             	mov    %rax,%rcx
   1010c:	e8 32 ff fe ff       	call   43 <printf>
   10111:	f3 0f 10 45 00       	movss  0x0(%rbp),%xmm0
   10116:	0f 2e 05 18 09 00 00 	ucomiss 0x918(%rip),%xmm0        # 10a35 <test_log32+0x2a47>
   1011d:	7a 4e                	jp     1016d <test_log32+0x217f>
   1011f:	0f 2e 05 18 09 00 00 	ucomiss 0x918(%rip),%xmm0        # 10a3e <test_log32+0x2a50>
   10126:	75 45                	jne    1016d <test_log32+0x217f>
   10128:	f3 0f 10 45 04       	movss  0x4(%rbp),%xmm0
   1012d:	0f 2e 05 2c 08 00 00 	ucomiss 0x82c(%rip),%xmm0        # 10960 <test_log32+0x2972>
   10134:	7a 37                	jp     1016d <test_log32+0x217f>
   10136:	0f 2e 05 2c 08 00 00 	ucomiss 0x82c(%rip),%xmm0        # 10969 <test_log32+0x297b>
   1013d:	75 2e                	jne    1016d <test_log32+0x217f>
   1013f:	f3 0f 10 45 08       	movss  0x8(%rbp),%xmm0
   10144:	0f 2e 05 30 08 00 00 	ucomiss 0x830(%rip),%xmm0        # 1097b <test_log32+0x298d>
   1014b:	7a 20                	jp     1016d <test_log32+0x217f>
   1014d:	0f 2e 05 30 08 00 00 	ucomiss 0x830(%rip),%xmm0        # 10984 <test_log32+0x2996>
   10154:	75 17                	jne    1016d <test_log32+0x217f>
   10156:	f3 0f 10 45 0c       	movss  0xc(%rbp),%xmm0
   1015b:	0f 2e 05 3c 09 00 00 	ucomiss 0x93c(%rip),%xmm0        # 10a9e <test_log32+0x2ab0>
   10162:	7a 09                	jp     1016d <test_log32+0x217f>
   10164:	0f 2e 05 3c 09 00 00 	ucomiss 0x93c(%rip),%xmm0        # 10aa7 <test_log32+0x2ab9>
   1016b:	74 1f                	je     1018c <test_log32+0x219e>
   1016d:	41 b8 65 07 00 00    	mov    $0x765,%r8d
   10173:	48 8d 05 49 00 00 00 	lea    0x49(%rip),%rax        # 101c3 <test_log32+0x21d5>
   1017a:	48 89 c2             	mov    %rax,%rdx
   1017d:	48 8d 05 5a 00 00 00 	lea    0x5a(%rip),%rax        # 101de <test_log32+0x21f0>
   10184:	48 89 c1             	mov    %rax,%rcx
   10187:	e8 b7 fe fe ff       	call   43 <printf>
   1018c:	f3 0f 10 45 10       	movss  0x10(%rbp),%xmm0
   10191:	66 0f ef c9          	pxor   %xmm1,%xmm1
   10195:	0f 2e c1             	ucomiss %xmm1,%xmm0
   10198:	7a 4e                	jp     101e8 <test_log32+0x21fa>
   1019a:	66 0f ef c9          	pxor   %xmm1,%xmm1
   1019e:	0f 2e c1             	ucomiss %xmm1,%xmm0
   101a1:	75 45                	jne    101e8 <test_log32+0x21fa>
   101a3:	f3 0f 10 45 14       	movss  0x14(%rbp),%xmm0
   101a8:	66 0f ef c9          	pxor   %xmm1,%xmm1
   101ac:	0f 2e c1             	ucomiss %xmm1,%xmm0
   101af:	7a 37                	jp     101e8 <test_log32+0x21fa>
   101b1:	66 0f ef c9          	pxor   %xmm1,%xmm1
   101b5:	0f 2e c1             	ucomiss %xmm1,%xmm0
   101b8:	75 2e                	jne    101e8 <test_log32+0x21fa>
   101ba:	f3 0f 10 45 18       	movss  0x18(%rbp),%xmm0
   101bf:	66 0f ef c9          	pxor   %xmm1,%xmm1
   101c3:	0f 2e c1             	ucomiss %xmm1,%xmm0
   101c6:	7a 20                	jp     101e8 <test_log32+0x21fa>
   101c8:	66 0f ef c9          	pxor   %xmm1,%xmm1
   101cc:	0f 2e c1             	ucomiss %xmm1,%xmm0
   101cf:	75 17                	jne    101e8 <test_log32+0x21fa>
   101d1:	f3 0f 10 45 1c       	movss  0x1c(%rbp),%xmm0
   101d6:	66 0f ef c9          	pxor   %xmm1,%xmm1
   101da:	0f 2e c1             	ucomiss %xmm1,%xmm0
   101dd:	7a 09                	jp     101e8 <test_log32+0x21fa>
   101df:	66 0f ef c9          	pxor   %xmm1,%xmm1
   101e3:	0f 2e c1             	ucomiss %xmm1,%xmm0
   101e6:	74 1f                	je     10207 <test_log32+0x2219>
   101e8:	41 b8 67 07 00 00    	mov    $0x767,%r8d
   101ee:	48 8d 05 49 00 00 00 	lea    0x49(%rip),%rax        # 1023e <test_log32+0x2250>
   101f5:	48 89 c2             	mov    %rax,%rdx
   101f8:	48 8d 05 5a 00 00 00 	lea    0x5a(%rip),%rax        # 10259 <test_log32+0x226b>
   101ff:	48 89 c1             	mov    %rax,%rcx
   10202:	e8 3c fe fe ff       	call   43 <printf>
   10207:	0f b7 45 ac          	movzwl -0x54(%rbp),%eax
   1020b:	66 83 f8 01          	cmp    $0x1,%ax
   1020f:	74 1f                	je     10230 <test_log32+0x2242>
   10211:	41 b8 69 07 00 00    	mov    $0x769,%r8d
   10217:	48 8d 05 49 00 00 00 	lea    0x49(%rip),%rax        # 10267 <test_log32+0x2279>
   1021e:	48 89 c2             	mov    %rax,%rdx
   10221:	48 8d 05 5a 00 00 00 	lea    0x5a(%rip),%rax        # 10282 <test_log32+0x2294>
   10228:	48 89 c1             	mov    %rax,%rcx
   1022b:	e8 13 fe fe ff       	call   43 <printf>
   10230:	0f b7 45 a8          	movzwl -0x58(%rbp),%eax
   10234:	66 83 f8 01          	cmp    $0x1,%ax
   10238:	74 1f                	je     10259 <test_log32+0x226b>
   1023a:	41 b8 6a 07 00 00    	mov    $0x76a,%r8d
   10240:	48 8d 05 49 00 00 00 	lea    0x49(%rip),%rax        # 10290 <test_log32+0x22a2>
   10247:	48 89 c2             	mov    %rax,%rdx
   1024a:	48 8d 05 5a 00 00 00 	lea    0x5a(%rip),%rax        # 102ab <test_log32+0x22bd>
   10251:	48 89 c1             	mov    %rax,%rcx
   10254:	e8 ea fd fe ff       	call   43 <printf>
   10259:	0f b7 45 ae          	movzwl -0x52(%rbp),%eax
   1025d:	66 83 f8 01          	cmp    $0x1,%ax
   10261:	74 1f                	je     10282 <test_log32+0x2294>
   10263:	41 b8 6b 07 00 00    	mov    $0x76b,%r8d
   10269:	48 8d 05 49 00 00 00 	lea    0x49(%rip),%rax        # 102b9 <test_log32+0x22cb>
   10270:	48 89 c2             	mov    %rax,%rdx
   10273:	48 8d 05 5a 00 00 00 	lea    0x5a(%rip),%rax        # 102d4 <test_log32+0x22e6>
   1027a:	48 89 c1             	mov    %rax,%rcx
   1027d:	e8 c1 fd fe ff       	call   43 <printf>
   10282:	f3 0f 10 85 fc 00 00 	movss  0xfc(%rbp),%xmm0
   10289:	00 
   1028a:	f3 0f 11 85 8c 00 00 	movss  %xmm0,0x8c(%rbp)
   10291:	00 
   10292:	f3 0f 10 85 dc 00 00 	movss  0xdc(%rbp),%xmm0
   10299:	00 
   1029a:	f3 0f 11 85 88 00 00 	movss  %xmm0,0x88(%rbp)
   102a1:	00 
   102a2:	f3 0f 10 85 bc 00 00 	movss  0xbc(%rbp),%xmm0
   102a9:	00 
   102aa:	f3 0f 11 85 84 00 00 	movss  %xmm0,0x84(%rbp)
   102b1:	00 
   102b2:	f3 0f 10 85 9c 00 00 	movss  0x9c(%rbp),%xmm0
   102b9:	00 
   102ba:	f3 0f 11 85 80 00 00 	movss  %xmm0,0x80(%rbp)
   102c1:	00 
   102c2:	0f b7 45 a8          	movzwl -0x58(%rbp),%eax
   102c6:	66 83 f8 01          	cmp    $0x1,%ax
   102ca:	0f 85 37 01 00 00    	jne    10407 <test_log32+0x2419>
   102d0:	0f b7 45 b2          	movzwl -0x4e(%rbp),%eax
   102d4:	0f b7 c0             	movzwl %ax,%eax
   102d7:	48 98                	cltq
   102d9:	48 8b 44 c5 60       	mov    0x60(%rbp,%rax,8),%rax
   102de:	0f b7 55 a6          	movzwl -0x5a(%rbp),%edx
   102e2:	0f b7 d2             	movzwl %dx,%edx
   102e5:	f3 0f 10 00          	movss  (%rax),%xmm0
   102e9:	48 63 c2             	movslq %edx,%rax
   102ec:	48 c1 e0 04          	shl    $0x4,%rax
   102f0:	48 8d 80 10 01 00 00 	lea    0x110(%rax),%rax
   102f7:	48 01 e8             	add    %rbp,%rax
   102fa:	48 2d 30 01 00 00    	sub    $0x130,%rax
   10300:	f3 0f 11 00          	movss  %xmm0,(%rax)
   10304:	0f b7 45 b4          	movzwl -0x4c(%rbp),%eax
   10308:	0f b7 c0             	movzwl %ax,%eax
   1030b:	48 98                	cltq
   1030d:	48 8b 44 c5 60       	mov    0x60(%rbp,%rax,8),%rax
   10312:	0f b7 55 a6          	movzwl -0x5a(%rbp),%edx
   10316:	0f b7 d2             	movzwl %dx,%edx
   10319:	f3 0f 10 00          	movss  (%rax),%xmm0
   1031d:	48 63 c2             	movslq %edx,%rax
   10320:	48 c1 e0 04          	shl    $0x4,%rax
   10324:	48 8d 80 10 01 00 00 	lea    0x110(%rax),%rax
   1032b:	48 01 e8             	add    %rbp,%rax
   1032e:	48 2d 2c 01 00 00    	sub    $0x12c,%rax
   10334:	f3 0f 11 00          	movss  %xmm0,(%rax)
   10338:	0f b7 45 b6          	movzwl -0x4a(%rbp),%eax
   1033c:	0f b7 c0             	movzwl %ax,%eax
   1033f:	48 98                	cltq
   10341:	48 8b 44 c5 60       	mov    0x60(%rbp,%rax,8),%rax
   10346:	0f b7 55 a6          	movzwl -0x5a(%rbp),%edx
   1034a:	0f b7 d2             	movzwl %dx,%edx
   1034d:	f3 0f 10 00          	movss  (%rax),%xmm0
   10351:	48 63 c2             	movslq %edx,%rax
   10354:	48 c1 e0 04          	shl    $0x4,%rax
   10358:	48 8d 80 10 01 00 00 	lea    0x110(%rax),%rax
   1035f:	48 01 e8             	add    %rbp,%rax
   10362:	48 2d 28 01 00 00    	sub    $0x128,%rax
   10368:	f3 0f 11 00          	movss  %xmm0,(%rax)
   1036c:	0f b7 45 b8          	movzwl -0x48(%rbp),%eax
   10370:	0f b7 c0             	movzwl %ax,%eax
   10373:	48 98                	cltq
   10375:	48 8b 44 c5 60       	mov    0x60(%rbp,%rax,8),%rax
   1037a:	0f b7 55 a6          	movzwl -0x5a(%rbp),%edx
   1037e:	0f b7 d2             	movzwl %dx,%edx
   10381:	f3 0f 10 00          	movss  (%rax),%xmm0
   10385:	48 63 c2             	movslq %edx,%rax
   10388:	48 c1 e0 04          	shl    $0x4,%rax
   1038c:	48 8d 80 10 01 00 00 	lea    0x110(%rax),%rax
   10393:	48 01 e8             	add    %rbp,%rax
   10396:	48 2d 24 01 00 00    	sub    $0x124,%rax
   1039c:	f3 0f 11 00          	movss  %xmm0,(%rax)
   103a0:	0f b7 55 a6          	movzwl -0x5a(%rbp),%edx
   103a4:	0f b7 45 a8          	movzwl -0x58(%rbp),%eax
   103a8:	01 d0                	add    %edx,%eax
   103aa:	66 89 45 a6          	mov    %ax,-0x5a(%rbp)
   103ae:	0f b7 55 a6          	movzwl -0x5a(%rbp),%edx
   103b2:	0f b7 45 a4          	movzwl -0x5c(%rbp),%eax
   103b6:	21 d0                	and    %edx,%eax
   103b8:	66 89 45 a6          	mov    %ax,-0x5a(%rbp)
   103bc:	0f b7 55 ac          	movzwl -0x54(%rbp),%edx
   103c0:	0f b7 45 ae          	movzwl -0x52(%rbp),%eax
   103c4:	01 d0                	add    %edx,%eax
   103c6:	66 89 45 ac          	mov    %ax,-0x54(%rbp)
   103ca:	0f b7 45 ac          	movzwl -0x54(%rbp),%eax
   103ce:	0f b7 55 a0          	movzwl -0x60(%rbp),%edx
   103d2:	66 39 c2             	cmp    %ax,%dx
   103d5:	73 0e                	jae    103e5 <test_log32+0x23f7>
   103d7:	66 c7 45 a8 00 00    	movw   $0x0,-0x58(%rbp)
   103dd:	66 c7 45 ae 00 00    	movw   $0x0,-0x52(%rbp)
   103e3:	eb 22                	jmp    10407 <test_log32+0x2419>
   103e5:	0f b7 45 b0          	movzwl -0x50(%rbp),%eax
   103e9:	0f b7 c0             	movzwl %ax,%eax
   103ec:	48 98                	cltq
   103ee:	48 8b 44 c5 60       	mov    0x60(%rbp,%rax,8),%rax
   103f3:	f3 0f 10 00          	movss  (%rax),%xmm0
   103f7:	f3 0f 10 4d bc       	movss  -0x44(%rbp),%xmm1
   103fc:	0f 2f c1             	comiss %xmm1,%xmm0
   103ff:	76 06                	jbe    10407 <test_log32+0x2419>
   10401:	66 c7 45 ae 01 00    	movw   $0x1,-0x52(%rbp)
   10407:	f3 0f 10 45 e0       	movss  -0x20(%rbp),%xmm0
   1040c:	0f 2e 05 b4 08 00 00 	ucomiss 0x8b4(%rip),%xmm0        # 10cc7 <test_log32+0x2cd9>
   10413:	7a 4e                	jp     10463 <test_log32+0x2475>
   10415:	0f 2e 05 b4 08 00 00 	ucomiss 0x8b4(%rip),%xmm0        # 10cd0 <test_log32+0x2ce2>
   1041c:	75 45                	jne    10463 <test_log32+0x2475>
   1041e:	f3 0f 10 45 e4       	movss  -0x1c(%rbp),%xmm0
   10423:	0f 2e 05 24 09 00 00 	ucomiss 0x924(%rip),%xmm0        # 10d4e <test_log32+0x2d60>
   1042a:	7a 37                	jp     10463 <test_log32+0x2475>
   1042c:	0f 2e 05 24 09 00 00 	ucomiss 0x924(%rip),%xmm0        # 10d57 <test_log32+0x2d69>
   10433:	75 2e                	jne    10463 <test_log32+0x2475>
   10435:	f3 0f 10 45 e8       	movss  -0x18(%rbp),%xmm0
   1043a:	0f 2e 05 40 08 00 00 	ucomiss 0x840(%rip),%xmm0        # 10c81 <test_log32+0x2c93>
   10441:	7a 20                	jp     10463 <test_log32+0x2475>
   10443:	0f 2e 05 40 08 00 00 	ucomiss 0x840(%rip),%xmm0        # 10c8a <test_log32+0x2c9c>
   1044a:	75 17                	jne    10463 <test_log32+0x2475>
   1044c:	f3 0f 10 45 ec       	movss  -0x14(%rbp),%xmm0
   10451:	0f 2e 05 38 09 00 00 	ucomiss 0x938(%rip),%xmm0        # 10d90 <test_log32+0x2da2>
   10458:	7a 09                	jp     10463 <test_log32+0x2475>
   1045a:	0f 2e 05 38 09 00 00 	ucomiss 0x938(%rip),%xmm0        # 10d99 <test_log32+0x2dab>
   10461:	74 1f                	je     10482 <test_log32+0x2494>
   10463:	41 b8 72 07 00 00    	mov    $0x772,%r8d
   10469:	48 8d 05 49 00 00 00 	lea    0x49(%rip),%rax        # 104b9 <test_log32+0x24cb>
   10470:	48 89 c2             	mov    %rax,%rdx
   10473:	48 8d 05 5a 00 00 00 	lea    0x5a(%rip),%rax        # 104d4 <test_log32+0x24e6>
   1047a:	48 89 c1             	mov    %rax,%rcx
   1047d:	e8 c1 fb fe ff       	call   43 <printf>
   10482:	f3 0f 10 45 f0       	movss  -0x10(%rbp),%xmm0
   10487:	0f 2e 05 c8 08 00 00 	ucomiss 0x8c8(%rip),%xmm0        # 10d56 <test_log32+0x2d68>
   1048e:	7a 4e                	jp     104de <test_log32+0x24f0>
   10490:	0f 2e 05 c8 08 00 00 	ucomiss 0x8c8(%rip),%xmm0        # 10d5f <test_log32+0x2d71>
   10497:	75 45                	jne    104de <test_log32+0x24f0>
   10499:	f3 0f 10 45 f4       	movss  -0xc(%rbp),%xmm0
   1049e:	0f 2e 05 20 08 00 00 	ucomiss 0x820(%rip),%xmm0        # 10cc5 <test_log32+0x2cd7>
   104a5:	7a 37                	jp     104de <test_log32+0x24f0>
   104a7:	0f 2e 05 20 08 00 00 	ucomiss 0x820(%rip),%xmm0        # 10cce <test_log32+0x2ce0>
   104ae:	75 2e                	jne    104de <test_log32+0x24f0>
   104b0:	f3 0f 10 45 f8       	movss  -0x8(%rbp),%xmm0
   104b5:	0f 2e 05 24 08 00 00 	ucomiss 0x824(%rip),%xmm0        # 10ce0 <test_log32+0x2cf2>
   104bc:	7a 20                	jp     104de <test_log32+0x24f0>
   104be:	0f 2e 05 24 08 00 00 	ucomiss 0x824(%rip),%xmm0        # 10ce9 <test_log32+0x2cfb>
   104c5:	75 17                	jne    104de <test_log32+0x24f0>
   104c7:	f3 0f 10 45 fc       	movss  -0x4(%rbp),%xmm0
   104cc:	0f 2e 05 28 08 00 00 	ucomiss 0x828(%rip),%xmm0        # 10cfb <test_log32+0x2d0d>
   104d3:	7a 09                	jp     104de <test_log32+0x24f0>
   104d5:	0f 2e 05 28 08 00 00 	ucomiss 0x828(%rip),%xmm0        # 10d04 <test_log32+0x2d16>
   104dc:	74 1f                	je     104fd <test_log32+0x250f>
   104de:	41 b8 74 07 00 00    	mov    $0x774,%r8d
   104e4:	48 8d 05 49 00 00 00 	lea    0x49(%rip),%rax        # 10534 <test_log32+0x2546>
   104eb:	48 89 c2             	mov    %rax,%rdx
   104ee:	48 8d 05 5a 00 00 00 	lea    0x5a(%rip),%rax        # 1054f <test_log32+0x2561>
   104f5:	48 89 c1             	mov    %rax,%rcx
   104f8:	e8 46 fb fe ff       	call   43 <printf>
   104fd:	f3 0f 10 45 00       	movss  0x0(%rbp),%xmm0
   10502:	0f 2e 05 18 09 00 00 	ucomiss 0x918(%rip),%xmm0        # 10e21 <test_log32+0x2e33>
   10509:	7a 4e                	jp     10559 <test_log32+0x256b>
   1050b:	0f 2e 05 18 09 00 00 	ucomiss 0x918(%rip),%xmm0        # 10e2a <test_log32+0x2e3c>
   10512:	75 45                	jne    10559 <test_log32+0x256b>
   10514:	f3 0f 10 45 04       	movss  0x4(%rbp),%xmm0
   10519:	0f 2e 05 2c 08 00 00 	ucomiss 0x82c(%rip),%xmm0        # 10d4c <test_log32+0x2d5e>
   10520:	7a 37                	jp     10559 <test_log32+0x256b>
   10522:	0f 2e 05 2c 08 00 00 	ucomiss 0x82c(%rip),%xmm0        # 10d55 <test_log32+0x2d67>
   10529:	75 2e                	jne    10559 <test_log32+0x256b>
   1052b:	f3 0f 10 45 08       	movss  0x8(%rbp),%xmm0
   10530:	0f 2e 05 30 08 00 00 	ucomiss 0x830(%rip),%xmm0        # 10d67 <test_log32+0x2d79>
   10537:	7a 20                	jp     10559 <test_log32+0x256b>
   10539:	0f 2e 05 30 08 00 00 	ucomiss 0x830(%rip),%xmm0        # 10d70 <test_log32+0x2d82>
   10540:	75 17                	jne    10559 <test_log32+0x256b>
   10542:	f3 0f 10 45 0c       	movss  0xc(%rbp),%xmm0
   10547:	0f 2e 05 3c 09 00 00 	ucomiss 0x93c(%rip),%xmm0        # 10e8a <test_log32+0x2e9c>
   1054e:	7a 09                	jp     10559 <test_log32+0x256b>
   10550:	0f 2e 05 3c 09 00 00 	ucomiss 0x93c(%rip),%xmm0        # 10e93 <test_log32+0x2ea5>
   10557:	74 1f                	je     10578 <test_log32+0x258a>
   10559:	41 b8 76 07 00 00    	mov    $0x776,%r8d
   1055f:	48 8d 05 49 00 00 00 	lea    0x49(%rip),%rax        # 105af <test_log32+0x25c1>
   10566:	48 89 c2             	mov    %rax,%rdx
   10569:	48 8d 05 5a 00 00 00 	lea    0x5a(%rip),%rax        # 105ca <test_log32+0x25dc>
   10570:	48 89 c1             	mov    %rax,%rcx
   10573:	e8 cb fa fe ff       	call   43 <printf>
   10578:	f3 0f 10 45 10       	movss  0x10(%rbp),%xmm0
   1057d:	0f 2e 05 1c 09 00 00 	ucomiss 0x91c(%rip),%xmm0        # 10ea0 <test_log32+0x2eb2>
   10584:	7a 4e                	jp     105d4 <test_log32+0x25e6>
   10586:	0f 2e 05 1c 09 00 00 	ucomiss 0x91c(%rip),%xmm0        # 10ea9 <test_log32+0x2ebb>
   1058d:	75 45                	jne    105d4 <test_log32+0x25e6>
   1058f:	f3 0f 10 45 14       	movss  0x14(%rbp),%xmm0
   10594:	0f 2e 05 44 08 00 00 	ucomiss 0x844(%rip),%xmm0        # 10ddf <test_log32+0x2df1>
   1059b:	7a 37                	jp     105d4 <test_log32+0x25e6>
   1059d:	0f 2e 05 44 08 00 00 	ucomiss 0x844(%rip),%xmm0        # 10de8 <test_log32+0x2dfa>
   105a4:	75 2e                	jne    105d4 <test_log32+0x25e6>
   105a6:	f3 0f 10 45 18       	movss  0x18(%rbp),%xmm0
   105ab:	0f 2e 05 2c 09 00 00 	ucomiss 0x92c(%rip),%xmm0        # 10ede <test_log32+0x2ef0>
   105b2:	7a 20                	jp     105d4 <test_log32+0x25e6>
   105b4:	0f 2e 05 2c 09 00 00 	ucomiss 0x92c(%rip),%xmm0        # 10ee7 <test_log32+0x2ef9>
   105bb:	75 17                	jne    105d4 <test_log32+0x25e6>
   105bd:	f3 0f 10 45 1c       	movss  0x1c(%rbp),%xmm0
   105c2:	0f 2e 05 40 09 00 00 	ucomiss 0x940(%rip),%xmm0        # 10f09 <test_log32+0x2f1b>
   105c9:	7a 09                	jp     105d4 <test_log32+0x25e6>
   105cb:	0f 2e 05 40 09 00 00 	ucomiss 0x940(%rip),%xmm0        # 10f12 <test_log32+0x2f24>
   105d2:	74 1f                	je     105f3 <test_log32+0x2605>
   105d4:	41 b8 78 07 00 00    	mov    $0x778,%r8d
   105da:	48 8d 05 49 00 00 00 	lea    0x49(%rip),%rax        # 1062a <test_log32+0x263c>
   105e1:	48 89 c2             	mov    %rax,%rdx
   105e4:	48 8d 05 5a 00 00 00 	lea    0x5a(%rip),%rax        # 10645 <test_log32+0x2657>
   105eb:	48 89 c1             	mov    %rax,%rcx
   105ee:	e8 50 fa fe ff       	call   43 <printf>
   105f3:	0f b7 45 ac          	movzwl -0x54(%rbp),%eax
   105f7:	66 83 f8 02          	cmp    $0x2,%ax
   105fb:	74 1f                	je     1061c <test_log32+0x262e>
   105fd:	41 b8 7a 07 00 00    	mov    $0x77a,%r8d
   10603:	48 8d 05 49 00 00 00 	lea    0x49(%rip),%rax        # 10653 <test_log32+0x2665>
   1060a:	48 89 c2             	mov    %rax,%rdx
   1060d:	48 8d 05 5a 00 00 00 	lea    0x5a(%rip),%rax        # 1066e <test_log32+0x2680>
   10614:	48 89 c1             	mov    %rax,%rcx
   10617:	e8 27 fa fe ff       	call   43 <printf>
   1061c:	0f b7 45 a8          	movzwl -0x58(%rbp),%eax
   10620:	66 83 f8 01          	cmp    $0x1,%ax
   10624:	74 1f                	je     10645 <test_log32+0x2657>
   10626:	41 b8 7b 07 00 00    	mov    $0x77b,%r8d
   1062c:	48 8d 05 49 00 00 00 	lea    0x49(%rip),%rax        # 1067c <test_log32+0x268e>
   10633:	48 89 c2             	mov    %rax,%rdx
   10636:	48 8d 05 5a 00 00 00 	lea    0x5a(%rip),%rax        # 10697 <test_log32+0x26a9>
   1063d:	48 89 c1             	mov    %rax,%rcx
   10640:	e8 fe f9 fe ff       	call   43 <printf>
   10645:	0f b7 45 ae          	movzwl -0x52(%rbp),%eax
   10649:	66 83 f8 01          	cmp    $0x1,%ax
   1064d:	74 1f                	je     1066e <test_log32+0x2680>
   1064f:	41 b8 7c 07 00 00    	mov    $0x77c,%r8d
   10655:	48 8d 05 49 00 00 00 	lea    0x49(%rip),%rax        # 106a5 <test_log32+0x26b7>
   1065c:	48 89 c2             	mov    %rax,%rdx
   1065f:	48 8d 05 5a 00 00 00 	lea    0x5a(%rip),%rax        # 106c0 <test_log32+0x26d2>
   10666:	48 89 c1             	mov    %rax,%rcx
   10669:	e8 d5 f9 fe ff       	call   43 <printf>
   1066e:	f3 0f 10 85 00 01 00 	movss  0x100(%rbp),%xmm0
   10675:	00 
   10676:	f3 0f 11 85 8c 00 00 	movss  %xmm0,0x8c(%rbp)
   1067d:	00 
   1067e:	f3 0f 10 85 e0 00 00 	movss  0xe0(%rbp),%xmm0
   10685:	00 
   10686:	f3 0f 11 85 88 00 00 	movss  %xmm0,0x88(%rbp)
   1068d:	00 
   1068e:	f3 0f 10 85 c0 00 00 	movss  0xc0(%rbp),%xmm0
   10695:	00 
   10696:	f3 0f 11 85 84 00 00 	movss  %xmm0,0x84(%rbp)
   1069d:	00 
   1069e:	f3 0f 10 85 a0 00 00 	movss  0xa0(%rbp),%xmm0
   106a5:	00 
   106a6:	f3 0f 11 85 80 00 00 	movss  %xmm0,0x80(%rbp)
   106ad:	00 
   106ae:	0f b7 45 a8          	movzwl -0x58(%rbp),%eax
   106b2:	66 83 f8 01          	cmp    $0x1,%ax
   106b6:	0f 85 37 01 00 00    	jne    107f3 <test_log32+0x2805>
   106bc:	0f b7 45 b2          	movzwl -0x4e(%rbp),%eax
   106c0:	0f b7 c0             	movzwl %ax,%eax
   106c3:	48 98                	cltq
   106c5:	48 8b 44 c5 60       	mov    0x60(%rbp,%rax,8),%rax
   106ca:	0f b7 55 a6          	movzwl -0x5a(%rbp),%edx
   106ce:	0f b7 d2             	movzwl %dx,%edx
   106d1:	f3 0f 10 00          	movss  (%rax),%xmm0
   106d5:	48 63 c2             	movslq %edx,%rax
   106d8:	48 c1 e0 04          	shl    $0x4,%rax
   106dc:	48 8d 80 10 01 00 00 	lea    0x110(%rax),%rax
   106e3:	48 01 e8             	add    %rbp,%rax
   106e6:	48 2d 30 01 00 00    	sub    $0x130,%rax
   106ec:	f3 0f 11 00          	movss  %xmm0,(%rax)
   106f0:	0f b7 45 b4          	movzwl -0x4c(%rbp),%eax
   106f4:	0f b7 c0             	movzwl %ax,%eax
   106f7:	48 98                	cltq
   106f9:	48 8b 44 c5 60       	mov    0x60(%rbp,%rax,8),%rax
   106fe:	0f b7 55 a6          	movzwl -0x5a(%rbp),%edx
   10702:	0f b7 d2             	movzwl %dx,%edx
   10705:	f3 0f 10 00          	movss  (%rax),%xmm0
   10709:	48 63 c2             	movslq %edx,%rax
   1070c:	48 c1 e0 04          	shl    $0x4,%rax
   10710:	48 8d 80 10 01 00 00 	lea    0x110(%rax),%rax
   10717:	48 01 e8             	add    %rbp,%rax
   1071a:	48 2d 2c 01 00 00    	sub    $0x12c,%rax
   10720:	f3 0f 11 00          	movss  %xmm0,(%rax)
   10724:	0f b7 45 b6          	movzwl -0x4a(%rbp),%eax
   10728:	0f b7 c0             	movzwl %ax,%eax
   1072b:	48 98                	cltq
   1072d:	48 8b 44 c5 60       	mov    0x60(%rbp,%rax,8),%rax
   10732:	0f b7 55 a6          	movzwl -0x5a(%rbp),%edx
   10736:	0f b7 d2             	movzwl %dx,%edx
   10739:	f3 0f 10 00          	movss  (%rax),%xmm0
   1073d:	48 63 c2             	movslq %edx,%rax
   10740:	48 c1 e0 04          	shl    $0x4,%rax
   10744:	48 8d 80 10 01 00 00 	lea    0x110(%rax),%rax
   1074b:	48 01 e8             	add    %rbp,%rax
   1074e:	48 2d 28 01 00 00    	sub    $0x128,%rax
   10754:	f3 0f 11 00          	movss  %xmm0,(%rax)
   10758:	0f b7 45 b8          	movzwl -0x48(%rbp),%eax
   1075c:	0f b7 c0             	movzwl %ax,%eax
   1075f:	48 98                	cltq
   10761:	48 8b 44 c5 60       	mov    0x60(%rbp,%rax,8),%rax
   10766:	0f b7 55 a6          	movzwl -0x5a(%rbp),%edx
   1076a:	0f b7 d2             	movzwl %dx,%edx
   1076d:	f3 0f 10 00          	movss  (%rax),%xmm0
   10771:	48 63 c2             	movslq %edx,%rax
   10774:	48 c1 e0 04          	shl    $0x4,%rax
   10778:	48 8d 80 10 01 00 00 	lea    0x110(%rax),%rax
   1077f:	48 01 e8             	add    %rbp,%rax
   10782:	48 2d 24 01 00 00    	sub    $0x124,%rax
   10788:	f3 0f 11 00          	movss  %xmm0,(%rax)
   1078c:	0f b7 55 a6          	movzwl -0x5a(%rbp),%edx
   10790:	0f b7 45 a8          	movzwl -0x58(%rbp),%eax
   10794:	01 d0                	add    %edx,%eax
   10796:	66 89 45 a6          	mov    %ax,-0x5a(%rbp)
   1079a:	0f b7 55 a6          	movzwl -0x5a(%rbp),%edx
   1079e:	0f b7 45 a4          	movzwl -0x5c(%rbp),%eax
   107a2:	21 d0                	and    %edx,%eax
   107a4:	66 89 45 a6          	mov    %ax,-0x5a(%rbp)
   107a8:	0f b7 55 ac          	movzwl -0x54(%rbp),%edx
   107ac:	0f b7 45 ae          	movzwl -0x52(%rbp),%eax
   107b0:	01 d0                	add    %edx,%eax
   107b2:	66 89 45 ac          	mov    %ax,-0x54(%rbp)
   107b6:	0f b7 45 ac          	movzwl -0x54(%rbp),%eax
   107ba:	0f b7 55 a0          	movzwl -0x60(%rbp),%edx
   107be:	66 39 c2             	cmp    %ax,%dx
   107c1:	73 0e                	jae    107d1 <test_log32+0x27e3>
   107c3:	66 c7 45 a8 00 00    	movw   $0x0,-0x58(%rbp)
   107c9:	66 c7 45 ae 00 00    	movw   $0x0,-0x52(%rbp)
   107cf:	eb 22                	jmp    107f3 <test_log32+0x2805>
   107d1:	0f b7 45 b0          	movzwl -0x50(%rbp),%eax
   107d5:	0f b7 c0             	movzwl %ax,%eax
   107d8:	48 98                	cltq
   107da:	48 8b 44 c5 60       	mov    0x60(%rbp,%rax,8),%rax
   107df:	f3 0f 10 00          	movss  (%rax),%xmm0
   107e3:	f3 0f 10 4d bc       	movss  -0x44(%rbp),%xmm1
   107e8:	0f 2f c1             	comiss %xmm1,%xmm0
   107eb:	76 06                	jbe    107f3 <test_log32+0x2805>
   107ed:	66 c7 45 ae 01 00    	movw   $0x1,-0x52(%rbp)
   107f3:	f3 0f 10 45 e0       	movss  -0x20(%rbp),%xmm0
   107f8:	0f 2e 05 cc 07 00 00 	ucomiss 0x7cc(%rip),%xmm0        # 10fcb <test_log32+0x2fdd>
   107ff:	7a 4e                	jp     1084f <test_log32+0x2861>
   10801:	0f 2e 05 cc 07 00 00 	ucomiss 0x7cc(%rip),%xmm0        # 10fd4 <test_log32+0x2fe6>
   10808:	75 45                	jne    1084f <test_log32+0x2861>
   1080a:	f3 0f 10 45 e4       	movss  -0x1c(%rbp),%xmm0
   1080f:	0f 2e 05 a4 07 00 00 	ucomiss 0x7a4(%rip),%xmm0        # 10fba <test_log32+0x2fcc>
   10816:	7a 37                	jp     1084f <test_log32+0x2861>
   10818:	0f 2e 05 a4 07 00 00 	ucomiss 0x7a4(%rip),%xmm0        # 10fc3 <test_log32+0x2fd5>
   1081f:	75 2e                	jne    1084f <test_log32+0x2861>
   10821:	f3 0f 10 45 e8       	movss  -0x18(%rbp),%xmm0
   10826:	0f 2e 05 d0 07 00 00 	ucomiss 0x7d0(%rip),%xmm0        # 10ffd <test_log32+0x300f>
   1082d:	7a 20                	jp     1084f <test_log32+0x2861>
   1082f:	0f 2e 05 d0 07 00 00 	ucomiss 0x7d0(%rip),%xmm0        # 11006 <test_log32+0x3018>
   10836:	75 17                	jne    1084f <test_log32+0x2861>
   10838:	f3 0f 10 45 ec       	movss  -0x14(%rbp),%xmm0
   1083d:	0f 2e 05 d4 07 00 00 	ucomiss 0x7d4(%rip),%xmm0        # 11018 <test_log32+0x302a>
   10844:	7a 09                	jp     1084f <test_log32+0x2861>
   10846:	0f 2e 05 d4 07 00 00 	ucomiss 0x7d4(%rip),%xmm0        # 11021 <test_log32+0x3033>
   1084d:	74 1f                	je     1086e <test_log32+0x2880>
   1084f:	41 b8 83 07 00 00    	mov    $0x783,%r8d
   10855:	48 8d 05 49 00 00 00 	lea    0x49(%rip),%rax        # 108a5 <test_log32+0x28b7>
   1085c:	48 89 c2             	mov    %rax,%rdx
   1085f:	48 8d 05 5a 00 00 00 	lea    0x5a(%rip),%rax        # 108c0 <test_log32+0x28d2>
   10866:	48 89 c1             	mov    %rax,%rcx
   10869:	e8 d5 f7 fe ff       	call   43 <printf>
   1086e:	f3 0f 10 45 f0       	movss  -0x10(%rbp),%xmm0
   10873:	0f 2e 05 c8 08 00 00 	ucomiss 0x8c8(%rip),%xmm0        # 11142 <test_log32+0x3154>
   1087a:	7a 4e                	jp     108ca <test_log32+0x28dc>
   1087c:	0f 2e 05 c8 08 00 00 	ucomiss 0x8c8(%rip),%xmm0        # 1114b <test_log32+0x315d>
   10883:	75 45                	jne    108ca <test_log32+0x28dc>
   10885:	f3 0f 10 45 f4       	movss  -0xc(%rbp),%xmm0
   1088a:	0f 2e 05 20 08 00 00 	ucomiss 0x820(%rip),%xmm0        # 110b1 <test_log32+0x30c3>
   10891:	7a 37                	jp     108ca <test_log32+0x28dc>
   10893:	0f 2e 05 20 08 00 00 	ucomiss 0x820(%rip),%xmm0        # 110ba <test_log32+0x30cc>
   1089a:	75 2e                	jne    108ca <test_log32+0x28dc>
   1089c:	f3 0f 10 45 f8       	movss  -0x8(%rbp),%xmm0
   108a1:	0f 2e 05 24 08 00 00 	ucomiss 0x824(%rip),%xmm0        # 110cc <test_log32+0x30de>
   108a8:	7a 20                	jp     108ca <test_log32+0x28dc>
   108aa:	0f 2e 05 24 08 00 00 	ucomiss 0x824(%rip),%xmm0        # 110d5 <test_log32+0x30e7>
   108b1:	75 17                	jne    108ca <test_log32+0x28dc>
   108b3:	f3 0f 10 45 fc       	movss  -0x4(%rbp),%xmm0
   108b8:	0f 2e 05 28 08 00 00 	ucomiss 0x828(%rip),%xmm0        # 110e7 <test_log32+0x30f9>
   108bf:	7a 09                	jp     108ca <test_log32+0x28dc>
   108c1:	0f 2e 05 28 08 00 00 	ucomiss 0x828(%rip),%xmm0        # 110f0 <test_log32+0x3102>
   108c8:	74 1f                	je     108e9 <test_log32+0x28fb>
   108ca:	41 b8 85 07 00 00    	mov    $0x785,%r8d
   108d0:	48 8d 05 49 00 00 00 	lea    0x49(%rip),%rax        # 10920 <test_log32+0x2932>
   108d7:	48 89 c2             	mov    %rax,%rdx
   108da:	48 8d 05 5a 00 00 00 	lea    0x5a(%rip),%rax        # 1093b <test_log32+0x294d>
   108e1:	48 89 c1             	mov    %rax,%rcx
   108e4:	e8 5a f7 fe ff       	call   43 <printf>
   108e9:	f3 0f 10 45 00       	movss  0x0(%rbp),%xmm0
   108ee:	0f 2e 05 18 09 00 00 	ucomiss 0x918(%rip),%xmm0        # 1120d <test_log32+0x321f>
   108f5:	7a 4e                	jp     10945 <test_log32+0x2957>
   108f7:	0f 2e 05 18 09 00 00 	ucomiss 0x918(%rip),%xmm0        # 11216 <test_log32+0x3228>
   108fe:	75 45                	jne    10945 <test_log32+0x2957>
   10900:	f3 0f 10 45 04       	movss  0x4(%rbp),%xmm0
   10905:	0f 2e 05 2c 08 00 00 	ucomiss 0x82c(%rip),%xmm0        # 11138 <test_log32+0x314a>
   1090c:	7a 37                	jp     10945 <test_log32+0x2957>
   1090e:	0f 2e 05 2c 08 00 00 	ucomiss 0x82c(%rip),%xmm0        # 11141 <test_log32+0x3153>
   10915:	75 2e                	jne    10945 <test_log32+0x2957>
   10917:	f3 0f 10 45 08       	movss  0x8(%rbp),%xmm0
   1091c:	0f 2e 05 30 08 00 00 	ucomiss 0x830(%rip),%xmm0        # 11153 <test_log32+0x3165>
   10923:	7a 20                	jp     10945 <test_log32+0x2957>
   10925:	0f 2e 05 30 08 00 00 	ucomiss 0x830(%rip),%xmm0        # 1115c <test_log32+0x316e>
   1092c:	75 17                	jne    10945 <test_log32+0x2957>
   1092e:	f3 0f 10 45 0c       	movss  0xc(%rbp),%xmm0
   10933:	0f 2e 05 3c 09 00 00 	ucomiss 0x93c(%rip),%xmm0        # 11276 <main+0x22>
   1093a:	7a 09                	jp     10945 <test_log32+0x2957>
   1093c:	0f 2e 05 3c 09 00 00 	ucomiss 0x93c(%rip),%xmm0        # 1127f <main+0x2b>
   10943:	74 1f                	je     10964 <test_log32+0x2976>
   10945:	41 b8 87 07 00 00    	mov    $0x787,%r8d
   1094b:	48 8d 05 49 00 00 00 	lea    0x49(%rip),%rax        # 1099b <test_log32+0x29ad>
   10952:	48 89 c2             	mov    %rax,%rdx
   10955:	48 8d 05 5a 00 00 00 	lea    0x5a(%rip),%rax        # 109b6 <test_log32+0x29c8>
   1095c:	48 89 c1             	mov    %rax,%rcx
   1095f:	e8 df f6 fe ff       	call   43 <printf>
   10964:	f3 0f 10 45 10       	movss  0x10(%rbp),%xmm0
   10969:	0f 2e 05 1c 09 00 00 	ucomiss 0x91c(%rip),%xmm0        # 1128c <main+0x38>
   10970:	7a 4e                	jp     109c0 <test_log32+0x29d2>
   10972:	0f 2e 05 1c 09 00 00 	ucomiss 0x91c(%rip),%xmm0        # 11295 <main+0x41>
   10979:	75 45                	jne    109c0 <test_log32+0x29d2>
   1097b:	f3 0f 10 45 14       	movss  0x14(%rbp),%xmm0
   10980:	0f 2e 05 44 08 00 00 	ucomiss 0x844(%rip),%xmm0        # 111cb <test_log32+0x31dd>
   10987:	7a 37                	jp     109c0 <test_log32+0x29d2>
   10989:	0f 2e 05 44 08 00 00 	ucomiss 0x844(%rip),%xmm0        # 111d4 <test_log32+0x31e6>
   10990:	75 2e                	jne    109c0 <test_log32+0x29d2>
   10992:	f3 0f 10 45 18       	movss  0x18(%rbp),%xmm0
   10997:	0f 2e 05 2c 09 00 00 	ucomiss 0x92c(%rip),%xmm0        # 112ca <main+0x76>
   1099e:	7a 20                	jp     109c0 <test_log32+0x29d2>
   109a0:	0f 2e 05 2c 09 00 00 	ucomiss 0x92c(%rip),%xmm0        # 112d3 <main+0x7f>
   109a7:	75 17                	jne    109c0 <test_log32+0x29d2>
   109a9:	f3 0f 10 45 1c       	movss  0x1c(%rbp),%xmm0
   109ae:	0f 2e 05 40 09 00 00 	ucomiss 0x940(%rip),%xmm0        # 112f5 <main+0xa1>
   109b5:	7a 09                	jp     109c0 <test_log32+0x29d2>
   109b7:	0f 2e 05 40 09 00 00 	ucomiss 0x940(%rip),%xmm0        # 112fe <main+0xaa>
   109be:	74 1f                	je     109df <test_log32+0x29f1>
   109c0:	41 b8 89 07 00 00    	mov    $0x789,%r8d
   109c6:	48 8d 05 49 00 00 00 	lea    0x49(%rip),%rax        # 10a16 <test_log32+0x2a28>
   109cd:	48 89 c2             	mov    %rax,%rdx
   109d0:	48 8d 05 5a 00 00 00 	lea    0x5a(%rip),%rax        # 10a31 <test_log32+0x2a43>
   109d7:	48 89 c1             	mov    %rax,%rcx
   109da:	e8 64 f6 fe ff       	call   43 <printf>
   109df:	0f b7 45 ac          	movzwl -0x54(%rbp),%eax
   109e3:	66 83 f8 03          	cmp    $0x3,%ax
   109e7:	74 1f                	je     10a08 <test_log32+0x2a1a>
   109e9:	41 b8 8b 07 00 00    	mov    $0x78b,%r8d
   109ef:	48 8d 05 49 00 00 00 	lea    0x49(%rip),%rax        # 10a3f <test_log32+0x2a51>
   109f6:	48 89 c2             	mov    %rax,%rdx
   109f9:	48 8d 05 5a 00 00 00 	lea    0x5a(%rip),%rax        # 10a5a <test_log32+0x2a6c>
   10a00:	48 89 c1             	mov    %rax,%rcx
   10a03:	e8 3b f6 fe ff       	call   43 <printf>
   10a08:	0f b7 45 a8          	movzwl -0x58(%rbp),%eax
   10a0c:	66 85 c0             	test   %ax,%ax
   10a0f:	74 1f                	je     10a30 <test_log32+0x2a42>
   10a11:	41 b8 8c 07 00 00    	mov    $0x78c,%r8d
   10a17:	48 8d 05 49 00 00 00 	lea    0x49(%rip),%rax        # 10a67 <test_log32+0x2a79>
   10a1e:	48 89 c2             	mov    %rax,%rdx
   10a21:	48 8d 05 5a 00 00 00 	lea    0x5a(%rip),%rax        # 10a82 <test_log32+0x2a94>
   10a28:	48 89 c1             	mov    %rax,%rcx
   10a2b:	e8 13 f6 fe ff       	call   43 <printf>
   10a30:	0f b7 45 ae          	movzwl -0x52(%rbp),%eax
   10a34:	66 85 c0             	test   %ax,%ax
   10a37:	74 1f                	je     10a58 <test_log32+0x2a6a>
   10a39:	41 b8 8d 07 00 00    	mov    $0x78d,%r8d
   10a3f:	48 8d 05 49 00 00 00 	lea    0x49(%rip),%rax        # 10a8f <test_log32+0x2aa1>
   10a46:	48 89 c2             	mov    %rax,%rdx
   10a49:	48 8d 05 5a 00 00 00 	lea    0x5a(%rip),%rax        # 10aaa <test_log32+0x2abc>
   10a50:	48 89 c1             	mov    %rax,%rcx
   10a53:	e8 eb f5 fe ff       	call   43 <printf>
   10a58:	f3 0f 10 85 04 01 00 	movss  0x104(%rbp),%xmm0
   10a5f:	00 
   10a60:	f3 0f 11 85 8c 00 00 	movss  %xmm0,0x8c(%rbp)
   10a67:	00 
   10a68:	f3 0f 10 85 e4 00 00 	movss  0xe4(%rbp),%xmm0
   10a6f:	00 
   10a70:	f3 0f 11 85 88 00 00 	movss  %xmm0,0x88(%rbp)
   10a77:	00 
   10a78:	f3 0f 10 85 c4 00 00 	movss  0xc4(%rbp),%xmm0
   10a7f:	00 
   10a80:	f3 0f 11 85 84 00 00 	movss  %xmm0,0x84(%rbp)
   10a87:	00 
   10a88:	f3 0f 10 85 a4 00 00 	movss  0xa4(%rbp),%xmm0
   10a8f:	00 
   10a90:	f3 0f 11 85 80 00 00 	movss  %xmm0,0x80(%rbp)
   10a97:	00 
   10a98:	0f b7 45 a8          	movzwl -0x58(%rbp),%eax
   10a9c:	66 83 f8 01          	cmp    $0x1,%ax
   10aa0:	0f 85 37 01 00 00    	jne    10bdd <test_log32+0x2bef>
   10aa6:	0f b7 45 b2          	movzwl -0x4e(%rbp),%eax
   10aaa:	0f b7 c0             	movzwl %ax,%eax
   10aad:	48 98                	cltq
   10aaf:	48 8b 44 c5 60       	mov    0x60(%rbp,%rax,8),%rax
   10ab4:	0f b7 55 a6          	movzwl -0x5a(%rbp),%edx
   10ab8:	0f b7 d2             	movzwl %dx,%edx
   10abb:	f3 0f 10 00          	movss  (%rax),%xmm0
   10abf:	48 63 c2             	movslq %edx,%rax
   10ac2:	48 c1 e0 04          	shl    $0x4,%rax
   10ac6:	48 8d 80 10 01 00 00 	lea    0x110(%rax),%rax
   10acd:	48 01 e8             	add    %rbp,%rax
   10ad0:	48 2d 30 01 00 00    	sub    $0x130,%rax
   10ad6:	f3 0f 11 00          	movss  %xmm0,(%rax)
   10ada:	0f b7 45 b4          	movzwl -0x4c(%rbp),%eax
   10ade:	0f b7 c0             	movzwl %ax,%eax
   10ae1:	48 98                	cltq
   10ae3:	48 8b 44 c5 60       	mov    0x60(%rbp,%rax,8),%rax
   10ae8:	0f b7 55 a6          	movzwl -0x5a(%rbp),%edx
   10aec:	0f b7 d2             	movzwl %dx,%edx
   10aef:	f3 0f 10 00          	movss  (%rax),%xmm0
   10af3:	48 63 c2             	movslq %edx,%rax
   10af6:	48 c1 e0 04          	shl    $0x4,%rax
   10afa:	48 8d 80 10 01 00 00 	lea    0x110(%rax),%rax
   10b01:	48 01 e8             	add    %rbp,%rax
   10b04:	48 2d 2c 01 00 00    	sub    $0x12c,%rax
   10b0a:	f3 0f 11 00          	movss  %xmm0,(%rax)
   10b0e:	0f b7 45 b6          	movzwl -0x4a(%rbp),%eax
   10b12:	0f b7 c0             	movzwl %ax,%eax
   10b15:	48 98                	cltq
   10b17:	48 8b 44 c5 60       	mov    0x60(%rbp,%rax,8),%rax
   10b1c:	0f b7 55 a6          	movzwl -0x5a(%rbp),%edx
   10b20:	0f b7 d2             	movzwl %dx,%edx
   10b23:	f3 0f 10 00          	movss  (%rax),%xmm0
   10b27:	48 63 c2             	movslq %edx,%rax
   10b2a:	48 c1 e0 04          	shl    $0x4,%rax
   10b2e:	48 8d 80 10 01 00 00 	lea    0x110(%rax),%rax
   10b35:	48 01 e8             	add    %rbp,%rax
   10b38:	48 2d 28 01 00 00    	sub    $0x128,%rax
   10b3e:	f3 0f 11 00          	movss  %xmm0,(%rax)
   10b42:	0f b7 45 b8          	movzwl -0x48(%rbp),%eax
   10b46:	0f b7 c0             	movzwl %ax,%eax
   10b49:	48 98                	cltq
   10b4b:	48 8b 44 c5 60       	mov    0x60(%rbp,%rax,8),%rax
   10b50:	0f b7 55 a6          	movzwl -0x5a(%rbp),%edx
   10b54:	0f b7 d2             	movzwl %dx,%edx
   10b57:	f3 0f 10 00          	movss  (%rax),%xmm0
   10b5b:	48 63 c2             	movslq %edx,%rax
   10b5e:	48 c1 e0 04          	shl    $0x4,%rax
   10b62:	48 8d 80 10 01 00 00 	lea    0x110(%rax),%rax
   10b69:	48 01 e8             	add    %rbp,%rax
   10b6c:	48 2d 24 01 00 00    	sub    $0x124,%rax
   10b72:	f3 0f 11 00          	movss  %xmm0,(%rax)
   10b76:	0f b7 55 a6          	movzwl -0x5a(%rbp),%edx
   10b7a:	0f b7 45 a8          	movzwl -0x58(%rbp),%eax
   10b7e:	01 d0                	add    %edx,%eax
   10b80:	66 89 45 a6          	mov    %ax,-0x5a(%rbp)
   10b84:	0f b7 55 a6          	movzwl -0x5a(%rbp),%edx
   10b88:	0f b7 45 a4          	movzwl -0x5c(%rbp),%eax
   10b8c:	21 d0                	and    %edx,%eax
   10b8e:	66 89 45 a6          	mov    %ax,-0x5a(%rbp)
   10b92:	0f b7 55 ac          	movzwl -0x54(%rbp),%edx
   10b96:	0f b7 45 ae          	movzwl -0x52(%rbp),%eax
   10b9a:	01 d0                	add    %edx,%eax
   10b9c:	66 89 45 ac          	mov    %ax,-0x54(%rbp)
   10ba0:	0f b7 45 ac          	movzwl -0x54(%rbp),%eax
   10ba4:	0f b7 55 a0          	movzwl -0x60(%rbp),%edx
   10ba8:	66 39 c2             	cmp    %ax,%dx
   10bab:	73 0e                	jae    10bbb <test_log32+0x2bcd>
   10bad:	66 c7 45 a8 00 00    	movw   $0x0,-0x58(%rbp)
   10bb3:	66 c7 45 ae 00 00    	movw   $0x0,-0x52(%rbp)
   10bb9:	eb 22                	jmp    10bdd <test_log32+0x2bef>
   10bbb:	0f b7 45 b0          	movzwl -0x50(%rbp),%eax
   10bbf:	0f b7 c0             	movzwl %ax,%eax
   10bc2:	48 98                	cltq
   10bc4:	48 8b 44 c5 60       	mov    0x60(%rbp,%rax,8),%rax
   10bc9:	f3 0f 10 00          	movss  (%rax),%xmm0
   10bcd:	f3 0f 10 4d bc       	movss  -0x44(%rbp),%xmm1
   10bd2:	0f 2f c1             	comiss %xmm1,%xmm0
   10bd5:	76 06                	jbe    10bdd <test_log32+0x2bef>
   10bd7:	66 c7 45 ae 01 00    	movw   $0x1,-0x52(%rbp)
   10bdd:	f3 0f 10 45 e0       	movss  -0x20(%rbp),%xmm0
   10be2:	0f 2e 05 cc 07 00 00 	ucomiss 0x7cc(%rip),%xmm0        # 113b5 <main+0x161>
   10be9:	7a 4e                	jp     10c39 <test_log32+0x2c4b>
   10beb:	0f 2e 05 cc 07 00 00 	ucomiss 0x7cc(%rip),%xmm0        # 113be <main+0x16a>
   10bf2:	75 45                	jne    10c39 <test_log32+0x2c4b>
   10bf4:	f3 0f 10 45 e4       	movss  -0x1c(%rbp),%xmm0
   10bf9:	0f 2e 05 a4 07 00 00 	ucomiss 0x7a4(%rip),%xmm0        # 113a4 <main+0x150>
   10c00:	7a 37                	jp     10c39 <test_log32+0x2c4b>
   10c02:	0f 2e 05 a4 07 00 00 	ucomiss 0x7a4(%rip),%xmm0        # 113ad <main+0x159>
   10c09:	75 2e                	jne    10c39 <test_log32+0x2c4b>
   10c0b:	f3 0f 10 45 e8       	movss  -0x18(%rbp),%xmm0
   10c10:	0f 2e 05 d0 07 00 00 	ucomiss 0x7d0(%rip),%xmm0        # 113e7 <main+0x193>
   10c17:	7a 20                	jp     10c39 <test_log32+0x2c4b>
   10c19:	0f 2e 05 d0 07 00 00 	ucomiss 0x7d0(%rip),%xmm0        # 113f0 <main+0x19c>
   10c20:	75 17                	jne    10c39 <test_log32+0x2c4b>
   10c22:	f3 0f 10 45 ec       	movss  -0x14(%rbp),%xmm0
   10c27:	0f 2e 05 d4 07 00 00 	ucomiss 0x7d4(%rip),%xmm0        # 11402 <main+0x1ae>
   10c2e:	7a 09                	jp     10c39 <test_log32+0x2c4b>
   10c30:	0f 2e 05 d4 07 00 00 	ucomiss 0x7d4(%rip),%xmm0        # 1140b <main+0x1b7>
   10c37:	74 1f                	je     10c58 <test_log32+0x2c6a>
   10c39:	41 b8 94 07 00 00    	mov    $0x794,%r8d
   10c3f:	48 8d 05 49 00 00 00 	lea    0x49(%rip),%rax        # 10c8f <test_log32+0x2ca1>
   10c46:	48 89 c2             	mov    %rax,%rdx
   10c49:	48 8d 05 5a 00 00 00 	lea    0x5a(%rip),%rax        # 10caa <test_log32+0x2cbc>
   10c50:	48 89 c1             	mov    %rax,%rcx
   10c53:	e8 eb f3 fe ff       	call   43 <printf>
   10c58:	f3 0f 10 45 f0       	movss  -0x10(%rbp),%xmm0
   10c5d:	0f 2e 05 c8 08 00 00 	ucomiss 0x8c8(%rip),%xmm0        # 1152c <main+0x2d8>
   10c64:	7a 4e                	jp     10cb4 <test_log32+0x2cc6>
   10c66:	0f 2e 05 c8 08 00 00 	ucomiss 0x8c8(%rip),%xmm0        # 11535 <main+0x2e1>
   10c6d:	75 45                	jne    10cb4 <test_log32+0x2cc6>
   10c6f:	f3 0f 10 45 f4       	movss  -0xc(%rbp),%xmm0
   10c74:	0f 2e 05 20 08 00 00 	ucomiss 0x820(%rip),%xmm0        # 1149b <main+0x247>
   10c7b:	7a 37                	jp     10cb4 <test_log32+0x2cc6>
   10c7d:	0f 2e 05 20 08 00 00 	ucomiss 0x820(%rip),%xmm0        # 114a4 <main+0x250>
   10c84:	75 2e                	jne    10cb4 <test_log32+0x2cc6>
   10c86:	f3 0f 10 45 f8       	movss  -0x8(%rbp),%xmm0
   10c8b:	0f 2e 05 24 08 00 00 	ucomiss 0x824(%rip),%xmm0        # 114b6 <main+0x262>
   10c92:	7a 20                	jp     10cb4 <test_log32+0x2cc6>
   10c94:	0f 2e 05 24 08 00 00 	ucomiss 0x824(%rip),%xmm0        # 114bf <main+0x26b>
   10c9b:	75 17                	jne    10cb4 <test_log32+0x2cc6>
   10c9d:	f3 0f 10 45 fc       	movss  -0x4(%rbp),%xmm0
   10ca2:	0f 2e 05 28 08 00 00 	ucomiss 0x828(%rip),%xmm0        # 114d1 <main+0x27d>
   10ca9:	7a 09                	jp     10cb4 <test_log32+0x2cc6>
   10cab:	0f 2e 05 28 08 00 00 	ucomiss 0x828(%rip),%xmm0        # 114da <main+0x286>
   10cb2:	74 1f                	je     10cd3 <test_log32+0x2ce5>
   10cb4:	41 b8 96 07 00 00    	mov    $0x796,%r8d
   10cba:	48 8d 05 49 00 00 00 	lea    0x49(%rip),%rax        # 10d0a <test_log32+0x2d1c>
   10cc1:	48 89 c2             	mov    %rax,%rdx
   10cc4:	48 8d 05 5a 00 00 00 	lea    0x5a(%rip),%rax        # 10d25 <test_log32+0x2d37>
   10ccb:	48 89 c1             	mov    %rax,%rcx
   10cce:	e8 70 f3 fe ff       	call   43 <printf>
   10cd3:	f3 0f 10 45 00       	movss  0x0(%rbp),%xmm0
   10cd8:	0f 2e 05 18 09 00 00 	ucomiss 0x918(%rip),%xmm0        # 115f7 <main+0x3a3>
   10cdf:	7a 4e                	jp     10d2f <test_log32+0x2d41>
   10ce1:	0f 2e 05 18 09 00 00 	ucomiss 0x918(%rip),%xmm0        # 11600 <main+0x3ac>
   10ce8:	75 45                	jne    10d2f <test_log32+0x2d41>
   10cea:	f3 0f 10 45 04       	movss  0x4(%rbp),%xmm0
   10cef:	0f 2e 05 2c 08 00 00 	ucomiss 0x82c(%rip),%xmm0        # 11522 <main+0x2ce>
   10cf6:	7a 37                	jp     10d2f <test_log32+0x2d41>
   10cf8:	0f 2e 05 2c 08 00 00 	ucomiss 0x82c(%rip),%xmm0        # 1152b <main+0x2d7>
   10cff:	75 2e                	jne    10d2f <test_log32+0x2d41>
   10d01:	f3 0f 10 45 08       	movss  0x8(%rbp),%xmm0
   10d06:	0f 2e 05 30 08 00 00 	ucomiss 0x830(%rip),%xmm0        # 1153d <main+0x2e9>
   10d0d:	7a 20                	jp     10d2f <test_log32+0x2d41>
   10d0f:	0f 2e 05 30 08 00 00 	ucomiss 0x830(%rip),%xmm0        # 11546 <main+0x2f2>
   10d16:	75 17                	jne    10d2f <test_log32+0x2d41>
   10d18:	f3 0f 10 45 0c       	movss  0xc(%rbp),%xmm0
   10d1d:	0f 2e 05 3c 09 00 00 	ucomiss 0x93c(%rip),%xmm0        # 11660 <main+0x40c>
   10d24:	7a 09                	jp     10d2f <test_log32+0x2d41>
   10d26:	0f 2e 05 3c 09 00 00 	ucomiss 0x93c(%rip),%xmm0        # 11669 <main+0x415>
   10d2d:	74 1f                	je     10d4e <test_log32+0x2d60>
   10d2f:	41 b8 98 07 00 00    	mov    $0x798,%r8d
   10d35:	48 8d 05 49 00 00 00 	lea    0x49(%rip),%rax        # 10d85 <test_log32+0x2d97>
   10d3c:	48 89 c2             	mov    %rax,%rdx
   10d3f:	48 8d 05 5a 00 00 00 	lea    0x5a(%rip),%rax        # 10da0 <test_log32+0x2db2>
   10d46:	48 89 c1             	mov    %rax,%rcx
   10d49:	e8 f5 f2 fe ff       	call   43 <printf>
   10d4e:	f3 0f 10 45 10       	movss  0x10(%rbp),%xmm0
   10d53:	0f 2e 05 1c 09 00 00 	ucomiss 0x91c(%rip),%xmm0        # 11676 <main+0x422>
   10d5a:	7a 4e                	jp     10daa <test_log32+0x2dbc>
   10d5c:	0f 2e 05 1c 09 00 00 	ucomiss 0x91c(%rip),%xmm0        # 1167f <main+0x42b>
   10d63:	75 45                	jne    10daa <test_log32+0x2dbc>
   10d65:	f3 0f 10 45 14       	movss  0x14(%rbp),%xmm0
   10d6a:	0f 2e 05 44 08 00 00 	ucomiss 0x844(%rip),%xmm0        # 115b5 <main+0x361>
   10d71:	7a 37                	jp     10daa <test_log32+0x2dbc>
   10d73:	0f 2e 05 44 08 00 00 	ucomiss 0x844(%rip),%xmm0        # 115be <main+0x36a>
   10d7a:	75 2e                	jne    10daa <test_log32+0x2dbc>
   10d7c:	f3 0f 10 45 18       	movss  0x18(%rbp),%xmm0
   10d81:	0f 2e 05 2c 09 00 00 	ucomiss 0x92c(%rip),%xmm0        # 116b4 <main+0x460>
   10d88:	7a 20                	jp     10daa <test_log32+0x2dbc>
   10d8a:	0f 2e 05 2c 09 00 00 	ucomiss 0x92c(%rip),%xmm0        # 116bd <main+0x469>
   10d91:	75 17                	jne    10daa <test_log32+0x2dbc>
   10d93:	f3 0f 10 45 1c       	movss  0x1c(%rbp),%xmm0
   10d98:	0f 2e 05 40 09 00 00 	ucomiss 0x940(%rip),%xmm0        # 116df <main+0x48b>
   10d9f:	7a 09                	jp     10daa <test_log32+0x2dbc>
   10da1:	0f 2e 05 40 09 00 00 	ucomiss 0x940(%rip),%xmm0        # 116e8 <main+0x494>
   10da8:	74 1f                	je     10dc9 <test_log32+0x2ddb>
   10daa:	41 b8 9a 07 00 00    	mov    $0x79a,%r8d
   10db0:	48 8d 05 49 00 00 00 	lea    0x49(%rip),%rax        # 10e00 <test_log32+0x2e12>
   10db7:	48 89 c2             	mov    %rax,%rdx
   10dba:	48 8d 05 5a 00 00 00 	lea    0x5a(%rip),%rax        # 10e1b <test_log32+0x2e2d>
   10dc1:	48 89 c1             	mov    %rax,%rcx
   10dc4:	e8 7a f2 fe ff       	call   43 <printf>
   10dc9:	0f b7 45 ac          	movzwl -0x54(%rbp),%eax
   10dcd:	66 83 f8 03          	cmp    $0x3,%ax
   10dd1:	74 1f                	je     10df2 <test_log32+0x2e04>
   10dd3:	41 b8 9c 07 00 00    	mov    $0x79c,%r8d
   10dd9:	48 8d 05 49 00 00 00 	lea    0x49(%rip),%rax        # 10e29 <test_log32+0x2e3b>
   10de0:	48 89 c2             	mov    %rax,%rdx
   10de3:	48 8d 05 5a 00 00 00 	lea    0x5a(%rip),%rax        # 10e44 <test_log32+0x2e56>
   10dea:	48 89 c1             	mov    %rax,%rcx
   10ded:	e8 51 f2 fe ff       	call   43 <printf>
   10df2:	0f b7 45 a8          	movzwl -0x58(%rbp),%eax
   10df6:	66 85 c0             	test   %ax,%ax
   10df9:	74 1f                	je     10e1a <test_log32+0x2e2c>
   10dfb:	41 b8 9d 07 00 00    	mov    $0x79d,%r8d
   10e01:	48 8d 05 49 00 00 00 	lea    0x49(%rip),%rax        # 10e51 <test_log32+0x2e63>
   10e08:	48 89 c2             	mov    %rax,%rdx
   10e0b:	48 8d 05 5a 00 00 00 	lea    0x5a(%rip),%rax        # 10e6c <test_log32+0x2e7e>
   10e12:	48 89 c1             	mov    %rax,%rcx
   10e15:	e8 29 f2 fe ff       	call   43 <printf>
   10e1a:	0f b7 45 ae          	movzwl -0x52(%rbp),%eax
   10e1e:	66 85 c0             	test   %ax,%ax
   10e21:	74 1f                	je     10e42 <test_log32+0x2e54>
   10e23:	41 b8 9e 07 00 00    	mov    $0x79e,%r8d
   10e29:	48 8d 05 49 00 00 00 	lea    0x49(%rip),%rax        # 10e79 <test_log32+0x2e8b>
   10e30:	48 89 c2             	mov    %rax,%rdx
   10e33:	48 8d 05 5a 00 00 00 	lea    0x5a(%rip),%rax        # 10e94 <test_log32+0x2ea6>
   10e3a:	48 89 c1             	mov    %rax,%rcx
   10e3d:	e8 01 f2 fe ff       	call   43 <printf>
   10e42:	f3 0f 10 85 08 01 00 	movss  0x108(%rbp),%xmm0
   10e49:	00 
   10e4a:	f3 0f 11 85 8c 00 00 	movss  %xmm0,0x8c(%rbp)
   10e51:	00 
   10e52:	f3 0f 10 85 e8 00 00 	movss  0xe8(%rbp),%xmm0
   10e59:	00 
   10e5a:	f3 0f 11 85 88 00 00 	movss  %xmm0,0x88(%rbp)
   10e61:	00 
   10e62:	f3 0f 10 85 c8 00 00 	movss  0xc8(%rbp),%xmm0
   10e69:	00 
   10e6a:	f3 0f 11 85 84 00 00 	movss  %xmm0,0x84(%rbp)
   10e71:	00 
   10e72:	f3 0f 10 85 a8 00 00 	movss  0xa8(%rbp),%xmm0
   10e79:	00 
   10e7a:	f3 0f 11 85 80 00 00 	movss  %xmm0,0x80(%rbp)
   10e81:	00 
   10e82:	0f b7 45 a8          	movzwl -0x58(%rbp),%eax
   10e86:	66 83 f8 01          	cmp    $0x1,%ax
   10e8a:	0f 85 37 01 00 00    	jne    10fc7 <test_log32+0x2fd9>
   10e90:	0f b7 45 b2          	movzwl -0x4e(%rbp),%eax
   10e94:	0f b7 c0             	movzwl %ax,%eax
   10e97:	48 98                	cltq
   10e99:	48 8b 44 c5 60       	mov    0x60(%rbp,%rax,8),%rax
   10e9e:	0f b7 55 a6          	movzwl -0x5a(%rbp),%edx
   10ea2:	0f b7 d2             	movzwl %dx,%edx
   10ea5:	f3 0f 10 00          	movss  (%rax),%xmm0
   10ea9:	48 63 c2             	movslq %edx,%rax
   10eac:	48 c1 e0 04          	shl    $0x4,%rax
   10eb0:	48 8d 80 10 01 00 00 	lea    0x110(%rax),%rax
   10eb7:	48 01 e8             	add    %rbp,%rax
   10eba:	48 2d 30 01 00 00    	sub    $0x130,%rax
   10ec0:	f3 0f 11 00          	movss  %xmm0,(%rax)
   10ec4:	0f b7 45 b4          	movzwl -0x4c(%rbp),%eax
   10ec8:	0f b7 c0             	movzwl %ax,%eax
   10ecb:	48 98                	cltq
   10ecd:	48 8b 44 c5 60       	mov    0x60(%rbp,%rax,8),%rax
   10ed2:	0f b7 55 a6          	movzwl -0x5a(%rbp),%edx
   10ed6:	0f b7 d2             	movzwl %dx,%edx
   10ed9:	f3 0f 10 00          	movss  (%rax),%xmm0
   10edd:	48 63 c2             	movslq %edx,%rax
   10ee0:	48 c1 e0 04          	shl    $0x4,%rax
   10ee4:	48 8d 80 10 01 00 00 	lea    0x110(%rax),%rax
   10eeb:	48 01 e8             	add    %rbp,%rax
   10eee:	48 2d 2c 01 00 00    	sub    $0x12c,%rax
   10ef4:	f3 0f 11 00          	movss  %xmm0,(%rax)
   10ef8:	0f b7 45 b6          	movzwl -0x4a(%rbp),%eax
   10efc:	0f b7 c0             	movzwl %ax,%eax
   10eff:	48 98                	cltq
   10f01:	48 8b 44 c5 60       	mov    0x60(%rbp,%rax,8),%rax
   10f06:	0f b7 55 a6          	movzwl -0x5a(%rbp),%edx
   10f0a:	0f b7 d2             	movzwl %dx,%edx
   10f0d:	f3 0f 10 00          	movss  (%rax),%xmm0
   10f11:	48 63 c2             	movslq %edx,%rax
   10f14:	48 c1 e0 04          	shl    $0x4,%rax
   10f18:	48 8d 80 10 01 00 00 	lea    0x110(%rax),%rax
   10f1f:	48 01 e8             	add    %rbp,%rax
   10f22:	48 2d 28 01 00 00    	sub    $0x128,%rax
   10f28:	f3 0f 11 00          	movss  %xmm0,(%rax)
   10f2c:	0f b7 45 b8          	movzwl -0x48(%rbp),%eax
   10f30:	0f b7 c0             	movzwl %ax,%eax
   10f33:	48 98                	cltq
   10f35:	48 8b 44 c5 60       	mov    0x60(%rbp,%rax,8),%rax
   10f3a:	0f b7 55 a6          	movzwl -0x5a(%rbp),%edx
   10f3e:	0f b7 d2             	movzwl %dx,%edx
   10f41:	f3 0f 10 00          	movss  (%rax),%xmm0
   10f45:	48 63 c2             	movslq %edx,%rax
   10f48:	48 c1 e0 04          	shl    $0x4,%rax
   10f4c:	48 8d 80 10 01 00 00 	lea    0x110(%rax),%rax
   10f53:	48 01 e8             	add    %rbp,%rax
   10f56:	48 2d 24 01 00 00    	sub    $0x124,%rax
   10f5c:	f3 0f 11 00          	movss  %xmm0,(%rax)
   10f60:	0f b7 55 a6          	movzwl -0x5a(%rbp),%edx
   10f64:	0f b7 45 a8          	movzwl -0x58(%rbp),%eax
   10f68:	01 d0                	add    %edx,%eax
   10f6a:	66 89 45 a6          	mov    %ax,-0x5a(%rbp)
   10f6e:	0f b7 55 a6          	movzwl -0x5a(%rbp),%edx
   10f72:	0f b7 45 a4          	movzwl -0x5c(%rbp),%eax
   10f76:	21 d0                	and    %edx,%eax
   10f78:	66 89 45 a6          	mov    %ax,-0x5a(%rbp)
   10f7c:	0f b7 55 ac          	movzwl -0x54(%rbp),%edx
   10f80:	0f b7 45 ae          	movzwl -0x52(%rbp),%eax
   10f84:	01 d0                	add    %edx,%eax
   10f86:	66 89 45 ac          	mov    %ax,-0x54(%rbp)
   10f8a:	0f b7 45 ac          	movzwl -0x54(%rbp),%eax
   10f8e:	0f b7 55 a0          	movzwl -0x60(%rbp),%edx
   10f92:	66 39 c2             	cmp    %ax,%dx
   10f95:	73 0e                	jae    10fa5 <test_log32+0x2fb7>
   10f97:	66 c7 45 a8 00 00    	movw   $0x0,-0x58(%rbp)
   10f9d:	66 c7 45 ae 00 00    	movw   $0x0,-0x52(%rbp)
   10fa3:	eb 22                	jmp    10fc7 <test_log32+0x2fd9>
   10fa5:	0f b7 45 b0          	movzwl -0x50(%rbp),%eax
   10fa9:	0f b7 c0             	movzwl %ax,%eax
   10fac:	48 98                	cltq
   10fae:	48 8b 44 c5 60       	mov    0x60(%rbp,%rax,8),%rax
   10fb3:	f3 0f 10 00          	movss  (%rax),%xmm0
   10fb7:	f3 0f 10 4d bc       	movss  -0x44(%rbp),%xmm1
   10fbc:	0f 2f c1             	comiss %xmm1,%xmm0
   10fbf:	76 06                	jbe    10fc7 <test_log32+0x2fd9>
   10fc1:	66 c7 45 ae 01 00    	movw   $0x1,-0x52(%rbp)
   10fc7:	f3 0f 10 45 e0       	movss  -0x20(%rbp),%xmm0
   10fcc:	0f 2e 05 cc 07 00 00 	ucomiss 0x7cc(%rip),%xmm0        # 1179f <main+0x54b>
   10fd3:	7a 4e                	jp     11023 <test_log32+0x3035>
   10fd5:	0f 2e 05 cc 07 00 00 	ucomiss 0x7cc(%rip),%xmm0        # 117a8 <main+0x554>
   10fdc:	75 45                	jne    11023 <test_log32+0x3035>
   10fde:	f3 0f 10 45 e4       	movss  -0x1c(%rbp),%xmm0
   10fe3:	0f 2e 05 a4 07 00 00 	ucomiss 0x7a4(%rip),%xmm0        # 1178e <main+0x53a>
   10fea:	7a 37                	jp     11023 <test_log32+0x3035>
   10fec:	0f 2e 05 a4 07 00 00 	ucomiss 0x7a4(%rip),%xmm0        # 11797 <main+0x543>
   10ff3:	75 2e                	jne    11023 <test_log32+0x3035>
   10ff5:	f3 0f 10 45 e8       	movss  -0x18(%rbp),%xmm0
   10ffa:	0f 2e 05 d0 07 00 00 	ucomiss 0x7d0(%rip),%xmm0        # 117d1 <main+0x57d>
   11001:	7a 20                	jp     11023 <test_log32+0x3035>
   11003:	0f 2e 05 d0 07 00 00 	ucomiss 0x7d0(%rip),%xmm0        # 117da <main+0x586>
   1100a:	75 17                	jne    11023 <test_log32+0x3035>
   1100c:	f3 0f 10 45 ec       	movss  -0x14(%rbp),%xmm0
   11011:	0f 2e 05 d4 07 00 00 	ucomiss 0x7d4(%rip),%xmm0        # 117ec <main+0x598>
   11018:	7a 09                	jp     11023 <test_log32+0x3035>
   1101a:	0f 2e 05 d4 07 00 00 	ucomiss 0x7d4(%rip),%xmm0        # 117f5 <main+0x5a1>
   11021:	74 1f                	je     11042 <test_log32+0x3054>
   11023:	41 b8 a5 07 00 00    	mov    $0x7a5,%r8d
   11029:	48 8d 05 49 00 00 00 	lea    0x49(%rip),%rax        # 11079 <test_log32+0x308b>
   11030:	48 89 c2             	mov    %rax,%rdx
   11033:	48 8d 05 5a 00 00 00 	lea    0x5a(%rip),%rax        # 11094 <test_log32+0x30a6>
   1103a:	48 89 c1             	mov    %rax,%rcx
   1103d:	e8 01 f0 fe ff       	call   43 <printf>
   11042:	f3 0f 10 45 f0       	movss  -0x10(%rbp),%xmm0
   11047:	0f 2e 05 c8 08 00 00 	ucomiss 0x8c8(%rip),%xmm0        # 11916 <main+0x6c2>
   1104e:	7a 4e                	jp     1109e <test_log32+0x30b0>
   11050:	0f 2e 05 c8 08 00 00 	ucomiss 0x8c8(%rip),%xmm0        # 1191f <main+0x6cb>
   11057:	75 45                	jne    1109e <test_log32+0x30b0>
   11059:	f3 0f 10 45 f4       	movss  -0xc(%rbp),%xmm0
   1105e:	0f 2e 05 20 08 00 00 	ucomiss 0x820(%rip),%xmm0        # 11885 <main+0x631>
   11065:	7a 37                	jp     1109e <test_log32+0x30b0>
   11067:	0f 2e 05 20 08 00 00 	ucomiss 0x820(%rip),%xmm0        # 1188e <main+0x63a>
   1106e:	75 2e                	jne    1109e <test_log32+0x30b0>
   11070:	f3 0f 10 45 f8       	movss  -0x8(%rbp),%xmm0
   11075:	0f 2e 05 24 08 00 00 	ucomiss 0x824(%rip),%xmm0        # 118a0 <main+0x64c>
   1107c:	7a 20                	jp     1109e <test_log32+0x30b0>
   1107e:	0f 2e 05 24 08 00 00 	ucomiss 0x824(%rip),%xmm0        # 118a9 <main+0x655>
   11085:	75 17                	jne    1109e <test_log32+0x30b0>
   11087:	f3 0f 10 45 fc       	movss  -0x4(%rbp),%xmm0
   1108c:	0f 2e 05 28 08 00 00 	ucomiss 0x828(%rip),%xmm0        # 118bb <main+0x667>
   11093:	7a 09                	jp     1109e <test_log32+0x30b0>
   11095:	0f 2e 05 28 08 00 00 	ucomiss 0x828(%rip),%xmm0        # 118c4 <main+0x670>
   1109c:	74 1f                	je     110bd <test_log32+0x30cf>
   1109e:	41 b8 a7 07 00 00    	mov    $0x7a7,%r8d
   110a4:	48 8d 05 49 00 00 00 	lea    0x49(%rip),%rax        # 110f4 <test_log32+0x3106>
   110ab:	48 89 c2             	mov    %rax,%rdx
   110ae:	48 8d 05 5a 00 00 00 	lea    0x5a(%rip),%rax        # 1110f <test_log32+0x3121>
   110b5:	48 89 c1             	mov    %rax,%rcx
   110b8:	e8 86 ef fe ff       	call   43 <printf>
   110bd:	f3 0f 10 45 00       	movss  0x0(%rbp),%xmm0
   110c2:	0f 2e 05 18 09 00 00 	ucomiss 0x918(%rip),%xmm0        # 119e1 <main+0x78d>
   110c9:	7a 4e                	jp     11119 <test_log32+0x312b>
   110cb:	0f 2e 05 18 09 00 00 	ucomiss 0x918(%rip),%xmm0        # 119ea <main+0x796>
   110d2:	75 45                	jne    11119 <test_log32+0x312b>
   110d4:	f3 0f 10 45 04       	movss  0x4(%rbp),%xmm0
   110d9:	0f 2e 05 2c 08 00 00 	ucomiss 0x82c(%rip),%xmm0        # 1190c <main+0x6b8>
   110e0:	7a 37                	jp     11119 <test_log32+0x312b>
   110e2:	0f 2e 05 2c 08 00 00 	ucomiss 0x82c(%rip),%xmm0        # 11915 <main+0x6c1>
   110e9:	75 2e                	jne    11119 <test_log32+0x312b>
   110eb:	f3 0f 10 45 08       	movss  0x8(%rbp),%xmm0
   110f0:	0f 2e 05 30 08 00 00 	ucomiss 0x830(%rip),%xmm0        # 11927 <main+0x6d3>
   110f7:	7a 20                	jp     11119 <test_log32+0x312b>
   110f9:	0f 2e 05 30 08 00 00 	ucomiss 0x830(%rip),%xmm0        # 11930 <main+0x6dc>
   11100:	75 17                	jne    11119 <test_log32+0x312b>
   11102:	f3 0f 10 45 0c       	movss  0xc(%rbp),%xmm0
   11107:	0f 2e 05 3c 09 00 00 	ucomiss 0x93c(%rip),%xmm0        # 11a4a <main+0x7f6>
   1110e:	7a 09                	jp     11119 <test_log32+0x312b>
   11110:	0f 2e 05 3c 09 00 00 	ucomiss 0x93c(%rip),%xmm0        # 11a53 <main+0x7ff>
   11117:	74 1f                	je     11138 <test_log32+0x314a>
   11119:	41 b8 a9 07 00 00    	mov    $0x7a9,%r8d
   1111f:	48 8d 05 49 00 00 00 	lea    0x49(%rip),%rax        # 1116f <test_log32+0x3181>
   11126:	48 89 c2             	mov    %rax,%rdx
   11129:	48 8d 05 5a 00 00 00 	lea    0x5a(%rip),%rax        # 1118a <test_log32+0x319c>
   11130:	48 89 c1             	mov    %rax,%rcx
   11133:	e8 0b ef fe ff       	call   43 <printf>
   11138:	f3 0f 10 45 10       	movss  0x10(%rbp),%xmm0
   1113d:	0f 2e 05 1c 09 00 00 	ucomiss 0x91c(%rip),%xmm0        # 11a60 <main+0x80c>
   11144:	7a 4e                	jp     11194 <test_log32+0x31a6>
   11146:	0f 2e 05 1c 09 00 00 	ucomiss 0x91c(%rip),%xmm0        # 11a69 <main+0x815>
   1114d:	75 45                	jne    11194 <test_log32+0x31a6>
   1114f:	f3 0f 10 45 14       	movss  0x14(%rbp),%xmm0
   11154:	0f 2e 05 44 08 00 00 	ucomiss 0x844(%rip),%xmm0        # 1199f <main+0x74b>
   1115b:	7a 37                	jp     11194 <test_log32+0x31a6>
   1115d:	0f 2e 05 44 08 00 00 	ucomiss 0x844(%rip),%xmm0        # 119a8 <main+0x754>
   11164:	75 2e                	jne    11194 <test_log32+0x31a6>
   11166:	f3 0f 10 45 18       	movss  0x18(%rbp),%xmm0
   1116b:	0f 2e 05 2c 09 00 00 	ucomiss 0x92c(%rip),%xmm0        # 11a9e <main+0x84a>
   11172:	7a 20                	jp     11194 <test_log32+0x31a6>
   11174:	0f 2e 05 2c 09 00 00 	ucomiss 0x92c(%rip),%xmm0        # 11aa7 <main+0x853>
   1117b:	75 17                	jne    11194 <test_log32+0x31a6>
   1117d:	f3 0f 10 45 1c       	movss  0x1c(%rbp),%xmm0
   11182:	0f 2e 05 40 09 00 00 	ucomiss 0x940(%rip),%xmm0        # 11ac9 <main+0x875>
   11189:	7a 09                	jp     11194 <test_log32+0x31a6>
   1118b:	0f 2e 05 40 09 00 00 	ucomiss 0x940(%rip),%xmm0        # 11ad2 <main+0x87e>
   11192:	74 1f                	je     111b3 <test_log32+0x31c5>
   11194:	41 b8 ab 07 00 00    	mov    $0x7ab,%r8d
   1119a:	48 8d 05 49 00 00 00 	lea    0x49(%rip),%rax        # 111ea <test_log32+0x31fc>
   111a1:	48 89 c2             	mov    %rax,%rdx
   111a4:	48 8d 05 5a 00 00 00 	lea    0x5a(%rip),%rax        # 11205 <test_log32+0x3217>
   111ab:	48 89 c1             	mov    %rax,%rcx
   111ae:	e8 90 ee fe ff       	call   43 <printf>
   111b3:	0f b7 45 ac          	movzwl -0x54(%rbp),%eax
   111b7:	66 83 f8 03          	cmp    $0x3,%ax
   111bb:	74 1f                	je     111dc <test_log32+0x31ee>
   111bd:	41 b8 ad 07 00 00    	mov    $0x7ad,%r8d
   111c3:	48 8d 05 49 00 00 00 	lea    0x49(%rip),%rax        # 11213 <test_log32+0x3225>
   111ca:	48 89 c2             	mov    %rax,%rdx
   111cd:	48 8d 05 5a 00 00 00 	lea    0x5a(%rip),%rax        # 1122e <test_log32+0x3240>
   111d4:	48 89 c1             	mov    %rax,%rcx
   111d7:	e8 67 ee fe ff       	call   43 <printf>
   111dc:	0f b7 45 a8          	movzwl -0x58(%rbp),%eax
   111e0:	66 85 c0             	test   %ax,%ax
   111e3:	74 1f                	je     11204 <test_log32+0x3216>
   111e5:	41 b8 ae 07 00 00    	mov    $0x7ae,%r8d
   111eb:	48 8d 05 49 00 00 00 	lea    0x49(%rip),%rax        # 1123b <test_assert_print+0x5>
   111f2:	48 89 c2             	mov    %rax,%rdx
   111f5:	48 8d 05 5a 00 00 00 	lea    0x5a(%rip),%rax        # 11256 <main+0x2>
   111fc:	48 89 c1             	mov    %rax,%rcx
   111ff:	e8 3f ee fe ff       	call   43 <printf>
   11204:	0f b7 45 ae          	movzwl -0x52(%rbp),%eax
   11208:	66 85 c0             	test   %ax,%ax
   1120b:	74 1f                	je     1122c <test_log32+0x323e>
   1120d:	41 b8 af 07 00 00    	mov    $0x7af,%r8d
   11213:	48 8d 05 49 00 00 00 	lea    0x49(%rip),%rax        # 11263 <main+0xf>
   1121a:	48 89 c2             	mov    %rax,%rdx
   1121d:	48 8d 05 5a 00 00 00 	lea    0x5a(%rip),%rax        # 1127e <main+0x2a>
   11224:	48 89 c1             	mov    %rax,%rcx
   11227:	e8 17 ee fe ff       	call   43 <printf>
   1122c:	90                   	nop
   1122d:	48 81 c4 90 01 00 00 	add    $0x190,%rsp
   11234:	5d                   	pop    %rbp
   11235:	c3                   	ret

0000000000011236 <test_assert_print>:
   11236:	55                   	push   %rbp
   11237:	48 89 e5             	mov    %rsp,%rbp
   1123a:	48 83 ec 20          	sub    $0x20,%rsp
   1123e:	48 8d 05 78 07 00 00 	lea    0x778(%rip),%rax        # 119bd <main+0x769>
   11245:	48 89 c1             	mov    %rax,%rcx
   11248:	e8 f6 ed fe ff       	call   43 <printf>
   1124d:	90                   	nop
   1124e:	48 83 c4 20          	add    $0x20,%rsp
   11252:	5d                   	pop    %rbp
   11253:	c3                   	ret

0000000000011254 <main>:
   11254:	55                   	push   %rbp
   11255:	48 89 e5             	mov    %rsp,%rbp
   11258:	48 83 ec 20          	sub    $0x20,%rsp
   1125c:	e8 00 00 00 00       	call   11261 <main+0xd>
   11261:	e8 31 ee fe ff       	call   97 <test_assert_true>
   11266:	e8 4a ee fe ff       	call   b5 <test_stopwatch>
   1126b:	e8 ee ef fe ff       	call   25e <test_call_i16_func>
   11270:	e8 b6 f0 fe ff       	call   32b <test_i16_to_string>
   11275:	e8 74 f1 fe ff       	call   3ee <test_u16_to_base16>
   1127a:	e8 0b f4 fe ff       	call   68a <test_u32_to_base16>
   1127f:	e8 74 f5 fe ff       	call   7f8 <test_u64_to_base16>
   11284:	e8 fd f7 fe ff       	call   a86 <test_u16_to_base64>
   11289:	e8 66 f9 fe ff       	call   bf4 <test_u32_to_base64>
   1128e:	e8 cf fa fe ff       	call   d62 <test_u64_to_base64>
   11293:	e8 d6 fb fe ff       	call   e6e <test_map>
   11298:	e8 bf fd fe ff       	call   105c <test_map_idx>
   1129d:	e8 d4 03 ff ff       	call   1676 <test_array_set>
   112a2:	e8 a0 08 ff ff       	call   1b47 <test_array_apply>
   112a7:	e8 89 0b ff ff       	call   1e35 <test_array_linlogspace>
   112ac:	e8 ac fe fe ff       	call   115d <test_interpolate_2d>
   112b1:	e8 37 0f ff ff       	call   21ed <test_hysteresis_value>
   112b6:	e8 16 16 ff ff       	call   28d1 <test_hysteresis_list>
   112bb:	e8 02 1a ff ff       	call   2cc2 <test_debounce>
   112c0:	e8 ac 24 ff ff       	call   3771 <test_robust>
   112c5:	e8 1c 38 ff ff       	call   4ae6 <test_backlash>
   112ca:	e8 69 3f ff ff       	call   5238 <test_edge_delay>
   112cf:	e8 11 49 ff ff       	call   5be5 <test_monoflop>
   112d4:	e8 a3 59 ff ff       	call   6c7c <test_pulse>
   112d9:	e8 e6 5e ff ff       	call   71c4 <test_status>
   112de:	e8 a8 60 ff ff       	call   738b <test_mean>
   112e3:	e8 5b 62 ff ff       	call   7543 <test_queue>
   112e8:	e8 2d 69 ff ff       	call   7c1a <test_ain>
   112ed:	e8 52 6b ff ff       	call   7e44 <test_ain_calibrate>
   112f2:	e8 9b 6c ff ff       	call   7f92 <test_minmax>
   112f7:	e8 33 6e ff ff       	call   812f <test_expavg>
   112fc:	e8 38 71 ff ff       	call   8439 <test_df2x>
   11301:	e8 98 78 ff ff       	call   8b9e <test_med3>
   11306:	e8 28 7a ff ff       	call   8d33 <test_rollsum>
   1130b:	e8 f9 7d ff ff       	call   9109 <test_rollavg>
   11310:	e8 d7 7f ff ff       	call   92ec <test_rollrms>
   11315:	e8 a2 80 ff ff       	call   93bc <test_delay>
   1131a:	e8 8e 84 ff ff       	call   97ad <test_setp>
   1131f:	e8 4e 99 ff ff       	call   ac72 <test_setp_smooth>
   11324:	e8 0b aa ff ff       	call   bd34 <test_pi>
   11329:	e8 3f b9 ff ff       	call   cc6d <test_bit_read_write>
   1132e:	e8 98 bd ff ff       	call   d0cb <test_signal_read_write>
   11333:	e8 38 c0 ff ff       	call   d370 <test_fault>
   11338:	e8 39 cc ff ff       	call   df76 <test_fixmath>
   1133d:	e8 ac cc ff ff       	call   dfee <test_log32>
   11342:	e8 ef fe ff ff       	call   11236 <test_assert_print>
   11347:	b8 00 00 00 00       	mov    $0x0,%eax
   1134c:	48 83 c4 20          	add    $0x20,%rsp
   11350:	5d                   	pop    %rbp
   11351:	c3                   	ret
   11352:	90                   	nop
   11353:	90                   	nop
   11354:	90                   	nop
   11355:	90                   	nop
   11356:	90                   	nop
   11357:	90                   	nop
   11358:	90                   	nop
   11359:	90                   	nop
   1135a:	90                   	nop
   1135b:	90                   	nop
   1135c:	90                   	nop
   1135d:	90                   	nop
   1135e:	90                   	nop
   1135f:	90                   	nop
