	.file	"pdsp_test.c"
 # GNU C17 (Rev7, Built by MSYS2 project) version 13.1.0 (x86_64-w64-mingw32)
 #	compiled by GNU C version 13.1.0, GMP version 6.2.1, MPFR version 4.2.0-p9, MPC version 1.3.1, isl version isl-0.26-GMP

 # GGC heuristics: --param ggc-min-expand=100 --param ggc-min-heapsize=131072
 # options passed: -mtune=generic -march=nocona -O0
	.text
	.def	fprintf;	.scl	3;	.type	32;	.endef
	.seh_proc	fprintf
fprintf:
	pushq	%rbp	 #
	.seh_pushreg	%rbp
	movq	%rsp, %rbp	 #,
	.seh_setframe	%rbp, 0
	subq	$48, %rsp	 #,
	.seh_stackalloc	48
	.seh_endprologue
	movq	%rcx, 16(%rbp)	 # __stream, __stream
	movq	%rdx, 24(%rbp)	 # __format, __format
	movq	%r8, 32(%rbp)	 #,
	movq	%r9, 40(%rbp)	 #,
 # C:/msys64/mingw64/include/stdio.h:363:   __builtin_va_list __local_argv; __builtin_va_start( __local_argv, __format );
	leaq	32(%rbp), %rax	 #, tmp85
	movq	%rax, -16(%rbp)	 # tmp85, MEM[(char * *)&__local_argv]
 # C:/msys64/mingw64/include/stdio.h:364:   __retval = __mingw_vfprintf( __stream, __format, __local_argv );
	movq	-16(%rbp), %rcx	 # __local_argv, __local_argv.63_1
	movq	24(%rbp), %rdx	 # __format, tmp86
	movq	16(%rbp), %rax	 # __stream, tmp87
	movq	%rcx, %r8	 # __local_argv.63_1,
	movq	%rax, %rcx	 # tmp87,
	call	__mingw_vfprintf	 #
	movl	%eax, -4(%rbp)	 # tmp88, __retval
 # C:/msys64/mingw64/include/stdio.h:366:   return __retval;
	movl	-4(%rbp), %eax	 # __retval, _9
 # C:/msys64/mingw64/include/stdio.h:367: }
	addq	$48, %rsp	 #,
	popq	%rbp	 #
	ret	
	.seh_endproc
	.def	printf;	.scl	3;	.type	32;	.endef
	.seh_proc	printf
printf:
	pushq	%rbp	 #
	.seh_pushreg	%rbp
	pushq	%rbx	 #
	.seh_pushreg	%rbx
	subq	$56, %rsp	 #,
	.seh_stackalloc	56
	leaq	48(%rsp), %rbp	 #,
	.seh_setframe	%rbp, 48
	.seh_endprologue
	movq	%rcx, 32(%rbp)	 # __format, __format
	movq	%rdx, 40(%rbp)	 #,
	movq	%r8, 48(%rbp)	 #,
	movq	%r9, 56(%rbp)	 #,
 # C:/msys64/mingw64/include/stdio.h:374:   __builtin_va_list __local_argv; __builtin_va_start( __local_argv, __format );
	leaq	40(%rbp), %rax	 #, tmp86
	movq	%rax, -16(%rbp)	 # tmp86, MEM[(char * *)&__local_argv]
 # C:/msys64/mingw64/include/stdio.h:375:   __retval = __mingw_vfprintf( stdout, __format, __local_argv );
	movq	-16(%rbp), %rbx	 # __local_argv, __local_argv.0_1
	movl	$1, %ecx	 #,
	movq	__imp___acrt_iob_func(%rip), %rax	 #, tmp87
	call	*%rax	 # tmp87
	movq	%rax, %rcx	 #, _2
 # C:/msys64/mingw64/include/stdio.h:375:   __retval = __mingw_vfprintf( stdout, __format, __local_argv );
	movq	32(%rbp), %rax	 # __format, tmp88
	movq	%rbx, %r8	 # __local_argv.0_1,
	movq	%rax, %rdx	 # tmp88,
	call	__mingw_vfprintf	 #
	movl	%eax, -4(%rbp)	 # tmp89, __retval
 # C:/msys64/mingw64/include/stdio.h:377:   return __retval;
	movl	-4(%rbp), %eax	 # __retval, _10
 # C:/msys64/mingw64/include/stdio.h:378: }
	addq	$56, %rsp	 #,
	popq	%rbx	 #
	popq	%rbp	 #
	ret	
	.seh_endproc
	.section .rdata,"dr"
	.align 8
.LC0:
	.ascii "-- void test_assert_true(void) --\12\0"
	.text
	.globl	test_assert_true
	.def	test_assert_true;	.scl	2;	.type	32;	.endef
	.seh_proc	test_assert_true
test_assert_true:
	pushq	%rbp	 #
	.seh_pushreg	%rbp
	movq	%rsp, %rbp	 #,
	.seh_setframe	%rbp, 0
	subq	$32, %rsp	 #,
	.seh_stackalloc	32
	.seh_endprologue
 # ./test/pdsp_test.c:50:     printf("-- void test_assert_true(void) --\n");
	leaq	.LC0(%rip), %rax	 #, tmp82
	movq	%rax, %rcx	 # tmp82,
	call	printf	 #
 # ./test/pdsp_test.c:53: }
	nop	
	addq	$32, %rsp	 #,
	popq	%rbp	 #
	ret	
	.seh_endproc
	.section .rdata,"dr"
	.align 8
.LC1:
	.ascii "-- void test_stopwatch(void) --\12\0"
.LC2:
	.ascii "./test/pdsp_test.c\0"
.LC3:
	.ascii "Assert failed: %s:%i\12\0"
	.text
	.globl	test_stopwatch
	.def	test_stopwatch;	.scl	2;	.type	32;	.endef
	.seh_proc	test_stopwatch
test_stopwatch:
	pushq	%rbp	 #
	.seh_pushreg	%rbp
	movq	%rsp, %rbp	 #,
	.seh_setframe	%rbp, 0
	subq	$80, %rsp	 #,
	.seh_stackalloc	80
	.seh_endprologue
 # ./test/pdsp_test.c:57:     printf("-- void test_stopwatch(void) --\n");
	leaq	.LC1(%rip), %rax	 #, tmp94
	movq	%rax, %rcx	 # tmp94,
	call	printf	 #
 # ./test/pdsp_test.c:58:     pdsp_stopwatch_var_t watch_var = {0};
	movl	$0, -8(%rbp)	 #, watch_var.u32_time_mem
 # ./test/pdsp_test.c:59:     pdsp_stopwatch_t watch = {.ps_var = &watch_var, .u32_hw_max = 1000};
	leaq	-8(%rbp), %rax	 #, tmp95
	movq	%rax, -32(%rbp)	 # tmp95, watch.ps_var
	movl	$1000, -24(%rbp)	 #, watch.u32_hw_max
 # ./test/pdsp_test.c:61:     pdsp_stopwatch_start(&watch, 0U);
	leaq	-32(%rbp), %rax	 #, tmp96
	movl	$0, %edx	 #,
	movq	%rax, %rcx	 # tmp96,
	call	pdsp_stopwatch_start	 #
 # ./test/pdsp_test.c:62:     out = pdsp_stopwatch_stop(&watch, 555U);
	leaq	-32(%rbp), %rax	 #, tmp97
	movl	$555, %edx	 #,
	movq	%rax, %rcx	 # tmp97,
	call	pdsp_stopwatch_stop	 #
	movl	%eax, -4(%rbp)	 # tmp98, out
 # ./test/pdsp_test.c:63:     PDSP_ASSERT(out == 555);
	cmpl	$555, -4(%rbp)	 #, out
	je	.L7	 #,
 # ./test/pdsp_test.c:63:     PDSP_ASSERT(out == 555);
	movl	$63, %r8d	 #,
	leaq	.LC2(%rip), %rax	 #, tmp99
	movq	%rax, %rdx	 # tmp99,
	leaq	.LC3(%rip), %rax	 #, tmp100
	movq	%rax, %rcx	 # tmp100,
	call	printf	 #
.L7:
 # ./test/pdsp_test.c:64:     pdsp_stopwatch_start(&watch, 889);
	leaq	-32(%rbp), %rax	 #, tmp101
	movl	$889, %edx	 #,
	movq	%rax, %rcx	 # tmp101,
	call	pdsp_stopwatch_start	 #
 # ./test/pdsp_test.c:65:     out = pdsp_stopwatch_stop(&watch, 444U);
	leaq	-32(%rbp), %rax	 #, tmp102
	movl	$444, %edx	 #,
	movq	%rax, %rcx	 # tmp102,
	call	pdsp_stopwatch_stop	 #
	movl	%eax, -4(%rbp)	 # tmp103, out
 # ./test/pdsp_test.c:66:     PDSP_ASSERT(out == 555);
	cmpl	$555, -4(%rbp)	 #, out
	je	.L8	 #,
 # ./test/pdsp_test.c:66:     PDSP_ASSERT(out == 555);
	movl	$66, %r8d	 #,
	leaq	.LC2(%rip), %rax	 #, tmp104
	movq	%rax, %rdx	 # tmp104,
	leaq	.LC3(%rip), %rax	 #, tmp105
	movq	%rax, %rcx	 # tmp105,
	call	printf	 #
.L8:
 # ./test/pdsp_test.c:68:     pdsp_macro_stopwatch_t mwatch = {.u32_time_mem = 0, .u32_hw_max = 1000};
	movl	$0, -40(%rbp)	 #, mwatch.u32_time_mem
	movl	$1000, -36(%rbp)	 #, mwatch.u32_hw_max
 # ./test/pdsp_test.c:69:     pdsp_macro_stopwatch_start(mwatch, 0U);
	movl	$0, -40(%rbp)	 #, mwatch.u32_time_mem
 # ./test/pdsp_test.c:70:     out = pdsp_macro_stopwatch_stop(mwatch, 555U);
	movl	-40(%rbp), %eax	 # mwatch.u32_time_mem, _1
	cmpl	$554, %eax	 #, _1
	ja	.L9	 #,
 # ./test/pdsp_test.c:70:     out = pdsp_macro_stopwatch_stop(mwatch, 555U);
	movl	-40(%rbp), %edx	 # mwatch.u32_time_mem, _2
	movl	$555, %eax	 #, tmp106
	subl	%edx, %eax	 # _2, iftmp.1_11
	jmp	.L10	 #
.L9:
 # ./test/pdsp_test.c:70:     out = pdsp_macro_stopwatch_stop(mwatch, 555U);
	movl	-36(%rbp), %edx	 # mwatch.u32_hw_max, _3
	movl	-40(%rbp), %eax	 # mwatch.u32_time_mem, _4
	subl	%eax, %edx	 # _4, _5
	leal	555(%rdx), %eax	 #, iftmp.1_11
.L10:
 # ./test/pdsp_test.c:70:     out = pdsp_macro_stopwatch_stop(mwatch, 555U);
	movl	%eax, -4(%rbp)	 # iftmp.1_11, out
 # ./test/pdsp_test.c:71:     PDSP_ASSERT(out == 555);
	cmpl	$555, -4(%rbp)	 #, out
	je	.L11	 #,
 # ./test/pdsp_test.c:71:     PDSP_ASSERT(out == 555);
	movl	$71, %r8d	 #,
	leaq	.LC2(%rip), %rax	 #, tmp107
	movq	%rax, %rdx	 # tmp107,
	leaq	.LC3(%rip), %rax	 #, tmp108
	movq	%rax, %rcx	 # tmp108,
	call	printf	 #
.L11:
 # ./test/pdsp_test.c:72:     pdsp_macro_stopwatch_start(mwatch, 889);
	movl	$889, -40(%rbp)	 #, mwatch.u32_time_mem
 # ./test/pdsp_test.c:73:     out = pdsp_macro_stopwatch_stop(mwatch, 444U);
	movl	-40(%rbp), %eax	 # mwatch.u32_time_mem, _6
	cmpl	$443, %eax	 #, _6
	ja	.L12	 #,
 # ./test/pdsp_test.c:73:     out = pdsp_macro_stopwatch_stop(mwatch, 444U);
	movl	-40(%rbp), %edx	 # mwatch.u32_time_mem, _7
	movl	$444, %eax	 #, tmp109
	subl	%edx, %eax	 # _7, iftmp.2_12
	jmp	.L13	 #
.L12:
 # ./test/pdsp_test.c:73:     out = pdsp_macro_stopwatch_stop(mwatch, 444U);
	movl	-36(%rbp), %edx	 # mwatch.u32_hw_max, _8
	movl	-40(%rbp), %eax	 # mwatch.u32_time_mem, _9
	subl	%eax, %edx	 # _9, _10
	leal	444(%rdx), %eax	 #, iftmp.2_12
.L13:
 # ./test/pdsp_test.c:73:     out = pdsp_macro_stopwatch_stop(mwatch, 444U);
	movl	%eax, -4(%rbp)	 # iftmp.2_12, out
 # ./test/pdsp_test.c:74:     PDSP_ASSERT(out == 555);
	cmpl	$555, -4(%rbp)	 #, out
	je	.L15	 #,
 # ./test/pdsp_test.c:74:     PDSP_ASSERT(out == 555);
	movl	$74, %r8d	 #,
	leaq	.LC2(%rip), %rax	 #, tmp110
	movq	%rax, %rdx	 # tmp110,
	leaq	.LC3(%rip), %rax	 #, tmp111
	movq	%rax, %rcx	 # tmp111,
	call	printf	 #
.L15:
 # ./test/pdsp_test.c:75: }
	nop	
	addq	$80, %rsp	 #,
	popq	%rbp	 #
	ret	
	.seh_endproc
	.globl	func_nop
	.def	func_nop;	.scl	2;	.type	32;	.endef
	.seh_proc	func_nop
func_nop:
	pushq	%rbp	 #
	.seh_pushreg	%rbp
	movq	%rsp, %rbp	 #,
	.seh_setframe	%rbp, 0
	.seh_endprologue
 # ./test/pdsp_test.c:84: pdsp_i16_t func_nop(void) { return 0; }
	movl	$0, %eax	 #, _1
 # ./test/pdsp_test.c:84: pdsp_i16_t func_nop(void) { return 0; }
	popq	%rbp	 #
	ret	
	.seh_endproc
	.globl	func_start_converter
	.def	func_start_converter;	.scl	2;	.type	32;	.endef
	.seh_proc	func_start_converter
func_start_converter:
	pushq	%rbp	 #
	.seh_pushreg	%rbp
	movq	%rsp, %rbp	 #,
	.seh_setframe	%rbp, 0
	.seh_endprologue
 # ./test/pdsp_test.c:85: pdsp_i16_t func_start_converter(void) { return 1; }
	movl	$1, %eax	 #, _1
 # ./test/pdsp_test.c:85: pdsp_i16_t func_start_converter(void) { return 1; }
	popq	%rbp	 #
	ret	
	.seh_endproc
	.globl	func_stop_converter
	.def	func_stop_converter;	.scl	2;	.type	32;	.endef
	.seh_proc	func_stop_converter
func_stop_converter:
	pushq	%rbp	 #
	.seh_pushreg	%rbp
	movq	%rsp, %rbp	 #,
	.seh_setframe	%rbp, 0
	.seh_endprologue
 # ./test/pdsp_test.c:86: pdsp_i16_t func_stop_converter(void) { return 2; }
	movl	$2, %eax	 #, _1
 # ./test/pdsp_test.c:86: pdsp_i16_t func_stop_converter(void) { return 2; }
	popq	%rbp	 #
	ret	
	.seh_endproc
	.section .rdata,"dr"
	.align 8
.LC4:
	.ascii "-- void test_call_i16_func(void) --\12\0"
	.text
	.globl	test_call_i16_func
	.def	test_call_i16_func;	.scl	2;	.type	32;	.endef
	.seh_proc	test_call_i16_func
test_call_i16_func:
	pushq	%rbp	 #
	.seh_pushreg	%rbp
	movq	%rsp, %rbp	 #,
	.seh_setframe	%rbp, 0
	subq	$80, %rsp	 #,
	.seh_stackalloc	80
	.seh_endprologue
 # ./test/pdsp_test.c:90:     printf("-- void test_call_i16_func(void) --\n");
	leaq	.LC4(%rip), %rax	 #, tmp84
	movq	%rax, %rcx	 # tmp84,
	call	printf	 #
 # ./test/pdsp_test.c:91:     const pdsp_pi16_func_t flist[FUNC_SIZE] = {func_nop, func_start_converter,
	leaq	func_nop(%rip), %rax	 #, tmp85
	movq	%rax, -32(%rbp)	 # tmp85, flist[0]
	leaq	func_start_converter(%rip), %rax	 #, tmp86
	movq	%rax, -24(%rbp)	 # tmp86, flist[1]
	leaq	func_stop_converter(%rip), %rax	 #, tmp87
	movq	%rax, -16(%rbp)	 # tmp87, flist[2]
 # ./test/pdsp_test.c:94:     pdsp_call_i16_func(flist, FUNC_SIZE, FUNC_START, &ret);
	leaq	-34(%rbp), %rdx	 #, tmp88
	leaq	-32(%rbp), %rax	 #, tmp89
	movq	%rdx, %r9	 # tmp88,
	movl	$1, %r8d	 #,
	movl	$3, %edx	 #,
	movq	%rax, %rcx	 # tmp89,
	call	pdsp_call_i16_func	 #
 # ./test/pdsp_test.c:95:     PDSP_ASSERT(ret == 1);
	movzwl	-34(%rbp), %eax	 # ret, ret.3_1
	cmpw	$1, %ax	 #, ret.3_1
	je	.L23	 #,
 # ./test/pdsp_test.c:95:     PDSP_ASSERT(ret == 1);
	movl	$95, %r8d	 #,
	leaq	.LC2(%rip), %rax	 #, tmp90
	movq	%rax, %rdx	 # tmp90,
	leaq	.LC3(%rip), %rax	 #, tmp91
	movq	%rax, %rcx	 # tmp91,
	call	printf	 #
.L23:
 # ./test/pdsp_test.c:96:     pdsp_call_i16_func(flist, FUNC_SIZE, FUNC_STOP, &ret);
	leaq	-34(%rbp), %rdx	 #, tmp92
	leaq	-32(%rbp), %rax	 #, tmp93
	movq	%rdx, %r9	 # tmp92,
	movl	$2, %r8d	 #,
	movl	$3, %edx	 #,
	movq	%rax, %rcx	 # tmp93,
	call	pdsp_call_i16_func	 #
 # ./test/pdsp_test.c:97:     PDSP_ASSERT(ret == 2);
	movzwl	-34(%rbp), %eax	 # ret, ret.4_2
	cmpw	$2, %ax	 #, ret.4_2
	je	.L25	 #,
 # ./test/pdsp_test.c:97:     PDSP_ASSERT(ret == 2);
	movl	$97, %r8d	 #,
	leaq	.LC2(%rip), %rax	 #, tmp94
	movq	%rax, %rdx	 # tmp94,
	leaq	.LC3(%rip), %rax	 #, tmp95
	movq	%rax, %rcx	 # tmp95,
	call	printf	 #
.L25:
 # ./test/pdsp_test.c:98: }
	nop	
	addq	$80, %rsp	 #,
	popq	%rbp	 #
	ret	
	.seh_endproc
	.section .rdata,"dr"
	.align 8
.LC5:
	.ascii "-- void test_i16_to_string(void) --\12\0"
.LC6:
	.ascii ":  6666, -1111:\0"
	.text
	.globl	test_i16_to_string
	.def	test_i16_to_string;	.scl	2;	.type	32;	.endef
	.seh_proc	test_i16_to_string
test_i16_to_string:
	pushq	%rbp	 #
	.seh_pushreg	%rbp
	movq	%rsp, %rbp	 #,
	.seh_setframe	%rbp, 0
	subq	$64, %rsp	 #,
	.seh_stackalloc	64
	.seh_endprologue
 # ./test/pdsp_test.c:102:     printf("-- void test_i16_to_string(void) --\n");
	leaq	.LC5(%rip), %rax	 #, tmp86
	movq	%rax, %rcx	 # tmp86,
	call	printf	 #
 # ./test/pdsp_test.c:103:     pdsp_char_t out[16] = {0};
	movq	$0, -32(%rbp)	 #, out
	movq	$0, -24(%rbp)	 #, out
 # ./test/pdsp_test.c:104:     pdsp_char_t *pos = &out[0];
	leaq	-32(%rbp), %rax	 #, tmp87
	movq	%rax, -8(%rbp)	 # tmp87, pos
 # ./test/pdsp_test.c:105:     *pos++ = ':';
	movq	-8(%rbp), %rax	 # pos, pos.5_1
	leaq	1(%rax), %rdx	 #, tmp88
	movq	%rdx, -8(%rbp)	 # tmp88, pos
 # ./test/pdsp_test.c:105:     *pos++ = ':';
	movb	$58, (%rax)	 #, *pos.5_1
 # ./test/pdsp_test.c:106:     pos = pdsp_i16_to_string(6666, pos);
	movq	-8(%rbp), %rax	 # pos, tmp89
	movq	%rax, %rdx	 # tmp89,
	movl	$6666, %ecx	 #,
	call	pdsp_i16_to_string	 #
	movq	%rax, -8(%rbp)	 # tmp90, pos
 # ./test/pdsp_test.c:107:     *pos++ = ',';
	movq	-8(%rbp), %rax	 # pos, pos.6_2
	leaq	1(%rax), %rdx	 #, tmp91
	movq	%rdx, -8(%rbp)	 # tmp91, pos
 # ./test/pdsp_test.c:107:     *pos++ = ',';
	movb	$44, (%rax)	 #, *pos.6_2
 # ./test/pdsp_test.c:108:     pos = pdsp_i16_to_string(-1111, pos);
	movq	-8(%rbp), %rax	 # pos, tmp92
	movq	%rax, %rdx	 # tmp92,
	movl	$-1111, %ecx	 #,
	call	pdsp_i16_to_string	 #
	movq	%rax, -8(%rbp)	 # tmp93, pos
 # ./test/pdsp_test.c:109:     *pos++ = ':';
	movq	-8(%rbp), %rax	 # pos, pos.7_3
	leaq	1(%rax), %rdx	 #, tmp94
	movq	%rdx, -8(%rbp)	 # tmp94, pos
 # ./test/pdsp_test.c:109:     *pos++ = ':';
	movb	$58, (%rax)	 #, *pos.7_3
 # ./test/pdsp_test.c:110:     PDSP_ASSERT(strcmp(out, ":  6666, -1111:") == 0);
	leaq	-32(%rbp), %rax	 #, tmp95
	leaq	.LC6(%rip), %rdx	 #, tmp96
	movq	%rax, %rcx	 # tmp95,
	call	strcmp	 #
 # ./test/pdsp_test.c:110:     PDSP_ASSERT(strcmp(out, ":  6666, -1111:") == 0);
	testl	%eax, %eax	 # _4
	je	.L28	 #,
	movl	$110, %r8d	 #,
	leaq	.LC2(%rip), %rax	 #, tmp97
	movq	%rax, %rdx	 # tmp97,
	leaq	.LC3(%rip), %rax	 #, tmp98
	movq	%rax, %rcx	 # tmp98,
	call	printf	 #
.L28:
 # ./test/pdsp_test.c:111: }
	nop	
	addq	$64, %rsp	 #,
	popq	%rbp	 #
	ret	
	.seh_endproc
	.section .rdata,"dr"
	.align 8
.LC7:
	.ascii "-- void test_u16_to_base16(void) --\12\0"
.LC8:
	.ascii ":1337,B00B,B,BB,B0B:\0"
.LC9:
	.ascii ":1337,B00B,000B,00BB,0B0B:\0"
	.text
	.globl	test_u16_to_base16
	.def	test_u16_to_base16;	.scl	2;	.type	32;	.endef
	.seh_proc	test_u16_to_base16
test_u16_to_base16:
	pushq	%rbp	 #
	.seh_pushreg	%rbp
	movq	%rsp, %rbp	 #,
	.seh_setframe	%rbp, 0
	subq	$112, %rsp	 #,
	.seh_stackalloc	112
	.seh_endprologue
 # ./test/pdsp_test.c:115:     printf("-- void test_u16_to_base16(void) --\n");
	leaq	.LC7(%rip), %rax	 #, tmp98
	movq	%rax, %rcx	 # tmp98,
	call	printf	 #
 # ./test/pdsp_test.c:116:     pdsp_char_t out[64] = {0};
	movq	$0, -80(%rbp)	 #, out
	movq	$0, -72(%rbp)	 #, out
	movq	$0, -64(%rbp)	 #, out
	movq	$0, -56(%rbp)	 #, out
	movq	$0, -48(%rbp)	 #, out
	movq	$0, -40(%rbp)	 #, out
	movq	$0, -32(%rbp)	 #, out
	movq	$0, -24(%rbp)	 #, out
 # ./test/pdsp_test.c:117:     pdsp_char_t *pos = &out[0];
	leaq	-80(%rbp), %rax	 #, tmp99
	movq	%rax, -8(%rbp)	 # tmp99, pos
 # ./test/pdsp_test.c:118:     *pos++ = ':';
	movq	-8(%rbp), %rax	 # pos, pos.8_1
	leaq	1(%rax), %rdx	 #, tmp100
	movq	%rdx, -8(%rbp)	 # tmp100, pos
 # ./test/pdsp_test.c:118:     *pos++ = ':';
	movb	$58, (%rax)	 #, *pos.8_1
 # ./test/pdsp_test.c:119:     pos = pdsp_u16_to_base16_alt(0x1337, pos, PDSP_FALSE);
	movq	-8(%rbp), %rax	 # pos, tmp101
	movl	$0, %r8d	 #,
	movq	%rax, %rdx	 # tmp101,
	movl	$4919, %ecx	 #,
	call	pdsp_u16_to_base16_alt	 #
	movq	%rax, -8(%rbp)	 # tmp102, pos
 # ./test/pdsp_test.c:120:     *pos++ = ',';
	movq	-8(%rbp), %rax	 # pos, pos.9_2
	leaq	1(%rax), %rdx	 #, tmp103
	movq	%rdx, -8(%rbp)	 # tmp103, pos
 # ./test/pdsp_test.c:120:     *pos++ = ',';
	movb	$44, (%rax)	 #, *pos.9_2
 # ./test/pdsp_test.c:121:     pos = pdsp_u16_to_base16_alt(0xB00B, pos, PDSP_FALSE);
	movq	-8(%rbp), %rax	 # pos, tmp104
	movl	$0, %r8d	 #,
	movq	%rax, %rdx	 # tmp104,
	movl	$45067, %ecx	 #,
	call	pdsp_u16_to_base16_alt	 #
	movq	%rax, -8(%rbp)	 # tmp105, pos
 # ./test/pdsp_test.c:122:     *pos++ = ',';
	movq	-8(%rbp), %rax	 # pos, pos.10_3
	leaq	1(%rax), %rdx	 #, tmp106
	movq	%rdx, -8(%rbp)	 # tmp106, pos
 # ./test/pdsp_test.c:122:     *pos++ = ',';
	movb	$44, (%rax)	 #, *pos.10_3
 # ./test/pdsp_test.c:123:     pos = pdsp_u16_to_base16_alt(0xB, pos, PDSP_FALSE);
	movq	-8(%rbp), %rax	 # pos, tmp107
	movl	$0, %r8d	 #,
	movq	%rax, %rdx	 # tmp107,
	movl	$11, %ecx	 #,
	call	pdsp_u16_to_base16_alt	 #
	movq	%rax, -8(%rbp)	 # tmp108, pos
 # ./test/pdsp_test.c:124:     *pos++ = ',';
	movq	-8(%rbp), %rax	 # pos, pos.11_4
	leaq	1(%rax), %rdx	 #, tmp109
	movq	%rdx, -8(%rbp)	 # tmp109, pos
 # ./test/pdsp_test.c:124:     *pos++ = ',';
	movb	$44, (%rax)	 #, *pos.11_4
 # ./test/pdsp_test.c:125:     pos = pdsp_u16_to_base16_alt(0xBB, pos, PDSP_FALSE);
	movq	-8(%rbp), %rax	 # pos, tmp110
	movl	$0, %r8d	 #,
	movq	%rax, %rdx	 # tmp110,
	movl	$187, %ecx	 #,
	call	pdsp_u16_to_base16_alt	 #
	movq	%rax, -8(%rbp)	 # tmp111, pos
 # ./test/pdsp_test.c:126:     *pos++ = ',';
	movq	-8(%rbp), %rax	 # pos, pos.12_5
	leaq	1(%rax), %rdx	 #, tmp112
	movq	%rdx, -8(%rbp)	 # tmp112, pos
 # ./test/pdsp_test.c:126:     *pos++ = ',';
	movb	$44, (%rax)	 #, *pos.12_5
 # ./test/pdsp_test.c:127:     pos = pdsp_u16_to_base16_alt(0xB0B, pos, PDSP_FALSE);
	movq	-8(%rbp), %rax	 # pos, tmp113
	movl	$0, %r8d	 #,
	movq	%rax, %rdx	 # tmp113,
	movl	$2827, %ecx	 #,
	call	pdsp_u16_to_base16_alt	 #
	movq	%rax, -8(%rbp)	 # tmp114, pos
 # ./test/pdsp_test.c:128:     *pos++ = ':';
	movq	-8(%rbp), %rax	 # pos, pos.13_6
	leaq	1(%rax), %rdx	 #, tmp115
	movq	%rdx, -8(%rbp)	 # tmp115, pos
 # ./test/pdsp_test.c:128:     *pos++ = ':';
	movb	$58, (%rax)	 #, *pos.13_6
 # ./test/pdsp_test.c:129:     *pos++ = 0;
	movq	-8(%rbp), %rax	 # pos, pos.14_7
	leaq	1(%rax), %rdx	 #, tmp116
	movq	%rdx, -8(%rbp)	 # tmp116, pos
 # ./test/pdsp_test.c:129:     *pos++ = 0;
	movb	$0, (%rax)	 #, *pos.14_7
 # ./test/pdsp_test.c:130:     PDSP_ASSERT(strcmp(out, ":1337,B00B,B,BB,B0B:") == 0);
	leaq	-80(%rbp), %rax	 #, tmp117
	leaq	.LC8(%rip), %rdx	 #, tmp118
	movq	%rax, %rcx	 # tmp117,
	call	strcmp	 #
 # ./test/pdsp_test.c:130:     PDSP_ASSERT(strcmp(out, ":1337,B00B,B,BB,B0B:") == 0);
	testl	%eax, %eax	 # _8
	je	.L30	 #,
	movl	$130, %r8d	 #,
	leaq	.LC2(%rip), %rax	 #, tmp119
	movq	%rax, %rdx	 # tmp119,
	leaq	.LC3(%rip), %rax	 #, tmp120
	movq	%rax, %rcx	 # tmp120,
	call	printf	 #
.L30:
 # ./test/pdsp_test.c:131:     pos = &out[0];
	leaq	-80(%rbp), %rax	 #, tmp121
	movq	%rax, -8(%rbp)	 # tmp121, pos
 # ./test/pdsp_test.c:132:     *pos++ = ':';
	movq	-8(%rbp), %rax	 # pos, pos.15_9
	leaq	1(%rax), %rdx	 #, tmp122
	movq	%rdx, -8(%rbp)	 # tmp122, pos
 # ./test/pdsp_test.c:132:     *pos++ = ':';
	movb	$58, (%rax)	 #, *pos.15_9
 # ./test/pdsp_test.c:133:     pos = pdsp_u16_to_base16(pos, 0x1337);
	movq	-8(%rbp), %rax	 # pos, tmp123
	movl	$4919, %edx	 #,
	movq	%rax, %rcx	 # tmp123,
	call	pdsp_u16_to_base16	 #
	movq	%rax, -8(%rbp)	 # tmp124, pos
 # ./test/pdsp_test.c:134:     *pos++ = ',';
	movq	-8(%rbp), %rax	 # pos, pos.16_10
	leaq	1(%rax), %rdx	 #, tmp125
	movq	%rdx, -8(%rbp)	 # tmp125, pos
 # ./test/pdsp_test.c:134:     *pos++ = ',';
	movb	$44, (%rax)	 #, *pos.16_10
 # ./test/pdsp_test.c:135:     pos = pdsp_u16_to_base16(pos, 0xB00B);
	movq	-8(%rbp), %rax	 # pos, tmp126
	movl	$45067, %edx	 #,
	movq	%rax, %rcx	 # tmp126,
	call	pdsp_u16_to_base16	 #
	movq	%rax, -8(%rbp)	 # tmp127, pos
 # ./test/pdsp_test.c:136:     *pos++ = ',';
	movq	-8(%rbp), %rax	 # pos, pos.17_11
	leaq	1(%rax), %rdx	 #, tmp128
	movq	%rdx, -8(%rbp)	 # tmp128, pos
 # ./test/pdsp_test.c:136:     *pos++ = ',';
	movb	$44, (%rax)	 #, *pos.17_11
 # ./test/pdsp_test.c:137:     pos = pdsp_u16_to_base16(pos, 0xB);
	movq	-8(%rbp), %rax	 # pos, tmp129
	movl	$11, %edx	 #,
	movq	%rax, %rcx	 # tmp129,
	call	pdsp_u16_to_base16	 #
	movq	%rax, -8(%rbp)	 # tmp130, pos
 # ./test/pdsp_test.c:138:     *pos++ = ',';
	movq	-8(%rbp), %rax	 # pos, pos.18_12
	leaq	1(%rax), %rdx	 #, tmp131
	movq	%rdx, -8(%rbp)	 # tmp131, pos
 # ./test/pdsp_test.c:138:     *pos++ = ',';
	movb	$44, (%rax)	 #, *pos.18_12
 # ./test/pdsp_test.c:139:     pos = pdsp_u16_to_base16(pos, 0xBB);
	movq	-8(%rbp), %rax	 # pos, tmp132
	movl	$187, %edx	 #,
	movq	%rax, %rcx	 # tmp132,
	call	pdsp_u16_to_base16	 #
	movq	%rax, -8(%rbp)	 # tmp133, pos
 # ./test/pdsp_test.c:140:     *pos++ = ',';
	movq	-8(%rbp), %rax	 # pos, pos.19_13
	leaq	1(%rax), %rdx	 #, tmp134
	movq	%rdx, -8(%rbp)	 # tmp134, pos
 # ./test/pdsp_test.c:140:     *pos++ = ',';
	movb	$44, (%rax)	 #, *pos.19_13
 # ./test/pdsp_test.c:141:     pos = pdsp_u16_to_base16(pos, 0xB0B);
	movq	-8(%rbp), %rax	 # pos, tmp135
	movl	$2827, %edx	 #,
	movq	%rax, %rcx	 # tmp135,
	call	pdsp_u16_to_base16	 #
	movq	%rax, -8(%rbp)	 # tmp136, pos
 # ./test/pdsp_test.c:142:     *pos++ = ':';
	movq	-8(%rbp), %rax	 # pos, pos.20_14
	leaq	1(%rax), %rdx	 #, tmp137
	movq	%rdx, -8(%rbp)	 # tmp137, pos
 # ./test/pdsp_test.c:142:     *pos++ = ':';
	movb	$58, (%rax)	 #, *pos.20_14
 # ./test/pdsp_test.c:143:     *pos++ = 0;
	movq	-8(%rbp), %rax	 # pos, pos.21_15
	leaq	1(%rax), %rdx	 #, tmp138
	movq	%rdx, -8(%rbp)	 # tmp138, pos
 # ./test/pdsp_test.c:143:     *pos++ = 0;
	movb	$0, (%rax)	 #, *pos.21_15
 # ./test/pdsp_test.c:144:     PDSP_ASSERT(strcmp(out, ":1337,B00B,000B,00BB,0B0B:") == 0);
	leaq	-80(%rbp), %rax	 #, tmp139
	leaq	.LC9(%rip), %rdx	 #, tmp140
	movq	%rax, %rcx	 # tmp139,
	call	strcmp	 #
 # ./test/pdsp_test.c:144:     PDSP_ASSERT(strcmp(out, ":1337,B00B,000B,00BB,0B0B:") == 0);
	testl	%eax, %eax	 # _16
	je	.L32	 #,
	movl	$144, %r8d	 #,
	leaq	.LC2(%rip), %rax	 #, tmp141
	movq	%rax, %rdx	 # tmp141,
	leaq	.LC3(%rip), %rax	 #, tmp142
	movq	%rax, %rcx	 # tmp142,
	call	printf	 #
.L32:
 # ./test/pdsp_test.c:145: }
	nop	
	addq	$112, %rsp	 #,
	popq	%rbp	 #
	ret	
	.seh_endproc
	.section .rdata,"dr"
	.align 8
.LC10:
	.ascii "-- void test_u32_to_base16(void) --\12\0"
	.align 8
.LC11:
	.ascii ":13371337,0000B00B,0000000B,000000BB,00000B0B:\0"
	.text
	.globl	test_u32_to_base16
	.def	test_u32_to_base16;	.scl	2;	.type	32;	.endef
	.seh_proc	test_u32_to_base16
test_u32_to_base16:
	pushq	%rbp	 #
	.seh_pushreg	%rbp
	movq	%rsp, %rbp	 #,
	.seh_setframe	%rbp, 0
	subq	$112, %rsp	 #,
	.seh_stackalloc	112
	.seh_endprologue
 # ./test/pdsp_test.c:149:     printf("-- void test_u32_to_base16(void) --\n");
	leaq	.LC10(%rip), %rax	 #, tmp90
	movq	%rax, %rcx	 # tmp90,
	call	printf	 #
 # ./test/pdsp_test.c:150:     pdsp_char_t out[64] = {0};
	movq	$0, -80(%rbp)	 #, out
	movq	$0, -72(%rbp)	 #, out
	movq	$0, -64(%rbp)	 #, out
	movq	$0, -56(%rbp)	 #, out
	movq	$0, -48(%rbp)	 #, out
	movq	$0, -40(%rbp)	 #, out
	movq	$0, -32(%rbp)	 #, out
	movq	$0, -24(%rbp)	 #, out
 # ./test/pdsp_test.c:151:     pdsp_char_t *pos = &out[0];
	leaq	-80(%rbp), %rax	 #, tmp91
	movq	%rax, -8(%rbp)	 # tmp91, pos
 # ./test/pdsp_test.c:152:     *pos++ = ':';
	movq	-8(%rbp), %rax	 # pos, pos.22_1
	leaq	1(%rax), %rdx	 #, tmp92
	movq	%rdx, -8(%rbp)	 # tmp92, pos
 # ./test/pdsp_test.c:152:     *pos++ = ':';
	movb	$58, (%rax)	 #, *pos.22_1
 # ./test/pdsp_test.c:153:     pos = pdsp_u32_to_base16(pos, 0x13371337);
	movq	-8(%rbp), %rax	 # pos, tmp93
	movl	$322376503, %edx	 #,
	movq	%rax, %rcx	 # tmp93,
	call	pdsp_u32_to_base16	 #
	movq	%rax, -8(%rbp)	 # tmp94, pos
 # ./test/pdsp_test.c:154:     *pos++ = ',';
	movq	-8(%rbp), %rax	 # pos, pos.23_2
	leaq	1(%rax), %rdx	 #, tmp95
	movq	%rdx, -8(%rbp)	 # tmp95, pos
 # ./test/pdsp_test.c:154:     *pos++ = ',';
	movb	$44, (%rax)	 #, *pos.23_2
 # ./test/pdsp_test.c:155:     pos = pdsp_u32_to_base16(pos, 0xB00B);
	movq	-8(%rbp), %rax	 # pos, tmp96
	movl	$45067, %edx	 #,
	movq	%rax, %rcx	 # tmp96,
	call	pdsp_u32_to_base16	 #
	movq	%rax, -8(%rbp)	 # tmp97, pos
 # ./test/pdsp_test.c:156:     *pos++ = ',';
	movq	-8(%rbp), %rax	 # pos, pos.24_3
	leaq	1(%rax), %rdx	 #, tmp98
	movq	%rdx, -8(%rbp)	 # tmp98, pos
 # ./test/pdsp_test.c:156:     *pos++ = ',';
	movb	$44, (%rax)	 #, *pos.24_3
 # ./test/pdsp_test.c:157:     pos = pdsp_u32_to_base16(pos, 0xB);
	movq	-8(%rbp), %rax	 # pos, tmp99
	movl	$11, %edx	 #,
	movq	%rax, %rcx	 # tmp99,
	call	pdsp_u32_to_base16	 #
	movq	%rax, -8(%rbp)	 # tmp100, pos
 # ./test/pdsp_test.c:158:     *pos++ = ',';
	movq	-8(%rbp), %rax	 # pos, pos.25_4
	leaq	1(%rax), %rdx	 #, tmp101
	movq	%rdx, -8(%rbp)	 # tmp101, pos
 # ./test/pdsp_test.c:158:     *pos++ = ',';
	movb	$44, (%rax)	 #, *pos.25_4
 # ./test/pdsp_test.c:159:     pos = pdsp_u32_to_base16(pos, 0xBB);
	movq	-8(%rbp), %rax	 # pos, tmp102
	movl	$187, %edx	 #,
	movq	%rax, %rcx	 # tmp102,
	call	pdsp_u32_to_base16	 #
	movq	%rax, -8(%rbp)	 # tmp103, pos
 # ./test/pdsp_test.c:160:     *pos++ = ',';
	movq	-8(%rbp), %rax	 # pos, pos.26_5
	leaq	1(%rax), %rdx	 #, tmp104
	movq	%rdx, -8(%rbp)	 # tmp104, pos
 # ./test/pdsp_test.c:160:     *pos++ = ',';
	movb	$44, (%rax)	 #, *pos.26_5
 # ./test/pdsp_test.c:161:     pos = pdsp_u32_to_base16(pos, 0xB0B);
	movq	-8(%rbp), %rax	 # pos, tmp105
	movl	$2827, %edx	 #,
	movq	%rax, %rcx	 # tmp105,
	call	pdsp_u32_to_base16	 #
	movq	%rax, -8(%rbp)	 # tmp106, pos
 # ./test/pdsp_test.c:162:     *pos++ = ':';
	movq	-8(%rbp), %rax	 # pos, pos.27_6
	leaq	1(%rax), %rdx	 #, tmp107
	movq	%rdx, -8(%rbp)	 # tmp107, pos
 # ./test/pdsp_test.c:162:     *pos++ = ':';
	movb	$58, (%rax)	 #, *pos.27_6
 # ./test/pdsp_test.c:163:     *pos++ = 0;
	movq	-8(%rbp), %rax	 # pos, pos.28_7
	leaq	1(%rax), %rdx	 #, tmp108
	movq	%rdx, -8(%rbp)	 # tmp108, pos
 # ./test/pdsp_test.c:163:     *pos++ = 0;
	movb	$0, (%rax)	 #, *pos.28_7
 # ./test/pdsp_test.c:164:     PDSP_ASSERT(strcmp(out, ":13371337,0000B00B,0000000B,000000BB,00000B0B:") ==
	leaq	-80(%rbp), %rax	 #, tmp109
	leaq	.LC11(%rip), %rdx	 #, tmp110
	movq	%rax, %rcx	 # tmp109,
	call	strcmp	 #
 # ./test/pdsp_test.c:164:     PDSP_ASSERT(strcmp(out, ":13371337,0000B00B,0000000B,000000BB,00000B0B:") ==
	testl	%eax, %eax	 # _8
	je	.L35	 #,
	movl	$164, %r8d	 #,
	leaq	.LC2(%rip), %rax	 #, tmp111
	movq	%rax, %rdx	 # tmp111,
	leaq	.LC3(%rip), %rax	 #, tmp112
	movq	%rax, %rcx	 # tmp112,
	call	printf	 #
.L35:
 # ./test/pdsp_test.c:166: }
	nop	
	addq	$112, %rsp	 #,
	popq	%rbp	 #
	ret	
	.seh_endproc
	.section .rdata,"dr"
	.align 8
.LC12:
	.ascii "-- void test_u64_to_base16(void) --\12\0"
	.align 8
.LC13:
	.ascii ":0123456789ABCDEF,AFFAFFAFFAFFAFFA:\0"
	.align 8
.LC14:
	.ascii ":EFCDAB8967452301,FAAFFFFAAFFFFAAF:\0"
	.text
	.globl	test_u64_to_base16
	.def	test_u64_to_base16;	.scl	2;	.type	32;	.endef
	.seh_proc	test_u64_to_base16
test_u64_to_base16:
	pushq	%rbp	 #
	.seh_pushreg	%rbp
	movq	%rsp, %rbp	 #,
	.seh_setframe	%rbp, 0
	addq	$-128, %rsp	 #,
	.seh_stackalloc	128
	.seh_endprologue
 # ./test/pdsp_test.c:170:     printf("-- void test_u64_to_base16(void) --\n");
	leaq	.LC12(%rip), %rax	 #, tmp97
	movq	%rax, %rcx	 # tmp97,
	call	printf	 #
 # ./test/pdsp_test.c:171:     pdsp_char_t out[64] = {0};
	movq	$0, -80(%rbp)	 #, out
	movq	$0, -72(%rbp)	 #, out
	movq	$0, -64(%rbp)	 #, out
	movq	$0, -56(%rbp)	 #, out
	movq	$0, -48(%rbp)	 #, out
	movq	$0, -40(%rbp)	 #, out
	movq	$0, -32(%rbp)	 #, out
	movq	$0, -24(%rbp)	 #, out
 # ./test/pdsp_test.c:172:     pdsp_char_t *pos = &out[0];
	leaq	-80(%rbp), %rax	 #, tmp98
	movq	%rax, -8(%rbp)	 # tmp98, pos
 # ./test/pdsp_test.c:173:     *pos++ = ':';
	movq	-8(%rbp), %rax	 # pos, pos.29_1
	leaq	1(%rax), %rdx	 #, tmp99
	movq	%rdx, -8(%rbp)	 # tmp99, pos
 # ./test/pdsp_test.c:173:     *pos++ = ':';
	movb	$58, (%rax)	 #, *pos.29_1
 # ./test/pdsp_test.c:174:     pos = pdsp_u64_to_base16_alt(0x0123456789ABCDEF, pos);
	movq	-8(%rbp), %rax	 # pos, tmp100
	movq	%rax, %rdx	 # tmp100,
	movabsq	$81985529216486895, %rax	 #, tmp101
	movq	%rax, %rcx	 # tmp101,
	call	pdsp_u64_to_base16_alt	 #
	movq	%rax, -8(%rbp)	 # tmp102, pos
 # ./test/pdsp_test.c:175:     *pos++ = ',';
	movq	-8(%rbp), %rax	 # pos, pos.30_2
	leaq	1(%rax), %rdx	 #, tmp103
	movq	%rdx, -8(%rbp)	 # tmp103, pos
 # ./test/pdsp_test.c:175:     *pos++ = ',';
	movb	$44, (%rax)	 #, *pos.30_2
 # ./test/pdsp_test.c:176:     pos = pdsp_u64_to_base16_alt(0xAFFAFFAFFAFFAFFA, pos);
	movq	-8(%rbp), %rax	 # pos, tmp104
	movq	%rax, %rdx	 # tmp104,
	movabsq	$-5766015241599078406, %rax	 #, tmp105
	movq	%rax, %rcx	 # tmp105,
	call	pdsp_u64_to_base16_alt	 #
	movq	%rax, -8(%rbp)	 # tmp106, pos
 # ./test/pdsp_test.c:177:     *pos++ = ':';
	movq	-8(%rbp), %rax	 # pos, pos.31_3
	leaq	1(%rax), %rdx	 #, tmp107
	movq	%rdx, -8(%rbp)	 # tmp107, pos
 # ./test/pdsp_test.c:177:     *pos++ = ':';
	movb	$58, (%rax)	 #, *pos.31_3
 # ./test/pdsp_test.c:178:     *pos++ = 0;
	movq	-8(%rbp), %rax	 # pos, pos.32_4
	leaq	1(%rax), %rdx	 #, tmp108
	movq	%rdx, -8(%rbp)	 # tmp108, pos
 # ./test/pdsp_test.c:178:     *pos++ = 0;
	movb	$0, (%rax)	 #, *pos.32_4
 # ./test/pdsp_test.c:179:     PDSP_ASSERT(strcmp(out, ":0123456789ABCDEF,AFFAFFAFFAFFAFFA:") == 0);
	leaq	-80(%rbp), %rax	 #, tmp109
	leaq	.LC13(%rip), %rdx	 #, tmp110
	movq	%rax, %rcx	 # tmp109,
	call	strcmp	 #
 # ./test/pdsp_test.c:179:     PDSP_ASSERT(strcmp(out, ":0123456789ABCDEF,AFFAFFAFFAFFAFFA:") == 0);
	testl	%eax, %eax	 # _5
	je	.L37	 #,
	movl	$179, %r8d	 #,
	leaq	.LC2(%rip), %rax	 #, tmp111
	movq	%rax, %rdx	 # tmp111,
	leaq	.LC3(%rip), %rax	 #, tmp112
	movq	%rax, %rcx	 # tmp112,
	call	printf	 #
.L37:
 # ./test/pdsp_test.c:180:     pos = &out[0];
	leaq	-80(%rbp), %rax	 #, tmp113
	movq	%rax, -8(%rbp)	 # tmp113, pos
 # ./test/pdsp_test.c:181:     *pos++ = ':';
	movq	-8(%rbp), %rax	 # pos, pos.33_6
	leaq	1(%rax), %rdx	 #, tmp114
	movq	%rdx, -8(%rbp)	 # tmp114, pos
 # ./test/pdsp_test.c:181:     *pos++ = ':';
	movb	$58, (%rax)	 #, *pos.33_6
 # ./test/pdsp_test.c:182:     pos = pdsp_u64_to_base16(pos, 0x0123456789ABCDEF);
	movq	-8(%rbp), %rax	 # pos, tmp115
	movabsq	$81985529216486895, %rdx	 #, tmp116
	movq	%rax, %rcx	 # tmp115,
	call	pdsp_u64_to_base16	 #
	movq	%rax, -8(%rbp)	 # tmp117, pos
 # ./test/pdsp_test.c:183:     *pos++ = ',';
	movq	-8(%rbp), %rax	 # pos, pos.34_7
	leaq	1(%rax), %rdx	 #, tmp118
	movq	%rdx, -8(%rbp)	 # tmp118, pos
 # ./test/pdsp_test.c:183:     *pos++ = ',';
	movb	$44, (%rax)	 #, *pos.34_7
 # ./test/pdsp_test.c:184:     pos = pdsp_u64_to_base16(pos, 0xAFFAFFAFFAFFAFFA);
	movq	-8(%rbp), %rax	 # pos, tmp119
	movabsq	$-5766015241599078406, %rdx	 #, tmp120
	movq	%rax, %rcx	 # tmp119,
	call	pdsp_u64_to_base16	 #
	movq	%rax, -8(%rbp)	 # tmp121, pos
 # ./test/pdsp_test.c:185:     *pos++ = ':';
	movq	-8(%rbp), %rax	 # pos, pos.35_8
	leaq	1(%rax), %rdx	 #, tmp122
	movq	%rdx, -8(%rbp)	 # tmp122, pos
 # ./test/pdsp_test.c:185:     *pos++ = ':';
	movb	$58, (%rax)	 #, *pos.35_8
 # ./test/pdsp_test.c:186:     *pos++ = 0;
	movq	-8(%rbp), %rax	 # pos, pos.36_9
	leaq	1(%rax), %rdx	 #, tmp123
	movq	%rdx, -8(%rbp)	 # tmp123, pos
 # ./test/pdsp_test.c:186:     *pos++ = 0;
	movb	$0, (%rax)	 #, *pos.36_9
 # ./test/pdsp_test.c:187:     PDSP_ASSERT(strcmp(out, ":0123456789ABCDEF,AFFAFFAFFAFFAFFA:") == 0);
	leaq	-80(%rbp), %rax	 #, tmp124
	leaq	.LC13(%rip), %rdx	 #, tmp125
	movq	%rax, %rcx	 # tmp124,
	call	strcmp	 #
 # ./test/pdsp_test.c:187:     PDSP_ASSERT(strcmp(out, ":0123456789ABCDEF,AFFAFFAFFAFFAFFA:") == 0);
	testl	%eax, %eax	 # _10
	je	.L38	 #,
	movl	$187, %r8d	 #,
	leaq	.LC2(%rip), %rax	 #, tmp126
	movq	%rax, %rdx	 # tmp126,
	leaq	.LC3(%rip), %rax	 #, tmp127
	movq	%rax, %rcx	 # tmp127,
	call	printf	 #
.L38:
 # ./test/pdsp_test.c:188:     pdsp_u64_t data[] = {0x0123456789ABCDEF, 0xAFFAFFAFFAFFAFFA};
	movabsq	$81985529216486895, %rax	 #, tmp145
	movq	%rax, -96(%rbp)	 # tmp145, data[0]
	movabsq	$-5766015241599078406, %rax	 #, tmp146
	movq	%rax, -88(%rbp)	 # tmp146, data[1]
 # ./test/pdsp_test.c:189:     pos = &out[0];
	leaq	-80(%rbp), %rax	 #, tmp128
	movq	%rax, -8(%rbp)	 # tmp128, pos
 # ./test/pdsp_test.c:190:     *pos++ = ':';
	movq	-8(%rbp), %rax	 # pos, pos.37_11
	leaq	1(%rax), %rdx	 #, tmp129
	movq	%rdx, -8(%rbp)	 # tmp129, pos
 # ./test/pdsp_test.c:190:     *pos++ = ':';
	movb	$58, (%rax)	 #, *pos.37_11
 # ./test/pdsp_test.c:191:     pos = pdsp_u8_to_base16(pos, (pdsp_u8_t *)&data[0], 8);
	leaq	-96(%rbp), %rdx	 #, tmp130
	movq	-8(%rbp), %rax	 # pos, tmp131
	movl	$8, %r8d	 #,
	movq	%rax, %rcx	 # tmp131,
	call	pdsp_u8_to_base16	 #
	movq	%rax, -8(%rbp)	 # tmp132, pos
 # ./test/pdsp_test.c:192:     *pos++ = ',';
	movq	-8(%rbp), %rax	 # pos, pos.38_12
	leaq	1(%rax), %rdx	 #, tmp133
	movq	%rdx, -8(%rbp)	 # tmp133, pos
 # ./test/pdsp_test.c:192:     *pos++ = ',';
	movb	$44, (%rax)	 #, *pos.38_12
 # ./test/pdsp_test.c:193:     pos = pdsp_u8_to_base16(pos, (pdsp_u8_t *)&data[1], 8);
	leaq	-96(%rbp), %rax	 #, tmp134
	leaq	8(%rax), %rdx	 #, tmp135
	movq	-8(%rbp), %rax	 # pos, tmp136
	movl	$8, %r8d	 #,
	movq	%rax, %rcx	 # tmp136,
	call	pdsp_u8_to_base16	 #
	movq	%rax, -8(%rbp)	 # tmp137, pos
 # ./test/pdsp_test.c:194:     *pos++ = ':';
	movq	-8(%rbp), %rax	 # pos, pos.39_13
	leaq	1(%rax), %rdx	 #, tmp138
	movq	%rdx, -8(%rbp)	 # tmp138, pos
 # ./test/pdsp_test.c:194:     *pos++ = ':';
	movb	$58, (%rax)	 #, *pos.39_13
 # ./test/pdsp_test.c:195:     *pos++ = 0;
	movq	-8(%rbp), %rax	 # pos, pos.40_14
	leaq	1(%rax), %rdx	 #, tmp139
	movq	%rdx, -8(%rbp)	 # tmp139, pos
 # ./test/pdsp_test.c:195:     *pos++ = 0;
	movb	$0, (%rax)	 #, *pos.40_14
 # ./test/pdsp_test.c:196:     PDSP_ASSERT(strcmp(out, ":EFCDAB8967452301,FAAFFFFAAFFFFAAF:") == 0);
	leaq	-80(%rbp), %rax	 #, tmp140
	leaq	.LC14(%rip), %rdx	 #, tmp141
	movq	%rax, %rcx	 # tmp140,
	call	strcmp	 #
 # ./test/pdsp_test.c:196:     PDSP_ASSERT(strcmp(out, ":EFCDAB8967452301,FAAFFFFAAFFFFAAF:") == 0);
	testl	%eax, %eax	 # _15
	je	.L40	 #,
	movl	$196, %r8d	 #,
	leaq	.LC2(%rip), %rax	 #, tmp142
	movq	%rax, %rdx	 # tmp142,
	leaq	.LC3(%rip), %rax	 #, tmp143
	movq	%rax, %rcx	 # tmp143,
	call	printf	 #
.L40:
 # ./test/pdsp_test.c:197: }
	nop	
	subq	$-128, %rsp	 #,
	popq	%rbp	 #
	ret	
	.seh_endproc
	.section .rdata,"dr"
	.align 8
.LC15:
	.ascii "-- void test_u16_to_base64(void) --\12\0"
.LC16:
	.ascii ":Ezc,sAs,AAs,ALs,Cws:\0"
	.text
	.globl	test_u16_to_base64
	.def	test_u16_to_base64;	.scl	2;	.type	32;	.endef
	.seh_proc	test_u16_to_base64
test_u16_to_base64:
	pushq	%rbp	 #
	.seh_pushreg	%rbp
	movq	%rsp, %rbp	 #,
	.seh_setframe	%rbp, 0
	subq	$112, %rsp	 #,
	.seh_stackalloc	112
	.seh_endprologue
 # ./test/pdsp_test.c:201:     printf("-- void test_u16_to_base64(void) --\n");
	leaq	.LC15(%rip), %rax	 #, tmp90
	movq	%rax, %rcx	 # tmp90,
	call	printf	 #
 # ./test/pdsp_test.c:202:     pdsp_char_t out[64] = {0};
	movq	$0, -80(%rbp)	 #, out
	movq	$0, -72(%rbp)	 #, out
	movq	$0, -64(%rbp)	 #, out
	movq	$0, -56(%rbp)	 #, out
	movq	$0, -48(%rbp)	 #, out
	movq	$0, -40(%rbp)	 #, out
	movq	$0, -32(%rbp)	 #, out
	movq	$0, -24(%rbp)	 #, out
 # ./test/pdsp_test.c:203:     pdsp_char_t *pos = &out[0];
	leaq	-80(%rbp), %rax	 #, tmp91
	movq	%rax, -8(%rbp)	 # tmp91, pos
 # ./test/pdsp_test.c:204:     *pos++ = ':';
	movq	-8(%rbp), %rax	 # pos, pos.41_1
	leaq	1(%rax), %rdx	 #, tmp92
	movq	%rdx, -8(%rbp)	 # tmp92, pos
 # ./test/pdsp_test.c:204:     *pos++ = ':';
	movb	$58, (%rax)	 #, *pos.41_1
 # ./test/pdsp_test.c:205:     pos = pdsp_u16_to_base64(pos, 0x1337);
	movq	-8(%rbp), %rax	 # pos, tmp93
	movl	$4919, %edx	 #,
	movq	%rax, %rcx	 # tmp93,
	call	pdsp_u16_to_base64	 #
	movq	%rax, -8(%rbp)	 # tmp94, pos
 # ./test/pdsp_test.c:206:     *pos++ = ',';
	movq	-8(%rbp), %rax	 # pos, pos.42_2
	leaq	1(%rax), %rdx	 #, tmp95
	movq	%rdx, -8(%rbp)	 # tmp95, pos
 # ./test/pdsp_test.c:206:     *pos++ = ',';
	movb	$44, (%rax)	 #, *pos.42_2
 # ./test/pdsp_test.c:207:     pos = pdsp_u16_to_base64(pos, 0xB00B);
	movq	-8(%rbp), %rax	 # pos, tmp96
	movl	$45067, %edx	 #,
	movq	%rax, %rcx	 # tmp96,
	call	pdsp_u16_to_base64	 #
	movq	%rax, -8(%rbp)	 # tmp97, pos
 # ./test/pdsp_test.c:208:     *pos++ = ',';
	movq	-8(%rbp), %rax	 # pos, pos.43_3
	leaq	1(%rax), %rdx	 #, tmp98
	movq	%rdx, -8(%rbp)	 # tmp98, pos
 # ./test/pdsp_test.c:208:     *pos++ = ',';
	movb	$44, (%rax)	 #, *pos.43_3
 # ./test/pdsp_test.c:209:     pos = pdsp_u16_to_base64(pos, 0xB);
	movq	-8(%rbp), %rax	 # pos, tmp99
	movl	$11, %edx	 #,
	movq	%rax, %rcx	 # tmp99,
	call	pdsp_u16_to_base64	 #
	movq	%rax, -8(%rbp)	 # tmp100, pos
 # ./test/pdsp_test.c:210:     *pos++ = ',';
	movq	-8(%rbp), %rax	 # pos, pos.44_4
	leaq	1(%rax), %rdx	 #, tmp101
	movq	%rdx, -8(%rbp)	 # tmp101, pos
 # ./test/pdsp_test.c:210:     *pos++ = ',';
	movb	$44, (%rax)	 #, *pos.44_4
 # ./test/pdsp_test.c:211:     pos = pdsp_u16_to_base64(pos, 0xBB);
	movq	-8(%rbp), %rax	 # pos, tmp102
	movl	$187, %edx	 #,
	movq	%rax, %rcx	 # tmp102,
	call	pdsp_u16_to_base64	 #
	movq	%rax, -8(%rbp)	 # tmp103, pos
 # ./test/pdsp_test.c:212:     *pos++ = ',';
	movq	-8(%rbp), %rax	 # pos, pos.45_5
	leaq	1(%rax), %rdx	 #, tmp104
	movq	%rdx, -8(%rbp)	 # tmp104, pos
 # ./test/pdsp_test.c:212:     *pos++ = ',';
	movb	$44, (%rax)	 #, *pos.45_5
 # ./test/pdsp_test.c:213:     pos = pdsp_u16_to_base64(pos, 0xB0B);
	movq	-8(%rbp), %rax	 # pos, tmp105
	movl	$2827, %edx	 #,
	movq	%rax, %rcx	 # tmp105,
	call	pdsp_u16_to_base64	 #
	movq	%rax, -8(%rbp)	 # tmp106, pos
 # ./test/pdsp_test.c:214:     *pos++ = ':';
	movq	-8(%rbp), %rax	 # pos, pos.46_6
	leaq	1(%rax), %rdx	 #, tmp107
	movq	%rdx, -8(%rbp)	 # tmp107, pos
 # ./test/pdsp_test.c:214:     *pos++ = ':';
	movb	$58, (%rax)	 #, *pos.46_6
 # ./test/pdsp_test.c:215:     *pos++ = 0;
	movq	-8(%rbp), %rax	 # pos, pos.47_7
	leaq	1(%rax), %rdx	 #, tmp108
	movq	%rdx, -8(%rbp)	 # tmp108, pos
 # ./test/pdsp_test.c:215:     *pos++ = 0;
	movb	$0, (%rax)	 #, *pos.47_7
 # ./test/pdsp_test.c:216:     PDSP_ASSERT(strcmp(out, ":Ezc,sAs,AAs,ALs,Cws:") == 0);
	leaq	-80(%rbp), %rax	 #, tmp109
	leaq	.LC16(%rip), %rdx	 #, tmp110
	movq	%rax, %rcx	 # tmp109,
	call	strcmp	 #
 # ./test/pdsp_test.c:216:     PDSP_ASSERT(strcmp(out, ":Ezc,sAs,AAs,ALs,Cws:") == 0);
	testl	%eax, %eax	 # _8
	je	.L43	 #,
	movl	$216, %r8d	 #,
	leaq	.LC2(%rip), %rax	 #, tmp111
	movq	%rax, %rdx	 # tmp111,
	leaq	.LC3(%rip), %rax	 #, tmp112
	movq	%rax, %rcx	 # tmp112,
	call	printf	 #
.L43:
 # ./test/pdsp_test.c:217: }
	nop	
	addq	$112, %rsp	 #,
	popq	%rbp	 #
	ret	
	.seh_endproc
	.section .rdata,"dr"
	.align 8
.LC17:
	.ascii "-- void test_u32_to_base64(void) --\12\0"
	.align 8
.LC18:
	.ascii ":EzcTNw,AACwCw,AAAACw,AAAAuw,AAALCw:\0"
	.text
	.globl	test_u32_to_base64
	.def	test_u32_to_base64;	.scl	2;	.type	32;	.endef
	.seh_proc	test_u32_to_base64
test_u32_to_base64:
	pushq	%rbp	 #
	.seh_pushreg	%rbp
	movq	%rsp, %rbp	 #,
	.seh_setframe	%rbp, 0
	subq	$112, %rsp	 #,
	.seh_stackalloc	112
	.seh_endprologue
 # ./test/pdsp_test.c:221:     printf("-- void test_u32_to_base64(void) --\n");
	leaq	.LC17(%rip), %rax	 #, tmp90
	movq	%rax, %rcx	 # tmp90,
	call	printf	 #
 # ./test/pdsp_test.c:222:     pdsp_char_t out[64] = {0};
	movq	$0, -80(%rbp)	 #, out
	movq	$0, -72(%rbp)	 #, out
	movq	$0, -64(%rbp)	 #, out
	movq	$0, -56(%rbp)	 #, out
	movq	$0, -48(%rbp)	 #, out
	movq	$0, -40(%rbp)	 #, out
	movq	$0, -32(%rbp)	 #, out
	movq	$0, -24(%rbp)	 #, out
 # ./test/pdsp_test.c:223:     pdsp_char_t *pos = &out[0];
	leaq	-80(%rbp), %rax	 #, tmp91
	movq	%rax, -8(%rbp)	 # tmp91, pos
 # ./test/pdsp_test.c:224:     *pos++ = ':';
	movq	-8(%rbp), %rax	 # pos, pos.48_1
	leaq	1(%rax), %rdx	 #, tmp92
	movq	%rdx, -8(%rbp)	 # tmp92, pos
 # ./test/pdsp_test.c:224:     *pos++ = ':';
	movb	$58, (%rax)	 #, *pos.48_1
 # ./test/pdsp_test.c:225:     pos = pdsp_u32_to_base64(pos, 0x13371337);
	movq	-8(%rbp), %rax	 # pos, tmp93
	movl	$322376503, %edx	 #,
	movq	%rax, %rcx	 # tmp93,
	call	pdsp_u32_to_base64	 #
	movq	%rax, -8(%rbp)	 # tmp94, pos
 # ./test/pdsp_test.c:226:     *pos++ = ',';
	movq	-8(%rbp), %rax	 # pos, pos.49_2
	leaq	1(%rax), %rdx	 #, tmp95
	movq	%rdx, -8(%rbp)	 # tmp95, pos
 # ./test/pdsp_test.c:226:     *pos++ = ',';
	movb	$44, (%rax)	 #, *pos.49_2
 # ./test/pdsp_test.c:227:     pos = pdsp_u32_to_base64(pos, 0xB00B);
	movq	-8(%rbp), %rax	 # pos, tmp96
	movl	$45067, %edx	 #,
	movq	%rax, %rcx	 # tmp96,
	call	pdsp_u32_to_base64	 #
	movq	%rax, -8(%rbp)	 # tmp97, pos
 # ./test/pdsp_test.c:228:     *pos++ = ',';
	movq	-8(%rbp), %rax	 # pos, pos.50_3
	leaq	1(%rax), %rdx	 #, tmp98
	movq	%rdx, -8(%rbp)	 # tmp98, pos
 # ./test/pdsp_test.c:228:     *pos++ = ',';
	movb	$44, (%rax)	 #, *pos.50_3
 # ./test/pdsp_test.c:229:     pos = pdsp_u32_to_base64(pos, 0xB);
	movq	-8(%rbp), %rax	 # pos, tmp99
	movl	$11, %edx	 #,
	movq	%rax, %rcx	 # tmp99,
	call	pdsp_u32_to_base64	 #
	movq	%rax, -8(%rbp)	 # tmp100, pos
 # ./test/pdsp_test.c:230:     *pos++ = ',';
	movq	-8(%rbp), %rax	 # pos, pos.51_4
	leaq	1(%rax), %rdx	 #, tmp101
	movq	%rdx, -8(%rbp)	 # tmp101, pos
 # ./test/pdsp_test.c:230:     *pos++ = ',';
	movb	$44, (%rax)	 #, *pos.51_4
 # ./test/pdsp_test.c:231:     pos = pdsp_u32_to_base64(pos, 0xBB);
	movq	-8(%rbp), %rax	 # pos, tmp102
	movl	$187, %edx	 #,
	movq	%rax, %rcx	 # tmp102,
	call	pdsp_u32_to_base64	 #
	movq	%rax, -8(%rbp)	 # tmp103, pos
 # ./test/pdsp_test.c:232:     *pos++ = ',';
	movq	-8(%rbp), %rax	 # pos, pos.52_5
	leaq	1(%rax), %rdx	 #, tmp104
	movq	%rdx, -8(%rbp)	 # tmp104, pos
 # ./test/pdsp_test.c:232:     *pos++ = ',';
	movb	$44, (%rax)	 #, *pos.52_5
 # ./test/pdsp_test.c:233:     pos = pdsp_u32_to_base64(pos, 0xB0B);
	movq	-8(%rbp), %rax	 # pos, tmp105
	movl	$2827, %edx	 #,
	movq	%rax, %rcx	 # tmp105,
	call	pdsp_u32_to_base64	 #
	movq	%rax, -8(%rbp)	 # tmp106, pos
 # ./test/pdsp_test.c:234:     *pos++ = ':';
	movq	-8(%rbp), %rax	 # pos, pos.53_6
	leaq	1(%rax), %rdx	 #, tmp107
	movq	%rdx, -8(%rbp)	 # tmp107, pos
 # ./test/pdsp_test.c:234:     *pos++ = ':';
	movb	$58, (%rax)	 #, *pos.53_6
 # ./test/pdsp_test.c:235:     *pos++ = 0;
	movq	-8(%rbp), %rax	 # pos, pos.54_7
	leaq	1(%rax), %rdx	 #, tmp108
	movq	%rdx, -8(%rbp)	 # tmp108, pos
 # ./test/pdsp_test.c:235:     *pos++ = 0;
	movb	$0, (%rax)	 #, *pos.54_7
 # ./test/pdsp_test.c:236:     PDSP_ASSERT(strcmp(out, ":EzcTNw,AACwCw,AAAACw,AAAAuw,AAALCw:") == 0);
	leaq	-80(%rbp), %rax	 #, tmp109
	leaq	.LC18(%rip), %rdx	 #, tmp110
	movq	%rax, %rcx	 # tmp109,
	call	strcmp	 #
 # ./test/pdsp_test.c:236:     PDSP_ASSERT(strcmp(out, ":EzcTNw,AACwCw,AAAACw,AAAAuw,AAALCw:") == 0);
	testl	%eax, %eax	 # _8
	je	.L46	 #,
	movl	$236, %r8d	 #,
	leaq	.LC2(%rip), %rax	 #, tmp111
	movq	%rax, %rdx	 # tmp111,
	leaq	.LC3(%rip), %rax	 #, tmp112
	movq	%rax, %rcx	 # tmp112,
	call	printf	 #
.L46:
 # ./test/pdsp_test.c:237: }
	nop	
	addq	$112, %rsp	 #,
	popq	%rbp	 #
	ret	
	.seh_endproc
	.section .rdata,"dr"
	.align 8
.LC19:
	.ascii "-- void test_u64_to_base64(void) --\12\0"
.LC20:
	.ascii ":ASNFZ4mrze8,r/r/r/r/r/o:\0"
	.text
	.globl	test_u64_to_base64
	.def	test_u64_to_base64;	.scl	2;	.type	32;	.endef
	.seh_proc	test_u64_to_base64
test_u64_to_base64:
	pushq	%rbp	 #
	.seh_pushreg	%rbp
	movq	%rsp, %rbp	 #,
	.seh_setframe	%rbp, 0
	subq	$112, %rsp	 #,
	.seh_stackalloc	112
	.seh_endprologue
 # ./test/pdsp_test.c:241:     printf("-- void test_u64_to_base64(void) --\n");
	leaq	.LC19(%rip), %rax	 #, tmp87
	movq	%rax, %rcx	 # tmp87,
	call	printf	 #
 # ./test/pdsp_test.c:242:     pdsp_char_t out[64] = {0};
	movq	$0, -80(%rbp)	 #, out
	movq	$0, -72(%rbp)	 #, out
	movq	$0, -64(%rbp)	 #, out
	movq	$0, -56(%rbp)	 #, out
	movq	$0, -48(%rbp)	 #, out
	movq	$0, -40(%rbp)	 #, out
	movq	$0, -32(%rbp)	 #, out
	movq	$0, -24(%rbp)	 #, out
 # ./test/pdsp_test.c:243:     pdsp_char_t *pos = &out[0];
	leaq	-80(%rbp), %rax	 #, tmp88
	movq	%rax, -8(%rbp)	 # tmp88, pos
 # ./test/pdsp_test.c:244:     *pos++ = ':';
	movq	-8(%rbp), %rax	 # pos, pos.55_1
	leaq	1(%rax), %rdx	 #, tmp89
	movq	%rdx, -8(%rbp)	 # tmp89, pos
 # ./test/pdsp_test.c:244:     *pos++ = ':';
	movb	$58, (%rax)	 #, *pos.55_1
 # ./test/pdsp_test.c:245:     pos = pdsp_u64_to_base64(pos, 0x0123456789ABCDEF);
	movq	-8(%rbp), %rax	 # pos, tmp90
	movabsq	$81985529216486895, %rdx	 #, tmp91
	movq	%rax, %rcx	 # tmp90,
	call	pdsp_u64_to_base64	 #
	movq	%rax, -8(%rbp)	 # tmp92, pos
 # ./test/pdsp_test.c:246:     *pos++ = ',';
	movq	-8(%rbp), %rax	 # pos, pos.56_2
	leaq	1(%rax), %rdx	 #, tmp93
	movq	%rdx, -8(%rbp)	 # tmp93, pos
 # ./test/pdsp_test.c:246:     *pos++ = ',';
	movb	$44, (%rax)	 #, *pos.56_2
 # ./test/pdsp_test.c:247:     pos = pdsp_u64_to_base64(pos, 0xAFFAFFAFFAFFAFFA);
	movq	-8(%rbp), %rax	 # pos, tmp94
	movabsq	$-5766015241599078406, %rdx	 #, tmp95
	movq	%rax, %rcx	 # tmp94,
	call	pdsp_u64_to_base64	 #
	movq	%rax, -8(%rbp)	 # tmp96, pos
 # ./test/pdsp_test.c:248:     *pos++ = ':';
	movq	-8(%rbp), %rax	 # pos, pos.57_3
	leaq	1(%rax), %rdx	 #, tmp97
	movq	%rdx, -8(%rbp)	 # tmp97, pos
 # ./test/pdsp_test.c:248:     *pos++ = ':';
	movb	$58, (%rax)	 #, *pos.57_3
 # ./test/pdsp_test.c:249:     *pos++ = 0;
	movq	-8(%rbp), %rax	 # pos, pos.58_4
	leaq	1(%rax), %rdx	 #, tmp98
	movq	%rdx, -8(%rbp)	 # tmp98, pos
 # ./test/pdsp_test.c:249:     *pos++ = 0;
	movb	$0, (%rax)	 #, *pos.58_4
 # ./test/pdsp_test.c:250:     PDSP_ASSERT(strcmp(out, ":ASNFZ4mrze8,r/r/r/r/r/o:") == 0);
	leaq	-80(%rbp), %rax	 #, tmp99
	leaq	.LC20(%rip), %rdx	 #, tmp100
	movq	%rax, %rcx	 # tmp99,
	call	strcmp	 #
 # ./test/pdsp_test.c:250:     PDSP_ASSERT(strcmp(out, ":ASNFZ4mrze8,r/r/r/r/r/o:") == 0);
	testl	%eax, %eax	 # _5
	je	.L49	 #,
	movl	$250, %r8d	 #,
	leaq	.LC2(%rip), %rax	 #, tmp101
	movq	%rax, %rdx	 # tmp101,
	leaq	.LC3(%rip), %rax	 #, tmp102
	movq	%rax, %rcx	 # tmp102,
	call	printf	 #
.L49:
 # ./test/pdsp_test.c:251: }
	nop	
	addq	$112, %rsp	 #,
	popq	%rbp	 #
	ret	
	.seh_endproc
	.section .rdata,"dr"
.LC21:
	.ascii "-- void test_map(void) --\12\0"
	.text
	.globl	test_map
	.def	test_map;	.scl	2;	.type	32;	.endef
	.seh_proc	test_map
test_map:
	pushq	%rbp	 #
	.seh_pushreg	%rbp
	movq	%rsp, %rbp	 #,
	.seh_setframe	%rbp, 0
	subq	$48, %rsp	 #,
	.seh_stackalloc	48
	.seh_endprologue
 # ./test/pdsp_test.c:255:     printf("-- void test_map(void) --\n");
	leaq	.LC21(%rip), %rax	 #, tmp86
	movq	%rax, %rcx	 # tmp86,
	call	printf	 #
 # ./test/pdsp_test.c:256:     PDSP_ASSERT(pdsp_map(1.5f, 1.0f, 2.0f, 1.0f, 2.0f) == 1.5f);
	movss	.LC22(%rip), %xmm0	 #, tmp87
	movss	%xmm0, 32(%rsp)	 # tmp87,
	movss	.LC23(%rip), %xmm3	 #,
	movss	.LC22(%rip), %xmm2	 #,
	movss	.LC23(%rip), %xmm1	 #,
	movl	.LC24(%rip), %eax	 #, tmp88
	movd	%eax, %xmm0	 # tmp88,
	call	pdsp_map	 #
	movd	%xmm0, %eax	 #, _1
 # ./test/pdsp_test.c:256:     PDSP_ASSERT(pdsp_map(1.5f, 1.0f, 2.0f, 1.0f, 2.0f) == 1.5f);
	movd	%eax, %xmm4	 # _1, _1
	ucomiss	.LC24(%rip), %xmm4	 #, _1
	jp	.L59	 #,
	movd	%eax, %xmm5	 # _1, _1
	ucomiss	.LC24(%rip), %xmm5	 #, _1
	je	.L51	 #,
.L59:
	movl	$256, %r8d	 #,
	leaq	.LC2(%rip), %rax	 #, tmp89
	movq	%rax, %rdx	 # tmp89,
	leaq	.LC3(%rip), %rax	 #, tmp90
	movq	%rax, %rcx	 # tmp90,
	call	printf	 #
.L51:
 # ./test/pdsp_test.c:257:     PDSP_ASSERT(pdsp_map(1.5f, 1.0f, 1.0f, 1.0f, 2.0f) == 1.5f);
	movss	.LC22(%rip), %xmm0	 #, tmp91
	movss	%xmm0, 32(%rsp)	 # tmp91,
	movss	.LC23(%rip), %xmm3	 #,
	movss	.LC23(%rip), %xmm2	 #,
	movss	.LC23(%rip), %xmm1	 #,
	movl	.LC24(%rip), %eax	 #, tmp92
	movd	%eax, %xmm0	 # tmp92,
	call	pdsp_map	 #
	movd	%xmm0, %eax	 #, _2
 # ./test/pdsp_test.c:257:     PDSP_ASSERT(pdsp_map(1.5f, 1.0f, 1.0f, 1.0f, 2.0f) == 1.5f);
	movd	%eax, %xmm4	 # _2, _2
	ucomiss	.LC24(%rip), %xmm4	 #, _2
	jp	.L60	 #,
	movd	%eax, %xmm5	 # _2, _2
	ucomiss	.LC24(%rip), %xmm5	 #, _2
	je	.L53	 #,
.L60:
	movl	$257, %r8d	 #,
	leaq	.LC2(%rip), %rax	 #, tmp93
	movq	%rax, %rdx	 # tmp93,
	leaq	.LC3(%rip), %rax	 #, tmp94
	movq	%rax, %rcx	 # tmp94,
	call	printf	 #
.L53:
 # ./test/pdsp_test.c:258:     PDSP_ASSERT(pdsp_map(1.5f, 1.0f, 2.0f, 1.0f, 1.0f) == 1.0f);
	movss	.LC23(%rip), %xmm0	 #, tmp95
	movss	%xmm0, 32(%rsp)	 # tmp95,
	movss	.LC23(%rip), %xmm3	 #,
	movss	.LC22(%rip), %xmm2	 #,
	movss	.LC23(%rip), %xmm1	 #,
	movl	.LC24(%rip), %eax	 #, tmp96
	movd	%eax, %xmm0	 # tmp96,
	call	pdsp_map	 #
	movd	%xmm0, %eax	 #, _3
 # ./test/pdsp_test.c:258:     PDSP_ASSERT(pdsp_map(1.5f, 1.0f, 2.0f, 1.0f, 1.0f) == 1.0f);
	movss	.LC23(%rip), %xmm0	 #, tmp97
	movd	%eax, %xmm1	 # _3, _3
	ucomiss	%xmm0, %xmm1	 # tmp97, _3
	jp	.L61	 #,
	movss	.LC23(%rip), %xmm0	 #, tmp98
	movd	%eax, %xmm2	 # _3, _3
	ucomiss	%xmm0, %xmm2	 # tmp98, _3
	je	.L55	 #,
.L61:
	movl	$258, %r8d	 #,
	leaq	.LC2(%rip), %rax	 #, tmp99
	movq	%rax, %rdx	 # tmp99,
	leaq	.LC3(%rip), %rax	 #, tmp100
	movq	%rax, %rcx	 # tmp100,
	call	printf	 #
.L55:
 # ./test/pdsp_test.c:259:     PDSP_ASSERT(pdsp_map(-1.0f, 0.0f, 1.0f, 0.0f, 1.0f) == -1.0f);
	movss	.LC23(%rip), %xmm0	 #, tmp101
	movss	%xmm0, 32(%rsp)	 # tmp101,
	pxor	%xmm3, %xmm3	 #
	movss	.LC23(%rip), %xmm2	 #,
	pxor	%xmm1, %xmm1	 #
	movl	.LC26(%rip), %eax	 #, tmp102
	movd	%eax, %xmm0	 # tmp102,
	call	pdsp_map	 #
	movd	%xmm0, %eax	 #, _4
 # ./test/pdsp_test.c:259:     PDSP_ASSERT(pdsp_map(-1.0f, 0.0f, 1.0f, 0.0f, 1.0f) == -1.0f);
	movss	.LC26(%rip), %xmm0	 #, tmp103
	movd	%eax, %xmm3	 # _4, _4
	ucomiss	%xmm0, %xmm3	 # tmp103, _4
	jp	.L62	 #,
	movss	.LC26(%rip), %xmm0	 #, tmp104
	movd	%eax, %xmm4	 # _4, _4
	ucomiss	%xmm0, %xmm4	 # tmp104, _4
	je	.L63	 #,
.L62:
	movl	$259, %r8d	 #,
	leaq	.LC2(%rip), %rax	 #, tmp105
	movq	%rax, %rdx	 # tmp105,
	leaq	.LC3(%rip), %rax	 #, tmp106
	movq	%rax, %rcx	 # tmp106,
	call	printf	 #
.L63:
 # ./test/pdsp_test.c:265: }
	nop	
	addq	$48, %rsp	 #,
	popq	%rbp	 #
	ret	
	.seh_endproc
	.section .rdata,"dr"
	.align 8
.LC27:
	.ascii "-- void test_map_idx(void) --\12\0"
	.text
	.globl	test_map_idx
	.def	test_map_idx;	.scl	2;	.type	32;	.endef
	.seh_proc	test_map_idx
test_map_idx:
	pushq	%rbp	 #
	.seh_pushreg	%rbp
	movq	%rsp, %rbp	 #,
	.seh_setframe	%rbp, 0
	subq	$32, %rsp	 #,
	.seh_stackalloc	32
	.seh_endprologue
 # ./test/pdsp_test.c:269:     printf("-- void test_map_idx(void) --\n");
	leaq	.LC27(%rip), %rax	 #, tmp85
	movq	%rax, %rcx	 # tmp85,
	call	printf	 #
 # ./test/pdsp_test.c:273:     PDSP_ASSERT(pdsp_map_idx(1.5f, 1.0f, 2.0f, 10.0) == 5);
	movss	.LC28(%rip), %xmm3	 #,
	movss	.LC22(%rip), %xmm2	 #,
	movss	.LC23(%rip), %xmm1	 #,
	movl	.LC24(%rip), %eax	 #, tmp86
	movd	%eax, %xmm0	 # tmp86,
	call	pdsp_map_idx	 #
 # ./test/pdsp_test.c:273:     PDSP_ASSERT(pdsp_map_idx(1.5f, 1.0f, 2.0f, 10.0) == 5);
	cmpw	$5, %ax	 #, _1
	je	.L65	 #,
	movl	$273, %r8d	 #,
	leaq	.LC2(%rip), %rax	 #, tmp87
	movq	%rax, %rdx	 # tmp87,
	leaq	.LC3(%rip), %rax	 #, tmp88
	movq	%rax, %rcx	 # tmp88,
	call	printf	 #
.L65:
 # ./test/pdsp_test.c:274:     PDSP_ASSERT(pdsp_map_idx(-1.5f, 1.0f, 2.0f, 10.0) == 0);
	movss	.LC28(%rip), %xmm3	 #,
	movss	.LC22(%rip), %xmm2	 #,
	movss	.LC23(%rip), %xmm1	 #,
	movl	.LC29(%rip), %eax	 #, tmp89
	movd	%eax, %xmm0	 # tmp89,
	call	pdsp_map_idx	 #
 # ./test/pdsp_test.c:274:     PDSP_ASSERT(pdsp_map_idx(-1.5f, 1.0f, 2.0f, 10.0) == 0);
	testw	%ax, %ax	 # _2
	je	.L66	 #,
	movl	$274, %r8d	 #,
	leaq	.LC2(%rip), %rax	 #, tmp90
	movq	%rax, %rdx	 # tmp90,
	leaq	.LC3(%rip), %rax	 #, tmp91
	movq	%rax, %rcx	 # tmp91,
	call	printf	 #
.L66:
 # ./test/pdsp_test.c:275:     PDSP_ASSERT(pdsp_map_idx(3.0f, 1.0f, 2.0f, 10.0) == 10);
	movss	.LC28(%rip), %xmm3	 #,
	movss	.LC22(%rip), %xmm2	 #,
	movss	.LC23(%rip), %xmm1	 #,
	movl	.LC30(%rip), %eax	 #, tmp92
	movd	%eax, %xmm0	 # tmp92,
	call	pdsp_map_idx	 #
 # ./test/pdsp_test.c:275:     PDSP_ASSERT(pdsp_map_idx(3.0f, 1.0f, 2.0f, 10.0) == 10);
	cmpw	$10, %ax	 #, _3
	je	.L68	 #,
	movl	$275, %r8d	 #,
	leaq	.LC2(%rip), %rax	 #, tmp93
	movq	%rax, %rdx	 # tmp93,
	leaq	.LC3(%rip), %rax	 #, tmp94
	movq	%rax, %rcx	 # tmp94,
	call	printf	 #
.L68:
 # ./test/pdsp_test.c:276: }
	nop	
	addq	$32, %rsp	 #,
	popq	%rbp	 #
	ret	
	.seh_endproc
	.section .rdata,"dr"
	.align 8
.LC31:
	.ascii "-- void test_interpolate_2d(void) --\12\0"
	.text
	.globl	test_interpolate_2d
	.def	test_interpolate_2d;	.scl	2;	.type	32;	.endef
	.seh_proc	test_interpolate_2d
test_interpolate_2d:
	pushq	%rbp	 #
	.seh_pushreg	%rbp
	movq	%rsp, %rbp	 #,
	.seh_setframe	%rbp, 0
	addq	$-128, %rsp	 #,
	.seh_stackalloc	128
	.seh_endprologue
 # ./test/pdsp_test.c:280:     printf("-- void test_interpolate_2d(void) --\n");
	leaq	.LC31(%rip), %rax	 #, tmp94
	movq	%rax, %rcx	 # tmp94,
	call	printf	 #
 # ./test/pdsp_test.c:281:     const pdsp_f32_t xarr[5] = {0.0f, 1.0f, 2.0f, 3.0f, 4.0f};
	pxor	%xmm0, %xmm0	 # tmp95
	movss	%xmm0, -32(%rbp)	 # tmp95, xarr[0]
	movss	.LC23(%rip), %xmm0	 #, tmp96
	movss	%xmm0, -28(%rbp)	 # tmp96, xarr[1]
	movss	.LC22(%rip), %xmm0	 #, tmp97
	movss	%xmm0, -24(%rbp)	 # tmp97, xarr[2]
	movss	.LC30(%rip), %xmm0	 #, tmp98
	movss	%xmm0, -20(%rbp)	 # tmp98, xarr[3]
	movss	.LC32(%rip), %xmm0	 #, tmp99
	movss	%xmm0, -16(%rbp)	 # tmp99, xarr[4]
 # ./test/pdsp_test.c:282:     const pdsp_f32_t yarr[5] = {0.0f, 1.0f, 2.0f, 3.0f, 4.0f};
	pxor	%xmm0, %xmm0	 # tmp100
	movss	%xmm0, -64(%rbp)	 # tmp100, yarr[0]
	movss	.LC23(%rip), %xmm0	 #, tmp101
	movss	%xmm0, -60(%rbp)	 # tmp101, yarr[1]
	movss	.LC22(%rip), %xmm0	 #, tmp102
	movss	%xmm0, -56(%rbp)	 # tmp102, yarr[2]
	movss	.LC30(%rip), %xmm0	 #, tmp103
	movss	%xmm0, -52(%rbp)	 # tmp103, yarr[3]
	movss	.LC32(%rip), %xmm0	 #, tmp104
	movss	%xmm0, -48(%rbp)	 # tmp104, yarr[4]
 # ./test/pdsp_test.c:283:     const pdsp_f32_t yarrn[5] = {0.0f, -1.0f, -2.0f, -3.0f, -4.0f};
	pxor	%xmm0, %xmm0	 # tmp105
	movss	%xmm0, -96(%rbp)	 # tmp105, yarrn[0]
	movss	.LC26(%rip), %xmm0	 #, tmp106
	movss	%xmm0, -92(%rbp)	 # tmp106, yarrn[1]
	movss	.LC33(%rip), %xmm0	 #, tmp107
	movss	%xmm0, -88(%rbp)	 # tmp107, yarrn[2]
	movss	.LC34(%rip), %xmm0	 #, tmp108
	movss	%xmm0, -84(%rbp)	 # tmp108, yarrn[3]
	movss	.LC35(%rip), %xmm0	 #, tmp109
	movss	%xmm0, -80(%rbp)	 # tmp109, yarrn[4]
 # ./test/pdsp_test.c:284:     PDSP_ASSERT(pdsp_interpolate_2d(xarr, yarr, 5, -0.5f) == -0.5f);
	leaq	-64(%rbp), %rdx	 #, tmp110
	leaq	-32(%rbp), %rax	 #, tmp111
	movss	.LC36(%rip), %xmm3	 #,
	movl	$5, %r8d	 #,
	movq	%rax, %rcx	 # tmp111,
	call	pdsp_interpolate_2d	 #
	movd	%xmm0, %eax	 #, _1
 # ./test/pdsp_test.c:284:     PDSP_ASSERT(pdsp_interpolate_2d(xarr, yarr, 5, -0.5f) == -0.5f);
	movd	%eax, %xmm1	 # _1, _1
	ucomiss	.LC36(%rip), %xmm1	 #, _1
	jp	.L94	 #,
	movd	%eax, %xmm2	 # _1, _1
	ucomiss	.LC36(%rip), %xmm2	 #, _1
	je	.L70	 #,
.L94:
	movl	$284, %r8d	 #,
	leaq	.LC2(%rip), %rax	 #, tmp112
	movq	%rax, %rdx	 # tmp112,
	leaq	.LC3(%rip), %rax	 #, tmp113
	movq	%rax, %rcx	 # tmp113,
	call	printf	 #
.L70:
 # ./test/pdsp_test.c:285:     PDSP_ASSERT(pdsp_interpolate_2d(xarr, yarr, 5, 0.5f) == 0.5f);
	leaq	-64(%rbp), %rdx	 #, tmp114
	leaq	-32(%rbp), %rax	 #, tmp115
	movss	.LC37(%rip), %xmm3	 #,
	movl	$5, %r8d	 #,
	movq	%rax, %rcx	 # tmp115,
	call	pdsp_interpolate_2d	 #
	movd	%xmm0, %eax	 #, _2
 # ./test/pdsp_test.c:285:     PDSP_ASSERT(pdsp_interpolate_2d(xarr, yarr, 5, 0.5f) == 0.5f);
	movd	%eax, %xmm4	 # _2, _2
	ucomiss	.LC37(%rip), %xmm4	 #, _2
	jp	.L95	 #,
	movd	%eax, %xmm5	 # _2, _2
	ucomiss	.LC37(%rip), %xmm5	 #, _2
	je	.L72	 #,
.L95:
	movl	$285, %r8d	 #,
	leaq	.LC2(%rip), %rax	 #, tmp116
	movq	%rax, %rdx	 # tmp116,
	leaq	.LC3(%rip), %rax	 #, tmp117
	movq	%rax, %rcx	 # tmp117,
	call	printf	 #
.L72:
 # ./test/pdsp_test.c:286:     PDSP_ASSERT(pdsp_interpolate_2d(xarr, yarr, 5, 1.5f) == 1.5f);
	leaq	-64(%rbp), %rdx	 #, tmp118
	leaq	-32(%rbp), %rax	 #, tmp119
	movss	.LC24(%rip), %xmm3	 #,
	movl	$5, %r8d	 #,
	movq	%rax, %rcx	 # tmp119,
	call	pdsp_interpolate_2d	 #
	movd	%xmm0, %eax	 #, _3
 # ./test/pdsp_test.c:286:     PDSP_ASSERT(pdsp_interpolate_2d(xarr, yarr, 5, 1.5f) == 1.5f);
	movd	%eax, %xmm1	 # _3, _3
	ucomiss	.LC24(%rip), %xmm1	 #, _3
	jp	.L96	 #,
	movd	%eax, %xmm2	 # _3, _3
	ucomiss	.LC24(%rip), %xmm2	 #, _3
	je	.L74	 #,
.L96:
	movl	$286, %r8d	 #,
	leaq	.LC2(%rip), %rax	 #, tmp120
	movq	%rax, %rdx	 # tmp120,
	leaq	.LC3(%rip), %rax	 #, tmp121
	movq	%rax, %rcx	 # tmp121,
	call	printf	 #
.L74:
 # ./test/pdsp_test.c:287:     PDSP_ASSERT(pdsp_interpolate_2d(xarr, yarr, 5, 2.5f) == 2.5f);
	leaq	-64(%rbp), %rdx	 #, tmp122
	leaq	-32(%rbp), %rax	 #, tmp123
	movss	.LC38(%rip), %xmm3	 #,
	movl	$5, %r8d	 #,
	movq	%rax, %rcx	 # tmp123,
	call	pdsp_interpolate_2d	 #
	movd	%xmm0, %eax	 #, _4
 # ./test/pdsp_test.c:287:     PDSP_ASSERT(pdsp_interpolate_2d(xarr, yarr, 5, 2.5f) == 2.5f);
	movd	%eax, %xmm4	 # _4, _4
	ucomiss	.LC38(%rip), %xmm4	 #, _4
	jp	.L97	 #,
	movd	%eax, %xmm5	 # _4, _4
	ucomiss	.LC38(%rip), %xmm5	 #, _4
	je	.L76	 #,
.L97:
	movl	$287, %r8d	 #,
	leaq	.LC2(%rip), %rax	 #, tmp124
	movq	%rax, %rdx	 # tmp124,
	leaq	.LC3(%rip), %rax	 #, tmp125
	movq	%rax, %rcx	 # tmp125,
	call	printf	 #
.L76:
 # ./test/pdsp_test.c:288:     PDSP_ASSERT(pdsp_interpolate_2d(xarr, yarr, 5, 3.5f) == 3.5f);
	leaq	-64(%rbp), %rdx	 #, tmp126
	leaq	-32(%rbp), %rax	 #, tmp127
	movss	.LC39(%rip), %xmm3	 #,
	movl	$5, %r8d	 #,
	movq	%rax, %rcx	 # tmp127,
	call	pdsp_interpolate_2d	 #
	movd	%xmm0, %eax	 #, _5
 # ./test/pdsp_test.c:288:     PDSP_ASSERT(pdsp_interpolate_2d(xarr, yarr, 5, 3.5f) == 3.5f);
	movd	%eax, %xmm1	 # _5, _5
	ucomiss	.LC39(%rip), %xmm1	 #, _5
	jp	.L98	 #,
	movd	%eax, %xmm2	 # _5, _5
	ucomiss	.LC39(%rip), %xmm2	 #, _5
	je	.L78	 #,
.L98:
	movl	$288, %r8d	 #,
	leaq	.LC2(%rip), %rax	 #, tmp128
	movq	%rax, %rdx	 # tmp128,
	leaq	.LC3(%rip), %rax	 #, tmp129
	movq	%rax, %rcx	 # tmp129,
	call	printf	 #
.L78:
 # ./test/pdsp_test.c:289:     PDSP_ASSERT(pdsp_interpolate_2d(xarr, yarr, 5, 4.5f) == 4.5f);
	leaq	-64(%rbp), %rdx	 #, tmp130
	leaq	-32(%rbp), %rax	 #, tmp131
	movss	.LC40(%rip), %xmm3	 #,
	movl	$5, %r8d	 #,
	movq	%rax, %rcx	 # tmp131,
	call	pdsp_interpolate_2d	 #
	movd	%xmm0, %eax	 #, _6
 # ./test/pdsp_test.c:289:     PDSP_ASSERT(pdsp_interpolate_2d(xarr, yarr, 5, 4.5f) == 4.5f);
	movd	%eax, %xmm4	 # _6, _6
	ucomiss	.LC40(%rip), %xmm4	 #, _6
	jp	.L99	 #,
	movd	%eax, %xmm5	 # _6, _6
	ucomiss	.LC40(%rip), %xmm5	 #, _6
	je	.L80	 #,
.L99:
	movl	$289, %r8d	 #,
	leaq	.LC2(%rip), %rax	 #, tmp132
	movq	%rax, %rdx	 # tmp132,
	leaq	.LC3(%rip), %rax	 #, tmp133
	movq	%rax, %rcx	 # tmp133,
	call	printf	 #
.L80:
 # ./test/pdsp_test.c:290:     PDSP_ASSERT(pdsp_interpolate_2d(xarr, yarrn, 5, -0.5f) == 0.5f);
	leaq	-96(%rbp), %rdx	 #, tmp134
	leaq	-32(%rbp), %rax	 #, tmp135
	movss	.LC36(%rip), %xmm3	 #,
	movl	$5, %r8d	 #,
	movq	%rax, %rcx	 # tmp135,
	call	pdsp_interpolate_2d	 #
	movd	%xmm0, %eax	 #, _7
 # ./test/pdsp_test.c:290:     PDSP_ASSERT(pdsp_interpolate_2d(xarr, yarrn, 5, -0.5f) == 0.5f);
	movd	%eax, %xmm1	 # _7, _7
	ucomiss	.LC37(%rip), %xmm1	 #, _7
	jp	.L100	 #,
	movd	%eax, %xmm2	 # _7, _7
	ucomiss	.LC37(%rip), %xmm2	 #, _7
	je	.L82	 #,
.L100:
	movl	$290, %r8d	 #,
	leaq	.LC2(%rip), %rax	 #, tmp136
	movq	%rax, %rdx	 # tmp136,
	leaq	.LC3(%rip), %rax	 #, tmp137
	movq	%rax, %rcx	 # tmp137,
	call	printf	 #
.L82:
 # ./test/pdsp_test.c:291:     PDSP_ASSERT(pdsp_interpolate_2d(xarr, yarrn, 5, 0.5f) == -0.5f);
	leaq	-96(%rbp), %rdx	 #, tmp138
	leaq	-32(%rbp), %rax	 #, tmp139
	movss	.LC37(%rip), %xmm3	 #,
	movl	$5, %r8d	 #,
	movq	%rax, %rcx	 # tmp139,
	call	pdsp_interpolate_2d	 #
	movd	%xmm0, %eax	 #, _8
 # ./test/pdsp_test.c:291:     PDSP_ASSERT(pdsp_interpolate_2d(xarr, yarrn, 5, 0.5f) == -0.5f);
	movd	%eax, %xmm4	 # _8, _8
	ucomiss	.LC36(%rip), %xmm4	 #, _8
	jp	.L101	 #,
	movd	%eax, %xmm5	 # _8, _8
	ucomiss	.LC36(%rip), %xmm5	 #, _8
	je	.L84	 #,
.L101:
	movl	$291, %r8d	 #,
	leaq	.LC2(%rip), %rax	 #, tmp140
	movq	%rax, %rdx	 # tmp140,
	leaq	.LC3(%rip), %rax	 #, tmp141
	movq	%rax, %rcx	 # tmp141,
	call	printf	 #
.L84:
 # ./test/pdsp_test.c:292:     PDSP_ASSERT(pdsp_interpolate_2d(xarr, yarrn, 5, 1.5f) == -1.5f);
	leaq	-96(%rbp), %rdx	 #, tmp142
	leaq	-32(%rbp), %rax	 #, tmp143
	movss	.LC24(%rip), %xmm3	 #,
	movl	$5, %r8d	 #,
	movq	%rax, %rcx	 # tmp143,
	call	pdsp_interpolate_2d	 #
	movd	%xmm0, %eax	 #, _9
 # ./test/pdsp_test.c:292:     PDSP_ASSERT(pdsp_interpolate_2d(xarr, yarrn, 5, 1.5f) == -1.5f);
	movd	%eax, %xmm1	 # _9, _9
	ucomiss	.LC29(%rip), %xmm1	 #, _9
	jp	.L102	 #,
	movd	%eax, %xmm2	 # _9, _9
	ucomiss	.LC29(%rip), %xmm2	 #, _9
	je	.L86	 #,
.L102:
	movl	$292, %r8d	 #,
	leaq	.LC2(%rip), %rax	 #, tmp144
	movq	%rax, %rdx	 # tmp144,
	leaq	.LC3(%rip), %rax	 #, tmp145
	movq	%rax, %rcx	 # tmp145,
	call	printf	 #
.L86:
 # ./test/pdsp_test.c:293:     PDSP_ASSERT(pdsp_interpolate_2d(xarr, yarrn, 5, 2.5f) == -2.5f);
	leaq	-96(%rbp), %rdx	 #, tmp146
	leaq	-32(%rbp), %rax	 #, tmp147
	movss	.LC38(%rip), %xmm3	 #,
	movl	$5, %r8d	 #,
	movq	%rax, %rcx	 # tmp147,
	call	pdsp_interpolate_2d	 #
	movd	%xmm0, %eax	 #, _10
 # ./test/pdsp_test.c:293:     PDSP_ASSERT(pdsp_interpolate_2d(xarr, yarrn, 5, 2.5f) == -2.5f);
	movd	%eax, %xmm4	 # _10, _10
	ucomiss	.LC41(%rip), %xmm4	 #, _10
	jp	.L103	 #,
	movd	%eax, %xmm5	 # _10, _10
	ucomiss	.LC41(%rip), %xmm5	 #, _10
	je	.L88	 #,
.L103:
	movl	$293, %r8d	 #,
	leaq	.LC2(%rip), %rax	 #, tmp148
	movq	%rax, %rdx	 # tmp148,
	leaq	.LC3(%rip), %rax	 #, tmp149
	movq	%rax, %rcx	 # tmp149,
	call	printf	 #
.L88:
 # ./test/pdsp_test.c:294:     PDSP_ASSERT(pdsp_interpolate_2d(xarr, yarrn, 5, 3.5f) == -3.5f);
	leaq	-96(%rbp), %rdx	 #, tmp150
	leaq	-32(%rbp), %rax	 #, tmp151
	movss	.LC39(%rip), %xmm3	 #,
	movl	$5, %r8d	 #,
	movq	%rax, %rcx	 # tmp151,
	call	pdsp_interpolate_2d	 #
	movd	%xmm0, %eax	 #, _11
 # ./test/pdsp_test.c:294:     PDSP_ASSERT(pdsp_interpolate_2d(xarr, yarrn, 5, 3.5f) == -3.5f);
	movd	%eax, %xmm1	 # _11, _11
	ucomiss	.LC42(%rip), %xmm1	 #, _11
	jp	.L104	 #,
	movd	%eax, %xmm2	 # _11, _11
	ucomiss	.LC42(%rip), %xmm2	 #, _11
	je	.L90	 #,
.L104:
	movl	$294, %r8d	 #,
	leaq	.LC2(%rip), %rax	 #, tmp152
	movq	%rax, %rdx	 # tmp152,
	leaq	.LC3(%rip), %rax	 #, tmp153
	movq	%rax, %rcx	 # tmp153,
	call	printf	 #
.L90:
 # ./test/pdsp_test.c:295:     PDSP_ASSERT(pdsp_interpolate_2d(xarr, yarrn, 5, 4.5f) == -4.5f);
	leaq	-96(%rbp), %rdx	 #, tmp154
	leaq	-32(%rbp), %rax	 #, tmp155
	movss	.LC40(%rip), %xmm3	 #,
	movl	$5, %r8d	 #,
	movq	%rax, %rcx	 # tmp155,
	call	pdsp_interpolate_2d	 #
	movd	%xmm0, %eax	 #, _12
 # ./test/pdsp_test.c:295:     PDSP_ASSERT(pdsp_interpolate_2d(xarr, yarrn, 5, 4.5f) == -4.5f);
	movd	%eax, %xmm4	 # _12, _12
	ucomiss	.LC43(%rip), %xmm4	 #, _12
	jp	.L105	 #,
	movd	%eax, %xmm5	 # _12, _12
	ucomiss	.LC43(%rip), %xmm5	 #, _12
	je	.L106	 #,
.L105:
	movl	$295, %r8d	 #,
	leaq	.LC2(%rip), %rax	 #, tmp156
	movq	%rax, %rdx	 # tmp156,
	leaq	.LC3(%rip), %rax	 #, tmp157
	movq	%rax, %rcx	 # tmp157,
	call	printf	 #
.L106:
 # ./test/pdsp_test.c:296: }
	nop	
	subq	$-128, %rsp	 #,
	popq	%rbp	 #
	ret	
	.seh_endproc
	.section .rdata,"dr"
	.align 8
.LC44:
	.ascii "-- void test_array_set(void) --\12\0"
	.text
	.globl	test_array_set
	.def	test_array_set;	.scl	2;	.type	32;	.endef
	.seh_proc	test_array_set
test_array_set:
	pushq	%rbp	 #
	.seh_pushreg	%rbp
	movq	%rsp, %rbp	 #,
	.seh_setframe	%rbp, 0
	subq	$80, %rsp	 #,
	.seh_stackalloc	80
	.seh_endprologue
 # ./test/pdsp_test.c:300:     printf("-- void test_array_set(void) --\n");
	leaq	.LC44(%rip), %rax	 #, tmp102
	movq	%rax, %rcx	 # tmp102,
	call	printf	 #
 # ./test/pdsp_test.c:301:     pdsp_f32_t af32[5] = {1.0f, 2.0f, 3.0f, 4.0f, 5.0f};
	movss	.LC23(%rip), %xmm0	 #, tmp103
	movss	%xmm0, -32(%rbp)	 # tmp103, af32[0]
	movss	.LC22(%rip), %xmm0	 #, tmp104
	movss	%xmm0, -28(%rbp)	 # tmp104, af32[1]
	movss	.LC30(%rip), %xmm0	 #, tmp105
	movss	%xmm0, -24(%rbp)	 # tmp105, af32[2]
	movss	.LC32(%rip), %xmm0	 #, tmp106
	movss	%xmm0, -20(%rbp)	 # tmp106, af32[3]
	movss	.LC45(%rip), %xmm0	 #, tmp107
	movss	%xmm0, -16(%rbp)	 # tmp107, af32[4]
 # ./test/pdsp_test.c:302:     pdsp_i16_t ai16[5] = {1, 2, 3, 4, 5};
	movw	$1, -42(%rbp)	 #, ai16[0]
	movw	$2, -40(%rbp)	 #, ai16[1]
	movw	$3, -38(%rbp)	 #, ai16[2]
	movw	$4, -36(%rbp)	 #, ai16[3]
	movw	$5, -34(%rbp)	 #, ai16[4]
 # ./test/pdsp_test.c:303:     pdsp_array_set_f32(af32, 4, 0.0f);
	leaq	-32(%rbp), %rax	 #, tmp108
	pxor	%xmm2, %xmm2	 #
	movl	$4, %edx	 #,
	movq	%rax, %rcx	 # tmp108,
	call	pdsp_array_set_f32	 #
 # ./test/pdsp_test.c:304:     pdsp_array_set_i16(ai16, 4, 0);
	leaq	-42(%rbp), %rax	 #, tmp109
	movl	$0, %r8d	 #,
	movl	$4, %edx	 #,
	movq	%rax, %rcx	 # tmp109,
	call	pdsp_array_set_i16	 #
 # ./test/pdsp_test.c:305:     PDSP_ASSERT(af32[0] == 0.0f);
	movss	-32(%rbp), %xmm0	 # af32[0], _1
	pxor	%xmm1, %xmm1	 # tmp110
	ucomiss	%xmm1, %xmm0	 # tmp110, _1
	jp	.L138	 #,
	pxor	%xmm1, %xmm1	 # tmp111
	ucomiss	%xmm1, %xmm0	 # tmp111, _1
	je	.L108	 #,
.L138:
 # ./test/pdsp_test.c:305:     PDSP_ASSERT(af32[0] == 0.0f);
	movl	$305, %r8d	 #,
	leaq	.LC2(%rip), %rax	 #, tmp112
	movq	%rax, %rdx	 # tmp112,
	leaq	.LC3(%rip), %rax	 #, tmp113
	movq	%rax, %rcx	 # tmp113,
	call	printf	 #
.L108:
 # ./test/pdsp_test.c:306:     PDSP_ASSERT(af32[1] == 0.0f);
	movss	-28(%rbp), %xmm0	 # af32[1], _2
	pxor	%xmm1, %xmm1	 # tmp114
	ucomiss	%xmm1, %xmm0	 # tmp114, _2
	jp	.L139	 #,
	pxor	%xmm1, %xmm1	 # tmp115
	ucomiss	%xmm1, %xmm0	 # tmp115, _2
	je	.L110	 #,
.L139:
 # ./test/pdsp_test.c:306:     PDSP_ASSERT(af32[1] == 0.0f);
	movl	$306, %r8d	 #,
	leaq	.LC2(%rip), %rax	 #, tmp116
	movq	%rax, %rdx	 # tmp116,
	leaq	.LC3(%rip), %rax	 #, tmp117
	movq	%rax, %rcx	 # tmp117,
	call	printf	 #
.L110:
 # ./test/pdsp_test.c:307:     PDSP_ASSERT(af32[2] == 0.0f);
	movss	-24(%rbp), %xmm0	 # af32[2], _3
	pxor	%xmm1, %xmm1	 # tmp118
	ucomiss	%xmm1, %xmm0	 # tmp118, _3
	jp	.L140	 #,
	pxor	%xmm1, %xmm1	 # tmp119
	ucomiss	%xmm1, %xmm0	 # tmp119, _3
	je	.L112	 #,
.L140:
 # ./test/pdsp_test.c:307:     PDSP_ASSERT(af32[2] == 0.0f);
	movl	$307, %r8d	 #,
	leaq	.LC2(%rip), %rax	 #, tmp120
	movq	%rax, %rdx	 # tmp120,
	leaq	.LC3(%rip), %rax	 #, tmp121
	movq	%rax, %rcx	 # tmp121,
	call	printf	 #
.L112:
 # ./test/pdsp_test.c:308:     PDSP_ASSERT(af32[3] == 0.0f);
	movss	-20(%rbp), %xmm0	 # af32[3], _4
	pxor	%xmm1, %xmm1	 # tmp122
	ucomiss	%xmm1, %xmm0	 # tmp122, _4
	jp	.L141	 #,
	pxor	%xmm1, %xmm1	 # tmp123
	ucomiss	%xmm1, %xmm0	 # tmp123, _4
	je	.L114	 #,
.L141:
 # ./test/pdsp_test.c:308:     PDSP_ASSERT(af32[3] == 0.0f);
	movl	$308, %r8d	 #,
	leaq	.LC2(%rip), %rax	 #, tmp124
	movq	%rax, %rdx	 # tmp124,
	leaq	.LC3(%rip), %rax	 #, tmp125
	movq	%rax, %rcx	 # tmp125,
	call	printf	 #
.L114:
 # ./test/pdsp_test.c:309:     PDSP_ASSERT(af32[4] == 5.0f);
	movss	-16(%rbp), %xmm0	 # af32[4], _5
	ucomiss	.LC45(%rip), %xmm0	 #, _5
	jp	.L142	 #,
	ucomiss	.LC45(%rip), %xmm0	 #, _5
	je	.L116	 #,
.L142:
 # ./test/pdsp_test.c:309:     PDSP_ASSERT(af32[4] == 5.0f);
	movl	$309, %r8d	 #,
	leaq	.LC2(%rip), %rax	 #, tmp126
	movq	%rax, %rdx	 # tmp126,
	leaq	.LC3(%rip), %rax	 #, tmp127
	movq	%rax, %rcx	 # tmp127,
	call	printf	 #
.L116:
 # ./test/pdsp_test.c:310:     PDSP_ASSERT(ai16[0] == 0);
	movzwl	-42(%rbp), %eax	 # ai16[0], _6
	testw	%ax, %ax	 # _6
	je	.L118	 #,
 # ./test/pdsp_test.c:310:     PDSP_ASSERT(ai16[0] == 0);
	movl	$310, %r8d	 #,
	leaq	.LC2(%rip), %rax	 #, tmp128
	movq	%rax, %rdx	 # tmp128,
	leaq	.LC3(%rip), %rax	 #, tmp129
	movq	%rax, %rcx	 # tmp129,
	call	printf	 #
.L118:
 # ./test/pdsp_test.c:311:     PDSP_ASSERT(ai16[1] == 0);
	movzwl	-40(%rbp), %eax	 # ai16[1], _7
	testw	%ax, %ax	 # _7
	je	.L119	 #,
 # ./test/pdsp_test.c:311:     PDSP_ASSERT(ai16[1] == 0);
	movl	$311, %r8d	 #,
	leaq	.LC2(%rip), %rax	 #, tmp130
	movq	%rax, %rdx	 # tmp130,
	leaq	.LC3(%rip), %rax	 #, tmp131
	movq	%rax, %rcx	 # tmp131,
	call	printf	 #
.L119:
 # ./test/pdsp_test.c:312:     PDSP_ASSERT(ai16[2] == 0);
	movzwl	-38(%rbp), %eax	 # ai16[2], _8
	testw	%ax, %ax	 # _8
	je	.L120	 #,
 # ./test/pdsp_test.c:312:     PDSP_ASSERT(ai16[2] == 0);
	movl	$312, %r8d	 #,
	leaq	.LC2(%rip), %rax	 #, tmp132
	movq	%rax, %rdx	 # tmp132,
	leaq	.LC3(%rip), %rax	 #, tmp133
	movq	%rax, %rcx	 # tmp133,
	call	printf	 #
.L120:
 # ./test/pdsp_test.c:313:     PDSP_ASSERT(ai16[3] == 0);
	movzwl	-36(%rbp), %eax	 # ai16[3], _9
	testw	%ax, %ax	 # _9
	je	.L121	 #,
 # ./test/pdsp_test.c:313:     PDSP_ASSERT(ai16[3] == 0);
	movl	$313, %r8d	 #,
	leaq	.LC2(%rip), %rax	 #, tmp134
	movq	%rax, %rdx	 # tmp134,
	leaq	.LC3(%rip), %rax	 #, tmp135
	movq	%rax, %rcx	 # tmp135,
	call	printf	 #
.L121:
 # ./test/pdsp_test.c:314:     PDSP_ASSERT(ai16[4] == 5);
	movzwl	-34(%rbp), %eax	 # ai16[4], _10
	cmpw	$5, %ax	 #, _10
	je	.L122	 #,
 # ./test/pdsp_test.c:314:     PDSP_ASSERT(ai16[4] == 5);
	movl	$314, %r8d	 #,
	leaq	.LC2(%rip), %rax	 #, tmp136
	movq	%rax, %rdx	 # tmp136,
	leaq	.LC3(%rip), %rax	 #, tmp137
	movq	%rax, %rcx	 # tmp137,
	call	printf	 #
.L122:
 # ./test/pdsp_test.c:315:     pdsp_array_set_f32(af32, 4, 1.0f);
	leaq	-32(%rbp), %rax	 #, tmp138
	movss	.LC23(%rip), %xmm2	 #,
	movl	$4, %edx	 #,
	movq	%rax, %rcx	 # tmp138,
	call	pdsp_array_set_f32	 #
 # ./test/pdsp_test.c:316:     pdsp_array_set_i16(ai16, 4, 1);
	leaq	-42(%rbp), %rax	 #, tmp139
	movl	$1, %r8d	 #,
	movl	$4, %edx	 #,
	movq	%rax, %rcx	 # tmp139,
	call	pdsp_array_set_i16	 #
 # ./test/pdsp_test.c:317:     PDSP_ASSERT(af32[0] == 1.0f);
	movss	-32(%rbp), %xmm0	 # af32[0], _11
	movss	.LC23(%rip), %xmm1	 #, tmp140
	ucomiss	%xmm1, %xmm0	 # tmp140, _11
	jp	.L143	 #,
	movss	.LC23(%rip), %xmm1	 #, tmp141
	ucomiss	%xmm1, %xmm0	 # tmp141, _11
	je	.L123	 #,
.L143:
 # ./test/pdsp_test.c:317:     PDSP_ASSERT(af32[0] == 1.0f);
	movl	$317, %r8d	 #,
	leaq	.LC2(%rip), %rax	 #, tmp142
	movq	%rax, %rdx	 # tmp142,
	leaq	.LC3(%rip), %rax	 #, tmp143
	movq	%rax, %rcx	 # tmp143,
	call	printf	 #
.L123:
 # ./test/pdsp_test.c:318:     PDSP_ASSERT(af32[1] == 1.0f);
	movss	-28(%rbp), %xmm0	 # af32[1], _12
	movss	.LC23(%rip), %xmm1	 #, tmp144
	ucomiss	%xmm1, %xmm0	 # tmp144, _12
	jp	.L144	 #,
	movss	.LC23(%rip), %xmm1	 #, tmp145
	ucomiss	%xmm1, %xmm0	 # tmp145, _12
	je	.L125	 #,
.L144:
 # ./test/pdsp_test.c:318:     PDSP_ASSERT(af32[1] == 1.0f);
	movl	$318, %r8d	 #,
	leaq	.LC2(%rip), %rax	 #, tmp146
	movq	%rax, %rdx	 # tmp146,
	leaq	.LC3(%rip), %rax	 #, tmp147
	movq	%rax, %rcx	 # tmp147,
	call	printf	 #
.L125:
 # ./test/pdsp_test.c:319:     PDSP_ASSERT(af32[2] == 1.0f);
	movss	-24(%rbp), %xmm0	 # af32[2], _13
	movss	.LC23(%rip), %xmm1	 #, tmp148
	ucomiss	%xmm1, %xmm0	 # tmp148, _13
	jp	.L145	 #,
	movss	.LC23(%rip), %xmm1	 #, tmp149
	ucomiss	%xmm1, %xmm0	 # tmp149, _13
	je	.L127	 #,
.L145:
 # ./test/pdsp_test.c:319:     PDSP_ASSERT(af32[2] == 1.0f);
	movl	$319, %r8d	 #,
	leaq	.LC2(%rip), %rax	 #, tmp150
	movq	%rax, %rdx	 # tmp150,
	leaq	.LC3(%rip), %rax	 #, tmp151
	movq	%rax, %rcx	 # tmp151,
	call	printf	 #
.L127:
 # ./test/pdsp_test.c:320:     PDSP_ASSERT(af32[3] == 1.0f);
	movss	-20(%rbp), %xmm0	 # af32[3], _14
	movss	.LC23(%rip), %xmm1	 #, tmp152
	ucomiss	%xmm1, %xmm0	 # tmp152, _14
	jp	.L146	 #,
	movss	.LC23(%rip), %xmm1	 #, tmp153
	ucomiss	%xmm1, %xmm0	 # tmp153, _14
	je	.L129	 #,
.L146:
 # ./test/pdsp_test.c:320:     PDSP_ASSERT(af32[3] == 1.0f);
	movl	$320, %r8d	 #,
	leaq	.LC2(%rip), %rax	 #, tmp154
	movq	%rax, %rdx	 # tmp154,
	leaq	.LC3(%rip), %rax	 #, tmp155
	movq	%rax, %rcx	 # tmp155,
	call	printf	 #
.L129:
 # ./test/pdsp_test.c:321:     PDSP_ASSERT(af32[4] == 5.0f);
	movss	-16(%rbp), %xmm0	 # af32[4], _15
	ucomiss	.LC45(%rip), %xmm0	 #, _15
	jp	.L147	 #,
	ucomiss	.LC45(%rip), %xmm0	 #, _15
	je	.L131	 #,
.L147:
 # ./test/pdsp_test.c:321:     PDSP_ASSERT(af32[4] == 5.0f);
	movl	$321, %r8d	 #,
	leaq	.LC2(%rip), %rax	 #, tmp156
	movq	%rax, %rdx	 # tmp156,
	leaq	.LC3(%rip), %rax	 #, tmp157
	movq	%rax, %rcx	 # tmp157,
	call	printf	 #
.L131:
 # ./test/pdsp_test.c:322:     PDSP_ASSERT(ai16[0] == 1);
	movzwl	-42(%rbp), %eax	 # ai16[0], _16
	cmpw	$1, %ax	 #, _16
	je	.L133	 #,
 # ./test/pdsp_test.c:322:     PDSP_ASSERT(ai16[0] == 1);
	movl	$322, %r8d	 #,
	leaq	.LC2(%rip), %rax	 #, tmp158
	movq	%rax, %rdx	 # tmp158,
	leaq	.LC3(%rip), %rax	 #, tmp159
	movq	%rax, %rcx	 # tmp159,
	call	printf	 #
.L133:
 # ./test/pdsp_test.c:323:     PDSP_ASSERT(ai16[1] == 1);
	movzwl	-40(%rbp), %eax	 # ai16[1], _17
	cmpw	$1, %ax	 #, _17
	je	.L134	 #,
 # ./test/pdsp_test.c:323:     PDSP_ASSERT(ai16[1] == 1);
	movl	$323, %r8d	 #,
	leaq	.LC2(%rip), %rax	 #, tmp160
	movq	%rax, %rdx	 # tmp160,
	leaq	.LC3(%rip), %rax	 #, tmp161
	movq	%rax, %rcx	 # tmp161,
	call	printf	 #
.L134:
 # ./test/pdsp_test.c:324:     PDSP_ASSERT(ai16[2] == 1);
	movzwl	-38(%rbp), %eax	 # ai16[2], _18
	cmpw	$1, %ax	 #, _18
	je	.L135	 #,
 # ./test/pdsp_test.c:324:     PDSP_ASSERT(ai16[2] == 1);
	movl	$324, %r8d	 #,
	leaq	.LC2(%rip), %rax	 #, tmp162
	movq	%rax, %rdx	 # tmp162,
	leaq	.LC3(%rip), %rax	 #, tmp163
	movq	%rax, %rcx	 # tmp163,
	call	printf	 #
.L135:
 # ./test/pdsp_test.c:325:     PDSP_ASSERT(ai16[3] == 1);
	movzwl	-36(%rbp), %eax	 # ai16[3], _19
	cmpw	$1, %ax	 #, _19
	je	.L136	 #,
 # ./test/pdsp_test.c:325:     PDSP_ASSERT(ai16[3] == 1);
	movl	$325, %r8d	 #,
	leaq	.LC2(%rip), %rax	 #, tmp164
	movq	%rax, %rdx	 # tmp164,
	leaq	.LC3(%rip), %rax	 #, tmp165
	movq	%rax, %rcx	 # tmp165,
	call	printf	 #
.L136:
 # ./test/pdsp_test.c:326:     PDSP_ASSERT(ai16[4] == 5);
	movzwl	-34(%rbp), %eax	 # ai16[4], _20
	cmpw	$5, %ax	 #, _20
	je	.L148	 #,
 # ./test/pdsp_test.c:326:     PDSP_ASSERT(ai16[4] == 5);
	movl	$326, %r8d	 #,
	leaq	.LC2(%rip), %rax	 #, tmp166
	movq	%rax, %rdx	 # tmp166,
	leaq	.LC3(%rip), %rax	 #, tmp167
	movq	%rax, %rcx	 # tmp167,
	call	printf	 #
.L148:
 # ./test/pdsp_test.c:327: }
	nop	
	addq	$80, %rsp	 #,
	popq	%rbp	 #
	ret	
	.seh_endproc
	.globl	app_f32
	.def	app_f32;	.scl	2;	.type	32;	.endef
	.seh_proc	app_f32
app_f32:
	pushq	%rbp	 #
	.seh_pushreg	%rbp
	movq	%rsp, %rbp	 #,
	.seh_setframe	%rbp, 0
	.seh_endprologue
	movss	%xmm0, 16(%rbp)	 # in, in
 # ./test/pdsp_test.c:329: pdsp_f32_t app_f32(pdsp_f32_t in) { return in * 2.0f; }
	movss	16(%rbp), %xmm0	 # in, tmp84
	addss	%xmm0, %xmm0	 # tmp84, _2
 # ./test/pdsp_test.c:329: pdsp_f32_t app_f32(pdsp_f32_t in) { return in * 2.0f; }
	popq	%rbp	 #
	ret	
	.seh_endproc
	.globl	app_i16
	.def	app_i16;	.scl	2;	.type	32;	.endef
	.seh_proc	app_i16
app_i16:
	pushq	%rbp	 #
	.seh_pushreg	%rbp
	movq	%rsp, %rbp	 #,
	.seh_setframe	%rbp, 0
	.seh_endprologue
	movl	%ecx, %eax	 # in, tmp86
	movw	%ax, 16(%rbp)	 # tmp87, in
 # ./test/pdsp_test.c:330: pdsp_i16_t app_i16(pdsp_i16_t in) { return in * 2; }
	movzwl	16(%rbp), %eax	 # in, in.59_1
	addl	%eax, %eax	 # _2
 # ./test/pdsp_test.c:330: pdsp_i16_t app_i16(pdsp_i16_t in) { return in * 2; }
	popq	%rbp	 #
	ret	
	.seh_endproc
	.section .rdata,"dr"
	.align 8
.LC46:
	.ascii "-- void test_array_apply(void) --\12\0"
	.text
	.globl	test_array_apply
	.def	test_array_apply;	.scl	2;	.type	32;	.endef
	.seh_proc	test_array_apply
test_array_apply:
	pushq	%rbp	 #
	.seh_pushreg	%rbp
	movq	%rsp, %rbp	 #,
	.seh_setframe	%rbp, 0
	addq	$-128, %rsp	 #,
	.seh_stackalloc	128
	.seh_endprologue
 # ./test/pdsp_test.c:334:     printf("-- void test_array_apply(void) --\n");
	leaq	.LC46(%rip), %rax	 #, tmp92
	movq	%rax, %rcx	 # tmp92,
	call	printf	 #
 # ./test/pdsp_test.c:335:     const pdsp_f32_t af32[5] = {1.0f, 2.0f, 3.0f, 4.0f, 5.0f};
	movss	.LC23(%rip), %xmm0	 #, tmp93
	movss	%xmm0, -32(%rbp)	 # tmp93, af32[0]
	movss	.LC22(%rip), %xmm0	 #, tmp94
	movss	%xmm0, -28(%rbp)	 # tmp94, af32[1]
	movss	.LC30(%rip), %xmm0	 #, tmp95
	movss	%xmm0, -24(%rbp)	 # tmp95, af32[2]
	movss	.LC32(%rip), %xmm0	 #, tmp96
	movss	%xmm0, -20(%rbp)	 # tmp96, af32[3]
	movss	.LC45(%rip), %xmm0	 #, tmp97
	movss	%xmm0, -16(%rbp)	 # tmp97, af32[4]
 # ./test/pdsp_test.c:336:     pdsp_f32_t af32_out[5] = {0};
	pxor	%xmm0, %xmm0	 # tmp98
	movups	%xmm0, -64(%rbp)	 # tmp98, af32_out
	movd	%xmm0, -48(%rbp)	 # tmp98, af32_out
 # ./test/pdsp_test.c:337:     const pdsp_i16_t ai16[5] = {1, 2, 3, 4, 5};
	movw	$1, -74(%rbp)	 #, ai16[0]
	movw	$2, -72(%rbp)	 #, ai16[1]
	movw	$3, -70(%rbp)	 #, ai16[2]
	movw	$4, -68(%rbp)	 #, ai16[3]
	movw	$5, -66(%rbp)	 #, ai16[4]
 # ./test/pdsp_test.c:338:     pdsp_i16_t ai16_out[5] = {0};
	movq	$0, -84(%rbp)	 #, ai16_out
	movw	$0, -76(%rbp)	 #, ai16_out
 # ./test/pdsp_test.c:339:     pdsp_array_apply_f32(af32, af32_out, 4, app_f32);
	leaq	-64(%rbp), %rdx	 #, tmp99
	leaq	-32(%rbp), %rax	 #, tmp100
	leaq	app_f32(%rip), %r9	 #,
	movl	$4, %r8d	 #,
	movq	%rax, %rcx	 # tmp100,
	call	pdsp_array_apply_f32	 #
 # ./test/pdsp_test.c:340:     pdsp_array_apply_i16(ai16, ai16_out, 4, app_i16);
	leaq	-84(%rbp), %rdx	 #, tmp101
	leaq	-74(%rbp), %rax	 #, tmp102
	leaq	app_i16(%rip), %r9	 #,
	movl	$4, %r8d	 #,
	movq	%rax, %rcx	 # tmp102,
	call	pdsp_array_apply_i16	 #
 # ./test/pdsp_test.c:341:     PDSP_ASSERT(af32_out[0] == 2.0f);
	movss	-64(%rbp), %xmm0	 # af32_out[0], _1
	ucomiss	.LC22(%rip), %xmm0	 #, _1
	jp	.L174	 #,
	ucomiss	.LC22(%rip), %xmm0	 #, _1
	je	.L154	 #,
.L174:
 # ./test/pdsp_test.c:341:     PDSP_ASSERT(af32_out[0] == 2.0f);
	movl	$341, %r8d	 #,
	leaq	.LC2(%rip), %rax	 #, tmp103
	movq	%rax, %rdx	 # tmp103,
	leaq	.LC3(%rip), %rax	 #, tmp104
	movq	%rax, %rcx	 # tmp104,
	call	printf	 #
.L154:
 # ./test/pdsp_test.c:342:     PDSP_ASSERT(af32_out[1] == 4.0f);
	movss	-60(%rbp), %xmm0	 # af32_out[1], _2
	ucomiss	.LC32(%rip), %xmm0	 #, _2
	jp	.L175	 #,
	ucomiss	.LC32(%rip), %xmm0	 #, _2
	je	.L156	 #,
.L175:
 # ./test/pdsp_test.c:342:     PDSP_ASSERT(af32_out[1] == 4.0f);
	movl	$342, %r8d	 #,
	leaq	.LC2(%rip), %rax	 #, tmp105
	movq	%rax, %rdx	 # tmp105,
	leaq	.LC3(%rip), %rax	 #, tmp106
	movq	%rax, %rcx	 # tmp106,
	call	printf	 #
.L156:
 # ./test/pdsp_test.c:343:     PDSP_ASSERT(af32_out[2] == 6.0f);
	movss	-56(%rbp), %xmm0	 # af32_out[2], _3
	ucomiss	.LC47(%rip), %xmm0	 #, _3
	jp	.L176	 #,
	ucomiss	.LC47(%rip), %xmm0	 #, _3
	je	.L158	 #,
.L176:
 # ./test/pdsp_test.c:343:     PDSP_ASSERT(af32_out[2] == 6.0f);
	movl	$343, %r8d	 #,
	leaq	.LC2(%rip), %rax	 #, tmp107
	movq	%rax, %rdx	 # tmp107,
	leaq	.LC3(%rip), %rax	 #, tmp108
	movq	%rax, %rcx	 # tmp108,
	call	printf	 #
.L158:
 # ./test/pdsp_test.c:344:     PDSP_ASSERT(af32_out[3] == 8.0f);
	movss	-52(%rbp), %xmm0	 # af32_out[3], _4
	ucomiss	.LC48(%rip), %xmm0	 #, _4
	jp	.L177	 #,
	ucomiss	.LC48(%rip), %xmm0	 #, _4
	je	.L160	 #,
.L177:
 # ./test/pdsp_test.c:344:     PDSP_ASSERT(af32_out[3] == 8.0f);
	movl	$344, %r8d	 #,
	leaq	.LC2(%rip), %rax	 #, tmp109
	movq	%rax, %rdx	 # tmp109,
	leaq	.LC3(%rip), %rax	 #, tmp110
	movq	%rax, %rcx	 # tmp110,
	call	printf	 #
.L160:
 # ./test/pdsp_test.c:345:     PDSP_ASSERT(af32_out[4] == 0.0f);
	movss	-48(%rbp), %xmm0	 # af32_out[4], _5
	pxor	%xmm1, %xmm1	 # tmp111
	ucomiss	%xmm1, %xmm0	 # tmp111, _5
	jp	.L178	 #,
	pxor	%xmm1, %xmm1	 # tmp112
	ucomiss	%xmm1, %xmm0	 # tmp112, _5
	je	.L162	 #,
.L178:
 # ./test/pdsp_test.c:345:     PDSP_ASSERT(af32_out[4] == 0.0f);
	movl	$345, %r8d	 #,
	leaq	.LC2(%rip), %rax	 #, tmp113
	movq	%rax, %rdx	 # tmp113,
	leaq	.LC3(%rip), %rax	 #, tmp114
	movq	%rax, %rcx	 # tmp114,
	call	printf	 #
.L162:
 # ./test/pdsp_test.c:346:     PDSP_ASSERT(af32_out[0] == 2);
	movss	-64(%rbp), %xmm0	 # af32_out[0], _6
	ucomiss	.LC22(%rip), %xmm0	 #, _6
	jp	.L179	 #,
	ucomiss	.LC22(%rip), %xmm0	 #, _6
	je	.L164	 #,
.L179:
 # ./test/pdsp_test.c:346:     PDSP_ASSERT(af32_out[0] == 2);
	movl	$346, %r8d	 #,
	leaq	.LC2(%rip), %rax	 #, tmp115
	movq	%rax, %rdx	 # tmp115,
	leaq	.LC3(%rip), %rax	 #, tmp116
	movq	%rax, %rcx	 # tmp116,
	call	printf	 #
.L164:
 # ./test/pdsp_test.c:347:     PDSP_ASSERT(af32_out[1] == 4);
	movss	-60(%rbp), %xmm0	 # af32_out[1], _7
	ucomiss	.LC32(%rip), %xmm0	 #, _7
	jp	.L180	 #,
	ucomiss	.LC32(%rip), %xmm0	 #, _7
	je	.L166	 #,
.L180:
 # ./test/pdsp_test.c:347:     PDSP_ASSERT(af32_out[1] == 4);
	movl	$347, %r8d	 #,
	leaq	.LC2(%rip), %rax	 #, tmp117
	movq	%rax, %rdx	 # tmp117,
	leaq	.LC3(%rip), %rax	 #, tmp118
	movq	%rax, %rcx	 # tmp118,
	call	printf	 #
.L166:
 # ./test/pdsp_test.c:348:     PDSP_ASSERT(af32_out[2] == 6);
	movss	-56(%rbp), %xmm0	 # af32_out[2], _8
	ucomiss	.LC47(%rip), %xmm0	 #, _8
	jp	.L181	 #,
	ucomiss	.LC47(%rip), %xmm0	 #, _8
	je	.L168	 #,
.L181:
 # ./test/pdsp_test.c:348:     PDSP_ASSERT(af32_out[2] == 6);
	movl	$348, %r8d	 #,
	leaq	.LC2(%rip), %rax	 #, tmp119
	movq	%rax, %rdx	 # tmp119,
	leaq	.LC3(%rip), %rax	 #, tmp120
	movq	%rax, %rcx	 # tmp120,
	call	printf	 #
.L168:
 # ./test/pdsp_test.c:349:     PDSP_ASSERT(af32_out[3] == 8);
	movss	-52(%rbp), %xmm0	 # af32_out[3], _9
	ucomiss	.LC48(%rip), %xmm0	 #, _9
	jp	.L182	 #,
	ucomiss	.LC48(%rip), %xmm0	 #, _9
	je	.L170	 #,
.L182:
 # ./test/pdsp_test.c:349:     PDSP_ASSERT(af32_out[3] == 8);
	movl	$349, %r8d	 #,
	leaq	.LC2(%rip), %rax	 #, tmp121
	movq	%rax, %rdx	 # tmp121,
	leaq	.LC3(%rip), %rax	 #, tmp122
	movq	%rax, %rcx	 # tmp122,
	call	printf	 #
.L170:
 # ./test/pdsp_test.c:350:     PDSP_ASSERT(af32_out[4] == 0);
	movss	-48(%rbp), %xmm0	 # af32_out[4], _10
	pxor	%xmm1, %xmm1	 # tmp123
	ucomiss	%xmm1, %xmm0	 # tmp123, _10
	jp	.L183	 #,
	pxor	%xmm1, %xmm1	 # tmp124
	ucomiss	%xmm1, %xmm0	 # tmp124, _10
	je	.L184	 #,
.L183:
 # ./test/pdsp_test.c:350:     PDSP_ASSERT(af32_out[4] == 0);
	movl	$350, %r8d	 #,
	leaq	.LC2(%rip), %rax	 #, tmp125
	movq	%rax, %rdx	 # tmp125,
	leaq	.LC3(%rip), %rax	 #, tmp126
	movq	%rax, %rcx	 # tmp126,
	call	printf	 #
.L184:
 # ./test/pdsp_test.c:351: }
	nop	
	subq	$-128, %rsp	 #,
	popq	%rbp	 #
	ret	
	.seh_endproc
	.section .rdata,"dr"
	.align 8
.LC49:
	.ascii "-- void test_array_linlogspace(void) --\12\0"
	.text
	.globl	test_array_linlogspace
	.def	test_array_linlogspace;	.scl	2;	.type	32;	.endef
	.seh_proc	test_array_linlogspace
test_array_linlogspace:
	pushq	%rbp	 #
	.seh_pushreg	%rbp
	movq	%rsp, %rbp	 #,
	.seh_setframe	%rbp, 0
	subq	$64, %rsp	 #,
	.seh_stackalloc	64
	.seh_endprologue
 # ./test/pdsp_test.c:355:     printf("-- void test_array_linlogspace(void) --\n");
	leaq	.LC49(%rip), %rax	 #, tmp97
	movq	%rax, %rcx	 # tmp97,
	call	printf	 #
 # ./test/pdsp_test.c:356:     pdsp_f32_t af32_out[5] = {0};
	pxor	%xmm0, %xmm0	 # tmp98
	movups	%xmm0, -32(%rbp)	 # tmp98, af32_out
	movd	%xmm0, -16(%rbp)	 # tmp98, af32_out
 # ./test/pdsp_test.c:357:     pdsp_array_linspace_f32(af32_out, 4, 10.0f, 40.0f);
	leaq	-32(%rbp), %rax	 #, tmp99
	movss	.LC50(%rip), %xmm3	 #,
	movss	.LC28(%rip), %xmm2	 #,
	movl	$4, %edx	 #,
	movq	%rax, %rcx	 # tmp99,
	call	pdsp_array_linspace_f32	 #
 # ./test/pdsp_test.c:358:     PDSP_ASSERT(af32_out[0] == 10.0f);
	movss	-32(%rbp), %xmm0	 # af32_out[0], _1
	ucomiss	.LC28(%rip), %xmm0	 #, _1
	jp	.L216	 #,
	ucomiss	.LC28(%rip), %xmm0	 #, _1
	je	.L186	 #,
.L216:
 # ./test/pdsp_test.c:358:     PDSP_ASSERT(af32_out[0] == 10.0f);
	movl	$358, %r8d	 #,
	leaq	.LC2(%rip), %rax	 #, tmp100
	movq	%rax, %rdx	 # tmp100,
	leaq	.LC3(%rip), %rax	 #, tmp101
	movq	%rax, %rcx	 # tmp101,
	call	printf	 #
.L186:
 # ./test/pdsp_test.c:359:     PDSP_ASSERT(af32_out[1] == 20.0f);
	movss	-28(%rbp), %xmm0	 # af32_out[1], _2
	ucomiss	.LC51(%rip), %xmm0	 #, _2
	jp	.L217	 #,
	ucomiss	.LC51(%rip), %xmm0	 #, _2
	je	.L188	 #,
.L217:
 # ./test/pdsp_test.c:359:     PDSP_ASSERT(af32_out[1] == 20.0f);
	movl	$359, %r8d	 #,
	leaq	.LC2(%rip), %rax	 #, tmp102
	movq	%rax, %rdx	 # tmp102,
	leaq	.LC3(%rip), %rax	 #, tmp103
	movq	%rax, %rcx	 # tmp103,
	call	printf	 #
.L188:
 # ./test/pdsp_test.c:360:     PDSP_ASSERT(af32_out[2] == 30.0f);
	movss	-24(%rbp), %xmm0	 # af32_out[2], _3
	ucomiss	.LC52(%rip), %xmm0	 #, _3
	jp	.L218	 #,
	ucomiss	.LC52(%rip), %xmm0	 #, _3
	je	.L190	 #,
.L218:
 # ./test/pdsp_test.c:360:     PDSP_ASSERT(af32_out[2] == 30.0f);
	movl	$360, %r8d	 #,
	leaq	.LC2(%rip), %rax	 #, tmp104
	movq	%rax, %rdx	 # tmp104,
	leaq	.LC3(%rip), %rax	 #, tmp105
	movq	%rax, %rcx	 # tmp105,
	call	printf	 #
.L190:
 # ./test/pdsp_test.c:361:     PDSP_ASSERT(af32_out[3] == 40.0f);
	movss	-20(%rbp), %xmm0	 # af32_out[3], _4
	ucomiss	.LC50(%rip), %xmm0	 #, _4
	jp	.L219	 #,
	ucomiss	.LC50(%rip), %xmm0	 #, _4
	je	.L192	 #,
.L219:
 # ./test/pdsp_test.c:361:     PDSP_ASSERT(af32_out[3] == 40.0f);
	movl	$361, %r8d	 #,
	leaq	.LC2(%rip), %rax	 #, tmp106
	movq	%rax, %rdx	 # tmp106,
	leaq	.LC3(%rip), %rax	 #, tmp107
	movq	%rax, %rcx	 # tmp107,
	call	printf	 #
.L192:
 # ./test/pdsp_test.c:362:     PDSP_ASSERT(af32_out[4] == 0.0f);
	movss	-16(%rbp), %xmm0	 # af32_out[4], _5
	pxor	%xmm1, %xmm1	 # tmp108
	ucomiss	%xmm1, %xmm0	 # tmp108, _5
	jp	.L220	 #,
	pxor	%xmm1, %xmm1	 # tmp109
	ucomiss	%xmm1, %xmm0	 # tmp109, _5
	je	.L194	 #,
.L220:
 # ./test/pdsp_test.c:362:     PDSP_ASSERT(af32_out[4] == 0.0f);
	movl	$362, %r8d	 #,
	leaq	.LC2(%rip), %rax	 #, tmp110
	movq	%rax, %rdx	 # tmp110,
	leaq	.LC3(%rip), %rax	 #, tmp111
	movq	%rax, %rcx	 # tmp111,
	call	printf	 #
.L194:
 # ./test/pdsp_test.c:363:     pdsp_array_linspace_f32(af32_out, 5, 10.0f, 50.0f);
	leaq	-32(%rbp), %rax	 #, tmp112
	movss	.LC53(%rip), %xmm3	 #,
	movss	.LC28(%rip), %xmm2	 #,
	movl	$5, %edx	 #,
	movq	%rax, %rcx	 # tmp112,
	call	pdsp_array_linspace_f32	 #
 # ./test/pdsp_test.c:364:     PDSP_ASSERT(af32_out[0] == 10.0f);
	movss	-32(%rbp), %xmm0	 # af32_out[0], _6
	ucomiss	.LC28(%rip), %xmm0	 #, _6
	jp	.L221	 #,
	ucomiss	.LC28(%rip), %xmm0	 #, _6
	je	.L196	 #,
.L221:
 # ./test/pdsp_test.c:364:     PDSP_ASSERT(af32_out[0] == 10.0f);
	movl	$364, %r8d	 #,
	leaq	.LC2(%rip), %rax	 #, tmp113
	movq	%rax, %rdx	 # tmp113,
	leaq	.LC3(%rip), %rax	 #, tmp114
	movq	%rax, %rcx	 # tmp114,
	call	printf	 #
.L196:
 # ./test/pdsp_test.c:365:     PDSP_ASSERT(af32_out[1] == 20.0f);
	movss	-28(%rbp), %xmm0	 # af32_out[1], _7
	ucomiss	.LC51(%rip), %xmm0	 #, _7
	jp	.L222	 #,
	ucomiss	.LC51(%rip), %xmm0	 #, _7
	je	.L198	 #,
.L222:
 # ./test/pdsp_test.c:365:     PDSP_ASSERT(af32_out[1] == 20.0f);
	movl	$365, %r8d	 #,
	leaq	.LC2(%rip), %rax	 #, tmp115
	movq	%rax, %rdx	 # tmp115,
	leaq	.LC3(%rip), %rax	 #, tmp116
	movq	%rax, %rcx	 # tmp116,
	call	printf	 #
.L198:
 # ./test/pdsp_test.c:366:     PDSP_ASSERT(af32_out[2] == 30.0f);
	movss	-24(%rbp), %xmm0	 # af32_out[2], _8
	ucomiss	.LC52(%rip), %xmm0	 #, _8
	jp	.L223	 #,
	ucomiss	.LC52(%rip), %xmm0	 #, _8
	je	.L200	 #,
.L223:
 # ./test/pdsp_test.c:366:     PDSP_ASSERT(af32_out[2] == 30.0f);
	movl	$366, %r8d	 #,
	leaq	.LC2(%rip), %rax	 #, tmp117
	movq	%rax, %rdx	 # tmp117,
	leaq	.LC3(%rip), %rax	 #, tmp118
	movq	%rax, %rcx	 # tmp118,
	call	printf	 #
.L200:
 # ./test/pdsp_test.c:367:     PDSP_ASSERT(af32_out[3] == 40.0f);
	movss	-20(%rbp), %xmm0	 # af32_out[3], _9
	ucomiss	.LC50(%rip), %xmm0	 #, _9
	jp	.L224	 #,
	ucomiss	.LC50(%rip), %xmm0	 #, _9
	je	.L202	 #,
.L224:
 # ./test/pdsp_test.c:367:     PDSP_ASSERT(af32_out[3] == 40.0f);
	movl	$367, %r8d	 #,
	leaq	.LC2(%rip), %rax	 #, tmp119
	movq	%rax, %rdx	 # tmp119,
	leaq	.LC3(%rip), %rax	 #, tmp120
	movq	%rax, %rcx	 # tmp120,
	call	printf	 #
.L202:
 # ./test/pdsp_test.c:368:     PDSP_ASSERT(af32_out[4] == 50.0f);
	movss	-16(%rbp), %xmm0	 # af32_out[4], _10
	ucomiss	.LC53(%rip), %xmm0	 #, _10
	jp	.L225	 #,
	ucomiss	.LC53(%rip), %xmm0	 #, _10
	je	.L204	 #,
.L225:
 # ./test/pdsp_test.c:368:     PDSP_ASSERT(af32_out[4] == 50.0f);
	movl	$368, %r8d	 #,
	leaq	.LC2(%rip), %rax	 #, tmp121
	movq	%rax, %rdx	 # tmp121,
	leaq	.LC3(%rip), %rax	 #, tmp122
	movq	%rax, %rcx	 # tmp122,
	call	printf	 #
.L204:
 # ./test/pdsp_test.c:369:     pdsp_array_logspace_f32(af32_out, 5, 1.0f, 2.0f);
	leaq	-32(%rbp), %rax	 #, tmp123
	movss	.LC22(%rip), %xmm3	 #,
	movss	.LC23(%rip), %xmm2	 #,
	movl	$5, %edx	 #,
	movq	%rax, %rcx	 # tmp123,
	call	pdsp_array_logspace_f32	 #
 # ./test/pdsp_test.c:370:     PDSP_ASSERT(af32_out[0] == powf(10.0f, 1.0f));
	movss	-32(%rbp), %xmm0	 # af32_out[0], _11
	ucomiss	.LC28(%rip), %xmm0	 #, _11
	jp	.L226	 #,
	ucomiss	.LC28(%rip), %xmm0	 #, _11
	je	.L206	 #,
.L226:
 # ./test/pdsp_test.c:370:     PDSP_ASSERT(af32_out[0] == powf(10.0f, 1.0f));
	movl	$370, %r8d	 #,
	leaq	.LC2(%rip), %rax	 #, tmp124
	movq	%rax, %rdx	 # tmp124,
	leaq	.LC3(%rip), %rax	 #, tmp125
	movq	%rax, %rcx	 # tmp125,
	call	printf	 #
.L206:
 # ./test/pdsp_test.c:371:     PDSP_ASSERT(af32_out[1] == powf(10.0f, 1.25f));
	movss	-28(%rbp), %xmm0	 # af32_out[1], _12
	ucomiss	.LC54(%rip), %xmm0	 #, _12
	jp	.L227	 #,
	ucomiss	.LC54(%rip), %xmm0	 #, _12
	je	.L208	 #,
.L227:
 # ./test/pdsp_test.c:371:     PDSP_ASSERT(af32_out[1] == powf(10.0f, 1.25f));
	movl	$371, %r8d	 #,
	leaq	.LC2(%rip), %rax	 #, tmp126
	movq	%rax, %rdx	 # tmp126,
	leaq	.LC3(%rip), %rax	 #, tmp127
	movq	%rax, %rcx	 # tmp127,
	call	printf	 #
.L208:
 # ./test/pdsp_test.c:372:     PDSP_ASSERT(af32_out[2] == powf(10.0f, 1.5f));
	movss	-24(%rbp), %xmm0	 # af32_out[2], _13
	ucomiss	.LC55(%rip), %xmm0	 #, _13
	jp	.L228	 #,
	ucomiss	.LC55(%rip), %xmm0	 #, _13
	je	.L210	 #,
.L228:
 # ./test/pdsp_test.c:372:     PDSP_ASSERT(af32_out[2] == powf(10.0f, 1.5f));
	movl	$372, %r8d	 #,
	leaq	.LC2(%rip), %rax	 #, tmp128
	movq	%rax, %rdx	 # tmp128,
	leaq	.LC3(%rip), %rax	 #, tmp129
	movq	%rax, %rcx	 # tmp129,
	call	printf	 #
.L210:
 # ./test/pdsp_test.c:373:     PDSP_ASSERT(af32_out[3] == powf(10.0f, 1.75f));
	movss	-20(%rbp), %xmm0	 # af32_out[3], _14
	ucomiss	.LC56(%rip), %xmm0	 #, _14
	jp	.L229	 #,
	ucomiss	.LC56(%rip), %xmm0	 #, _14
	je	.L212	 #,
.L229:
 # ./test/pdsp_test.c:373:     PDSP_ASSERT(af32_out[3] == powf(10.0f, 1.75f));
	movl	$373, %r8d	 #,
	leaq	.LC2(%rip), %rax	 #, tmp130
	movq	%rax, %rdx	 # tmp130,
	leaq	.LC3(%rip), %rax	 #, tmp131
	movq	%rax, %rcx	 # tmp131,
	call	printf	 #
.L212:
 # ./test/pdsp_test.c:374:     PDSP_ASSERT(af32_out[4] == powf(10.0f, 2.0f));
	movss	-16(%rbp), %xmm0	 # af32_out[4], _15
	ucomiss	.LC57(%rip), %xmm0	 #, _15
	jp	.L230	 #,
	ucomiss	.LC57(%rip), %xmm0	 #, _15
	je	.L231	 #,
.L230:
 # ./test/pdsp_test.c:374:     PDSP_ASSERT(af32_out[4] == powf(10.0f, 2.0f));
	movl	$374, %r8d	 #,
	leaq	.LC2(%rip), %rax	 #, tmp132
	movq	%rax, %rdx	 # tmp132,
	leaq	.LC3(%rip), %rax	 #, tmp133
	movq	%rax, %rcx	 # tmp133,
	call	printf	 #
.L231:
 # ./test/pdsp_test.c:375: }
	nop	
	addq	$64, %rsp	 #,
	popq	%rbp	 #
	ret	
	.seh_endproc
	.section .rdata,"dr"
	.align 8
.LC58:
	.ascii "-- void test_hysteresis_value(void) --\12\0"
	.text
	.globl	test_hysteresis_value
	.def	test_hysteresis_value;	.scl	2;	.type	32;	.endef
	.seh_proc	test_hysteresis_value
test_hysteresis_value:
	pushq	%rbp	 #
	.seh_pushreg	%rbp
	movq	%rsp, %rbp	 #,
	.seh_setframe	%rbp, 0
	subq	$64, %rsp	 #,
	.seh_stackalloc	64
	.seh_endprologue
 # ./test/pdsp_test.c:379:     printf("-- void test_hysteresis_value(void) --\n");
	leaq	.LC58(%rip), %rax	 #, tmp140
	movq	%rax, %rcx	 # tmp140,
	call	printf	 #
 # ./test/pdsp_test.c:380:     pdsp_hyst_t hyst = {.b_state = 0, .f32_low = -1.0f, .f32_high = 1.0f};
	movb	$0, -12(%rbp)	 #, hyst.b_state
	movss	.LC26(%rip), %xmm0	 #, tmp141
	movss	%xmm0, -8(%rbp)	 # tmp141, hyst.f32_low
	movss	.LC23(%rip), %xmm0	 #, tmp142
	movss	%xmm0, -4(%rbp)	 # tmp142, hyst.f32_high
 # ./test/pdsp_test.c:381:     pdsp_hysteresis_value_clear(&hyst);
	leaq	-12(%rbp), %rax	 #, tmp143
	movq	%rax, %rcx	 # tmp143,
	call	pdsp_hysteresis_value_clear	 #
 # ./test/pdsp_test.c:382:     PDSP_ASSERT(pdsp_hysteresis_value(&hyst, -2.0f) == PDSP_FALSE);
	leaq	-12(%rbp), %rax	 #, tmp144
	movss	.LC33(%rip), %xmm1	 #,
	movq	%rax, %rcx	 # tmp144,
	call	pdsp_hysteresis_value	 #
 # ./test/pdsp_test.c:382:     PDSP_ASSERT(pdsp_hysteresis_value(&hyst, -2.0f) == PDSP_FALSE);
	testb	%al, %al	 # _1
	je	.L233	 #,
	movl	$382, %r8d	 #,
	leaq	.LC2(%rip), %rax	 #, tmp145
	movq	%rax, %rdx	 # tmp145,
	leaq	.LC3(%rip), %rax	 #, tmp146
	movq	%rax, %rcx	 # tmp146,
	call	printf	 #
.L233:
 # ./test/pdsp_test.c:383:     PDSP_ASSERT(pdsp_hysteresis_value(&hyst, -2.0f) == PDSP_FALSE);
	leaq	-12(%rbp), %rax	 #, tmp147
	movss	.LC33(%rip), %xmm1	 #,
	movq	%rax, %rcx	 # tmp147,
	call	pdsp_hysteresis_value	 #
 # ./test/pdsp_test.c:383:     PDSP_ASSERT(pdsp_hysteresis_value(&hyst, -2.0f) == PDSP_FALSE);
	testb	%al, %al	 # _2
	je	.L234	 #,
	movl	$383, %r8d	 #,
	leaq	.LC2(%rip), %rax	 #, tmp148
	movq	%rax, %rdx	 # tmp148,
	leaq	.LC3(%rip), %rax	 #, tmp149
	movq	%rax, %rcx	 # tmp149,
	call	printf	 #
.L234:
 # ./test/pdsp_test.c:384:     PDSP_ASSERT(pdsp_hysteresis_value(&hyst, -1.0f) == PDSP_FALSE);
	leaq	-12(%rbp), %rax	 #, tmp150
	movss	.LC26(%rip), %xmm1	 #,
	movq	%rax, %rcx	 # tmp150,
	call	pdsp_hysteresis_value	 #
 # ./test/pdsp_test.c:384:     PDSP_ASSERT(pdsp_hysteresis_value(&hyst, -1.0f) == PDSP_FALSE);
	testb	%al, %al	 # _3
	je	.L235	 #,
	movl	$384, %r8d	 #,
	leaq	.LC2(%rip), %rax	 #, tmp151
	movq	%rax, %rdx	 # tmp151,
	leaq	.LC3(%rip), %rax	 #, tmp152
	movq	%rax, %rcx	 # tmp152,
	call	printf	 #
.L235:
 # ./test/pdsp_test.c:385:     PDSP_ASSERT(pdsp_hysteresis_value(&hyst, 0.0f) == PDSP_FALSE);
	leaq	-12(%rbp), %rax	 #, tmp153
	pxor	%xmm1, %xmm1	 #
	movq	%rax, %rcx	 # tmp153,
	call	pdsp_hysteresis_value	 #
 # ./test/pdsp_test.c:385:     PDSP_ASSERT(pdsp_hysteresis_value(&hyst, 0.0f) == PDSP_FALSE);
	testb	%al, %al	 # _4
	je	.L236	 #,
	movl	$385, %r8d	 #,
	leaq	.LC2(%rip), %rax	 #, tmp154
	movq	%rax, %rdx	 # tmp154,
	leaq	.LC3(%rip), %rax	 #, tmp155
	movq	%rax, %rcx	 # tmp155,
	call	printf	 #
.L236:
 # ./test/pdsp_test.c:386:     PDSP_ASSERT(pdsp_hysteresis_value(&hyst, 1.0f) == PDSP_FALSE);
	leaq	-12(%rbp), %rax	 #, tmp156
	movss	.LC23(%rip), %xmm1	 #,
	movq	%rax, %rcx	 # tmp156,
	call	pdsp_hysteresis_value	 #
 # ./test/pdsp_test.c:386:     PDSP_ASSERT(pdsp_hysteresis_value(&hyst, 1.0f) == PDSP_FALSE);
	testb	%al, %al	 # _5
	je	.L237	 #,
	movl	$386, %r8d	 #,
	leaq	.LC2(%rip), %rax	 #, tmp157
	movq	%rax, %rdx	 # tmp157,
	leaq	.LC3(%rip), %rax	 #, tmp158
	movq	%rax, %rcx	 # tmp158,
	call	printf	 #
.L237:
 # ./test/pdsp_test.c:387:     PDSP_ASSERT(pdsp_hysteresis_value(&hyst, 2.0f) == PDSP_TRUE);
	leaq	-12(%rbp), %rax	 #, tmp159
	movss	.LC22(%rip), %xmm1	 #,
	movq	%rax, %rcx	 # tmp159,
	call	pdsp_hysteresis_value	 #
 # ./test/pdsp_test.c:387:     PDSP_ASSERT(pdsp_hysteresis_value(&hyst, 2.0f) == PDSP_TRUE);
	xorl	$1, %eax	 #, _7
	testb	%al, %al	 # _7
	je	.L238	 #,
	movl	$387, %r8d	 #,
	leaq	.LC2(%rip), %rax	 #, tmp160
	movq	%rax, %rdx	 # tmp160,
	leaq	.LC3(%rip), %rax	 #, tmp161
	movq	%rax, %rcx	 # tmp161,
	call	printf	 #
.L238:
 # ./test/pdsp_test.c:388:     PDSP_ASSERT(pdsp_hysteresis_value(&hyst, 2.0f) == PDSP_TRUE);
	leaq	-12(%rbp), %rax	 #, tmp162
	movss	.LC22(%rip), %xmm1	 #,
	movq	%rax, %rcx	 # tmp162,
	call	pdsp_hysteresis_value	 #
 # ./test/pdsp_test.c:388:     PDSP_ASSERT(pdsp_hysteresis_value(&hyst, 2.0f) == PDSP_TRUE);
	xorl	$1, %eax	 #, _9
	testb	%al, %al	 # _9
	je	.L239	 #,
	movl	$388, %r8d	 #,
	leaq	.LC2(%rip), %rax	 #, tmp163
	movq	%rax, %rdx	 # tmp163,
	leaq	.LC3(%rip), %rax	 #, tmp164
	movq	%rax, %rcx	 # tmp164,
	call	printf	 #
.L239:
 # ./test/pdsp_test.c:389:     PDSP_ASSERT(pdsp_hysteresis_value(&hyst, 1.0f) == PDSP_TRUE);
	leaq	-12(%rbp), %rax	 #, tmp165
	movss	.LC23(%rip), %xmm1	 #,
	movq	%rax, %rcx	 # tmp165,
	call	pdsp_hysteresis_value	 #
 # ./test/pdsp_test.c:389:     PDSP_ASSERT(pdsp_hysteresis_value(&hyst, 1.0f) == PDSP_TRUE);
	xorl	$1, %eax	 #, _11
	testb	%al, %al	 # _11
	je	.L240	 #,
	movl	$389, %r8d	 #,
	leaq	.LC2(%rip), %rax	 #, tmp166
	movq	%rax, %rdx	 # tmp166,
	leaq	.LC3(%rip), %rax	 #, tmp167
	movq	%rax, %rcx	 # tmp167,
	call	printf	 #
.L240:
 # ./test/pdsp_test.c:390:     PDSP_ASSERT(pdsp_hysteresis_value(&hyst, 0.0f) == PDSP_TRUE);
	leaq	-12(%rbp), %rax	 #, tmp168
	pxor	%xmm1, %xmm1	 #
	movq	%rax, %rcx	 # tmp168,
	call	pdsp_hysteresis_value	 #
 # ./test/pdsp_test.c:390:     PDSP_ASSERT(pdsp_hysteresis_value(&hyst, 0.0f) == PDSP_TRUE);
	xorl	$1, %eax	 #, _13
	testb	%al, %al	 # _13
	je	.L241	 #,
	movl	$390, %r8d	 #,
	leaq	.LC2(%rip), %rax	 #, tmp169
	movq	%rax, %rdx	 # tmp169,
	leaq	.LC3(%rip), %rax	 #, tmp170
	movq	%rax, %rcx	 # tmp170,
	call	printf	 #
.L241:
 # ./test/pdsp_test.c:391:     PDSP_ASSERT(pdsp_hysteresis_value(&hyst, -1.0f) == PDSP_TRUE);
	leaq	-12(%rbp), %rax	 #, tmp171
	movss	.LC26(%rip), %xmm1	 #,
	movq	%rax, %rcx	 # tmp171,
	call	pdsp_hysteresis_value	 #
 # ./test/pdsp_test.c:391:     PDSP_ASSERT(pdsp_hysteresis_value(&hyst, -1.0f) == PDSP_TRUE);
	xorl	$1, %eax	 #, _15
	testb	%al, %al	 # _15
	je	.L242	 #,
	movl	$391, %r8d	 #,
	leaq	.LC2(%rip), %rax	 #, tmp172
	movq	%rax, %rdx	 # tmp172,
	leaq	.LC3(%rip), %rax	 #, tmp173
	movq	%rax, %rcx	 # tmp173,
	call	printf	 #
.L242:
 # ./test/pdsp_test.c:392:     PDSP_ASSERT(pdsp_hysteresis_value(&hyst, -2.0f) == PDSP_FALSE);
	leaq	-12(%rbp), %rax	 #, tmp174
	movss	.LC33(%rip), %xmm1	 #,
	movq	%rax, %rcx	 # tmp174,
	call	pdsp_hysteresis_value	 #
 # ./test/pdsp_test.c:392:     PDSP_ASSERT(pdsp_hysteresis_value(&hyst, -2.0f) == PDSP_FALSE);
	testb	%al, %al	 # _16
	je	.L243	 #,
	movl	$392, %r8d	 #,
	leaq	.LC2(%rip), %rax	 #, tmp175
	movq	%rax, %rdx	 # tmp175,
	leaq	.LC3(%rip), %rax	 #, tmp176
	movq	%rax, %rcx	 # tmp176,
	call	printf	 #
.L243:
 # ./test/pdsp_test.c:393:     PDSP_ASSERT(pdsp_hysteresis_value(&hyst, -2.0f) == PDSP_FALSE);
	leaq	-12(%rbp), %rax	 #, tmp177
	movss	.LC33(%rip), %xmm1	 #,
	movq	%rax, %rcx	 # tmp177,
	call	pdsp_hysteresis_value	 #
 # ./test/pdsp_test.c:393:     PDSP_ASSERT(pdsp_hysteresis_value(&hyst, -2.0f) == PDSP_FALSE);
	testb	%al, %al	 # _17
	je	.L244	 #,
	movl	$393, %r8d	 #,
	leaq	.LC2(%rip), %rax	 #, tmp178
	movq	%rax, %rdx	 # tmp178,
	leaq	.LC3(%rip), %rax	 #, tmp179
	movq	%rax, %rcx	 # tmp179,
	call	printf	 #
.L244:
 # ./test/pdsp_test.c:395:     pdsp_macro_hyst_t mhyst = {
	movb	$0, -24(%rbp)	 #, mhyst.b_state
	movss	.LC26(%rip), %xmm0	 #, tmp180
	movss	%xmm0, -20(%rbp)	 # tmp180, mhyst.f32_low
	movss	.LC23(%rip), %xmm0	 #, tmp181
	movss	%xmm0, -16(%rbp)	 # tmp181, mhyst.f32_high
 # ./test/pdsp_test.c:397:     pdsp_macro_hysteresis_value_run(mhyst, -2.0f);
	movss	-16(%rbp), %xmm1	 # mhyst.f32_high, _18
	movss	.LC33(%rip), %xmm0	 #, tmp182
	comiss	%xmm1, %xmm0	 # _18, tmp182
	jbe	.L329	 #,
 # ./test/pdsp_test.c:397:     pdsp_macro_hysteresis_value_run(mhyst, -2.0f);
	movb	$1, -24(%rbp)	 #, mhyst.b_state
	jmp	.L247	 #
.L329:
 # ./test/pdsp_test.c:397:     pdsp_macro_hysteresis_value_run(mhyst, -2.0f);
	movss	-20(%rbp), %xmm0	 # mhyst.f32_low, _19
	comiss	.LC33(%rip), %xmm0	 #, _19
	jbe	.L247	 #,
 # ./test/pdsp_test.c:397:     pdsp_macro_hysteresis_value_run(mhyst, -2.0f);
	movb	$0, -24(%rbp)	 #, mhyst.b_state
.L247:
 # ./test/pdsp_test.c:398:     PDSP_ASSERT(mhyst.b_state == PDSP_FALSE);
	movzbl	-24(%rbp), %eax	 # mhyst.b_state, _20
	testb	%al, %al	 # _20
	je	.L249	 #,
 # ./test/pdsp_test.c:398:     PDSP_ASSERT(mhyst.b_state == PDSP_FALSE);
	movl	$398, %r8d	 #,
	leaq	.LC2(%rip), %rax	 #, tmp183
	movq	%rax, %rdx	 # tmp183,
	leaq	.LC3(%rip), %rax	 #, tmp184
	movq	%rax, %rcx	 # tmp184,
	call	printf	 #
.L249:
 # ./test/pdsp_test.c:399:     pdsp_macro_hysteresis_value_run(mhyst, -2.0f);
	movss	-16(%rbp), %xmm1	 # mhyst.f32_high, _21
	movss	.LC33(%rip), %xmm0	 #, tmp185
	comiss	%xmm1, %xmm0	 # _21, tmp185
	jbe	.L330	 #,
 # ./test/pdsp_test.c:399:     pdsp_macro_hysteresis_value_run(mhyst, -2.0f);
	movb	$1, -24(%rbp)	 #, mhyst.b_state
	jmp	.L252	 #
.L330:
 # ./test/pdsp_test.c:399:     pdsp_macro_hysteresis_value_run(mhyst, -2.0f);
	movss	-20(%rbp), %xmm0	 # mhyst.f32_low, _22
	comiss	.LC33(%rip), %xmm0	 #, _22
	jbe	.L252	 #,
 # ./test/pdsp_test.c:399:     pdsp_macro_hysteresis_value_run(mhyst, -2.0f);
	movb	$0, -24(%rbp)	 #, mhyst.b_state
.L252:
 # ./test/pdsp_test.c:400:     PDSP_ASSERT(mhyst.b_state == PDSP_FALSE);
	movzbl	-24(%rbp), %eax	 # mhyst.b_state, _23
	testb	%al, %al	 # _23
	je	.L254	 #,
 # ./test/pdsp_test.c:400:     PDSP_ASSERT(mhyst.b_state == PDSP_FALSE);
	movl	$400, %r8d	 #,
	leaq	.LC2(%rip), %rax	 #, tmp186
	movq	%rax, %rdx	 # tmp186,
	leaq	.LC3(%rip), %rax	 #, tmp187
	movq	%rax, %rcx	 # tmp187,
	call	printf	 #
.L254:
 # ./test/pdsp_test.c:401:     pdsp_macro_hysteresis_value_run(mhyst, -1.0f);
	movss	-16(%rbp), %xmm1	 # mhyst.f32_high, _24
	movss	.LC26(%rip), %xmm0	 #, tmp188
	comiss	%xmm1, %xmm0	 # _24, tmp188
	jbe	.L331	 #,
 # ./test/pdsp_test.c:401:     pdsp_macro_hysteresis_value_run(mhyst, -1.0f);
	movb	$1, -24(%rbp)	 #, mhyst.b_state
	jmp	.L257	 #
.L331:
 # ./test/pdsp_test.c:401:     pdsp_macro_hysteresis_value_run(mhyst, -1.0f);
	movss	-20(%rbp), %xmm0	 # mhyst.f32_low, _25
	movss	.LC26(%rip), %xmm1	 #, tmp189
	comiss	%xmm1, %xmm0	 # tmp189, _25
	jbe	.L257	 #,
 # ./test/pdsp_test.c:401:     pdsp_macro_hysteresis_value_run(mhyst, -1.0f);
	movb	$0, -24(%rbp)	 #, mhyst.b_state
.L257:
 # ./test/pdsp_test.c:402:     PDSP_ASSERT(mhyst.b_state == PDSP_FALSE);
	movzbl	-24(%rbp), %eax	 # mhyst.b_state, _26
	testb	%al, %al	 # _26
	je	.L259	 #,
 # ./test/pdsp_test.c:402:     PDSP_ASSERT(mhyst.b_state == PDSP_FALSE);
	movl	$402, %r8d	 #,
	leaq	.LC2(%rip), %rax	 #, tmp190
	movq	%rax, %rdx	 # tmp190,
	leaq	.LC3(%rip), %rax	 #, tmp191
	movq	%rax, %rcx	 # tmp191,
	call	printf	 #
.L259:
 # ./test/pdsp_test.c:403:     pdsp_macro_hysteresis_value_run(mhyst, 0.0f);
	movss	-16(%rbp), %xmm1	 # mhyst.f32_high, _27
	pxor	%xmm0, %xmm0	 # tmp192
	comiss	%xmm1, %xmm0	 # _27, tmp192
	jbe	.L332	 #,
 # ./test/pdsp_test.c:403:     pdsp_macro_hysteresis_value_run(mhyst, 0.0f);
	movb	$1, -24(%rbp)	 #, mhyst.b_state
	jmp	.L262	 #
.L332:
 # ./test/pdsp_test.c:403:     pdsp_macro_hysteresis_value_run(mhyst, 0.0f);
	movss	-20(%rbp), %xmm0	 # mhyst.f32_low, _28
	pxor	%xmm1, %xmm1	 # tmp193
	comiss	%xmm1, %xmm0	 # tmp193, _28
	jbe	.L262	 #,
 # ./test/pdsp_test.c:403:     pdsp_macro_hysteresis_value_run(mhyst, 0.0f);
	movb	$0, -24(%rbp)	 #, mhyst.b_state
.L262:
 # ./test/pdsp_test.c:404:     PDSP_ASSERT(mhyst.b_state == PDSP_FALSE);
	movzbl	-24(%rbp), %eax	 # mhyst.b_state, _29
	testb	%al, %al	 # _29
	je	.L264	 #,
 # ./test/pdsp_test.c:404:     PDSP_ASSERT(mhyst.b_state == PDSP_FALSE);
	movl	$404, %r8d	 #,
	leaq	.LC2(%rip), %rax	 #, tmp194
	movq	%rax, %rdx	 # tmp194,
	leaq	.LC3(%rip), %rax	 #, tmp195
	movq	%rax, %rcx	 # tmp195,
	call	printf	 #
.L264:
 # ./test/pdsp_test.c:405:     pdsp_macro_hysteresis_value_run(mhyst, 1.0f);
	movss	-16(%rbp), %xmm1	 # mhyst.f32_high, _30
	movss	.LC23(%rip), %xmm0	 #, tmp196
	comiss	%xmm1, %xmm0	 # _30, tmp196
	jbe	.L333	 #,
 # ./test/pdsp_test.c:405:     pdsp_macro_hysteresis_value_run(mhyst, 1.0f);
	movb	$1, -24(%rbp)	 #, mhyst.b_state
	jmp	.L267	 #
.L333:
 # ./test/pdsp_test.c:405:     pdsp_macro_hysteresis_value_run(mhyst, 1.0f);
	movss	-20(%rbp), %xmm0	 # mhyst.f32_low, _31
	movss	.LC23(%rip), %xmm1	 #, tmp197
	comiss	%xmm1, %xmm0	 # tmp197, _31
	jbe	.L267	 #,
 # ./test/pdsp_test.c:405:     pdsp_macro_hysteresis_value_run(mhyst, 1.0f);
	movb	$0, -24(%rbp)	 #, mhyst.b_state
.L267:
 # ./test/pdsp_test.c:406:     PDSP_ASSERT(mhyst.b_state == PDSP_FALSE);
	movzbl	-24(%rbp), %eax	 # mhyst.b_state, _32
	testb	%al, %al	 # _32
	je	.L269	 #,
 # ./test/pdsp_test.c:406:     PDSP_ASSERT(mhyst.b_state == PDSP_FALSE);
	movl	$406, %r8d	 #,
	leaq	.LC2(%rip), %rax	 #, tmp198
	movq	%rax, %rdx	 # tmp198,
	leaq	.LC3(%rip), %rax	 #, tmp199
	movq	%rax, %rcx	 # tmp199,
	call	printf	 #
.L269:
 # ./test/pdsp_test.c:407:     pdsp_macro_hysteresis_value_run(mhyst, 2.0f);
	movss	-16(%rbp), %xmm1	 # mhyst.f32_high, _33
	movss	.LC22(%rip), %xmm0	 #, tmp200
	comiss	%xmm1, %xmm0	 # _33, tmp200
	jbe	.L334	 #,
 # ./test/pdsp_test.c:407:     pdsp_macro_hysteresis_value_run(mhyst, 2.0f);
	movb	$1, -24(%rbp)	 #, mhyst.b_state
	jmp	.L272	 #
.L334:
 # ./test/pdsp_test.c:407:     pdsp_macro_hysteresis_value_run(mhyst, 2.0f);
	movss	-20(%rbp), %xmm0	 # mhyst.f32_low, _34
	comiss	.LC22(%rip), %xmm0	 #, _34
	jbe	.L272	 #,
 # ./test/pdsp_test.c:407:     pdsp_macro_hysteresis_value_run(mhyst, 2.0f);
	movb	$0, -24(%rbp)	 #, mhyst.b_state
.L272:
 # ./test/pdsp_test.c:408:     PDSP_ASSERT(mhyst.b_state == PDSP_TRUE);
	movzbl	-24(%rbp), %eax	 # mhyst.b_state, _35
	xorl	$1, %eax	 #, _36
	testb	%al, %al	 # _36
	je	.L274	 #,
 # ./test/pdsp_test.c:408:     PDSP_ASSERT(mhyst.b_state == PDSP_TRUE);
	movl	$408, %r8d	 #,
	leaq	.LC2(%rip), %rax	 #, tmp201
	movq	%rax, %rdx	 # tmp201,
	leaq	.LC3(%rip), %rax	 #, tmp202
	movq	%rax, %rcx	 # tmp202,
	call	printf	 #
.L274:
 # ./test/pdsp_test.c:409:     pdsp_macro_hysteresis_value_run(mhyst, 2.0f);
	movss	-16(%rbp), %xmm1	 # mhyst.f32_high, _37
	movss	.LC22(%rip), %xmm0	 #, tmp203
	comiss	%xmm1, %xmm0	 # _37, tmp203
	jbe	.L335	 #,
 # ./test/pdsp_test.c:409:     pdsp_macro_hysteresis_value_run(mhyst, 2.0f);
	movb	$1, -24(%rbp)	 #, mhyst.b_state
	jmp	.L277	 #
.L335:
 # ./test/pdsp_test.c:409:     pdsp_macro_hysteresis_value_run(mhyst, 2.0f);
	movss	-20(%rbp), %xmm0	 # mhyst.f32_low, _38
	comiss	.LC22(%rip), %xmm0	 #, _38
	jbe	.L277	 #,
 # ./test/pdsp_test.c:409:     pdsp_macro_hysteresis_value_run(mhyst, 2.0f);
	movb	$0, -24(%rbp)	 #, mhyst.b_state
.L277:
 # ./test/pdsp_test.c:410:     PDSP_ASSERT(mhyst.b_state == PDSP_TRUE);
	movzbl	-24(%rbp), %eax	 # mhyst.b_state, _39
	xorl	$1, %eax	 #, _40
	testb	%al, %al	 # _40
	je	.L279	 #,
 # ./test/pdsp_test.c:410:     PDSP_ASSERT(mhyst.b_state == PDSP_TRUE);
	movl	$410, %r8d	 #,
	leaq	.LC2(%rip), %rax	 #, tmp204
	movq	%rax, %rdx	 # tmp204,
	leaq	.LC3(%rip), %rax	 #, tmp205
	movq	%rax, %rcx	 # tmp205,
	call	printf	 #
.L279:
 # ./test/pdsp_test.c:411:     pdsp_macro_hysteresis_value_run(mhyst, 1.0f);
	movss	-16(%rbp), %xmm1	 # mhyst.f32_high, _41
	movss	.LC23(%rip), %xmm0	 #, tmp206
	comiss	%xmm1, %xmm0	 # _41, tmp206
	jbe	.L336	 #,
 # ./test/pdsp_test.c:411:     pdsp_macro_hysteresis_value_run(mhyst, 1.0f);
	movb	$1, -24(%rbp)	 #, mhyst.b_state
	jmp	.L282	 #
.L336:
 # ./test/pdsp_test.c:411:     pdsp_macro_hysteresis_value_run(mhyst, 1.0f);
	movss	-20(%rbp), %xmm0	 # mhyst.f32_low, _42
	movss	.LC23(%rip), %xmm1	 #, tmp207
	comiss	%xmm1, %xmm0	 # tmp207, _42
	jbe	.L282	 #,
 # ./test/pdsp_test.c:411:     pdsp_macro_hysteresis_value_run(mhyst, 1.0f);
	movb	$0, -24(%rbp)	 #, mhyst.b_state
.L282:
 # ./test/pdsp_test.c:412:     PDSP_ASSERT(mhyst.b_state == PDSP_TRUE);
	movzbl	-24(%rbp), %eax	 # mhyst.b_state, _43
	xorl	$1, %eax	 #, _44
	testb	%al, %al	 # _44
	je	.L284	 #,
 # ./test/pdsp_test.c:412:     PDSP_ASSERT(mhyst.b_state == PDSP_TRUE);
	movl	$412, %r8d	 #,
	leaq	.LC2(%rip), %rax	 #, tmp208
	movq	%rax, %rdx	 # tmp208,
	leaq	.LC3(%rip), %rax	 #, tmp209
	movq	%rax, %rcx	 # tmp209,
	call	printf	 #
.L284:
 # ./test/pdsp_test.c:413:     pdsp_macro_hysteresis_value_run(mhyst, 0.0f);
	movss	-16(%rbp), %xmm1	 # mhyst.f32_high, _45
	pxor	%xmm0, %xmm0	 # tmp210
	comiss	%xmm1, %xmm0	 # _45, tmp210
	jbe	.L337	 #,
 # ./test/pdsp_test.c:413:     pdsp_macro_hysteresis_value_run(mhyst, 0.0f);
	movb	$1, -24(%rbp)	 #, mhyst.b_state
	jmp	.L287	 #
.L337:
 # ./test/pdsp_test.c:413:     pdsp_macro_hysteresis_value_run(mhyst, 0.0f);
	movss	-20(%rbp), %xmm0	 # mhyst.f32_low, _46
	pxor	%xmm1, %xmm1	 # tmp211
	comiss	%xmm1, %xmm0	 # tmp211, _46
	jbe	.L287	 #,
 # ./test/pdsp_test.c:413:     pdsp_macro_hysteresis_value_run(mhyst, 0.0f);
	movb	$0, -24(%rbp)	 #, mhyst.b_state
.L287:
 # ./test/pdsp_test.c:414:     PDSP_ASSERT(mhyst.b_state == PDSP_TRUE);
	movzbl	-24(%rbp), %eax	 # mhyst.b_state, _47
	xorl	$1, %eax	 #, _48
	testb	%al, %al	 # _48
	je	.L289	 #,
 # ./test/pdsp_test.c:414:     PDSP_ASSERT(mhyst.b_state == PDSP_TRUE);
	movl	$414, %r8d	 #,
	leaq	.LC2(%rip), %rax	 #, tmp212
	movq	%rax, %rdx	 # tmp212,
	leaq	.LC3(%rip), %rax	 #, tmp213
	movq	%rax, %rcx	 # tmp213,
	call	printf	 #
.L289:
 # ./test/pdsp_test.c:415:     pdsp_macro_hysteresis_value_run(mhyst, -1.0f);
	movss	-16(%rbp), %xmm1	 # mhyst.f32_high, _49
	movss	.LC26(%rip), %xmm0	 #, tmp214
	comiss	%xmm1, %xmm0	 # _49, tmp214
	jbe	.L338	 #,
 # ./test/pdsp_test.c:415:     pdsp_macro_hysteresis_value_run(mhyst, -1.0f);
	movb	$1, -24(%rbp)	 #, mhyst.b_state
	jmp	.L292	 #
.L338:
 # ./test/pdsp_test.c:415:     pdsp_macro_hysteresis_value_run(mhyst, -1.0f);
	movss	-20(%rbp), %xmm0	 # mhyst.f32_low, _50
	movss	.LC26(%rip), %xmm1	 #, tmp215
	comiss	%xmm1, %xmm0	 # tmp215, _50
	jbe	.L292	 #,
 # ./test/pdsp_test.c:415:     pdsp_macro_hysteresis_value_run(mhyst, -1.0f);
	movb	$0, -24(%rbp)	 #, mhyst.b_state
.L292:
 # ./test/pdsp_test.c:416:     PDSP_ASSERT(mhyst.b_state == PDSP_TRUE);
	movzbl	-24(%rbp), %eax	 # mhyst.b_state, _51
	xorl	$1, %eax	 #, _52
	testb	%al, %al	 # _52
	je	.L294	 #,
 # ./test/pdsp_test.c:416:     PDSP_ASSERT(mhyst.b_state == PDSP_TRUE);
	movl	$416, %r8d	 #,
	leaq	.LC2(%rip), %rax	 #, tmp216
	movq	%rax, %rdx	 # tmp216,
	leaq	.LC3(%rip), %rax	 #, tmp217
	movq	%rax, %rcx	 # tmp217,
	call	printf	 #
.L294:
 # ./test/pdsp_test.c:417:     pdsp_macro_hysteresis_value_run(mhyst, -2.0f);
	movss	-16(%rbp), %xmm1	 # mhyst.f32_high, _53
	movss	.LC33(%rip), %xmm0	 #, tmp218
	comiss	%xmm1, %xmm0	 # _53, tmp218
	jbe	.L339	 #,
 # ./test/pdsp_test.c:417:     pdsp_macro_hysteresis_value_run(mhyst, -2.0f);
	movb	$1, -24(%rbp)	 #, mhyst.b_state
	jmp	.L297	 #
.L339:
 # ./test/pdsp_test.c:417:     pdsp_macro_hysteresis_value_run(mhyst, -2.0f);
	movss	-20(%rbp), %xmm0	 # mhyst.f32_low, _54
	comiss	.LC33(%rip), %xmm0	 #, _54
	jbe	.L297	 #,
 # ./test/pdsp_test.c:417:     pdsp_macro_hysteresis_value_run(mhyst, -2.0f);
	movb	$0, -24(%rbp)	 #, mhyst.b_state
.L297:
 # ./test/pdsp_test.c:418:     PDSP_ASSERT(mhyst.b_state == PDSP_FALSE);
	movzbl	-24(%rbp), %eax	 # mhyst.b_state, _55
	testb	%al, %al	 # _55
	je	.L299	 #,
 # ./test/pdsp_test.c:418:     PDSP_ASSERT(mhyst.b_state == PDSP_FALSE);
	movl	$418, %r8d	 #,
	leaq	.LC2(%rip), %rax	 #, tmp219
	movq	%rax, %rdx	 # tmp219,
	leaq	.LC3(%rip), %rax	 #, tmp220
	movq	%rax, %rcx	 # tmp220,
	call	printf	 #
.L299:
 # ./test/pdsp_test.c:419:     pdsp_macro_hysteresis_value_run(mhyst, -2.0f);
	movss	-16(%rbp), %xmm1	 # mhyst.f32_high, _56
	movss	.LC33(%rip), %xmm0	 #, tmp221
	comiss	%xmm1, %xmm0	 # _56, tmp221
	jbe	.L340	 #,
 # ./test/pdsp_test.c:419:     pdsp_macro_hysteresis_value_run(mhyst, -2.0f);
	movb	$1, -24(%rbp)	 #, mhyst.b_state
	jmp	.L302	 #
.L340:
 # ./test/pdsp_test.c:419:     pdsp_macro_hysteresis_value_run(mhyst, -2.0f);
	movss	-20(%rbp), %xmm0	 # mhyst.f32_low, _57
	comiss	.LC33(%rip), %xmm0	 #, _57
	jbe	.L302	 #,
 # ./test/pdsp_test.c:419:     pdsp_macro_hysteresis_value_run(mhyst, -2.0f);
	movb	$0, -24(%rbp)	 #, mhyst.b_state
.L302:
 # ./test/pdsp_test.c:420:     PDSP_ASSERT(mhyst.b_state == PDSP_FALSE);
	movzbl	-24(%rbp), %eax	 # mhyst.b_state, _58
	testb	%al, %al	 # _58
	je	.L341	 #,
 # ./test/pdsp_test.c:420:     PDSP_ASSERT(mhyst.b_state == PDSP_FALSE);
	movl	$420, %r8d	 #,
	leaq	.LC2(%rip), %rax	 #, tmp222
	movq	%rax, %rdx	 # tmp222,
	leaq	.LC3(%rip), %rax	 #, tmp223
	movq	%rax, %rcx	 # tmp223,
	call	printf	 #
.L341:
 # ./test/pdsp_test.c:421: }
	nop	
	addq	$64, %rsp	 #,
	popq	%rbp	 #
	ret	
	.seh_endproc
	.section .rdata,"dr"
	.align 8
.LC59:
	.ascii "-- void test_hysteresis_list(void) --\12\0"
	.text
	.globl	test_hysteresis_list
	.def	test_hysteresis_list;	.scl	2;	.type	32;	.endef
	.seh_proc	test_hysteresis_list
test_hysteresis_list:
	pushq	%rbp	 #
	.seh_pushreg	%rbp
	movq	%rsp, %rbp	 #,
	.seh_setframe	%rbp, 0
	subq	$96, %rsp	 #,
	.seh_stackalloc	96
	.seh_endprologue
 # ./test/pdsp_test.c:425:     printf("-- void test_hysteresis_list(void) --\n");
	leaq	.LC59(%rip), %rax	 #, tmp97
	movq	%rax, %rcx	 # tmp97,
	call	printf	 #
 # ./test/pdsp_test.c:426:     pdsp_f32_t af32_hyst_dn[4] = {0.0f, 0.8f, 1.8f, 2.8f};
	pxor	%xmm0, %xmm0	 # tmp98
	movss	%xmm0, -16(%rbp)	 # tmp98, af32_hyst_dn[0]
	movss	.LC60(%rip), %xmm0	 #, tmp99
	movss	%xmm0, -12(%rbp)	 # tmp99, af32_hyst_dn[1]
	movss	.LC61(%rip), %xmm0	 #, tmp100
	movss	%xmm0, -8(%rbp)	 # tmp100, af32_hyst_dn[2]
	movss	.LC62(%rip), %xmm0	 #, tmp101
	movss	%xmm0, -4(%rbp)	 # tmp101, af32_hyst_dn[3]
 # ./test/pdsp_test.c:427:     pdsp_f32_t af32_hyst_up[4] = {1.2f, 2.2f, 3.2f, 4.0f};
	movss	.LC63(%rip), %xmm0	 #, tmp102
	movss	%xmm0, -32(%rbp)	 # tmp102, af32_hyst_up[0]
	movss	.LC64(%rip), %xmm0	 #, tmp103
	movss	%xmm0, -28(%rbp)	 # tmp103, af32_hyst_up[1]
	movss	.LC65(%rip), %xmm0	 #, tmp104
	movss	%xmm0, -24(%rbp)	 # tmp104, af32_hyst_up[2]
	movss	.LC32(%rip), %xmm0	 #, tmp105
	movss	%xmm0, -20(%rbp)	 # tmp105, af32_hyst_up[3]
 # ./test/pdsp_test.c:428:     pdsp_hyst_list_t hyst = {.u16_state = 0,
	movw	$0, -64(%rbp)	 #, hyst.u16_state
	leaq	-32(%rbp), %rax	 #, tmp106
	movq	%rax, -56(%rbp)	 # tmp106, hyst.af32_thres_up
	leaq	-16(%rbp), %rax	 #, tmp107
	movq	%rax, -48(%rbp)	 # tmp107, hyst.af32_thres_dn
	movw	$4, -40(%rbp)	 #, hyst.u16_size
 # ./test/pdsp_test.c:432:     pdsp_hysteresis_list_clear(&hyst);
	leaq	-64(%rbp), %rax	 #, tmp108
	movq	%rax, %rcx	 # tmp108,
	call	pdsp_hysteresis_list_clear	 #
 # ./test/pdsp_test.c:433:     PDSP_ASSERT(pdsp_hysteresis_list(&hyst, 0.0f) == 0U);
	leaq	-64(%rbp), %rax	 #, tmp109
	pxor	%xmm1, %xmm1	 #
	movq	%rax, %rcx	 # tmp109,
	call	pdsp_hysteresis_list	 #
 # ./test/pdsp_test.c:433:     PDSP_ASSERT(pdsp_hysteresis_list(&hyst, 0.0f) == 0U);
	testw	%ax, %ax	 # _1
	je	.L343	 #,
	movl	$433, %r8d	 #,
	leaq	.LC2(%rip), %rax	 #, tmp110
	movq	%rax, %rdx	 # tmp110,
	leaq	.LC3(%rip), %rax	 #, tmp111
	movq	%rax, %rcx	 # tmp111,
	call	printf	 #
.L343:
 # ./test/pdsp_test.c:434:     PDSP_ASSERT(pdsp_hysteresis_list(&hyst, 1.0f) == 0U);
	leaq	-64(%rbp), %rax	 #, tmp112
	movss	.LC23(%rip), %xmm1	 #,
	movq	%rax, %rcx	 # tmp112,
	call	pdsp_hysteresis_list	 #
 # ./test/pdsp_test.c:434:     PDSP_ASSERT(pdsp_hysteresis_list(&hyst, 1.0f) == 0U);
	testw	%ax, %ax	 # _2
	je	.L344	 #,
	movl	$434, %r8d	 #,
	leaq	.LC2(%rip), %rax	 #, tmp113
	movq	%rax, %rdx	 # tmp113,
	leaq	.LC3(%rip), %rax	 #, tmp114
	movq	%rax, %rcx	 # tmp114,
	call	printf	 #
.L344:
 # ./test/pdsp_test.c:435:     PDSP_ASSERT(pdsp_hysteresis_list(&hyst, 1.3f) == 1U);
	leaq	-64(%rbp), %rax	 #, tmp115
	movss	.LC66(%rip), %xmm1	 #,
	movq	%rax, %rcx	 # tmp115,
	call	pdsp_hysteresis_list	 #
 # ./test/pdsp_test.c:435:     PDSP_ASSERT(pdsp_hysteresis_list(&hyst, 1.3f) == 1U);
	cmpw	$1, %ax	 #, _3
	je	.L345	 #,
	movl	$435, %r8d	 #,
	leaq	.LC2(%rip), %rax	 #, tmp116
	movq	%rax, %rdx	 # tmp116,
	leaq	.LC3(%rip), %rax	 #, tmp117
	movq	%rax, %rcx	 # tmp117,
	call	printf	 #
.L345:
 # ./test/pdsp_test.c:436:     PDSP_ASSERT(pdsp_hysteresis_list(&hyst, 1.0f) == 1U);
	leaq	-64(%rbp), %rax	 #, tmp118
	movss	.LC23(%rip), %xmm1	 #,
	movq	%rax, %rcx	 # tmp118,
	call	pdsp_hysteresis_list	 #
 # ./test/pdsp_test.c:436:     PDSP_ASSERT(pdsp_hysteresis_list(&hyst, 1.0f) == 1U);
	cmpw	$1, %ax	 #, _4
	je	.L346	 #,
	movl	$436, %r8d	 #,
	leaq	.LC2(%rip), %rax	 #, tmp119
	movq	%rax, %rdx	 # tmp119,
	leaq	.LC3(%rip), %rax	 #, tmp120
	movq	%rax, %rcx	 # tmp120,
	call	printf	 #
.L346:
 # ./test/pdsp_test.c:437:     PDSP_ASSERT(pdsp_hysteresis_list(&hyst, 2.0f) == 1U);
	leaq	-64(%rbp), %rax	 #, tmp121
	movss	.LC22(%rip), %xmm1	 #,
	movq	%rax, %rcx	 # tmp121,
	call	pdsp_hysteresis_list	 #
 # ./test/pdsp_test.c:437:     PDSP_ASSERT(pdsp_hysteresis_list(&hyst, 2.0f) == 1U);
	cmpw	$1, %ax	 #, _5
	je	.L347	 #,
	movl	$437, %r8d	 #,
	leaq	.LC2(%rip), %rax	 #, tmp122
	movq	%rax, %rdx	 # tmp122,
	leaq	.LC3(%rip), %rax	 #, tmp123
	movq	%rax, %rcx	 # tmp123,
	call	printf	 #
.L347:
 # ./test/pdsp_test.c:438:     PDSP_ASSERT(pdsp_hysteresis_list(&hyst, 2.3f) == 2U);
	leaq	-64(%rbp), %rax	 #, tmp124
	movss	.LC67(%rip), %xmm1	 #,
	movq	%rax, %rcx	 # tmp124,
	call	pdsp_hysteresis_list	 #
 # ./test/pdsp_test.c:438:     PDSP_ASSERT(pdsp_hysteresis_list(&hyst, 2.3f) == 2U);
	cmpw	$2, %ax	 #, _6
	je	.L348	 #,
	movl	$438, %r8d	 #,
	leaq	.LC2(%rip), %rax	 #, tmp125
	movq	%rax, %rdx	 # tmp125,
	leaq	.LC3(%rip), %rax	 #, tmp126
	movq	%rax, %rcx	 # tmp126,
	call	printf	 #
.L348:
 # ./test/pdsp_test.c:439:     PDSP_ASSERT(pdsp_hysteresis_list(&hyst, 4.0f) == 2U);
	leaq	-64(%rbp), %rax	 #, tmp127
	movss	.LC32(%rip), %xmm1	 #,
	movq	%rax, %rcx	 # tmp127,
	call	pdsp_hysteresis_list	 #
 # ./test/pdsp_test.c:439:     PDSP_ASSERT(pdsp_hysteresis_list(&hyst, 4.0f) == 2U);
	cmpw	$2, %ax	 #, _7
	je	.L349	 #,
	movl	$439, %r8d	 #,
	leaq	.LC2(%rip), %rax	 #, tmp128
	movq	%rax, %rdx	 # tmp128,
	leaq	.LC3(%rip), %rax	 #, tmp129
	movq	%rax, %rcx	 # tmp129,
	call	printf	 #
.L349:
 # ./test/pdsp_test.c:440:     PDSP_ASSERT(pdsp_hysteresis_list(&hyst, 0.0f) == 1U);
	leaq	-64(%rbp), %rax	 #, tmp130
	pxor	%xmm1, %xmm1	 #
	movq	%rax, %rcx	 # tmp130,
	call	pdsp_hysteresis_list	 #
 # ./test/pdsp_test.c:440:     PDSP_ASSERT(pdsp_hysteresis_list(&hyst, 0.0f) == 1U);
	cmpw	$1, %ax	 #, _8
	je	.L350	 #,
	movl	$440, %r8d	 #,
	leaq	.LC2(%rip), %rax	 #, tmp131
	movq	%rax, %rdx	 # tmp131,
	leaq	.LC3(%rip), %rax	 #, tmp132
	movq	%rax, %rcx	 # tmp132,
	call	printf	 #
.L350:
 # ./test/pdsp_test.c:441:     PDSP_ASSERT(pdsp_hysteresis_list(&hyst, 0.0f) == 0U);
	leaq	-64(%rbp), %rax	 #, tmp133
	pxor	%xmm1, %xmm1	 #
	movq	%rax, %rcx	 # tmp133,
	call	pdsp_hysteresis_list	 #
 # ./test/pdsp_test.c:441:     PDSP_ASSERT(pdsp_hysteresis_list(&hyst, 0.0f) == 0U);
	testw	%ax, %ax	 # _9
	je	.L351	 #,
	movl	$441, %r8d	 #,
	leaq	.LC2(%rip), %rax	 #, tmp134
	movq	%rax, %rdx	 # tmp134,
	leaq	.LC3(%rip), %rax	 #, tmp135
	movq	%rax, %rcx	 # tmp135,
	call	printf	 #
.L351:
 # ./test/pdsp_test.c:442:     PDSP_ASSERT(pdsp_hysteresis_list(&hyst, 1.3f) == 1U);
	leaq	-64(%rbp), %rax	 #, tmp136
	movss	.LC66(%rip), %xmm1	 #,
	movq	%rax, %rcx	 # tmp136,
	call	pdsp_hysteresis_list	 #
 # ./test/pdsp_test.c:442:     PDSP_ASSERT(pdsp_hysteresis_list(&hyst, 1.3f) == 1U);
	cmpw	$1, %ax	 #, _10
	je	.L352	 #,
	movl	$442, %r8d	 #,
	leaq	.LC2(%rip), %rax	 #, tmp137
	movq	%rax, %rdx	 # tmp137,
	leaq	.LC3(%rip), %rax	 #, tmp138
	movq	%rax, %rcx	 # tmp138,
	call	printf	 #
.L352:
 # ./test/pdsp_test.c:443:     PDSP_ASSERT(pdsp_hysteresis_list(&hyst, 0.7f) == 0U);
	leaq	-64(%rbp), %rax	 #, tmp139
	movss	.LC68(%rip), %xmm1	 #,
	movq	%rax, %rcx	 # tmp139,
	call	pdsp_hysteresis_list	 #
 # ./test/pdsp_test.c:443:     PDSP_ASSERT(pdsp_hysteresis_list(&hyst, 0.7f) == 0U);
	testw	%ax, %ax	 # _11
	je	.L353	 #,
	movl	$443, %r8d	 #,
	leaq	.LC2(%rip), %rax	 #, tmp140
	movq	%rax, %rdx	 # tmp140,
	leaq	.LC3(%rip), %rax	 #, tmp141
	movq	%rax, %rcx	 # tmp141,
	call	printf	 #
.L353:
 # ./test/pdsp_test.c:444:     PDSP_ASSERT(pdsp_hysteresis_list(&hyst, 10.0f) == 1U);
	leaq	-64(%rbp), %rax	 #, tmp142
	movss	.LC28(%rip), %xmm1	 #,
	movq	%rax, %rcx	 # tmp142,
	call	pdsp_hysteresis_list	 #
 # ./test/pdsp_test.c:444:     PDSP_ASSERT(pdsp_hysteresis_list(&hyst, 10.0f) == 1U);
	cmpw	$1, %ax	 #, _12
	je	.L354	 #,
	movl	$444, %r8d	 #,
	leaq	.LC2(%rip), %rax	 #, tmp143
	movq	%rax, %rdx	 # tmp143,
	leaq	.LC3(%rip), %rax	 #, tmp144
	movq	%rax, %rcx	 # tmp144,
	call	printf	 #
.L354:
 # ./test/pdsp_test.c:445:     PDSP_ASSERT(pdsp_hysteresis_list(&hyst, 10.0f) == 2U);
	leaq	-64(%rbp), %rax	 #, tmp145
	movss	.LC28(%rip), %xmm1	 #,
	movq	%rax, %rcx	 # tmp145,
	call	pdsp_hysteresis_list	 #
 # ./test/pdsp_test.c:445:     PDSP_ASSERT(pdsp_hysteresis_list(&hyst, 10.0f) == 2U);
	cmpw	$2, %ax	 #, _13
	je	.L355	 #,
	movl	$445, %r8d	 #,
	leaq	.LC2(%rip), %rax	 #, tmp146
	movq	%rax, %rdx	 # tmp146,
	leaq	.LC3(%rip), %rax	 #, tmp147
	movq	%rax, %rcx	 # tmp147,
	call	printf	 #
.L355:
 # ./test/pdsp_test.c:446:     PDSP_ASSERT(pdsp_hysteresis_list(&hyst, 10.0f) == 2U);
	leaq	-64(%rbp), %rax	 #, tmp148
	movss	.LC28(%rip), %xmm1	 #,
	movq	%rax, %rcx	 # tmp148,
	call	pdsp_hysteresis_list	 #
 # ./test/pdsp_test.c:446:     PDSP_ASSERT(pdsp_hysteresis_list(&hyst, 10.0f) == 2U);
	cmpw	$2, %ax	 #, _14
	je	.L356	 #,
	movl	$446, %r8d	 #,
	leaq	.LC2(%rip), %rax	 #, tmp149
	movq	%rax, %rdx	 # tmp149,
	leaq	.LC3(%rip), %rax	 #, tmp150
	movq	%rax, %rcx	 # tmp150,
	call	printf	 #
.L356:
 # ./test/pdsp_test.c:447:     PDSP_ASSERT(pdsp_hysteresis_list(&hyst, 1.7f) == 1U);
	leaq	-64(%rbp), %rax	 #, tmp151
	movss	.LC69(%rip), %xmm1	 #,
	movq	%rax, %rcx	 # tmp151,
	call	pdsp_hysteresis_list	 #
 # ./test/pdsp_test.c:447:     PDSP_ASSERT(pdsp_hysteresis_list(&hyst, 1.7f) == 1U);
	cmpw	$1, %ax	 #, _15
	je	.L358	 #,
	movl	$447, %r8d	 #,
	leaq	.LC2(%rip), %rax	 #, tmp152
	movq	%rax, %rdx	 # tmp152,
	leaq	.LC3(%rip), %rax	 #, tmp153
	movq	%rax, %rcx	 # tmp153,
	call	printf	 #
.L358:
 # ./test/pdsp_test.c:448: }
	nop	
	addq	$96, %rsp	 #,
	popq	%rbp	 #
	ret	
	.seh_endproc
	.section .rdata,"dr"
	.align 8
.LC70:
	.ascii "-- void test_debounce(void) --\12\0"
	.text
	.globl	test_debounce
	.def	test_debounce;	.scl	2;	.type	32;	.endef
	.seh_proc	test_debounce
test_debounce:
	pushq	%rbp	 #
	.seh_pushreg	%rbp
	movq	%rsp, %rbp	 #,
	.seh_setframe	%rbp, 0
	subq	$80, %rsp	 #,
	.seh_stackalloc	80
	.seh_endprologue
 # ./test/pdsp_test.c:452:     printf("-- void test_debounce(void) --\n");
	leaq	.LC70(%rip), %rax	 #, tmp208
	movq	%rax, %rcx	 # tmp208,
	call	printf	 #
 # ./test/pdsp_test.c:453:     pdsp_debounce_t hyst = {.b_state = 0,
	movb	$0, -32(%rbp)	 #, hyst.b_state
	pxor	%xmm0, %xmm0	 # tmp209
	movss	%xmm0, -28(%rbp)	 # tmp209, hyst.f32_time
	movss	.LC23(%rip), %xmm0	 #, tmp210
	movss	%xmm0, -24(%rbp)	 # tmp210, hyst.f32_t_step
	movss	.LC22(%rip), %xmm0	 #, tmp211
	movss	%xmm0, -20(%rbp)	 # tmp211, hyst.f32_t_high
	movss	.LC22(%rip), %xmm0	 #, tmp212
	movss	%xmm0, -16(%rbp)	 # tmp212, hyst.f32_t_low
 # ./test/pdsp_test.c:458:     pdsp_debounce_clear(&hyst);
	leaq	-32(%rbp), %rax	 #, tmp213
	movq	%rax, %rcx	 # tmp213,
	call	pdsp_debounce_clear	 #
 # ./test/pdsp_test.c:459:     PDSP_ASSERT(pdsp_debounce(&hyst, PDSP_FALSE) == PDSP_FALSE);
	leaq	-32(%rbp), %rax	 #, tmp214
	movl	$0, %edx	 #,
	movq	%rax, %rcx	 # tmp214,
	call	pdsp_debounce	 #
 # ./test/pdsp_test.c:459:     PDSP_ASSERT(pdsp_debounce(&hyst, PDSP_FALSE) == PDSP_FALSE);
	testb	%al, %al	 # _1
	je	.L360	 #,
	movl	$459, %r8d	 #,
	leaq	.LC2(%rip), %rax	 #, tmp215
	movq	%rax, %rdx	 # tmp215,
	leaq	.LC3(%rip), %rax	 #, tmp216
	movq	%rax, %rcx	 # tmp216,
	call	printf	 #
.L360:
 # ./test/pdsp_test.c:460:     PDSP_ASSERT(pdsp_debounce(&hyst, PDSP_FALSE) == PDSP_FALSE);
	leaq	-32(%rbp), %rax	 #, tmp217
	movl	$0, %edx	 #,
	movq	%rax, %rcx	 # tmp217,
	call	pdsp_debounce	 #
 # ./test/pdsp_test.c:460:     PDSP_ASSERT(pdsp_debounce(&hyst, PDSP_FALSE) == PDSP_FALSE);
	testb	%al, %al	 # _2
	je	.L361	 #,
	movl	$460, %r8d	 #,
	leaq	.LC2(%rip), %rax	 #, tmp218
	movq	%rax, %rdx	 # tmp218,
	leaq	.LC3(%rip), %rax	 #, tmp219
	movq	%rax, %rcx	 # tmp219,
	call	printf	 #
.L361:
 # ./test/pdsp_test.c:461:     PDSP_ASSERT(pdsp_debounce(&hyst, PDSP_TRUE) == PDSP_FALSE);
	leaq	-32(%rbp), %rax	 #, tmp220
	movl	$1, %edx	 #,
	movq	%rax, %rcx	 # tmp220,
	call	pdsp_debounce	 #
 # ./test/pdsp_test.c:461:     PDSP_ASSERT(pdsp_debounce(&hyst, PDSP_TRUE) == PDSP_FALSE);
	testb	%al, %al	 # _3
	je	.L362	 #,
	movl	$461, %r8d	 #,
	leaq	.LC2(%rip), %rax	 #, tmp221
	movq	%rax, %rdx	 # tmp221,
	leaq	.LC3(%rip), %rax	 #, tmp222
	movq	%rax, %rcx	 # tmp222,
	call	printf	 #
.L362:
 # ./test/pdsp_test.c:462:     PDSP_ASSERT(pdsp_debounce(&hyst, PDSP_TRUE) == PDSP_FALSE);
	leaq	-32(%rbp), %rax	 #, tmp223
	movl	$1, %edx	 #,
	movq	%rax, %rcx	 # tmp223,
	call	pdsp_debounce	 #
 # ./test/pdsp_test.c:462:     PDSP_ASSERT(pdsp_debounce(&hyst, PDSP_TRUE) == PDSP_FALSE);
	testb	%al, %al	 # _4
	je	.L363	 #,
	movl	$462, %r8d	 #,
	leaq	.LC2(%rip), %rax	 #, tmp224
	movq	%rax, %rdx	 # tmp224,
	leaq	.LC3(%rip), %rax	 #, tmp225
	movq	%rax, %rcx	 # tmp225,
	call	printf	 #
.L363:
 # ./test/pdsp_test.c:463:     PDSP_ASSERT(pdsp_debounce(&hyst, PDSP_TRUE) == PDSP_TRUE);
	leaq	-32(%rbp), %rax	 #, tmp226
	movl	$1, %edx	 #,
	movq	%rax, %rcx	 # tmp226,
	call	pdsp_debounce	 #
 # ./test/pdsp_test.c:463:     PDSP_ASSERT(pdsp_debounce(&hyst, PDSP_TRUE) == PDSP_TRUE);
	xorl	$1, %eax	 #, _6
	testb	%al, %al	 # _6
	je	.L364	 #,
	movl	$463, %r8d	 #,
	leaq	.LC2(%rip), %rax	 #, tmp227
	movq	%rax, %rdx	 # tmp227,
	leaq	.LC3(%rip), %rax	 #, tmp228
	movq	%rax, %rcx	 # tmp228,
	call	printf	 #
.L364:
 # ./test/pdsp_test.c:464:     PDSP_ASSERT(pdsp_debounce(&hyst, PDSP_TRUE) == PDSP_TRUE);
	leaq	-32(%rbp), %rax	 #, tmp229
	movl	$1, %edx	 #,
	movq	%rax, %rcx	 # tmp229,
	call	pdsp_debounce	 #
 # ./test/pdsp_test.c:464:     PDSP_ASSERT(pdsp_debounce(&hyst, PDSP_TRUE) == PDSP_TRUE);
	xorl	$1, %eax	 #, _8
	testb	%al, %al	 # _8
	je	.L365	 #,
	movl	$464, %r8d	 #,
	leaq	.LC2(%rip), %rax	 #, tmp230
	movq	%rax, %rdx	 # tmp230,
	leaq	.LC3(%rip), %rax	 #, tmp231
	movq	%rax, %rcx	 # tmp231,
	call	printf	 #
.L365:
 # ./test/pdsp_test.c:465:     PDSP_ASSERT(pdsp_debounce(&hyst, PDSP_FALSE) == PDSP_TRUE);
	leaq	-32(%rbp), %rax	 #, tmp232
	movl	$0, %edx	 #,
	movq	%rax, %rcx	 # tmp232,
	call	pdsp_debounce	 #
 # ./test/pdsp_test.c:465:     PDSP_ASSERT(pdsp_debounce(&hyst, PDSP_FALSE) == PDSP_TRUE);
	xorl	$1, %eax	 #, _10
	testb	%al, %al	 # _10
	je	.L366	 #,
	movl	$465, %r8d	 #,
	leaq	.LC2(%rip), %rax	 #, tmp233
	movq	%rax, %rdx	 # tmp233,
	leaq	.LC3(%rip), %rax	 #, tmp234
	movq	%rax, %rcx	 # tmp234,
	call	printf	 #
.L366:
 # ./test/pdsp_test.c:466:     PDSP_ASSERT(pdsp_debounce(&hyst, PDSP_FALSE) == PDSP_TRUE);
	leaq	-32(%rbp), %rax	 #, tmp235
	movl	$0, %edx	 #,
	movq	%rax, %rcx	 # tmp235,
	call	pdsp_debounce	 #
 # ./test/pdsp_test.c:466:     PDSP_ASSERT(pdsp_debounce(&hyst, PDSP_FALSE) == PDSP_TRUE);
	xorl	$1, %eax	 #, _12
	testb	%al, %al	 # _12
	je	.L367	 #,
	movl	$466, %r8d	 #,
	leaq	.LC2(%rip), %rax	 #, tmp236
	movq	%rax, %rdx	 # tmp236,
	leaq	.LC3(%rip), %rax	 #, tmp237
	movq	%rax, %rcx	 # tmp237,
	call	printf	 #
.L367:
 # ./test/pdsp_test.c:467:     PDSP_ASSERT(pdsp_debounce(&hyst, PDSP_FALSE) == PDSP_FALSE);
	leaq	-32(%rbp), %rax	 #, tmp238
	movl	$0, %edx	 #,
	movq	%rax, %rcx	 # tmp238,
	call	pdsp_debounce	 #
 # ./test/pdsp_test.c:467:     PDSP_ASSERT(pdsp_debounce(&hyst, PDSP_FALSE) == PDSP_FALSE);
	testb	%al, %al	 # _13
	je	.L368	 #,
	movl	$467, %r8d	 #,
	leaq	.LC2(%rip), %rax	 #, tmp239
	movq	%rax, %rdx	 # tmp239,
	leaq	.LC3(%rip), %rax	 #, tmp240
	movq	%rax, %rcx	 # tmp240,
	call	printf	 #
.L368:
 # ./test/pdsp_test.c:468:     PDSP_ASSERT(pdsp_debounce(&hyst, PDSP_FALSE) == PDSP_FALSE);
	leaq	-32(%rbp), %rax	 #, tmp241
	movl	$0, %edx	 #,
	movq	%rax, %rcx	 # tmp241,
	call	pdsp_debounce	 #
 # ./test/pdsp_test.c:468:     PDSP_ASSERT(pdsp_debounce(&hyst, PDSP_FALSE) == PDSP_FALSE);
	testb	%al, %al	 # _14
	je	.L369	 #,
	movl	$468, %r8d	 #,
	leaq	.LC2(%rip), %rax	 #, tmp242
	movq	%rax, %rdx	 # tmp242,
	leaq	.LC3(%rip), %rax	 #, tmp243
	movq	%rax, %rcx	 # tmp243,
	call	printf	 #
.L369:
 # ./test/pdsp_test.c:469:     PDSP_ASSERT(pdsp_debounce(&hyst, PDSP_TRUE) == PDSP_FALSE);
	leaq	-32(%rbp), %rax	 #, tmp244
	movl	$1, %edx	 #,
	movq	%rax, %rcx	 # tmp244,
	call	pdsp_debounce	 #
 # ./test/pdsp_test.c:469:     PDSP_ASSERT(pdsp_debounce(&hyst, PDSP_TRUE) == PDSP_FALSE);
	testb	%al, %al	 # _15
	je	.L370	 #,
	movl	$469, %r8d	 #,
	leaq	.LC2(%rip), %rax	 #, tmp245
	movq	%rax, %rdx	 # tmp245,
	leaq	.LC3(%rip), %rax	 #, tmp246
	movq	%rax, %rcx	 # tmp246,
	call	printf	 #
.L370:
 # ./test/pdsp_test.c:470:     PDSP_ASSERT(pdsp_debounce(&hyst, PDSP_TRUE) == PDSP_FALSE);
	leaq	-32(%rbp), %rax	 #, tmp247
	movl	$1, %edx	 #,
	movq	%rax, %rcx	 # tmp247,
	call	pdsp_debounce	 #
 # ./test/pdsp_test.c:470:     PDSP_ASSERT(pdsp_debounce(&hyst, PDSP_TRUE) == PDSP_FALSE);
	testb	%al, %al	 # _16
	je	.L371	 #,
	movl	$470, %r8d	 #,
	leaq	.LC2(%rip), %rax	 #, tmp248
	movq	%rax, %rdx	 # tmp248,
	leaq	.LC3(%rip), %rax	 #, tmp249
	movq	%rax, %rcx	 # tmp249,
	call	printf	 #
.L371:
 # ./test/pdsp_test.c:471:     PDSP_ASSERT(pdsp_debounce(&hyst, PDSP_TRUE) == PDSP_TRUE);
	leaq	-32(%rbp), %rax	 #, tmp250
	movl	$1, %edx	 #,
	movq	%rax, %rcx	 # tmp250,
	call	pdsp_debounce	 #
 # ./test/pdsp_test.c:471:     PDSP_ASSERT(pdsp_debounce(&hyst, PDSP_TRUE) == PDSP_TRUE);
	xorl	$1, %eax	 #, _18
	testb	%al, %al	 # _18
	je	.L372	 #,
	movl	$471, %r8d	 #,
	leaq	.LC2(%rip), %rax	 #, tmp251
	movq	%rax, %rdx	 # tmp251,
	leaq	.LC3(%rip), %rax	 #, tmp252
	movq	%rax, %rcx	 # tmp252,
	call	printf	 #
.L372:
 # ./test/pdsp_test.c:473:     pdsp_debounce_cnt_t debounce = {
	movb	$0, -40(%rbp)	 #, debounce.b_state
	movw	$0, -38(%rbp)	 #, debounce.u16_count
	movw	$2, -36(%rbp)	 #, debounce.u16_cnt_high
	movw	$2, -34(%rbp)	 #, debounce.u16_cnt_low
 # ./test/pdsp_test.c:475:     pdsp_debounce_cnt_clear(&debounce);
	leaq	-40(%rbp), %rax	 #, tmp253
	movq	%rax, %rcx	 # tmp253,
	call	pdsp_debounce_cnt_clear	 #
 # ./test/pdsp_test.c:476:     PDSP_ASSERT(pdsp_debounce_cnt(&debounce, PDSP_FALSE) == PDSP_FALSE);
	leaq	-40(%rbp), %rax	 #, tmp254
	movl	$0, %edx	 #,
	movq	%rax, %rcx	 # tmp254,
	call	pdsp_debounce_cnt	 #
 # ./test/pdsp_test.c:476:     PDSP_ASSERT(pdsp_debounce_cnt(&debounce, PDSP_FALSE) == PDSP_FALSE);
	testb	%al, %al	 # _19
	je	.L373	 #,
	movl	$476, %r8d	 #,
	leaq	.LC2(%rip), %rax	 #, tmp255
	movq	%rax, %rdx	 # tmp255,
	leaq	.LC3(%rip), %rax	 #, tmp256
	movq	%rax, %rcx	 # tmp256,
	call	printf	 #
.L373:
 # ./test/pdsp_test.c:477:     PDSP_ASSERT(pdsp_debounce_cnt(&debounce, PDSP_FALSE) == PDSP_FALSE);
	leaq	-40(%rbp), %rax	 #, tmp257
	movl	$0, %edx	 #,
	movq	%rax, %rcx	 # tmp257,
	call	pdsp_debounce_cnt	 #
 # ./test/pdsp_test.c:477:     PDSP_ASSERT(pdsp_debounce_cnt(&debounce, PDSP_FALSE) == PDSP_FALSE);
	testb	%al, %al	 # _20
	je	.L374	 #,
	movl	$477, %r8d	 #,
	leaq	.LC2(%rip), %rax	 #, tmp258
	movq	%rax, %rdx	 # tmp258,
	leaq	.LC3(%rip), %rax	 #, tmp259
	movq	%rax, %rcx	 # tmp259,
	call	printf	 #
.L374:
 # ./test/pdsp_test.c:478:     PDSP_ASSERT(pdsp_debounce_cnt(&debounce, PDSP_TRUE) == PDSP_FALSE);
	leaq	-40(%rbp), %rax	 #, tmp260
	movl	$1, %edx	 #,
	movq	%rax, %rcx	 # tmp260,
	call	pdsp_debounce_cnt	 #
 # ./test/pdsp_test.c:478:     PDSP_ASSERT(pdsp_debounce_cnt(&debounce, PDSP_TRUE) == PDSP_FALSE);
	testb	%al, %al	 # _21
	je	.L375	 #,
	movl	$478, %r8d	 #,
	leaq	.LC2(%rip), %rax	 #, tmp261
	movq	%rax, %rdx	 # tmp261,
	leaq	.LC3(%rip), %rax	 #, tmp262
	movq	%rax, %rcx	 # tmp262,
	call	printf	 #
.L375:
 # ./test/pdsp_test.c:479:     PDSP_ASSERT(pdsp_debounce_cnt(&debounce, PDSP_TRUE) == PDSP_FALSE);
	leaq	-40(%rbp), %rax	 #, tmp263
	movl	$1, %edx	 #,
	movq	%rax, %rcx	 # tmp263,
	call	pdsp_debounce_cnt	 #
 # ./test/pdsp_test.c:479:     PDSP_ASSERT(pdsp_debounce_cnt(&debounce, PDSP_TRUE) == PDSP_FALSE);
	testb	%al, %al	 # _22
	je	.L376	 #,
	movl	$479, %r8d	 #,
	leaq	.LC2(%rip), %rax	 #, tmp264
	movq	%rax, %rdx	 # tmp264,
	leaq	.LC3(%rip), %rax	 #, tmp265
	movq	%rax, %rcx	 # tmp265,
	call	printf	 #
.L376:
 # ./test/pdsp_test.c:480:     PDSP_ASSERT(pdsp_debounce_cnt(&debounce, PDSP_TRUE) == PDSP_TRUE);
	leaq	-40(%rbp), %rax	 #, tmp266
	movl	$1, %edx	 #,
	movq	%rax, %rcx	 # tmp266,
	call	pdsp_debounce_cnt	 #
 # ./test/pdsp_test.c:480:     PDSP_ASSERT(pdsp_debounce_cnt(&debounce, PDSP_TRUE) == PDSP_TRUE);
	xorl	$1, %eax	 #, _24
	testb	%al, %al	 # _24
	je	.L377	 #,
	movl	$480, %r8d	 #,
	leaq	.LC2(%rip), %rax	 #, tmp267
	movq	%rax, %rdx	 # tmp267,
	leaq	.LC3(%rip), %rax	 #, tmp268
	movq	%rax, %rcx	 # tmp268,
	call	printf	 #
.L377:
 # ./test/pdsp_test.c:481:     PDSP_ASSERT(pdsp_debounce_cnt(&debounce, PDSP_TRUE) == PDSP_TRUE);
	leaq	-40(%rbp), %rax	 #, tmp269
	movl	$1, %edx	 #,
	movq	%rax, %rcx	 # tmp269,
	call	pdsp_debounce_cnt	 #
 # ./test/pdsp_test.c:481:     PDSP_ASSERT(pdsp_debounce_cnt(&debounce, PDSP_TRUE) == PDSP_TRUE);
	xorl	$1, %eax	 #, _26
	testb	%al, %al	 # _26
	je	.L378	 #,
	movl	$481, %r8d	 #,
	leaq	.LC2(%rip), %rax	 #, tmp270
	movq	%rax, %rdx	 # tmp270,
	leaq	.LC3(%rip), %rax	 #, tmp271
	movq	%rax, %rcx	 # tmp271,
	call	printf	 #
.L378:
 # ./test/pdsp_test.c:482:     PDSP_ASSERT(pdsp_debounce_cnt(&debounce, PDSP_FALSE) == PDSP_TRUE);
	leaq	-40(%rbp), %rax	 #, tmp272
	movl	$0, %edx	 #,
	movq	%rax, %rcx	 # tmp272,
	call	pdsp_debounce_cnt	 #
 # ./test/pdsp_test.c:482:     PDSP_ASSERT(pdsp_debounce_cnt(&debounce, PDSP_FALSE) == PDSP_TRUE);
	xorl	$1, %eax	 #, _28
	testb	%al, %al	 # _28
	je	.L379	 #,
	movl	$482, %r8d	 #,
	leaq	.LC2(%rip), %rax	 #, tmp273
	movq	%rax, %rdx	 # tmp273,
	leaq	.LC3(%rip), %rax	 #, tmp274
	movq	%rax, %rcx	 # tmp274,
	call	printf	 #
.L379:
 # ./test/pdsp_test.c:483:     PDSP_ASSERT(pdsp_debounce_cnt(&debounce, PDSP_FALSE) == PDSP_TRUE);
	leaq	-40(%rbp), %rax	 #, tmp275
	movl	$0, %edx	 #,
	movq	%rax, %rcx	 # tmp275,
	call	pdsp_debounce_cnt	 #
 # ./test/pdsp_test.c:483:     PDSP_ASSERT(pdsp_debounce_cnt(&debounce, PDSP_FALSE) == PDSP_TRUE);
	xorl	$1, %eax	 #, _30
	testb	%al, %al	 # _30
	je	.L380	 #,
	movl	$483, %r8d	 #,
	leaq	.LC2(%rip), %rax	 #, tmp276
	movq	%rax, %rdx	 # tmp276,
	leaq	.LC3(%rip), %rax	 #, tmp277
	movq	%rax, %rcx	 # tmp277,
	call	printf	 #
.L380:
 # ./test/pdsp_test.c:484:     PDSP_ASSERT(pdsp_debounce_cnt(&debounce, PDSP_FALSE) == PDSP_FALSE);
	leaq	-40(%rbp), %rax	 #, tmp278
	movl	$0, %edx	 #,
	movq	%rax, %rcx	 # tmp278,
	call	pdsp_debounce_cnt	 #
 # ./test/pdsp_test.c:484:     PDSP_ASSERT(pdsp_debounce_cnt(&debounce, PDSP_FALSE) == PDSP_FALSE);
	testb	%al, %al	 # _31
	je	.L381	 #,
	movl	$484, %r8d	 #,
	leaq	.LC2(%rip), %rax	 #, tmp279
	movq	%rax, %rdx	 # tmp279,
	leaq	.LC3(%rip), %rax	 #, tmp280
	movq	%rax, %rcx	 # tmp280,
	call	printf	 #
.L381:
 # ./test/pdsp_test.c:485:     PDSP_ASSERT(pdsp_debounce_cnt(&debounce, PDSP_FALSE) == PDSP_FALSE);
	leaq	-40(%rbp), %rax	 #, tmp281
	movl	$0, %edx	 #,
	movq	%rax, %rcx	 # tmp281,
	call	pdsp_debounce_cnt	 #
 # ./test/pdsp_test.c:485:     PDSP_ASSERT(pdsp_debounce_cnt(&debounce, PDSP_FALSE) == PDSP_FALSE);
	testb	%al, %al	 # _32
	je	.L382	 #,
	movl	$485, %r8d	 #,
	leaq	.LC2(%rip), %rax	 #, tmp282
	movq	%rax, %rdx	 # tmp282,
	leaq	.LC3(%rip), %rax	 #, tmp283
	movq	%rax, %rcx	 # tmp283,
	call	printf	 #
.L382:
 # ./test/pdsp_test.c:486:     PDSP_ASSERT(pdsp_debounce_cnt(&debounce, PDSP_TRUE) == PDSP_FALSE);
	leaq	-40(%rbp), %rax	 #, tmp284
	movl	$1, %edx	 #,
	movq	%rax, %rcx	 # tmp284,
	call	pdsp_debounce_cnt	 #
 # ./test/pdsp_test.c:486:     PDSP_ASSERT(pdsp_debounce_cnt(&debounce, PDSP_TRUE) == PDSP_FALSE);
	testb	%al, %al	 # _33
	je	.L383	 #,
	movl	$486, %r8d	 #,
	leaq	.LC2(%rip), %rax	 #, tmp285
	movq	%rax, %rdx	 # tmp285,
	leaq	.LC3(%rip), %rax	 #, tmp286
	movq	%rax, %rcx	 # tmp286,
	call	printf	 #
.L383:
 # ./test/pdsp_test.c:487:     PDSP_ASSERT(pdsp_debounce_cnt(&debounce, PDSP_TRUE) == PDSP_FALSE);
	leaq	-40(%rbp), %rax	 #, tmp287
	movl	$1, %edx	 #,
	movq	%rax, %rcx	 # tmp287,
	call	pdsp_debounce_cnt	 #
 # ./test/pdsp_test.c:487:     PDSP_ASSERT(pdsp_debounce_cnt(&debounce, PDSP_TRUE) == PDSP_FALSE);
	testb	%al, %al	 # _34
	je	.L384	 #,
	movl	$487, %r8d	 #,
	leaq	.LC2(%rip), %rax	 #, tmp288
	movq	%rax, %rdx	 # tmp288,
	leaq	.LC3(%rip), %rax	 #, tmp289
	movq	%rax, %rcx	 # tmp289,
	call	printf	 #
.L384:
 # ./test/pdsp_test.c:488:     PDSP_ASSERT(pdsp_debounce_cnt(&debounce, PDSP_TRUE) == PDSP_TRUE);
	leaq	-40(%rbp), %rax	 #, tmp290
	movl	$1, %edx	 #,
	movq	%rax, %rcx	 # tmp290,
	call	pdsp_debounce_cnt	 #
 # ./test/pdsp_test.c:488:     PDSP_ASSERT(pdsp_debounce_cnt(&debounce, PDSP_TRUE) == PDSP_TRUE);
	xorl	$1, %eax	 #, _36
	testb	%al, %al	 # _36
	je	.L385	 #,
	movl	$488, %r8d	 #,
	leaq	.LC2(%rip), %rax	 #, tmp291
	movq	%rax, %rdx	 # tmp291,
	leaq	.LC3(%rip), %rax	 #, tmp292
	movq	%rax, %rcx	 # tmp292,
	call	printf	 #
.L385:
 # ./test/pdsp_test.c:490:     pdsp_macro_debounce_cnt_t debouncem = {
	movb	$0, -48(%rbp)	 #, debouncem.b_state
	movw	$0, -46(%rbp)	 #, debouncem.u16_count
	movw	$2, -44(%rbp)	 #, debouncem.u16_cnt_high
	movw	$2, -42(%rbp)	 #, debouncem.u16_cnt_low
 # ./test/pdsp_test.c:492:     pdsp_macro_debounce_cnt_clear(debouncem);
	movb	$0, -48(%rbp)	 #, debouncem.b_state
	movw	$0, -46(%rbp)	 #, debouncem.u16_count
 # ./test/pdsp_test.c:493:     pdsp_macro_debounce_cnt(debouncem, PDSP_FALSE);
	movzbl	-48(%rbp), %eax	 # debouncem.b_state, _42
	testb	%al, %al	 # _42
	je	.L386	 #,
 # ./test/pdsp_test.c:493:     pdsp_macro_debounce_cnt(debouncem, PDSP_FALSE);
	movzwl	-46(%rbp), %eax	 # debouncem.u16_count, _43
	addl	$1, %eax	 #, _45
	movw	%ax, -46(%rbp)	 # _45, debouncem.u16_count
	movzwl	-46(%rbp), %eax	 # debouncem.u16_count, _46
	movzwl	-42(%rbp), %edx	 # debouncem.u16_cnt_low, _47
	cmpw	%ax, %dx	 # _46, _47
	jnb	.L387	 #,
 # ./test/pdsp_test.c:493:     pdsp_macro_debounce_cnt(debouncem, PDSP_FALSE);
	movb	$0, -48(%rbp)	 #, debouncem.b_state
	movw	$0, -46(%rbp)	 #, debouncem.u16_count
	jmp	.L387	 #
.L386:
 # ./test/pdsp_test.c:493:     pdsp_macro_debounce_cnt(debouncem, PDSP_FALSE);
	movw	$0, -46(%rbp)	 #, debouncem.u16_count
.L387:
 # ./test/pdsp_test.c:494:     PDSP_ASSERT(debouncem.b_state == PDSP_FALSE);
	movzbl	-48(%rbp), %eax	 # debouncem.b_state, _48
	testb	%al, %al	 # _48
	je	.L388	 #,
 # ./test/pdsp_test.c:494:     PDSP_ASSERT(debouncem.b_state == PDSP_FALSE);
	movl	$494, %r8d	 #,
	leaq	.LC2(%rip), %rax	 #, tmp293
	movq	%rax, %rdx	 # tmp293,
	leaq	.LC3(%rip), %rax	 #, tmp294
	movq	%rax, %rcx	 # tmp294,
	call	printf	 #
.L388:
 # ./test/pdsp_test.c:495:     pdsp_macro_debounce_cnt(debouncem, PDSP_FALSE);
	movzbl	-48(%rbp), %eax	 # debouncem.b_state, _54
	testb	%al, %al	 # _54
	je	.L389	 #,
 # ./test/pdsp_test.c:495:     pdsp_macro_debounce_cnt(debouncem, PDSP_FALSE);
	movzwl	-46(%rbp), %eax	 # debouncem.u16_count, _55
	addl	$1, %eax	 #, _57
	movw	%ax, -46(%rbp)	 # _57, debouncem.u16_count
	movzwl	-46(%rbp), %eax	 # debouncem.u16_count, _58
	movzwl	-42(%rbp), %edx	 # debouncem.u16_cnt_low, _59
	cmpw	%ax, %dx	 # _58, _59
	jnb	.L390	 #,
 # ./test/pdsp_test.c:495:     pdsp_macro_debounce_cnt(debouncem, PDSP_FALSE);
	movb	$0, -48(%rbp)	 #, debouncem.b_state
	movw	$0, -46(%rbp)	 #, debouncem.u16_count
	jmp	.L390	 #
.L389:
 # ./test/pdsp_test.c:495:     pdsp_macro_debounce_cnt(debouncem, PDSP_FALSE);
	movw	$0, -46(%rbp)	 #, debouncem.u16_count
.L390:
 # ./test/pdsp_test.c:496:     PDSP_ASSERT(debouncem.b_state == PDSP_FALSE);
	movzbl	-48(%rbp), %eax	 # debouncem.b_state, _60
	testb	%al, %al	 # _60
	je	.L391	 #,
 # ./test/pdsp_test.c:496:     PDSP_ASSERT(debouncem.b_state == PDSP_FALSE);
	movl	$496, %r8d	 #,
	leaq	.LC2(%rip), %rax	 #, tmp295
	movq	%rax, %rdx	 # tmp295,
	leaq	.LC3(%rip), %rax	 #, tmp296
	movq	%rax, %rcx	 # tmp296,
	call	printf	 #
.L391:
 # ./test/pdsp_test.c:497:     pdsp_macro_debounce_cnt(debouncem, PDSP_TRUE);
	movzbl	-48(%rbp), %eax	 # debouncem.b_state, _61
	xorl	$1, %eax	 #, _62
	testb	%al, %al	 # _62
	je	.L392	 #,
 # ./test/pdsp_test.c:497:     pdsp_macro_debounce_cnt(debouncem, PDSP_TRUE);
	movzwl	-46(%rbp), %eax	 # debouncem.u16_count, _63
	addl	$1, %eax	 #, _65
	movw	%ax, -46(%rbp)	 # _65, debouncem.u16_count
	movzwl	-46(%rbp), %eax	 # debouncem.u16_count, _66
	movzwl	-44(%rbp), %edx	 # debouncem.u16_cnt_high, _67
	cmpw	%ax, %dx	 # _66, _67
	jnb	.L393	 #,
 # ./test/pdsp_test.c:497:     pdsp_macro_debounce_cnt(debouncem, PDSP_TRUE);
	movb	$1, -48(%rbp)	 #, debouncem.b_state
	movw	$0, -46(%rbp)	 #, debouncem.u16_count
	jmp	.L393	 #
.L392:
 # ./test/pdsp_test.c:497:     pdsp_macro_debounce_cnt(debouncem, PDSP_TRUE);
	movw	$0, -46(%rbp)	 #, debouncem.u16_count
.L393:
 # ./test/pdsp_test.c:498:     PDSP_ASSERT(debouncem.b_state == PDSP_FALSE);
	movzbl	-48(%rbp), %eax	 # debouncem.b_state, _73
	testb	%al, %al	 # _73
	je	.L394	 #,
 # ./test/pdsp_test.c:498:     PDSP_ASSERT(debouncem.b_state == PDSP_FALSE);
	movl	$498, %r8d	 #,
	leaq	.LC2(%rip), %rax	 #, tmp297
	movq	%rax, %rdx	 # tmp297,
	leaq	.LC3(%rip), %rax	 #, tmp298
	movq	%rax, %rcx	 # tmp298,
	call	printf	 #
.L394:
 # ./test/pdsp_test.c:499:     pdsp_macro_debounce_cnt(debouncem, PDSP_TRUE);
	movzbl	-48(%rbp), %eax	 # debouncem.b_state, _74
	xorl	$1, %eax	 #, _75
	testb	%al, %al	 # _75
	je	.L395	 #,
 # ./test/pdsp_test.c:499:     pdsp_macro_debounce_cnt(debouncem, PDSP_TRUE);
	movzwl	-46(%rbp), %eax	 # debouncem.u16_count, _76
	addl	$1, %eax	 #, _78
	movw	%ax, -46(%rbp)	 # _78, debouncem.u16_count
	movzwl	-46(%rbp), %eax	 # debouncem.u16_count, _79
	movzwl	-44(%rbp), %edx	 # debouncem.u16_cnt_high, _80
	cmpw	%ax, %dx	 # _79, _80
	jnb	.L396	 #,
 # ./test/pdsp_test.c:499:     pdsp_macro_debounce_cnt(debouncem, PDSP_TRUE);
	movb	$1, -48(%rbp)	 #, debouncem.b_state
	movw	$0, -46(%rbp)	 #, debouncem.u16_count
	jmp	.L396	 #
.L395:
 # ./test/pdsp_test.c:499:     pdsp_macro_debounce_cnt(debouncem, PDSP_TRUE);
	movw	$0, -46(%rbp)	 #, debouncem.u16_count
.L396:
 # ./test/pdsp_test.c:500:     PDSP_ASSERT(debouncem.b_state == PDSP_FALSE);
	movzbl	-48(%rbp), %eax	 # debouncem.b_state, _86
	testb	%al, %al	 # _86
	je	.L397	 #,
 # ./test/pdsp_test.c:500:     PDSP_ASSERT(debouncem.b_state == PDSP_FALSE);
	movl	$500, %r8d	 #,
	leaq	.LC2(%rip), %rax	 #, tmp299
	movq	%rax, %rdx	 # tmp299,
	leaq	.LC3(%rip), %rax	 #, tmp300
	movq	%rax, %rcx	 # tmp300,
	call	printf	 #
.L397:
 # ./test/pdsp_test.c:501:     pdsp_macro_debounce_cnt(debouncem, PDSP_TRUE);
	movzbl	-48(%rbp), %eax	 # debouncem.b_state, _87
	xorl	$1, %eax	 #, _88
	testb	%al, %al	 # _88
	je	.L398	 #,
 # ./test/pdsp_test.c:501:     pdsp_macro_debounce_cnt(debouncem, PDSP_TRUE);
	movzwl	-46(%rbp), %eax	 # debouncem.u16_count, _89
	addl	$1, %eax	 #, _91
	movw	%ax, -46(%rbp)	 # _91, debouncem.u16_count
	movzwl	-46(%rbp), %eax	 # debouncem.u16_count, _92
	movzwl	-44(%rbp), %edx	 # debouncem.u16_cnt_high, _93
	cmpw	%ax, %dx	 # _92, _93
	jnb	.L399	 #,
 # ./test/pdsp_test.c:501:     pdsp_macro_debounce_cnt(debouncem, PDSP_TRUE);
	movb	$1, -48(%rbp)	 #, debouncem.b_state
	movw	$0, -46(%rbp)	 #, debouncem.u16_count
	jmp	.L399	 #
.L398:
 # ./test/pdsp_test.c:501:     pdsp_macro_debounce_cnt(debouncem, PDSP_TRUE);
	movw	$0, -46(%rbp)	 #, debouncem.u16_count
.L399:
 # ./test/pdsp_test.c:502:     PDSP_ASSERT(debouncem.b_state == PDSP_TRUE);
	movzbl	-48(%rbp), %eax	 # debouncem.b_state, _99
	xorl	$1, %eax	 #, _100
	testb	%al, %al	 # _100
	je	.L400	 #,
 # ./test/pdsp_test.c:502:     PDSP_ASSERT(debouncem.b_state == PDSP_TRUE);
	movl	$502, %r8d	 #,
	leaq	.LC2(%rip), %rax	 #, tmp301
	movq	%rax, %rdx	 # tmp301,
	leaq	.LC3(%rip), %rax	 #, tmp302
	movq	%rax, %rcx	 # tmp302,
	call	printf	 #
.L400:
 # ./test/pdsp_test.c:503:     pdsp_macro_debounce_cnt(debouncem, PDSP_TRUE);
	movzbl	-48(%rbp), %eax	 # debouncem.b_state, _101
	xorl	$1, %eax	 #, _102
	testb	%al, %al	 # _102
	je	.L401	 #,
 # ./test/pdsp_test.c:503:     pdsp_macro_debounce_cnt(debouncem, PDSP_TRUE);
	movzwl	-46(%rbp), %eax	 # debouncem.u16_count, _103
	addl	$1, %eax	 #, _105
	movw	%ax, -46(%rbp)	 # _105, debouncem.u16_count
	movzwl	-46(%rbp), %eax	 # debouncem.u16_count, _106
	movzwl	-44(%rbp), %edx	 # debouncem.u16_cnt_high, _107
	cmpw	%ax, %dx	 # _106, _107
	jnb	.L402	 #,
 # ./test/pdsp_test.c:503:     pdsp_macro_debounce_cnt(debouncem, PDSP_TRUE);
	movb	$1, -48(%rbp)	 #, debouncem.b_state
	movw	$0, -46(%rbp)	 #, debouncem.u16_count
	jmp	.L402	 #
.L401:
 # ./test/pdsp_test.c:503:     pdsp_macro_debounce_cnt(debouncem, PDSP_TRUE);
	movw	$0, -46(%rbp)	 #, debouncem.u16_count
.L402:
 # ./test/pdsp_test.c:504:     PDSP_ASSERT(debouncem.b_state == PDSP_TRUE);
	movzbl	-48(%rbp), %eax	 # debouncem.b_state, _113
	xorl	$1, %eax	 #, _114
	testb	%al, %al	 # _114
	je	.L403	 #,
 # ./test/pdsp_test.c:504:     PDSP_ASSERT(debouncem.b_state == PDSP_TRUE);
	movl	$504, %r8d	 #,
	leaq	.LC2(%rip), %rax	 #, tmp303
	movq	%rax, %rdx	 # tmp303,
	leaq	.LC3(%rip), %rax	 #, tmp304
	movq	%rax, %rcx	 # tmp304,
	call	printf	 #
.L403:
 # ./test/pdsp_test.c:505:     pdsp_macro_debounce_cnt(debouncem, PDSP_FALSE);
	movzbl	-48(%rbp), %eax	 # debouncem.b_state, _120
	testb	%al, %al	 # _120
	je	.L404	 #,
 # ./test/pdsp_test.c:505:     pdsp_macro_debounce_cnt(debouncem, PDSP_FALSE);
	movzwl	-46(%rbp), %eax	 # debouncem.u16_count, _121
	addl	$1, %eax	 #, _123
	movw	%ax, -46(%rbp)	 # _123, debouncem.u16_count
	movzwl	-46(%rbp), %eax	 # debouncem.u16_count, _124
	movzwl	-42(%rbp), %edx	 # debouncem.u16_cnt_low, _125
	cmpw	%ax, %dx	 # _124, _125
	jnb	.L405	 #,
 # ./test/pdsp_test.c:505:     pdsp_macro_debounce_cnt(debouncem, PDSP_FALSE);
	movb	$0, -48(%rbp)	 #, debouncem.b_state
	movw	$0, -46(%rbp)	 #, debouncem.u16_count
	jmp	.L405	 #
.L404:
 # ./test/pdsp_test.c:505:     pdsp_macro_debounce_cnt(debouncem, PDSP_FALSE);
	movw	$0, -46(%rbp)	 #, debouncem.u16_count
.L405:
 # ./test/pdsp_test.c:506:     PDSP_ASSERT(debouncem.b_state == PDSP_TRUE);
	movzbl	-48(%rbp), %eax	 # debouncem.b_state, _126
	xorl	$1, %eax	 #, _127
	testb	%al, %al	 # _127
	je	.L406	 #,
 # ./test/pdsp_test.c:506:     PDSP_ASSERT(debouncem.b_state == PDSP_TRUE);
	movl	$506, %r8d	 #,
	leaq	.LC2(%rip), %rax	 #, tmp305
	movq	%rax, %rdx	 # tmp305,
	leaq	.LC3(%rip), %rax	 #, tmp306
	movq	%rax, %rcx	 # tmp306,
	call	printf	 #
.L406:
 # ./test/pdsp_test.c:507:     pdsp_macro_debounce_cnt(debouncem, PDSP_FALSE);
	movzbl	-48(%rbp), %eax	 # debouncem.b_state, _133
	testb	%al, %al	 # _133
	je	.L407	 #,
 # ./test/pdsp_test.c:507:     pdsp_macro_debounce_cnt(debouncem, PDSP_FALSE);
	movzwl	-46(%rbp), %eax	 # debouncem.u16_count, _134
	addl	$1, %eax	 #, _136
	movw	%ax, -46(%rbp)	 # _136, debouncem.u16_count
	movzwl	-46(%rbp), %eax	 # debouncem.u16_count, _137
	movzwl	-42(%rbp), %edx	 # debouncem.u16_cnt_low, _138
	cmpw	%ax, %dx	 # _137, _138
	jnb	.L408	 #,
 # ./test/pdsp_test.c:507:     pdsp_macro_debounce_cnt(debouncem, PDSP_FALSE);
	movb	$0, -48(%rbp)	 #, debouncem.b_state
	movw	$0, -46(%rbp)	 #, debouncem.u16_count
	jmp	.L408	 #
.L407:
 # ./test/pdsp_test.c:507:     pdsp_macro_debounce_cnt(debouncem, PDSP_FALSE);
	movw	$0, -46(%rbp)	 #, debouncem.u16_count
.L408:
 # ./test/pdsp_test.c:508:     PDSP_ASSERT(debouncem.b_state == PDSP_TRUE);
	movzbl	-48(%rbp), %eax	 # debouncem.b_state, _139
	xorl	$1, %eax	 #, _140
	testb	%al, %al	 # _140
	je	.L409	 #,
 # ./test/pdsp_test.c:508:     PDSP_ASSERT(debouncem.b_state == PDSP_TRUE);
	movl	$508, %r8d	 #,
	leaq	.LC2(%rip), %rax	 #, tmp307
	movq	%rax, %rdx	 # tmp307,
	leaq	.LC3(%rip), %rax	 #, tmp308
	movq	%rax, %rcx	 # tmp308,
	call	printf	 #
.L409:
 # ./test/pdsp_test.c:509:     pdsp_macro_debounce_cnt(debouncem, PDSP_FALSE);
	movzbl	-48(%rbp), %eax	 # debouncem.b_state, _146
	testb	%al, %al	 # _146
	je	.L410	 #,
 # ./test/pdsp_test.c:509:     pdsp_macro_debounce_cnt(debouncem, PDSP_FALSE);
	movzwl	-46(%rbp), %eax	 # debouncem.u16_count, _147
	addl	$1, %eax	 #, _149
	movw	%ax, -46(%rbp)	 # _149, debouncem.u16_count
	movzwl	-46(%rbp), %eax	 # debouncem.u16_count, _150
	movzwl	-42(%rbp), %edx	 # debouncem.u16_cnt_low, _151
	cmpw	%ax, %dx	 # _150, _151
	jnb	.L411	 #,
 # ./test/pdsp_test.c:509:     pdsp_macro_debounce_cnt(debouncem, PDSP_FALSE);
	movb	$0, -48(%rbp)	 #, debouncem.b_state
	movw	$0, -46(%rbp)	 #, debouncem.u16_count
	jmp	.L411	 #
.L410:
 # ./test/pdsp_test.c:509:     pdsp_macro_debounce_cnt(debouncem, PDSP_FALSE);
	movw	$0, -46(%rbp)	 #, debouncem.u16_count
.L411:
 # ./test/pdsp_test.c:510:     PDSP_ASSERT(debouncem.b_state == PDSP_FALSE);
	movzbl	-48(%rbp), %eax	 # debouncem.b_state, _152
	testb	%al, %al	 # _152
	je	.L412	 #,
 # ./test/pdsp_test.c:510:     PDSP_ASSERT(debouncem.b_state == PDSP_FALSE);
	movl	$510, %r8d	 #,
	leaq	.LC2(%rip), %rax	 #, tmp309
	movq	%rax, %rdx	 # tmp309,
	leaq	.LC3(%rip), %rax	 #, tmp310
	movq	%rax, %rcx	 # tmp310,
	call	printf	 #
.L412:
 # ./test/pdsp_test.c:511:     pdsp_macro_debounce_cnt(debouncem, PDSP_FALSE);
	movzbl	-48(%rbp), %eax	 # debouncem.b_state, _158
	testb	%al, %al	 # _158
	je	.L413	 #,
 # ./test/pdsp_test.c:511:     pdsp_macro_debounce_cnt(debouncem, PDSP_FALSE);
	movzwl	-46(%rbp), %eax	 # debouncem.u16_count, _159
	addl	$1, %eax	 #, _161
	movw	%ax, -46(%rbp)	 # _161, debouncem.u16_count
	movzwl	-46(%rbp), %eax	 # debouncem.u16_count, _162
	movzwl	-42(%rbp), %edx	 # debouncem.u16_cnt_low, _163
	cmpw	%ax, %dx	 # _162, _163
	jnb	.L414	 #,
 # ./test/pdsp_test.c:511:     pdsp_macro_debounce_cnt(debouncem, PDSP_FALSE);
	movb	$0, -48(%rbp)	 #, debouncem.b_state
	movw	$0, -46(%rbp)	 #, debouncem.u16_count
	jmp	.L414	 #
.L413:
 # ./test/pdsp_test.c:511:     pdsp_macro_debounce_cnt(debouncem, PDSP_FALSE);
	movw	$0, -46(%rbp)	 #, debouncem.u16_count
.L414:
 # ./test/pdsp_test.c:512:     PDSP_ASSERT(debouncem.b_state == PDSP_FALSE);
	movzbl	-48(%rbp), %eax	 # debouncem.b_state, _164
	testb	%al, %al	 # _164
	je	.L415	 #,
 # ./test/pdsp_test.c:512:     PDSP_ASSERT(debouncem.b_state == PDSP_FALSE);
	movl	$512, %r8d	 #,
	leaq	.LC2(%rip), %rax	 #, tmp311
	movq	%rax, %rdx	 # tmp311,
	leaq	.LC3(%rip), %rax	 #, tmp312
	movq	%rax, %rcx	 # tmp312,
	call	printf	 #
.L415:
 # ./test/pdsp_test.c:513:     pdsp_macro_debounce_cnt(debouncem, PDSP_TRUE);
	movzbl	-48(%rbp), %eax	 # debouncem.b_state, _165
	xorl	$1, %eax	 #, _166
	testb	%al, %al	 # _166
	je	.L416	 #,
 # ./test/pdsp_test.c:513:     pdsp_macro_debounce_cnt(debouncem, PDSP_TRUE);
	movzwl	-46(%rbp), %eax	 # debouncem.u16_count, _167
	addl	$1, %eax	 #, _169
	movw	%ax, -46(%rbp)	 # _169, debouncem.u16_count
	movzwl	-46(%rbp), %eax	 # debouncem.u16_count, _170
	movzwl	-44(%rbp), %edx	 # debouncem.u16_cnt_high, _171
	cmpw	%ax, %dx	 # _170, _171
	jnb	.L417	 #,
 # ./test/pdsp_test.c:513:     pdsp_macro_debounce_cnt(debouncem, PDSP_TRUE);
	movb	$1, -48(%rbp)	 #, debouncem.b_state
	movw	$0, -46(%rbp)	 #, debouncem.u16_count
	jmp	.L417	 #
.L416:
 # ./test/pdsp_test.c:513:     pdsp_macro_debounce_cnt(debouncem, PDSP_TRUE);
	movw	$0, -46(%rbp)	 #, debouncem.u16_count
.L417:
 # ./test/pdsp_test.c:514:     PDSP_ASSERT(debouncem.b_state == PDSP_FALSE);
	movzbl	-48(%rbp), %eax	 # debouncem.b_state, _177
	testb	%al, %al	 # _177
	je	.L418	 #,
 # ./test/pdsp_test.c:514:     PDSP_ASSERT(debouncem.b_state == PDSP_FALSE);
	movl	$514, %r8d	 #,
	leaq	.LC2(%rip), %rax	 #, tmp313
	movq	%rax, %rdx	 # tmp313,
	leaq	.LC3(%rip), %rax	 #, tmp314
	movq	%rax, %rcx	 # tmp314,
	call	printf	 #
.L418:
 # ./test/pdsp_test.c:515:     pdsp_macro_debounce_cnt(debouncem, PDSP_TRUE);
	movzbl	-48(%rbp), %eax	 # debouncem.b_state, _178
	xorl	$1, %eax	 #, _179
	testb	%al, %al	 # _179
	je	.L419	 #,
 # ./test/pdsp_test.c:515:     pdsp_macro_debounce_cnt(debouncem, PDSP_TRUE);
	movzwl	-46(%rbp), %eax	 # debouncem.u16_count, _180
	addl	$1, %eax	 #, _182
	movw	%ax, -46(%rbp)	 # _182, debouncem.u16_count
	movzwl	-46(%rbp), %eax	 # debouncem.u16_count, _183
	movzwl	-44(%rbp), %edx	 # debouncem.u16_cnt_high, _184
	cmpw	%ax, %dx	 # _183, _184
	jnb	.L420	 #,
 # ./test/pdsp_test.c:515:     pdsp_macro_debounce_cnt(debouncem, PDSP_TRUE);
	movb	$1, -48(%rbp)	 #, debouncem.b_state
	movw	$0, -46(%rbp)	 #, debouncem.u16_count
	jmp	.L420	 #
.L419:
 # ./test/pdsp_test.c:515:     pdsp_macro_debounce_cnt(debouncem, PDSP_TRUE);
	movw	$0, -46(%rbp)	 #, debouncem.u16_count
.L420:
 # ./test/pdsp_test.c:516:     PDSP_ASSERT(debouncem.b_state == PDSP_FALSE);
	movzbl	-48(%rbp), %eax	 # debouncem.b_state, _190
	testb	%al, %al	 # _190
	je	.L421	 #,
 # ./test/pdsp_test.c:516:     PDSP_ASSERT(debouncem.b_state == PDSP_FALSE);
	movl	$516, %r8d	 #,
	leaq	.LC2(%rip), %rax	 #, tmp315
	movq	%rax, %rdx	 # tmp315,
	leaq	.LC3(%rip), %rax	 #, tmp316
	movq	%rax, %rcx	 # tmp316,
	call	printf	 #
.L421:
 # ./test/pdsp_test.c:517:     pdsp_macro_debounce_cnt(debouncem, PDSP_TRUE);
	movzbl	-48(%rbp), %eax	 # debouncem.b_state, _191
	xorl	$1, %eax	 #, _192
	testb	%al, %al	 # _192
	je	.L422	 #,
 # ./test/pdsp_test.c:517:     pdsp_macro_debounce_cnt(debouncem, PDSP_TRUE);
	movzwl	-46(%rbp), %eax	 # debouncem.u16_count, _193
	addl	$1, %eax	 #, _195
	movw	%ax, -46(%rbp)	 # _195, debouncem.u16_count
	movzwl	-46(%rbp), %eax	 # debouncem.u16_count, _196
	movzwl	-44(%rbp), %edx	 # debouncem.u16_cnt_high, _197
	cmpw	%ax, %dx	 # _196, _197
	jnb	.L423	 #,
 # ./test/pdsp_test.c:517:     pdsp_macro_debounce_cnt(debouncem, PDSP_TRUE);
	movb	$1, -48(%rbp)	 #, debouncem.b_state
	movw	$0, -46(%rbp)	 #, debouncem.u16_count
	jmp	.L423	 #
.L422:
 # ./test/pdsp_test.c:517:     pdsp_macro_debounce_cnt(debouncem, PDSP_TRUE);
	movw	$0, -46(%rbp)	 #, debouncem.u16_count
.L423:
 # ./test/pdsp_test.c:518:     PDSP_ASSERT(debouncem.b_state == PDSP_TRUE);
	movzbl	-48(%rbp), %eax	 # debouncem.b_state, _203
	xorl	$1, %eax	 #, _204
	testb	%al, %al	 # _204
	je	.L425	 #,
 # ./test/pdsp_test.c:518:     PDSP_ASSERT(debouncem.b_state == PDSP_TRUE);
	movl	$518, %r8d	 #,
	leaq	.LC2(%rip), %rax	 #, tmp317
	movq	%rax, %rdx	 # tmp317,
	leaq	.LC3(%rip), %rax	 #, tmp318
	movq	%rax, %rcx	 # tmp318,
	call	printf	 #
.L425:
 # ./test/pdsp_test.c:519: }
	nop	
	addq	$80, %rsp	 #,
	popq	%rbp	 #
	ret	
	.seh_endproc
	.section .rdata,"dr"
.LC71:
	.ascii "-- void test_robust(void) --\12\0"
	.text
	.globl	test_robust
	.def	test_robust;	.scl	2;	.type	32;	.endef
	.seh_proc	test_robust
test_robust:
	pushq	%rbp	 #
	.seh_pushreg	%rbp
	movq	%rsp, %rbp	 #,
	.seh_setframe	%rbp, 0
	subq	$160, %rsp	 #,
	.seh_stackalloc	160
	.seh_endprologue
 # ./test/pdsp_test.c:523:     printf("-- void test_robust(void) --\n");
	leaq	.LC71(%rip), %rax	 #, tmp162
	movq	%rax, %rcx	 # tmp162,
	call	printf	 #
 # ./test/pdsp_test.c:524:     pdsp_f32_t af32_thres_up[4] = {1.0f, 2.0f, 2.5f, 3.0f};
	movss	.LC23(%rip), %xmm0	 #, tmp163
	movss	%xmm0, -16(%rbp)	 # tmp163, af32_thres_up[0]
	movss	.LC22(%rip), %xmm0	 #, tmp164
	movss	%xmm0, -12(%rbp)	 # tmp164, af32_thres_up[1]
	movss	.LC38(%rip), %xmm0	 #, tmp165
	movss	%xmm0, -8(%rbp)	 # tmp165, af32_thres_up[2]
	movss	.LC30(%rip), %xmm0	 #, tmp166
	movss	%xmm0, -4(%rbp)	 # tmp166, af32_thres_up[3]
 # ./test/pdsp_test.c:525:     pdsp_f32_t af32_thres_dn[4] = {0.0f, 0.5f, 1.5f, 2.0f};
	pxor	%xmm0, %xmm0	 # tmp167
	movss	%xmm0, -32(%rbp)	 # tmp167, af32_thres_dn[0]
	movss	.LC37(%rip), %xmm0	 #, tmp168
	movss	%xmm0, -28(%rbp)	 # tmp168, af32_thres_dn[1]
	movss	.LC24(%rip), %xmm0	 #, tmp169
	movss	%xmm0, -24(%rbp)	 # tmp169, af32_thres_dn[2]
	movss	.LC22(%rip), %xmm0	 #, tmp170
	movss	%xmm0, -20(%rbp)	 # tmp170, af32_thres_dn[3]
 # ./test/pdsp_test.c:526:     pdsp_f32_t af32_time_up[4] = {2.0f, 2.0f, 2.0f, 2.0f};
	movss	.LC22(%rip), %xmm0	 #, tmp171
	movss	%xmm0, -48(%rbp)	 # tmp171, af32_time_up[0]
	movss	.LC22(%rip), %xmm0	 #, tmp172
	movss	%xmm0, -44(%rbp)	 # tmp172, af32_time_up[1]
	movss	.LC22(%rip), %xmm0	 #, tmp173
	movss	%xmm0, -40(%rbp)	 # tmp173, af32_time_up[2]
	movss	.LC22(%rip), %xmm0	 #, tmp174
	movss	%xmm0, -36(%rbp)	 # tmp174, af32_time_up[3]
 # ./test/pdsp_test.c:527:     pdsp_f32_t af32_time_dn[4] = {2.0f, 2.0f, 2.0f, 2.0f};
	movss	.LC22(%rip), %xmm0	 #, tmp175
	movss	%xmm0, -64(%rbp)	 # tmp175, af32_time_dn[0]
	movss	.LC22(%rip), %xmm0	 #, tmp176
	movss	%xmm0, -60(%rbp)	 # tmp176, af32_time_dn[1]
	movss	.LC22(%rip), %xmm0	 #, tmp177
	movss	%xmm0, -56(%rbp)	 # tmp177, af32_time_dn[2]
	movss	.LC22(%rip), %xmm0	 #, tmp178
	movss	%xmm0, -52(%rbp)	 # tmp178, af32_time_dn[3]
 # ./test/pdsp_test.c:528:     pdsp_robust_t rbst = {.u16_state = 0,
	movw	$0, -128(%rbp)	 #, rbst.u16_state
	pxor	%xmm0, %xmm0	 # tmp179
	movss	%xmm0, -124(%rbp)	 # tmp179, rbst.f32_time
	movss	.LC23(%rip), %xmm0	 #, tmp180
	movss	%xmm0, -120(%rbp)	 # tmp180, rbst.f32_t_step
	leaq	-16(%rbp), %rax	 #, tmp181
	movq	%rax, -112(%rbp)	 # tmp181, rbst.af32_thres_up
	leaq	-32(%rbp), %rax	 #, tmp182
	movq	%rax, -104(%rbp)	 # tmp182, rbst.af32_thres_dn
	leaq	-48(%rbp), %rax	 #, tmp183
	movq	%rax, -96(%rbp)	 # tmp183, rbst.af32_time_up
	leaq	-64(%rbp), %rax	 #, tmp184
	movq	%rax, -88(%rbp)	 # tmp184, rbst.af32_time_dn
	movw	$4, -80(%rbp)	 #, rbst.u16_size
 # ./test/pdsp_test.c:536:     pdsp_robust_clear(&rbst);
	leaq	-128(%rbp), %rax	 #, tmp185
	movq	%rax, %rcx	 # tmp185,
	call	pdsp_robust_clear	 #
 # ./test/pdsp_test.c:537:     PDSP_ASSERT(pdsp_robust(&rbst, 10.0f) == 0U);
	leaq	-128(%rbp), %rax	 #, tmp186
	movss	.LC28(%rip), %xmm1	 #,
	movq	%rax, %rcx	 # tmp186,
	call	pdsp_robust	 #
 # ./test/pdsp_test.c:537:     PDSP_ASSERT(pdsp_robust(&rbst, 10.0f) == 0U);
	testw	%ax, %ax	 # _1
	je	.L427	 #,
	movl	$537, %r8d	 #,
	leaq	.LC2(%rip), %rax	 #, tmp187
	movq	%rax, %rdx	 # tmp187,
	leaq	.LC3(%rip), %rax	 #, tmp188
	movq	%rax, %rcx	 # tmp188,
	call	printf	 #
.L427:
 # ./test/pdsp_test.c:538:     PDSP_ASSERT(pdsp_robust(&rbst, 10.0f) == 0U);
	leaq	-128(%rbp), %rax	 #, tmp189
	movss	.LC28(%rip), %xmm1	 #,
	movq	%rax, %rcx	 # tmp189,
	call	pdsp_robust	 #
 # ./test/pdsp_test.c:538:     PDSP_ASSERT(pdsp_robust(&rbst, 10.0f) == 0U);
	testw	%ax, %ax	 # _2
	je	.L428	 #,
	movl	$538, %r8d	 #,
	leaq	.LC2(%rip), %rax	 #, tmp190
	movq	%rax, %rdx	 # tmp190,
	leaq	.LC3(%rip), %rax	 #, tmp191
	movq	%rax, %rcx	 # tmp191,
	call	printf	 #
.L428:
 # ./test/pdsp_test.c:539:     PDSP_ASSERT(pdsp_robust(&rbst, 10.0f) == 1U);
	leaq	-128(%rbp), %rax	 #, tmp192
	movss	.LC28(%rip), %xmm1	 #,
	movq	%rax, %rcx	 # tmp192,
	call	pdsp_robust	 #
 # ./test/pdsp_test.c:539:     PDSP_ASSERT(pdsp_robust(&rbst, 10.0f) == 1U);
	cmpw	$1, %ax	 #, _3
	je	.L429	 #,
	movl	$539, %r8d	 #,
	leaq	.LC2(%rip), %rax	 #, tmp193
	movq	%rax, %rdx	 # tmp193,
	leaq	.LC3(%rip), %rax	 #, tmp194
	movq	%rax, %rcx	 # tmp194,
	call	printf	 #
.L429:
 # ./test/pdsp_test.c:540:     PDSP_ASSERT(pdsp_robust(&rbst, 10.0f) == 1U);
	leaq	-128(%rbp), %rax	 #, tmp195
	movss	.LC28(%rip), %xmm1	 #,
	movq	%rax, %rcx	 # tmp195,
	call	pdsp_robust	 #
 # ./test/pdsp_test.c:540:     PDSP_ASSERT(pdsp_robust(&rbst, 10.0f) == 1U);
	cmpw	$1, %ax	 #, _4
	je	.L430	 #,
	movl	$540, %r8d	 #,
	leaq	.LC2(%rip), %rax	 #, tmp196
	movq	%rax, %rdx	 # tmp196,
	leaq	.LC3(%rip), %rax	 #, tmp197
	movq	%rax, %rcx	 # tmp197,
	call	printf	 #
.L430:
 # ./test/pdsp_test.c:541:     PDSP_ASSERT(pdsp_robust(&rbst, 10.0f) == 1U);
	leaq	-128(%rbp), %rax	 #, tmp198
	movss	.LC28(%rip), %xmm1	 #,
	movq	%rax, %rcx	 # tmp198,
	call	pdsp_robust	 #
 # ./test/pdsp_test.c:541:     PDSP_ASSERT(pdsp_robust(&rbst, 10.0f) == 1U);
	cmpw	$1, %ax	 #, _5
	je	.L431	 #,
	movl	$541, %r8d	 #,
	leaq	.LC2(%rip), %rax	 #, tmp199
	movq	%rax, %rdx	 # tmp199,
	leaq	.LC3(%rip), %rax	 #, tmp200
	movq	%rax, %rcx	 # tmp200,
	call	printf	 #
.L431:
 # ./test/pdsp_test.c:542:     PDSP_ASSERT(pdsp_robust(&rbst, 10.0f) == 2U);
	leaq	-128(%rbp), %rax	 #, tmp201
	movss	.LC28(%rip), %xmm1	 #,
	movq	%rax, %rcx	 # tmp201,
	call	pdsp_robust	 #
 # ./test/pdsp_test.c:542:     PDSP_ASSERT(pdsp_robust(&rbst, 10.0f) == 2U);
	cmpw	$2, %ax	 #, _6
	je	.L432	 #,
	movl	$542, %r8d	 #,
	leaq	.LC2(%rip), %rax	 #, tmp202
	movq	%rax, %rdx	 # tmp202,
	leaq	.LC3(%rip), %rax	 #, tmp203
	movq	%rax, %rcx	 # tmp203,
	call	printf	 #
.L432:
 # ./test/pdsp_test.c:543:     PDSP_ASSERT(pdsp_robust(&rbst, 10.0f) == 2U);
	leaq	-128(%rbp), %rax	 #, tmp204
	movss	.LC28(%rip), %xmm1	 #,
	movq	%rax, %rcx	 # tmp204,
	call	pdsp_robust	 #
 # ./test/pdsp_test.c:543:     PDSP_ASSERT(pdsp_robust(&rbst, 10.0f) == 2U);
	cmpw	$2, %ax	 #, _7
	je	.L433	 #,
	movl	$543, %r8d	 #,
	leaq	.LC2(%rip), %rax	 #, tmp205
	movq	%rax, %rdx	 # tmp205,
	leaq	.LC3(%rip), %rax	 #, tmp206
	movq	%rax, %rcx	 # tmp206,
	call	printf	 #
.L433:
 # ./test/pdsp_test.c:544:     PDSP_ASSERT(pdsp_robust(&rbst, 10.0f) == 2U);
	leaq	-128(%rbp), %rax	 #, tmp207
	movss	.LC28(%rip), %xmm1	 #,
	movq	%rax, %rcx	 # tmp207,
	call	pdsp_robust	 #
 # ./test/pdsp_test.c:544:     PDSP_ASSERT(pdsp_robust(&rbst, 10.0f) == 2U);
	cmpw	$2, %ax	 #, _8
	je	.L434	 #,
	movl	$544, %r8d	 #,
	leaq	.LC2(%rip), %rax	 #, tmp208
	movq	%rax, %rdx	 # tmp208,
	leaq	.LC3(%rip), %rax	 #, tmp209
	movq	%rax, %rcx	 # tmp209,
	call	printf	 #
.L434:
 # ./test/pdsp_test.c:545:     PDSP_ASSERT(pdsp_robust(&rbst, 10.0f) == 3U);
	leaq	-128(%rbp), %rax	 #, tmp210
	movss	.LC28(%rip), %xmm1	 #,
	movq	%rax, %rcx	 # tmp210,
	call	pdsp_robust	 #
 # ./test/pdsp_test.c:545:     PDSP_ASSERT(pdsp_robust(&rbst, 10.0f) == 3U);
	cmpw	$3, %ax	 #, _9
	je	.L435	 #,
	movl	$545, %r8d	 #,
	leaq	.LC2(%rip), %rax	 #, tmp211
	movq	%rax, %rdx	 # tmp211,
	leaq	.LC3(%rip), %rax	 #, tmp212
	movq	%rax, %rcx	 # tmp212,
	call	printf	 #
.L435:
 # ./test/pdsp_test.c:546:     PDSP_ASSERT(pdsp_robust(&rbst, 10.0f) == 3U);
	leaq	-128(%rbp), %rax	 #, tmp213
	movss	.LC28(%rip), %xmm1	 #,
	movq	%rax, %rcx	 # tmp213,
	call	pdsp_robust	 #
 # ./test/pdsp_test.c:546:     PDSP_ASSERT(pdsp_robust(&rbst, 10.0f) == 3U);
	cmpw	$3, %ax	 #, _10
	je	.L436	 #,
	movl	$546, %r8d	 #,
	leaq	.LC2(%rip), %rax	 #, tmp214
	movq	%rax, %rdx	 # tmp214,
	leaq	.LC3(%rip), %rax	 #, tmp215
	movq	%rax, %rcx	 # tmp215,
	call	printf	 #
.L436:
 # ./test/pdsp_test.c:547:     PDSP_ASSERT(pdsp_robust(&rbst, 10.0f) == 3U);
	leaq	-128(%rbp), %rax	 #, tmp216
	movss	.LC28(%rip), %xmm1	 #,
	movq	%rax, %rcx	 # tmp216,
	call	pdsp_robust	 #
 # ./test/pdsp_test.c:547:     PDSP_ASSERT(pdsp_robust(&rbst, 10.0f) == 3U);
	cmpw	$3, %ax	 #, _11
	je	.L437	 #,
	movl	$547, %r8d	 #,
	leaq	.LC2(%rip), %rax	 #, tmp217
	movq	%rax, %rdx	 # tmp217,
	leaq	.LC3(%rip), %rax	 #, tmp218
	movq	%rax, %rcx	 # tmp218,
	call	printf	 #
.L437:
 # ./test/pdsp_test.c:548:     PDSP_ASSERT(pdsp_robust(&rbst, 10.0f) == 3U);
	leaq	-128(%rbp), %rax	 #, tmp219
	movss	.LC28(%rip), %xmm1	 #,
	movq	%rax, %rcx	 # tmp219,
	call	pdsp_robust	 #
 # ./test/pdsp_test.c:548:     PDSP_ASSERT(pdsp_robust(&rbst, 10.0f) == 3U);
	cmpw	$3, %ax	 #, _12
	je	.L438	 #,
	movl	$548, %r8d	 #,
	leaq	.LC2(%rip), %rax	 #, tmp220
	movq	%rax, %rdx	 # tmp220,
	leaq	.LC3(%rip), %rax	 #, tmp221
	movq	%rax, %rcx	 # tmp221,
	call	printf	 #
.L438:
 # ./test/pdsp_test.c:549:     PDSP_ASSERT(pdsp_robust(&rbst, 10.0f) == 3U);
	leaq	-128(%rbp), %rax	 #, tmp222
	movss	.LC28(%rip), %xmm1	 #,
	movq	%rax, %rcx	 # tmp222,
	call	pdsp_robust	 #
 # ./test/pdsp_test.c:549:     PDSP_ASSERT(pdsp_robust(&rbst, 10.0f) == 3U);
	cmpw	$3, %ax	 #, _13
	je	.L439	 #,
	movl	$549, %r8d	 #,
	leaq	.LC2(%rip), %rax	 #, tmp223
	movq	%rax, %rdx	 # tmp223,
	leaq	.LC3(%rip), %rax	 #, tmp224
	movq	%rax, %rcx	 # tmp224,
	call	printf	 #
.L439:
 # ./test/pdsp_test.c:550:     PDSP_ASSERT(pdsp_robust(&rbst, 10.0f) == 3U);
	leaq	-128(%rbp), %rax	 #, tmp225
	movss	.LC28(%rip), %xmm1	 #,
	movq	%rax, %rcx	 # tmp225,
	call	pdsp_robust	 #
 # ./test/pdsp_test.c:550:     PDSP_ASSERT(pdsp_robust(&rbst, 10.0f) == 3U);
	cmpw	$3, %ax	 #, _14
	je	.L440	 #,
	movl	$550, %r8d	 #,
	leaq	.LC2(%rip), %rax	 #, tmp226
	movq	%rax, %rdx	 # tmp226,
	leaq	.LC3(%rip), %rax	 #, tmp227
	movq	%rax, %rcx	 # tmp227,
	call	printf	 #
.L440:
 # ./test/pdsp_test.c:551:     PDSP_ASSERT(pdsp_robust(&rbst, -10.0f) == 3U);
	leaq	-128(%rbp), %rax	 #, tmp228
	movss	.LC72(%rip), %xmm1	 #,
	movq	%rax, %rcx	 # tmp228,
	call	pdsp_robust	 #
 # ./test/pdsp_test.c:551:     PDSP_ASSERT(pdsp_robust(&rbst, -10.0f) == 3U);
	cmpw	$3, %ax	 #, _15
	je	.L441	 #,
	movl	$551, %r8d	 #,
	leaq	.LC2(%rip), %rax	 #, tmp229
	movq	%rax, %rdx	 # tmp229,
	leaq	.LC3(%rip), %rax	 #, tmp230
	movq	%rax, %rcx	 # tmp230,
	call	printf	 #
.L441:
 # ./test/pdsp_test.c:552:     PDSP_ASSERT(pdsp_robust(&rbst, -10.0f) == 3U);
	leaq	-128(%rbp), %rax	 #, tmp231
	movss	.LC72(%rip), %xmm1	 #,
	movq	%rax, %rcx	 # tmp231,
	call	pdsp_robust	 #
 # ./test/pdsp_test.c:552:     PDSP_ASSERT(pdsp_robust(&rbst, -10.0f) == 3U);
	cmpw	$3, %ax	 #, _16
	je	.L442	 #,
	movl	$552, %r8d	 #,
	leaq	.LC2(%rip), %rax	 #, tmp232
	movq	%rax, %rdx	 # tmp232,
	leaq	.LC3(%rip), %rax	 #, tmp233
	movq	%rax, %rcx	 # tmp233,
	call	printf	 #
.L442:
 # ./test/pdsp_test.c:553:     PDSP_ASSERT(pdsp_robust(&rbst, -10.0f) == 2U);
	leaq	-128(%rbp), %rax	 #, tmp234
	movss	.LC72(%rip), %xmm1	 #,
	movq	%rax, %rcx	 # tmp234,
	call	pdsp_robust	 #
 # ./test/pdsp_test.c:553:     PDSP_ASSERT(pdsp_robust(&rbst, -10.0f) == 2U);
	cmpw	$2, %ax	 #, _17
	je	.L443	 #,
	movl	$553, %r8d	 #,
	leaq	.LC2(%rip), %rax	 #, tmp235
	movq	%rax, %rdx	 # tmp235,
	leaq	.LC3(%rip), %rax	 #, tmp236
	movq	%rax, %rcx	 # tmp236,
	call	printf	 #
.L443:
 # ./test/pdsp_test.c:554:     PDSP_ASSERT(pdsp_robust(&rbst, -10.0f) == 2U);
	leaq	-128(%rbp), %rax	 #, tmp237
	movss	.LC72(%rip), %xmm1	 #,
	movq	%rax, %rcx	 # tmp237,
	call	pdsp_robust	 #
 # ./test/pdsp_test.c:554:     PDSP_ASSERT(pdsp_robust(&rbst, -10.0f) == 2U);
	cmpw	$2, %ax	 #, _18
	je	.L444	 #,
	movl	$554, %r8d	 #,
	leaq	.LC2(%rip), %rax	 #, tmp238
	movq	%rax, %rdx	 # tmp238,
	leaq	.LC3(%rip), %rax	 #, tmp239
	movq	%rax, %rcx	 # tmp239,
	call	printf	 #
.L444:
 # ./test/pdsp_test.c:555:     PDSP_ASSERT(pdsp_robust(&rbst, -10.0f) == 2U);
	leaq	-128(%rbp), %rax	 #, tmp240
	movss	.LC72(%rip), %xmm1	 #,
	movq	%rax, %rcx	 # tmp240,
	call	pdsp_robust	 #
 # ./test/pdsp_test.c:555:     PDSP_ASSERT(pdsp_robust(&rbst, -10.0f) == 2U);
	cmpw	$2, %ax	 #, _19
	je	.L445	 #,
	movl	$555, %r8d	 #,
	leaq	.LC2(%rip), %rax	 #, tmp241
	movq	%rax, %rdx	 # tmp241,
	leaq	.LC3(%rip), %rax	 #, tmp242
	movq	%rax, %rcx	 # tmp242,
	call	printf	 #
.L445:
 # ./test/pdsp_test.c:556:     PDSP_ASSERT(pdsp_robust(&rbst, -10.0f) == 1U);
	leaq	-128(%rbp), %rax	 #, tmp243
	movss	.LC72(%rip), %xmm1	 #,
	movq	%rax, %rcx	 # tmp243,
	call	pdsp_robust	 #
 # ./test/pdsp_test.c:556:     PDSP_ASSERT(pdsp_robust(&rbst, -10.0f) == 1U);
	cmpw	$1, %ax	 #, _20
	je	.L446	 #,
	movl	$556, %r8d	 #,
	leaq	.LC2(%rip), %rax	 #, tmp244
	movq	%rax, %rdx	 # tmp244,
	leaq	.LC3(%rip), %rax	 #, tmp245
	movq	%rax, %rcx	 # tmp245,
	call	printf	 #
.L446:
 # ./test/pdsp_test.c:557:     PDSP_ASSERT(pdsp_robust(&rbst, -10.0f) == 1U);
	leaq	-128(%rbp), %rax	 #, tmp246
	movss	.LC72(%rip), %xmm1	 #,
	movq	%rax, %rcx	 # tmp246,
	call	pdsp_robust	 #
 # ./test/pdsp_test.c:557:     PDSP_ASSERT(pdsp_robust(&rbst, -10.0f) == 1U);
	cmpw	$1, %ax	 #, _21
	je	.L447	 #,
	movl	$557, %r8d	 #,
	leaq	.LC2(%rip), %rax	 #, tmp247
	movq	%rax, %rdx	 # tmp247,
	leaq	.LC3(%rip), %rax	 #, tmp248
	movq	%rax, %rcx	 # tmp248,
	call	printf	 #
.L447:
 # ./test/pdsp_test.c:558:     PDSP_ASSERT(pdsp_robust(&rbst, -10.0f) == 1U);
	leaq	-128(%rbp), %rax	 #, tmp249
	movss	.LC72(%rip), %xmm1	 #,
	movq	%rax, %rcx	 # tmp249,
	call	pdsp_robust	 #
 # ./test/pdsp_test.c:558:     PDSP_ASSERT(pdsp_robust(&rbst, -10.0f) == 1U);
	cmpw	$1, %ax	 #, _22
	je	.L448	 #,
	movl	$558, %r8d	 #,
	leaq	.LC2(%rip), %rax	 #, tmp250
	movq	%rax, %rdx	 # tmp250,
	leaq	.LC3(%rip), %rax	 #, tmp251
	movq	%rax, %rcx	 # tmp251,
	call	printf	 #
.L448:
 # ./test/pdsp_test.c:559:     PDSP_ASSERT(pdsp_robust(&rbst, -10.0f) == 0U);
	leaq	-128(%rbp), %rax	 #, tmp252
	movss	.LC72(%rip), %xmm1	 #,
	movq	%rax, %rcx	 # tmp252,
	call	pdsp_robust	 #
 # ./test/pdsp_test.c:559:     PDSP_ASSERT(pdsp_robust(&rbst, -10.0f) == 0U);
	testw	%ax, %ax	 # _23
	je	.L449	 #,
	movl	$559, %r8d	 #,
	leaq	.LC2(%rip), %rax	 #, tmp253
	movq	%rax, %rdx	 # tmp253,
	leaq	.LC3(%rip), %rax	 #, tmp254
	movq	%rax, %rcx	 # tmp254,
	call	printf	 #
.L449:
 # ./test/pdsp_test.c:560:     PDSP_ASSERT(pdsp_robust(&rbst, -10.0f) == 0U);
	leaq	-128(%rbp), %rax	 #, tmp255
	movss	.LC72(%rip), %xmm1	 #,
	movq	%rax, %rcx	 # tmp255,
	call	pdsp_robust	 #
 # ./test/pdsp_test.c:560:     PDSP_ASSERT(pdsp_robust(&rbst, -10.0f) == 0U);
	testw	%ax, %ax	 # _24
	je	.L450	 #,
	movl	$560, %r8d	 #,
	leaq	.LC2(%rip), %rax	 #, tmp256
	movq	%rax, %rdx	 # tmp256,
	leaq	.LC3(%rip), %rax	 #, tmp257
	movq	%rax, %rcx	 # tmp257,
	call	printf	 #
.L450:
 # ./test/pdsp_test.c:561:     PDSP_ASSERT(pdsp_robust(&rbst, -10.0f) == 0U);
	leaq	-128(%rbp), %rax	 #, tmp258
	movss	.LC72(%rip), %xmm1	 #,
	movq	%rax, %rcx	 # tmp258,
	call	pdsp_robust	 #
 # ./test/pdsp_test.c:561:     PDSP_ASSERT(pdsp_robust(&rbst, -10.0f) == 0U);
	testw	%ax, %ax	 # _25
	je	.L451	 #,
	movl	$561, %r8d	 #,
	leaq	.LC2(%rip), %rax	 #, tmp259
	movq	%rax, %rdx	 # tmp259,
	leaq	.LC3(%rip), %rax	 #, tmp260
	movq	%rax, %rcx	 # tmp260,
	call	printf	 #
.L451:
 # ./test/pdsp_test.c:562:     PDSP_ASSERT(pdsp_robust(&rbst, -10.0f) == 0U);
	leaq	-128(%rbp), %rax	 #, tmp261
	movss	.LC72(%rip), %xmm1	 #,
	movq	%rax, %rcx	 # tmp261,
	call	pdsp_robust	 #
 # ./test/pdsp_test.c:562:     PDSP_ASSERT(pdsp_robust(&rbst, -10.0f) == 0U);
	testw	%ax, %ax	 # _26
	je	.L452	 #,
	movl	$562, %r8d	 #,
	leaq	.LC2(%rip), %rax	 #, tmp262
	movq	%rax, %rdx	 # tmp262,
	leaq	.LC3(%rip), %rax	 #, tmp263
	movq	%rax, %rcx	 # tmp263,
	call	printf	 #
.L452:
 # ./test/pdsp_test.c:563:     pdsp_robust_clear(&rbst);
	leaq	-128(%rbp), %rax	 #, tmp264
	movq	%rax, %rcx	 # tmp264,
	call	pdsp_robust_clear	 #
 # ./test/pdsp_test.c:564:     PDSP_ASSERT(pdsp_robust(&rbst, 2.1f) == 0U);
	leaq	-128(%rbp), %rax	 #, tmp265
	movss	.LC73(%rip), %xmm1	 #,
	movq	%rax, %rcx	 # tmp265,
	call	pdsp_robust	 #
 # ./test/pdsp_test.c:564:     PDSP_ASSERT(pdsp_robust(&rbst, 2.1f) == 0U);
	testw	%ax, %ax	 # _27
	je	.L453	 #,
	movl	$564, %r8d	 #,
	leaq	.LC2(%rip), %rax	 #, tmp266
	movq	%rax, %rdx	 # tmp266,
	leaq	.LC3(%rip), %rax	 #, tmp267
	movq	%rax, %rcx	 # tmp267,
	call	printf	 #
.L453:
 # ./test/pdsp_test.c:565:     PDSP_ASSERT(pdsp_robust(&rbst, 2.1f) == 0U);
	leaq	-128(%rbp), %rax	 #, tmp268
	movss	.LC73(%rip), %xmm1	 #,
	movq	%rax, %rcx	 # tmp268,
	call	pdsp_robust	 #
 # ./test/pdsp_test.c:565:     PDSP_ASSERT(pdsp_robust(&rbst, 2.1f) == 0U);
	testw	%ax, %ax	 # _28
	je	.L454	 #,
	movl	$565, %r8d	 #,
	leaq	.LC2(%rip), %rax	 #, tmp269
	movq	%rax, %rdx	 # tmp269,
	leaq	.LC3(%rip), %rax	 #, tmp270
	movq	%rax, %rcx	 # tmp270,
	call	printf	 #
.L454:
 # ./test/pdsp_test.c:566:     PDSP_ASSERT(pdsp_robust(&rbst, 2.1f) == 1U);
	leaq	-128(%rbp), %rax	 #, tmp271
	movss	.LC73(%rip), %xmm1	 #,
	movq	%rax, %rcx	 # tmp271,
	call	pdsp_robust	 #
 # ./test/pdsp_test.c:566:     PDSP_ASSERT(pdsp_robust(&rbst, 2.1f) == 1U);
	cmpw	$1, %ax	 #, _29
	je	.L455	 #,
	movl	$566, %r8d	 #,
	leaq	.LC2(%rip), %rax	 #, tmp272
	movq	%rax, %rdx	 # tmp272,
	leaq	.LC3(%rip), %rax	 #, tmp273
	movq	%rax, %rcx	 # tmp273,
	call	printf	 #
.L455:
 # ./test/pdsp_test.c:567:     PDSP_ASSERT(pdsp_robust(&rbst, 2.1f) == 1U);
	leaq	-128(%rbp), %rax	 #, tmp274
	movss	.LC73(%rip), %xmm1	 #,
	movq	%rax, %rcx	 # tmp274,
	call	pdsp_robust	 #
 # ./test/pdsp_test.c:567:     PDSP_ASSERT(pdsp_robust(&rbst, 2.1f) == 1U);
	cmpw	$1, %ax	 #, _30
	je	.L456	 #,
	movl	$567, %r8d	 #,
	leaq	.LC2(%rip), %rax	 #, tmp275
	movq	%rax, %rdx	 # tmp275,
	leaq	.LC3(%rip), %rax	 #, tmp276
	movq	%rax, %rcx	 # tmp276,
	call	printf	 #
.L456:
 # ./test/pdsp_test.c:568:     PDSP_ASSERT(pdsp_robust(&rbst, 2.1f) == 1U);
	leaq	-128(%rbp), %rax	 #, tmp277
	movss	.LC73(%rip), %xmm1	 #,
	movq	%rax, %rcx	 # tmp277,
	call	pdsp_robust	 #
 # ./test/pdsp_test.c:568:     PDSP_ASSERT(pdsp_robust(&rbst, 2.1f) == 1U);
	cmpw	$1, %ax	 #, _31
	je	.L457	 #,
	movl	$568, %r8d	 #,
	leaq	.LC2(%rip), %rax	 #, tmp278
	movq	%rax, %rdx	 # tmp278,
	leaq	.LC3(%rip), %rax	 #, tmp279
	movq	%rax, %rcx	 # tmp279,
	call	printf	 #
.L457:
 # ./test/pdsp_test.c:569:     PDSP_ASSERT(pdsp_robust(&rbst, 2.1f) == 2U);
	leaq	-128(%rbp), %rax	 #, tmp280
	movss	.LC73(%rip), %xmm1	 #,
	movq	%rax, %rcx	 # tmp280,
	call	pdsp_robust	 #
 # ./test/pdsp_test.c:569:     PDSP_ASSERT(pdsp_robust(&rbst, 2.1f) == 2U);
	cmpw	$2, %ax	 #, _32
	je	.L458	 #,
	movl	$569, %r8d	 #,
	leaq	.LC2(%rip), %rax	 #, tmp281
	movq	%rax, %rdx	 # tmp281,
	leaq	.LC3(%rip), %rax	 #, tmp282
	movq	%rax, %rcx	 # tmp282,
	call	printf	 #
.L458:
 # ./test/pdsp_test.c:570:     PDSP_ASSERT(pdsp_robust(&rbst, 2.1f) == 2U);
	leaq	-128(%rbp), %rax	 #, tmp283
	movss	.LC73(%rip), %xmm1	 #,
	movq	%rax, %rcx	 # tmp283,
	call	pdsp_robust	 #
 # ./test/pdsp_test.c:570:     PDSP_ASSERT(pdsp_robust(&rbst, 2.1f) == 2U);
	cmpw	$2, %ax	 #, _33
	je	.L459	 #,
	movl	$570, %r8d	 #,
	leaq	.LC2(%rip), %rax	 #, tmp284
	movq	%rax, %rdx	 # tmp284,
	leaq	.LC3(%rip), %rax	 #, tmp285
	movq	%rax, %rcx	 # tmp285,
	call	printf	 #
.L459:
 # ./test/pdsp_test.c:571:     PDSP_ASSERT(pdsp_robust(&rbst, 2.1f) == 2U);
	leaq	-128(%rbp), %rax	 #, tmp286
	movss	.LC73(%rip), %xmm1	 #,
	movq	%rax, %rcx	 # tmp286,
	call	pdsp_robust	 #
 # ./test/pdsp_test.c:571:     PDSP_ASSERT(pdsp_robust(&rbst, 2.1f) == 2U);
	cmpw	$2, %ax	 #, _34
	je	.L460	 #,
	movl	$571, %r8d	 #,
	leaq	.LC2(%rip), %rax	 #, tmp287
	movq	%rax, %rdx	 # tmp287,
	leaq	.LC3(%rip), %rax	 #, tmp288
	movq	%rax, %rcx	 # tmp288,
	call	printf	 #
.L460:
 # ./test/pdsp_test.c:572:     PDSP_ASSERT(pdsp_robust(&rbst, 2.1f) == 2U);
	leaq	-128(%rbp), %rax	 #, tmp289
	movss	.LC73(%rip), %xmm1	 #,
	movq	%rax, %rcx	 # tmp289,
	call	pdsp_robust	 #
 # ./test/pdsp_test.c:572:     PDSP_ASSERT(pdsp_robust(&rbst, 2.1f) == 2U);
	cmpw	$2, %ax	 #, _35
	je	.L461	 #,
	movl	$572, %r8d	 #,
	leaq	.LC2(%rip), %rax	 #, tmp290
	movq	%rax, %rdx	 # tmp290,
	leaq	.LC3(%rip), %rax	 #, tmp291
	movq	%rax, %rcx	 # tmp291,
	call	printf	 #
.L461:
 # ./test/pdsp_test.c:573:     pdsp_robust_clear(&rbst);
	leaq	-128(%rbp), %rax	 #, tmp292
	movq	%rax, %rcx	 # tmp292,
	call	pdsp_robust_clear	 #
 # ./test/pdsp_test.c:574:     PDSP_ASSERT(pdsp_robust(&rbst, 10.0f) == 0U);
	leaq	-128(%rbp), %rax	 #, tmp293
	movss	.LC28(%rip), %xmm1	 #,
	movq	%rax, %rcx	 # tmp293,
	call	pdsp_robust	 #
 # ./test/pdsp_test.c:574:     PDSP_ASSERT(pdsp_robust(&rbst, 10.0f) == 0U);
	testw	%ax, %ax	 # _36
	je	.L462	 #,
	movl	$574, %r8d	 #,
	leaq	.LC2(%rip), %rax	 #, tmp294
	movq	%rax, %rdx	 # tmp294,
	leaq	.LC3(%rip), %rax	 #, tmp295
	movq	%rax, %rcx	 # tmp295,
	call	printf	 #
.L462:
 # ./test/pdsp_test.c:575:     PDSP_ASSERT(pdsp_robust(&rbst, 10.0f) == 0U);
	leaq	-128(%rbp), %rax	 #, tmp296
	movss	.LC28(%rip), %xmm1	 #,
	movq	%rax, %rcx	 # tmp296,
	call	pdsp_robust	 #
 # ./test/pdsp_test.c:575:     PDSP_ASSERT(pdsp_robust(&rbst, 10.0f) == 0U);
	testw	%ax, %ax	 # _37
	je	.L463	 #,
	movl	$575, %r8d	 #,
	leaq	.LC2(%rip), %rax	 #, tmp297
	movq	%rax, %rdx	 # tmp297,
	leaq	.LC3(%rip), %rax	 #, tmp298
	movq	%rax, %rcx	 # tmp298,
	call	printf	 #
.L463:
 # ./test/pdsp_test.c:576:     PDSP_ASSERT(pdsp_robust(&rbst, 0.0f) == 0U);
	leaq	-128(%rbp), %rax	 #, tmp299
	pxor	%xmm1, %xmm1	 #
	movq	%rax, %rcx	 # tmp299,
	call	pdsp_robust	 #
 # ./test/pdsp_test.c:576:     PDSP_ASSERT(pdsp_robust(&rbst, 0.0f) == 0U);
	testw	%ax, %ax	 # _38
	je	.L464	 #,
	movl	$576, %r8d	 #,
	leaq	.LC2(%rip), %rax	 #, tmp300
	movq	%rax, %rdx	 # tmp300,
	leaq	.LC3(%rip), %rax	 #, tmp301
	movq	%rax, %rcx	 # tmp301,
	call	printf	 #
.L464:
 # ./test/pdsp_test.c:577:     PDSP_ASSERT(pdsp_robust(&rbst, 10.0f) == 0U);
	leaq	-128(%rbp), %rax	 #, tmp302
	movss	.LC28(%rip), %xmm1	 #,
	movq	%rax, %rcx	 # tmp302,
	call	pdsp_robust	 #
 # ./test/pdsp_test.c:577:     PDSP_ASSERT(pdsp_robust(&rbst, 10.0f) == 0U);
	testw	%ax, %ax	 # _39
	je	.L465	 #,
	movl	$577, %r8d	 #,
	leaq	.LC2(%rip), %rax	 #, tmp303
	movq	%rax, %rdx	 # tmp303,
	leaq	.LC3(%rip), %rax	 #, tmp304
	movq	%rax, %rcx	 # tmp304,
	call	printf	 #
.L465:
 # ./test/pdsp_test.c:578:     PDSP_ASSERT(pdsp_robust(&rbst, 10.0f) == 0U);
	leaq	-128(%rbp), %rax	 #, tmp305
	movss	.LC28(%rip), %xmm1	 #,
	movq	%rax, %rcx	 # tmp305,
	call	pdsp_robust	 #
 # ./test/pdsp_test.c:578:     PDSP_ASSERT(pdsp_robust(&rbst, 10.0f) == 0U);
	testw	%ax, %ax	 # _40
	je	.L466	 #,
	movl	$578, %r8d	 #,
	leaq	.LC2(%rip), %rax	 #, tmp306
	movq	%rax, %rdx	 # tmp306,
	leaq	.LC3(%rip), %rax	 #, tmp307
	movq	%rax, %rcx	 # tmp307,
	call	printf	 #
.L466:
 # ./test/pdsp_test.c:579:     PDSP_ASSERT(pdsp_robust(&rbst, 0.0f) == 0U);
	leaq	-128(%rbp), %rax	 #, tmp308
	pxor	%xmm1, %xmm1	 #
	movq	%rax, %rcx	 # tmp308,
	call	pdsp_robust	 #
 # ./test/pdsp_test.c:579:     PDSP_ASSERT(pdsp_robust(&rbst, 0.0f) == 0U);
	testw	%ax, %ax	 # _41
	je	.L467	 #,
	movl	$579, %r8d	 #,
	leaq	.LC2(%rip), %rax	 #, tmp309
	movq	%rax, %rdx	 # tmp309,
	leaq	.LC3(%rip), %rax	 #, tmp310
	movq	%rax, %rcx	 # tmp310,
	call	printf	 #
.L467:
 # ./test/pdsp_test.c:580:     PDSP_ASSERT(pdsp_robust(&rbst, 2.1f) == 0U);
	leaq	-128(%rbp), %rax	 #, tmp311
	movss	.LC73(%rip), %xmm1	 #,
	movq	%rax, %rcx	 # tmp311,
	call	pdsp_robust	 #
 # ./test/pdsp_test.c:580:     PDSP_ASSERT(pdsp_robust(&rbst, 2.1f) == 0U);
	testw	%ax, %ax	 # _42
	je	.L468	 #,
	movl	$580, %r8d	 #,
	leaq	.LC2(%rip), %rax	 #, tmp312
	movq	%rax, %rdx	 # tmp312,
	leaq	.LC3(%rip), %rax	 #, tmp313
	movq	%rax, %rcx	 # tmp313,
	call	printf	 #
.L468:
 # ./test/pdsp_test.c:581:     PDSP_ASSERT(pdsp_robust(&rbst, 2.1f) == 0U);
	leaq	-128(%rbp), %rax	 #, tmp314
	movss	.LC73(%rip), %xmm1	 #,
	movq	%rax, %rcx	 # tmp314,
	call	pdsp_robust	 #
 # ./test/pdsp_test.c:581:     PDSP_ASSERT(pdsp_robust(&rbst, 2.1f) == 0U);
	testw	%ax, %ax	 # _43
	je	.L469	 #,
	movl	$581, %r8d	 #,
	leaq	.LC2(%rip), %rax	 #, tmp315
	movq	%rax, %rdx	 # tmp315,
	leaq	.LC3(%rip), %rax	 #, tmp316
	movq	%rax, %rcx	 # tmp316,
	call	printf	 #
.L469:
 # ./test/pdsp_test.c:582:     PDSP_ASSERT(pdsp_robust(&rbst, 2.1f) == 1U);
	leaq	-128(%rbp), %rax	 #, tmp317
	movss	.LC73(%rip), %xmm1	 #,
	movq	%rax, %rcx	 # tmp317,
	call	pdsp_robust	 #
 # ./test/pdsp_test.c:582:     PDSP_ASSERT(pdsp_robust(&rbst, 2.1f) == 1U);
	cmpw	$1, %ax	 #, _44
	je	.L470	 #,
	movl	$582, %r8d	 #,
	leaq	.LC2(%rip), %rax	 #, tmp318
	movq	%rax, %rdx	 # tmp318,
	leaq	.LC3(%rip), %rax	 #, tmp319
	movq	%rax, %rcx	 # tmp319,
	call	printf	 #
.L470:
 # ./test/pdsp_test.c:583:     PDSP_ASSERT(pdsp_robust(&rbst, 2.1f) == 1U);
	leaq	-128(%rbp), %rax	 #, tmp320
	movss	.LC73(%rip), %xmm1	 #,
	movq	%rax, %rcx	 # tmp320,
	call	pdsp_robust	 #
 # ./test/pdsp_test.c:583:     PDSP_ASSERT(pdsp_robust(&rbst, 2.1f) == 1U);
	cmpw	$1, %ax	 #, _45
	je	.L471	 #,
	movl	$583, %r8d	 #,
	leaq	.LC2(%rip), %rax	 #, tmp321
	movq	%rax, %rdx	 # tmp321,
	leaq	.LC3(%rip), %rax	 #, tmp322
	movq	%rax, %rcx	 # tmp322,
	call	printf	 #
.L471:
 # ./test/pdsp_test.c:584:     PDSP_ASSERT(pdsp_robust(&rbst, 2.1f) == 1U);
	leaq	-128(%rbp), %rax	 #, tmp323
	movss	.LC73(%rip), %xmm1	 #,
	movq	%rax, %rcx	 # tmp323,
	call	pdsp_robust	 #
 # ./test/pdsp_test.c:584:     PDSP_ASSERT(pdsp_robust(&rbst, 2.1f) == 1U);
	cmpw	$1, %ax	 #, _46
	je	.L472	 #,
	movl	$584, %r8d	 #,
	leaq	.LC2(%rip), %rax	 #, tmp324
	movq	%rax, %rdx	 # tmp324,
	leaq	.LC3(%rip), %rax	 #, tmp325
	movq	%rax, %rcx	 # tmp325,
	call	printf	 #
.L472:
 # ./test/pdsp_test.c:585:     PDSP_ASSERT(pdsp_robust(&rbst, 2.1f) == 2U);
	leaq	-128(%rbp), %rax	 #, tmp326
	movss	.LC73(%rip), %xmm1	 #,
	movq	%rax, %rcx	 # tmp326,
	call	pdsp_robust	 #
 # ./test/pdsp_test.c:585:     PDSP_ASSERT(pdsp_robust(&rbst, 2.1f) == 2U);
	cmpw	$2, %ax	 #, _47
	je	.L473	 #,
	movl	$585, %r8d	 #,
	leaq	.LC2(%rip), %rax	 #, tmp327
	movq	%rax, %rdx	 # tmp327,
	leaq	.LC3(%rip), %rax	 #, tmp328
	movq	%rax, %rcx	 # tmp328,
	call	printf	 #
.L473:
 # ./test/pdsp_test.c:586:     PDSP_ASSERT(pdsp_robust(&rbst, 2.1f) == 2U);
	leaq	-128(%rbp), %rax	 #, tmp329
	movss	.LC73(%rip), %xmm1	 #,
	movq	%rax, %rcx	 # tmp329,
	call	pdsp_robust	 #
 # ./test/pdsp_test.c:586:     PDSP_ASSERT(pdsp_robust(&rbst, 2.1f) == 2U);
	cmpw	$2, %ax	 #, _48
	je	.L474	 #,
	movl	$586, %r8d	 #,
	leaq	.LC2(%rip), %rax	 #, tmp330
	movq	%rax, %rdx	 # tmp330,
	leaq	.LC3(%rip), %rax	 #, tmp331
	movq	%rax, %rcx	 # tmp331,
	call	printf	 #
.L474:
 # ./test/pdsp_test.c:587:     PDSP_ASSERT(pdsp_robust(&rbst, 2.1f) == 2U);
	leaq	-128(%rbp), %rax	 #, tmp332
	movss	.LC73(%rip), %xmm1	 #,
	movq	%rax, %rcx	 # tmp332,
	call	pdsp_robust	 #
 # ./test/pdsp_test.c:587:     PDSP_ASSERT(pdsp_robust(&rbst, 2.1f) == 2U);
	cmpw	$2, %ax	 #, _49
	je	.L475	 #,
	movl	$587, %r8d	 #,
	leaq	.LC2(%rip), %rax	 #, tmp333
	movq	%rax, %rdx	 # tmp333,
	leaq	.LC3(%rip), %rax	 #, tmp334
	movq	%rax, %rcx	 # tmp334,
	call	printf	 #
.L475:
 # ./test/pdsp_test.c:588:     PDSP_ASSERT(pdsp_robust(&rbst, 2.1f) == 2U);
	leaq	-128(%rbp), %rax	 #, tmp335
	movss	.LC73(%rip), %xmm1	 #,
	movq	%rax, %rcx	 # tmp335,
	call	pdsp_robust	 #
 # ./test/pdsp_test.c:588:     PDSP_ASSERT(pdsp_robust(&rbst, 2.1f) == 2U);
	cmpw	$2, %ax	 #, _50
	je	.L476	 #,
	movl	$588, %r8d	 #,
	leaq	.LC2(%rip), %rax	 #, tmp336
	movq	%rax, %rdx	 # tmp336,
	leaq	.LC3(%rip), %rax	 #, tmp337
	movq	%rax, %rcx	 # tmp337,
	call	printf	 #
.L476:
 # ./test/pdsp_test.c:589:     PDSP_ASSERT(pdsp_robust(&rbst, 1.4f) == 2U);
	leaq	-128(%rbp), %rax	 #, tmp338
	movss	.LC74(%rip), %xmm1	 #,
	movq	%rax, %rcx	 # tmp338,
	call	pdsp_robust	 #
 # ./test/pdsp_test.c:589:     PDSP_ASSERT(pdsp_robust(&rbst, 1.4f) == 2U);
	cmpw	$2, %ax	 #, _51
	je	.L477	 #,
	movl	$589, %r8d	 #,
	leaq	.LC2(%rip), %rax	 #, tmp339
	movq	%rax, %rdx	 # tmp339,
	leaq	.LC3(%rip), %rax	 #, tmp340
	movq	%rax, %rcx	 # tmp340,
	call	printf	 #
.L477:
 # ./test/pdsp_test.c:590:     PDSP_ASSERT(pdsp_robust(&rbst, 1.4f) == 2U);
	leaq	-128(%rbp), %rax	 #, tmp341
	movss	.LC74(%rip), %xmm1	 #,
	movq	%rax, %rcx	 # tmp341,
	call	pdsp_robust	 #
 # ./test/pdsp_test.c:590:     PDSP_ASSERT(pdsp_robust(&rbst, 1.4f) == 2U);
	cmpw	$2, %ax	 #, _52
	je	.L478	 #,
	movl	$590, %r8d	 #,
	leaq	.LC2(%rip), %rax	 #, tmp342
	movq	%rax, %rdx	 # tmp342,
	leaq	.LC3(%rip), %rax	 #, tmp343
	movq	%rax, %rcx	 # tmp343,
	call	printf	 #
.L478:
 # ./test/pdsp_test.c:591:     PDSP_ASSERT(pdsp_robust(&rbst, 1.4f) == 1U);
	leaq	-128(%rbp), %rax	 #, tmp344
	movss	.LC74(%rip), %xmm1	 #,
	movq	%rax, %rcx	 # tmp344,
	call	pdsp_robust	 #
 # ./test/pdsp_test.c:591:     PDSP_ASSERT(pdsp_robust(&rbst, 1.4f) == 1U);
	cmpw	$1, %ax	 #, _53
	je	.L479	 #,
	movl	$591, %r8d	 #,
	leaq	.LC2(%rip), %rax	 #, tmp345
	movq	%rax, %rdx	 # tmp345,
	leaq	.LC3(%rip), %rax	 #, tmp346
	movq	%rax, %rcx	 # tmp346,
	call	printf	 #
.L479:
 # ./test/pdsp_test.c:592:     PDSP_ASSERT(pdsp_robust(&rbst, 2.1f) == 1U);
	leaq	-128(%rbp), %rax	 #, tmp347
	movss	.LC73(%rip), %xmm1	 #,
	movq	%rax, %rcx	 # tmp347,
	call	pdsp_robust	 #
 # ./test/pdsp_test.c:592:     PDSP_ASSERT(pdsp_robust(&rbst, 2.1f) == 1U);
	cmpw	$1, %ax	 #, _54
	je	.L480	 #,
	movl	$592, %r8d	 #,
	leaq	.LC2(%rip), %rax	 #, tmp348
	movq	%rax, %rdx	 # tmp348,
	leaq	.LC3(%rip), %rax	 #, tmp349
	movq	%rax, %rcx	 # tmp349,
	call	printf	 #
.L480:
 # ./test/pdsp_test.c:593:     PDSP_ASSERT(pdsp_robust(&rbst, 2.1f) == 1U);
	leaq	-128(%rbp), %rax	 #, tmp350
	movss	.LC73(%rip), %xmm1	 #,
	movq	%rax, %rcx	 # tmp350,
	call	pdsp_robust	 #
 # ./test/pdsp_test.c:593:     PDSP_ASSERT(pdsp_robust(&rbst, 2.1f) == 1U);
	cmpw	$1, %ax	 #, _55
	je	.L481	 #,
	movl	$593, %r8d	 #,
	leaq	.LC2(%rip), %rax	 #, tmp351
	movq	%rax, %rdx	 # tmp351,
	leaq	.LC3(%rip), %rax	 #, tmp352
	movq	%rax, %rcx	 # tmp352,
	call	printf	 #
.L481:
 # ./test/pdsp_test.c:594:     PDSP_ASSERT(pdsp_robust(&rbst, 1.4f) == 1U);
	leaq	-128(%rbp), %rax	 #, tmp353
	movss	.LC74(%rip), %xmm1	 #,
	movq	%rax, %rcx	 # tmp353,
	call	pdsp_robust	 #
 # ./test/pdsp_test.c:594:     PDSP_ASSERT(pdsp_robust(&rbst, 1.4f) == 1U);
	cmpw	$1, %ax	 #, _56
	je	.L482	 #,
	movl	$594, %r8d	 #,
	leaq	.LC2(%rip), %rax	 #, tmp354
	movq	%rax, %rdx	 # tmp354,
	leaq	.LC3(%rip), %rax	 #, tmp355
	movq	%rax, %rcx	 # tmp355,
	call	printf	 #
.L482:
 # ./test/pdsp_test.c:595:     PDSP_ASSERT(pdsp_robust(&rbst, 1.4f) == 1U);
	leaq	-128(%rbp), %rax	 #, tmp356
	movss	.LC74(%rip), %xmm1	 #,
	movq	%rax, %rcx	 # tmp356,
	call	pdsp_robust	 #
 # ./test/pdsp_test.c:595:     PDSP_ASSERT(pdsp_robust(&rbst, 1.4f) == 1U);
	cmpw	$1, %ax	 #, _57
	je	.L483	 #,
	movl	$595, %r8d	 #,
	leaq	.LC2(%rip), %rax	 #, tmp357
	movq	%rax, %rdx	 # tmp357,
	leaq	.LC3(%rip), %rax	 #, tmp358
	movq	%rax, %rcx	 # tmp358,
	call	printf	 #
.L483:
 # ./test/pdsp_test.c:596:     PDSP_ASSERT(pdsp_robust(&rbst, 1.4f) == 1U);
	leaq	-128(%rbp), %rax	 #, tmp359
	movss	.LC74(%rip), %xmm1	 #,
	movq	%rax, %rcx	 # tmp359,
	call	pdsp_robust	 #
 # ./test/pdsp_test.c:596:     PDSP_ASSERT(pdsp_robust(&rbst, 1.4f) == 1U);
	cmpw	$1, %ax	 #, _58
	je	.L484	 #,
	movl	$596, %r8d	 #,
	leaq	.LC2(%rip), %rax	 #, tmp360
	movq	%rax, %rdx	 # tmp360,
	leaq	.LC3(%rip), %rax	 #, tmp361
	movq	%rax, %rcx	 # tmp361,
	call	printf	 #
.L484:
 # ./test/pdsp_test.c:597:     PDSP_ASSERT(pdsp_robust(&rbst, 2.1f) == 1U);
	leaq	-128(%rbp), %rax	 #, tmp362
	movss	.LC73(%rip), %xmm1	 #,
	movq	%rax, %rcx	 # tmp362,
	call	pdsp_robust	 #
 # ./test/pdsp_test.c:597:     PDSP_ASSERT(pdsp_robust(&rbst, 2.1f) == 1U);
	cmpw	$1, %ax	 #, _59
	je	.L485	 #,
	movl	$597, %r8d	 #,
	leaq	.LC2(%rip), %rax	 #, tmp363
	movq	%rax, %rdx	 # tmp363,
	leaq	.LC3(%rip), %rax	 #, tmp364
	movq	%rax, %rcx	 # tmp364,
	call	printf	 #
.L485:
 # ./test/pdsp_test.c:598:     PDSP_ASSERT(pdsp_robust(&rbst, 1.4f) == 1U);
	leaq	-128(%rbp), %rax	 #, tmp365
	movss	.LC74(%rip), %xmm1	 #,
	movq	%rax, %rcx	 # tmp365,
	call	pdsp_robust	 #
 # ./test/pdsp_test.c:598:     PDSP_ASSERT(pdsp_robust(&rbst, 1.4f) == 1U);
	cmpw	$1, %ax	 #, _60
	je	.L486	 #,
	movl	$598, %r8d	 #,
	leaq	.LC2(%rip), %rax	 #, tmp366
	movq	%rax, %rdx	 # tmp366,
	leaq	.LC3(%rip), %rax	 #, tmp367
	movq	%rax, %rcx	 # tmp367,
	call	printf	 #
.L486:
 # ./test/pdsp_test.c:599:     PDSP_ASSERT(pdsp_robust(&rbst, 0.0f) == 1U);
	leaq	-128(%rbp), %rax	 #, tmp368
	pxor	%xmm1, %xmm1	 #
	movq	%rax, %rcx	 # tmp368,
	call	pdsp_robust	 #
 # ./test/pdsp_test.c:599:     PDSP_ASSERT(pdsp_robust(&rbst, 0.0f) == 1U);
	cmpw	$1, %ax	 #, _61
	je	.L487	 #,
	movl	$599, %r8d	 #,
	leaq	.LC2(%rip), %rax	 #, tmp369
	movq	%rax, %rdx	 # tmp369,
	leaq	.LC3(%rip), %rax	 #, tmp370
	movq	%rax, %rcx	 # tmp370,
	call	printf	 #
.L487:
 # ./test/pdsp_test.c:600:     PDSP_ASSERT(pdsp_robust(&rbst, 0.0f) == 1U);
	leaq	-128(%rbp), %rax	 #, tmp371
	pxor	%xmm1, %xmm1	 #
	movq	%rax, %rcx	 # tmp371,
	call	pdsp_robust	 #
 # ./test/pdsp_test.c:600:     PDSP_ASSERT(pdsp_robust(&rbst, 0.0f) == 1U);
	cmpw	$1, %ax	 #, _62
	je	.L488	 #,
	movl	$600, %r8d	 #,
	leaq	.LC2(%rip), %rax	 #, tmp372
	movq	%rax, %rdx	 # tmp372,
	leaq	.LC3(%rip), %rax	 #, tmp373
	movq	%rax, %rcx	 # tmp373,
	call	printf	 #
.L488:
 # ./test/pdsp_test.c:601:     PDSP_ASSERT(pdsp_robust(&rbst, 0.0f) == 0U);
	leaq	-128(%rbp), %rax	 #, tmp374
	pxor	%xmm1, %xmm1	 #
	movq	%rax, %rcx	 # tmp374,
	call	pdsp_robust	 #
 # ./test/pdsp_test.c:601:     PDSP_ASSERT(pdsp_robust(&rbst, 0.0f) == 0U);
	testw	%ax, %ax	 # _63
	je	.L489	 #,
	movl	$601, %r8d	 #,
	leaq	.LC2(%rip), %rax	 #, tmp375
	movq	%rax, %rdx	 # tmp375,
	leaq	.LC3(%rip), %rax	 #, tmp376
	movq	%rax, %rcx	 # tmp376,
	call	printf	 #
.L489:
 # ./test/pdsp_test.c:602:     PDSP_ASSERT(pdsp_robust(&rbst, 0.0f) == 0U);
	leaq	-128(%rbp), %rax	 #, tmp377
	pxor	%xmm1, %xmm1	 #
	movq	%rax, %rcx	 # tmp377,
	call	pdsp_robust	 #
 # ./test/pdsp_test.c:602:     PDSP_ASSERT(pdsp_robust(&rbst, 0.0f) == 0U);
	testw	%ax, %ax	 # _64
	je	.L490	 #,
	movl	$602, %r8d	 #,
	leaq	.LC2(%rip), %rax	 #, tmp378
	movq	%rax, %rdx	 # tmp378,
	leaq	.LC3(%rip), %rax	 #, tmp379
	movq	%rax, %rcx	 # tmp379,
	call	printf	 #
.L490:
 # ./test/pdsp_test.c:603:     PDSP_ASSERT(pdsp_robust(&rbst, 0.0f) == 0U);
	leaq	-128(%rbp), %rax	 #, tmp380
	pxor	%xmm1, %xmm1	 #
	movq	%rax, %rcx	 # tmp380,
	call	pdsp_robust	 #
 # ./test/pdsp_test.c:603:     PDSP_ASSERT(pdsp_robust(&rbst, 0.0f) == 0U);
	testw	%ax, %ax	 # _65
	je	.L491	 #,
	movl	$603, %r8d	 #,
	leaq	.LC2(%rip), %rax	 #, tmp381
	movq	%rax, %rdx	 # tmp381,
	leaq	.LC3(%rip), %rax	 #, tmp382
	movq	%rax, %rcx	 # tmp382,
	call	printf	 #
.L491:
 # ./test/pdsp_test.c:604:     pdsp_robust_clear(&rbst);
	leaq	-128(%rbp), %rax	 #, tmp383
	movq	%rax, %rcx	 # tmp383,
	call	pdsp_robust_clear	 #
 # ./test/pdsp_test.c:605:     af32_time_up[0] = 0.0;
	pxor	%xmm0, %xmm0	 # tmp384
	movss	%xmm0, -48(%rbp)	 # tmp384, af32_time_up[0]
 # ./test/pdsp_test.c:606:     af32_time_up[1] = 0.0;
	pxor	%xmm0, %xmm0	 # tmp385
	movss	%xmm0, -44(%rbp)	 # tmp385, af32_time_up[1]
 # ./test/pdsp_test.c:607:     af32_time_up[2] = 0.0;
	pxor	%xmm0, %xmm0	 # tmp386
	movss	%xmm0, -40(%rbp)	 # tmp386, af32_time_up[2]
 # ./test/pdsp_test.c:608:     af32_time_up[3] = 0.0;
	pxor	%xmm0, %xmm0	 # tmp387
	movss	%xmm0, -36(%rbp)	 # tmp387, af32_time_up[3]
 # ./test/pdsp_test.c:609:     af32_time_dn[0] = 0.0;
	pxor	%xmm0, %xmm0	 # tmp388
	movss	%xmm0, -64(%rbp)	 # tmp388, af32_time_dn[0]
 # ./test/pdsp_test.c:610:     af32_time_dn[1] = 0.0;
	pxor	%xmm0, %xmm0	 # tmp389
	movss	%xmm0, -60(%rbp)	 # tmp389, af32_time_dn[1]
 # ./test/pdsp_test.c:611:     af32_time_dn[2] = 0.0;
	pxor	%xmm0, %xmm0	 # tmp390
	movss	%xmm0, -56(%rbp)	 # tmp390, af32_time_dn[2]
 # ./test/pdsp_test.c:612:     af32_time_dn[3] = 0.0;
	pxor	%xmm0, %xmm0	 # tmp391
	movss	%xmm0, -52(%rbp)	 # tmp391, af32_time_dn[3]
 # ./test/pdsp_test.c:613:     PDSP_ASSERT(pdsp_robust(&rbst, 10.0f) == 1U);
	leaq	-128(%rbp), %rax	 #, tmp392
	movss	.LC28(%rip), %xmm1	 #,
	movq	%rax, %rcx	 # tmp392,
	call	pdsp_robust	 #
 # ./test/pdsp_test.c:613:     PDSP_ASSERT(pdsp_robust(&rbst, 10.0f) == 1U);
	cmpw	$1, %ax	 #, _66
	je	.L492	 #,
	movl	$613, %r8d	 #,
	leaq	.LC2(%rip), %rax	 #, tmp393
	movq	%rax, %rdx	 # tmp393,
	leaq	.LC3(%rip), %rax	 #, tmp394
	movq	%rax, %rcx	 # tmp394,
	call	printf	 #
.L492:
 # ./test/pdsp_test.c:614:     PDSP_ASSERT(pdsp_robust(&rbst, 10.0f) == 2U);
	leaq	-128(%rbp), %rax	 #, tmp395
	movss	.LC28(%rip), %xmm1	 #,
	movq	%rax, %rcx	 # tmp395,
	call	pdsp_robust	 #
 # ./test/pdsp_test.c:614:     PDSP_ASSERT(pdsp_robust(&rbst, 10.0f) == 2U);
	cmpw	$2, %ax	 #, _67
	je	.L493	 #,
	movl	$614, %r8d	 #,
	leaq	.LC2(%rip), %rax	 #, tmp396
	movq	%rax, %rdx	 # tmp396,
	leaq	.LC3(%rip), %rax	 #, tmp397
	movq	%rax, %rcx	 # tmp397,
	call	printf	 #
.L493:
 # ./test/pdsp_test.c:615:     PDSP_ASSERT(pdsp_robust(&rbst, 10.0f) == 3U);
	leaq	-128(%rbp), %rax	 #, tmp398
	movss	.LC28(%rip), %xmm1	 #,
	movq	%rax, %rcx	 # tmp398,
	call	pdsp_robust	 #
 # ./test/pdsp_test.c:615:     PDSP_ASSERT(pdsp_robust(&rbst, 10.0f) == 3U);
	cmpw	$3, %ax	 #, _68
	je	.L494	 #,
	movl	$615, %r8d	 #,
	leaq	.LC2(%rip), %rax	 #, tmp399
	movq	%rax, %rdx	 # tmp399,
	leaq	.LC3(%rip), %rax	 #, tmp400
	movq	%rax, %rcx	 # tmp400,
	call	printf	 #
.L494:
 # ./test/pdsp_test.c:616:     PDSP_ASSERT(pdsp_robust(&rbst, -10.0f) == 2U);
	leaq	-128(%rbp), %rax	 #, tmp401
	movss	.LC72(%rip), %xmm1	 #,
	movq	%rax, %rcx	 # tmp401,
	call	pdsp_robust	 #
 # ./test/pdsp_test.c:616:     PDSP_ASSERT(pdsp_robust(&rbst, -10.0f) == 2U);
	cmpw	$2, %ax	 #, _69
	je	.L495	 #,
	movl	$616, %r8d	 #,
	leaq	.LC2(%rip), %rax	 #, tmp402
	movq	%rax, %rdx	 # tmp402,
	leaq	.LC3(%rip), %rax	 #, tmp403
	movq	%rax, %rcx	 # tmp403,
	call	printf	 #
.L495:
 # ./test/pdsp_test.c:617:     PDSP_ASSERT(pdsp_robust(&rbst, -10.0f) == 1U);
	leaq	-128(%rbp), %rax	 #, tmp404
	movss	.LC72(%rip), %xmm1	 #,
	movq	%rax, %rcx	 # tmp404,
	call	pdsp_robust	 #
 # ./test/pdsp_test.c:617:     PDSP_ASSERT(pdsp_robust(&rbst, -10.0f) == 1U);
	cmpw	$1, %ax	 #, _70
	je	.L496	 #,
	movl	$617, %r8d	 #,
	leaq	.LC2(%rip), %rax	 #, tmp405
	movq	%rax, %rdx	 # tmp405,
	leaq	.LC3(%rip), %rax	 #, tmp406
	movq	%rax, %rcx	 # tmp406,
	call	printf	 #
.L496:
 # ./test/pdsp_test.c:618:     PDSP_ASSERT(pdsp_robust(&rbst, -10.0f) == 0U);
	leaq	-128(%rbp), %rax	 #, tmp407
	movss	.LC72(%rip), %xmm1	 #,
	movq	%rax, %rcx	 # tmp407,
	call	pdsp_robust	 #
 # ./test/pdsp_test.c:618:     PDSP_ASSERT(pdsp_robust(&rbst, -10.0f) == 0U);
	testw	%ax, %ax	 # _71
	je	.L497	 #,
	movl	$618, %r8d	 #,
	leaq	.LC2(%rip), %rax	 #, tmp408
	movq	%rax, %rdx	 # tmp408,
	leaq	.LC3(%rip), %rax	 #, tmp409
	movq	%rax, %rcx	 # tmp409,
	call	printf	 #
.L497:
 # ./test/pdsp_test.c:619:     af32_time_up[0] = 0.0;
	pxor	%xmm0, %xmm0	 # tmp410
	movss	%xmm0, -48(%rbp)	 # tmp410, af32_time_up[0]
 # ./test/pdsp_test.c:620:     af32_time_up[1] = 1.0;
	movss	.LC23(%rip), %xmm0	 #, tmp411
	movss	%xmm0, -44(%rbp)	 # tmp411, af32_time_up[1]
 # ./test/pdsp_test.c:621:     af32_time_up[2] = 2.0;
	movss	.LC22(%rip), %xmm0	 #, tmp412
	movss	%xmm0, -40(%rbp)	 # tmp412, af32_time_up[2]
 # ./test/pdsp_test.c:622:     af32_time_up[3] = 0.0;
	pxor	%xmm0, %xmm0	 # tmp413
	movss	%xmm0, -36(%rbp)	 # tmp413, af32_time_up[3]
 # ./test/pdsp_test.c:623:     PDSP_ASSERT(pdsp_robust(&rbst, 10.0f) == 1U);
	leaq	-128(%rbp), %rax	 #, tmp414
	movss	.LC28(%rip), %xmm1	 #,
	movq	%rax, %rcx	 # tmp414,
	call	pdsp_robust	 #
 # ./test/pdsp_test.c:623:     PDSP_ASSERT(pdsp_robust(&rbst, 10.0f) == 1U);
	cmpw	$1, %ax	 #, _72
	je	.L498	 #,
	movl	$623, %r8d	 #,
	leaq	.LC2(%rip), %rax	 #, tmp415
	movq	%rax, %rdx	 # tmp415,
	leaq	.LC3(%rip), %rax	 #, tmp416
	movq	%rax, %rcx	 # tmp416,
	call	printf	 #
.L498:
 # ./test/pdsp_test.c:624:     PDSP_ASSERT(pdsp_robust(&rbst, 10.0f) == 1U);
	leaq	-128(%rbp), %rax	 #, tmp417
	movss	.LC28(%rip), %xmm1	 #,
	movq	%rax, %rcx	 # tmp417,
	call	pdsp_robust	 #
 # ./test/pdsp_test.c:624:     PDSP_ASSERT(pdsp_robust(&rbst, 10.0f) == 1U);
	cmpw	$1, %ax	 #, _73
	je	.L499	 #,
	movl	$624, %r8d	 #,
	leaq	.LC2(%rip), %rax	 #, tmp418
	movq	%rax, %rdx	 # tmp418,
	leaq	.LC3(%rip), %rax	 #, tmp419
	movq	%rax, %rcx	 # tmp419,
	call	printf	 #
.L499:
 # ./test/pdsp_test.c:625:     PDSP_ASSERT(pdsp_robust(&rbst, 10.0f) == 2U);
	leaq	-128(%rbp), %rax	 #, tmp420
	movss	.LC28(%rip), %xmm1	 #,
	movq	%rax, %rcx	 # tmp420,
	call	pdsp_robust	 #
 # ./test/pdsp_test.c:625:     PDSP_ASSERT(pdsp_robust(&rbst, 10.0f) == 2U);
	cmpw	$2, %ax	 #, _74
	je	.L500	 #,
	movl	$625, %r8d	 #,
	leaq	.LC2(%rip), %rax	 #, tmp421
	movq	%rax, %rdx	 # tmp421,
	leaq	.LC3(%rip), %rax	 #, tmp422
	movq	%rax, %rcx	 # tmp422,
	call	printf	 #
.L500:
 # ./test/pdsp_test.c:626:     PDSP_ASSERT(pdsp_robust(&rbst, 10.0f) == 2U);
	leaq	-128(%rbp), %rax	 #, tmp423
	movss	.LC28(%rip), %xmm1	 #,
	movq	%rax, %rcx	 # tmp423,
	call	pdsp_robust	 #
 # ./test/pdsp_test.c:626:     PDSP_ASSERT(pdsp_robust(&rbst, 10.0f) == 2U);
	cmpw	$2, %ax	 #, _75
	je	.L501	 #,
	movl	$626, %r8d	 #,
	leaq	.LC2(%rip), %rax	 #, tmp424
	movq	%rax, %rdx	 # tmp424,
	leaq	.LC3(%rip), %rax	 #, tmp425
	movq	%rax, %rcx	 # tmp425,
	call	printf	 #
.L501:
 # ./test/pdsp_test.c:627:     PDSP_ASSERT(pdsp_robust(&rbst, 10.0f) == 2U);
	leaq	-128(%rbp), %rax	 #, tmp426
	movss	.LC28(%rip), %xmm1	 #,
	movq	%rax, %rcx	 # tmp426,
	call	pdsp_robust	 #
 # ./test/pdsp_test.c:627:     PDSP_ASSERT(pdsp_robust(&rbst, 10.0f) == 2U);
	cmpw	$2, %ax	 #, _76
	je	.L502	 #,
	movl	$627, %r8d	 #,
	leaq	.LC2(%rip), %rax	 #, tmp427
	movq	%rax, %rdx	 # tmp427,
	leaq	.LC3(%rip), %rax	 #, tmp428
	movq	%rax, %rcx	 # tmp428,
	call	printf	 #
.L502:
 # ./test/pdsp_test.c:628:     PDSP_ASSERT(pdsp_robust(&rbst, 10.0f) == 3U);
	leaq	-128(%rbp), %rax	 #, tmp429
	movss	.LC28(%rip), %xmm1	 #,
	movq	%rax, %rcx	 # tmp429,
	call	pdsp_robust	 #
 # ./test/pdsp_test.c:628:     PDSP_ASSERT(pdsp_robust(&rbst, 10.0f) == 3U);
	cmpw	$3, %ax	 #, _77
	je	.L503	 #,
	movl	$628, %r8d	 #,
	leaq	.LC2(%rip), %rax	 #, tmp430
	movq	%rax, %rdx	 # tmp430,
	leaq	.LC3(%rip), %rax	 #, tmp431
	movq	%rax, %rcx	 # tmp431,
	call	printf	 #
.L503:
 # ./test/pdsp_test.c:629:     PDSP_ASSERT(pdsp_robust(&rbst, -10.0f) == 2U);
	leaq	-128(%rbp), %rax	 #, tmp432
	movss	.LC72(%rip), %xmm1	 #,
	movq	%rax, %rcx	 # tmp432,
	call	pdsp_robust	 #
 # ./test/pdsp_test.c:629:     PDSP_ASSERT(pdsp_robust(&rbst, -10.0f) == 2U);
	cmpw	$2, %ax	 #, _78
	je	.L504	 #,
	movl	$629, %r8d	 #,
	leaq	.LC2(%rip), %rax	 #, tmp433
	movq	%rax, %rdx	 # tmp433,
	leaq	.LC3(%rip), %rax	 #, tmp434
	movq	%rax, %rcx	 # tmp434,
	call	printf	 #
.L504:
 # ./test/pdsp_test.c:630:     PDSP_ASSERT(pdsp_robust(&rbst, -10.0f) == 1U);
	leaq	-128(%rbp), %rax	 #, tmp435
	movss	.LC72(%rip), %xmm1	 #,
	movq	%rax, %rcx	 # tmp435,
	call	pdsp_robust	 #
 # ./test/pdsp_test.c:630:     PDSP_ASSERT(pdsp_robust(&rbst, -10.0f) == 1U);
	cmpw	$1, %ax	 #, _79
	je	.L505	 #,
	movl	$630, %r8d	 #,
	leaq	.LC2(%rip), %rax	 #, tmp436
	movq	%rax, %rdx	 # tmp436,
	leaq	.LC3(%rip), %rax	 #, tmp437
	movq	%rax, %rcx	 # tmp437,
	call	printf	 #
.L505:
 # ./test/pdsp_test.c:631:     PDSP_ASSERT(pdsp_robust(&rbst, -10.0f) == 0U);
	leaq	-128(%rbp), %rax	 #, tmp438
	movss	.LC72(%rip), %xmm1	 #,
	movq	%rax, %rcx	 # tmp438,
	call	pdsp_robust	 #
 # ./test/pdsp_test.c:631:     PDSP_ASSERT(pdsp_robust(&rbst, -10.0f) == 0U);
	testw	%ax, %ax	 # _80
	je	.L507	 #,
	movl	$631, %r8d	 #,
	leaq	.LC2(%rip), %rax	 #, tmp439
	movq	%rax, %rdx	 # tmp439,
	leaq	.LC3(%rip), %rax	 #, tmp440
	movq	%rax, %rcx	 # tmp440,
	call	printf	 #
.L507:
 # ./test/pdsp_test.c:632: }
	nop	
	addq	$160, %rsp	 #,
	popq	%rbp	 #
	ret	
	.seh_endproc
	.section .rdata,"dr"
	.align 8
.LC75:
	.ascii "-- void test_backlash(void) --\12\0"
	.text
	.globl	test_backlash
	.def	test_backlash;	.scl	2;	.type	32;	.endef
	.seh_proc	test_backlash
test_backlash:
	pushq	%rbp	 #
	.seh_pushreg	%rbp
	movq	%rsp, %rbp	 #,
	.seh_setframe	%rbp, 0
	subq	$48, %rsp	 #,
	.seh_stackalloc	48
	.seh_endprologue
 # ./test/pdsp_test.c:636:     printf("-- void test_backlash(void) --\n");
	leaq	.LC75(%rip), %rax	 #, tmp104
	movq	%rax, %rcx	 # tmp104,
	call	printf	 #
 # ./test/pdsp_test.c:637:     pdsp_backlash_t bklsh = {.f32_backlash_half = 2.0f, .f32_state = 0.0f};
	movss	.LC22(%rip), %xmm0	 #, tmp105
	movss	%xmm0, -8(%rbp)	 # tmp105, bklsh.f32_backlash_half
	pxor	%xmm0, %xmm0	 # tmp106
	movss	%xmm0, -4(%rbp)	 # tmp106, bklsh.f32_state
 # ./test/pdsp_test.c:638:     PDSP_ASSERT(pdsp_backlash(&bklsh, 0.0f) == 0.0f);
	leaq	-8(%rbp), %rax	 #, tmp107
	pxor	%xmm1, %xmm1	 #
	movq	%rax, %rcx	 # tmp107,
	call	pdsp_backlash	 #
	movd	%xmm0, %eax	 #, _1
 # ./test/pdsp_test.c:638:     PDSP_ASSERT(pdsp_backlash(&bklsh, 0.0f) == 0.0f);
	pxor	%xmm0, %xmm0	 # tmp108
	movd	%eax, %xmm2	 # _1, _1
	ucomiss	%xmm0, %xmm2	 # tmp108, _1
	jp	.L553	 #,
	pxor	%xmm0, %xmm0	 # tmp109
	movd	%eax, %xmm3	 # _1, _1
	ucomiss	%xmm0, %xmm3	 # tmp109, _1
	je	.L509	 #,
.L553:
	movl	$638, %r8d	 #,
	leaq	.LC2(%rip), %rax	 #, tmp110
	movq	%rax, %rdx	 # tmp110,
	leaq	.LC3(%rip), %rax	 #, tmp111
	movq	%rax, %rcx	 # tmp111,
	call	printf	 #
.L509:
 # ./test/pdsp_test.c:639:     PDSP_ASSERT(pdsp_backlash(&bklsh, 1.0f) == 0.0f);
	leaq	-8(%rbp), %rax	 #, tmp112
	movss	.LC23(%rip), %xmm1	 #,
	movq	%rax, %rcx	 # tmp112,
	call	pdsp_backlash	 #
	movd	%xmm0, %eax	 #, _2
 # ./test/pdsp_test.c:639:     PDSP_ASSERT(pdsp_backlash(&bklsh, 1.0f) == 0.0f);
	pxor	%xmm0, %xmm0	 # tmp113
	movd	%eax, %xmm4	 # _2, _2
	ucomiss	%xmm0, %xmm4	 # tmp113, _2
	jp	.L554	 #,
	pxor	%xmm0, %xmm0	 # tmp114
	movd	%eax, %xmm5	 # _2, _2
	ucomiss	%xmm0, %xmm5	 # tmp114, _2
	je	.L511	 #,
.L554:
	movl	$639, %r8d	 #,
	leaq	.LC2(%rip), %rax	 #, tmp115
	movq	%rax, %rdx	 # tmp115,
	leaq	.LC3(%rip), %rax	 #, tmp116
	movq	%rax, %rcx	 # tmp116,
	call	printf	 #
.L511:
 # ./test/pdsp_test.c:640:     PDSP_ASSERT(pdsp_backlash(&bklsh, 2.0f) == 0.0f);
	leaq	-8(%rbp), %rax	 #, tmp117
	movss	.LC22(%rip), %xmm1	 #,
	movq	%rax, %rcx	 # tmp117,
	call	pdsp_backlash	 #
	movd	%xmm0, %eax	 #, _3
 # ./test/pdsp_test.c:640:     PDSP_ASSERT(pdsp_backlash(&bklsh, 2.0f) == 0.0f);
	pxor	%xmm0, %xmm0	 # tmp118
	movd	%eax, %xmm2	 # _3, _3
	ucomiss	%xmm0, %xmm2	 # tmp118, _3
	jp	.L555	 #,
	pxor	%xmm0, %xmm0	 # tmp119
	movd	%eax, %xmm3	 # _3, _3
	ucomiss	%xmm0, %xmm3	 # tmp119, _3
	je	.L513	 #,
.L555:
	movl	$640, %r8d	 #,
	leaq	.LC2(%rip), %rax	 #, tmp120
	movq	%rax, %rdx	 # tmp120,
	leaq	.LC3(%rip), %rax	 #, tmp121
	movq	%rax, %rcx	 # tmp121,
	call	printf	 #
.L513:
 # ./test/pdsp_test.c:641:     PDSP_ASSERT(pdsp_backlash(&bklsh, 3.0f) == 1.0f);
	leaq	-8(%rbp), %rax	 #, tmp122
	movss	.LC30(%rip), %xmm1	 #,
	movq	%rax, %rcx	 # tmp122,
	call	pdsp_backlash	 #
	movd	%xmm0, %eax	 #, _4
 # ./test/pdsp_test.c:641:     PDSP_ASSERT(pdsp_backlash(&bklsh, 3.0f) == 1.0f);
	movss	.LC23(%rip), %xmm0	 #, tmp123
	movd	%eax, %xmm4	 # _4, _4
	ucomiss	%xmm0, %xmm4	 # tmp123, _4
	jp	.L556	 #,
	movss	.LC23(%rip), %xmm0	 #, tmp124
	movd	%eax, %xmm5	 # _4, _4
	ucomiss	%xmm0, %xmm5	 # tmp124, _4
	je	.L515	 #,
.L556:
	movl	$641, %r8d	 #,
	leaq	.LC2(%rip), %rax	 #, tmp125
	movq	%rax, %rdx	 # tmp125,
	leaq	.LC3(%rip), %rax	 #, tmp126
	movq	%rax, %rcx	 # tmp126,
	call	printf	 #
.L515:
 # ./test/pdsp_test.c:642:     PDSP_ASSERT(pdsp_backlash(&bklsh, 2.0f) == 1.0f);
	leaq	-8(%rbp), %rax	 #, tmp127
	movss	.LC22(%rip), %xmm1	 #,
	movq	%rax, %rcx	 # tmp127,
	call	pdsp_backlash	 #
	movd	%xmm0, %eax	 #, _5
 # ./test/pdsp_test.c:642:     PDSP_ASSERT(pdsp_backlash(&bklsh, 2.0f) == 1.0f);
	movss	.LC23(%rip), %xmm0	 #, tmp128
	movd	%eax, %xmm2	 # _5, _5
	ucomiss	%xmm0, %xmm2	 # tmp128, _5
	jp	.L557	 #,
	movss	.LC23(%rip), %xmm0	 #, tmp129
	movd	%eax, %xmm3	 # _5, _5
	ucomiss	%xmm0, %xmm3	 # tmp129, _5
	je	.L517	 #,
.L557:
	movl	$642, %r8d	 #,
	leaq	.LC2(%rip), %rax	 #, tmp130
	movq	%rax, %rdx	 # tmp130,
	leaq	.LC3(%rip), %rax	 #, tmp131
	movq	%rax, %rcx	 # tmp131,
	call	printf	 #
.L517:
 # ./test/pdsp_test.c:643:     PDSP_ASSERT(pdsp_backlash(&bklsh, 1.0f) == 1.0f);
	leaq	-8(%rbp), %rax	 #, tmp132
	movss	.LC23(%rip), %xmm1	 #,
	movq	%rax, %rcx	 # tmp132,
	call	pdsp_backlash	 #
	movd	%xmm0, %eax	 #, _6
 # ./test/pdsp_test.c:643:     PDSP_ASSERT(pdsp_backlash(&bklsh, 1.0f) == 1.0f);
	movss	.LC23(%rip), %xmm0	 #, tmp133
	movd	%eax, %xmm4	 # _6, _6
	ucomiss	%xmm0, %xmm4	 # tmp133, _6
	jp	.L558	 #,
	movss	.LC23(%rip), %xmm0	 #, tmp134
	movd	%eax, %xmm5	 # _6, _6
	ucomiss	%xmm0, %xmm5	 # tmp134, _6
	je	.L519	 #,
.L558:
	movl	$643, %r8d	 #,
	leaq	.LC2(%rip), %rax	 #, tmp135
	movq	%rax, %rdx	 # tmp135,
	leaq	.LC3(%rip), %rax	 #, tmp136
	movq	%rax, %rcx	 # tmp136,
	call	printf	 #
.L519:
 # ./test/pdsp_test.c:644:     PDSP_ASSERT(pdsp_backlash(&bklsh, 0.0f) == 1.0f);
	leaq	-8(%rbp), %rax	 #, tmp137
	pxor	%xmm1, %xmm1	 #
	movq	%rax, %rcx	 # tmp137,
	call	pdsp_backlash	 #
	movd	%xmm0, %eax	 #, _7
 # ./test/pdsp_test.c:644:     PDSP_ASSERT(pdsp_backlash(&bklsh, 0.0f) == 1.0f);
	movss	.LC23(%rip), %xmm0	 #, tmp138
	movd	%eax, %xmm2	 # _7, _7
	ucomiss	%xmm0, %xmm2	 # tmp138, _7
	jp	.L559	 #,
	movss	.LC23(%rip), %xmm0	 #, tmp139
	movd	%eax, %xmm3	 # _7, _7
	ucomiss	%xmm0, %xmm3	 # tmp139, _7
	je	.L521	 #,
.L559:
	movl	$644, %r8d	 #,
	leaq	.LC2(%rip), %rax	 #, tmp140
	movq	%rax, %rdx	 # tmp140,
	leaq	.LC3(%rip), %rax	 #, tmp141
	movq	%rax, %rcx	 # tmp141,
	call	printf	 #
.L521:
 # ./test/pdsp_test.c:645:     PDSP_ASSERT(pdsp_backlash(&bklsh, -1.0f) == 1.0f);
	leaq	-8(%rbp), %rax	 #, tmp142
	movss	.LC26(%rip), %xmm1	 #,
	movq	%rax, %rcx	 # tmp142,
	call	pdsp_backlash	 #
	movd	%xmm0, %eax	 #, _8
 # ./test/pdsp_test.c:645:     PDSP_ASSERT(pdsp_backlash(&bklsh, -1.0f) == 1.0f);
	movss	.LC23(%rip), %xmm0	 #, tmp143
	movd	%eax, %xmm4	 # _8, _8
	ucomiss	%xmm0, %xmm4	 # tmp143, _8
	jp	.L560	 #,
	movss	.LC23(%rip), %xmm0	 #, tmp144
	movd	%eax, %xmm5	 # _8, _8
	ucomiss	%xmm0, %xmm5	 # tmp144, _8
	je	.L523	 #,
.L560:
	movl	$645, %r8d	 #,
	leaq	.LC2(%rip), %rax	 #, tmp145
	movq	%rax, %rdx	 # tmp145,
	leaq	.LC3(%rip), %rax	 #, tmp146
	movq	%rax, %rcx	 # tmp146,
	call	printf	 #
.L523:
 # ./test/pdsp_test.c:646:     PDSP_ASSERT(pdsp_backlash(&bklsh, -2.0f) == 0.0f);
	leaq	-8(%rbp), %rax	 #, tmp147
	movss	.LC33(%rip), %xmm1	 #,
	movq	%rax, %rcx	 # tmp147,
	call	pdsp_backlash	 #
	movd	%xmm0, %eax	 #, _9
 # ./test/pdsp_test.c:646:     PDSP_ASSERT(pdsp_backlash(&bklsh, -2.0f) == 0.0f);
	pxor	%xmm0, %xmm0	 # tmp148
	movd	%eax, %xmm2	 # _9, _9
	ucomiss	%xmm0, %xmm2	 # tmp148, _9
	jp	.L561	 #,
	pxor	%xmm0, %xmm0	 # tmp149
	movd	%eax, %xmm3	 # _9, _9
	ucomiss	%xmm0, %xmm3	 # tmp149, _9
	je	.L525	 #,
.L561:
	movl	$646, %r8d	 #,
	leaq	.LC2(%rip), %rax	 #, tmp150
	movq	%rax, %rdx	 # tmp150,
	leaq	.LC3(%rip), %rax	 #, tmp151
	movq	%rax, %rcx	 # tmp151,
	call	printf	 #
.L525:
 # ./test/pdsp_test.c:647:     PDSP_ASSERT(pdsp_backlash(&bklsh, -3.0f) == -1.0f);
	leaq	-8(%rbp), %rax	 #, tmp152
	movss	.LC34(%rip), %xmm1	 #,
	movq	%rax, %rcx	 # tmp152,
	call	pdsp_backlash	 #
	movd	%xmm0, %eax	 #, _10
 # ./test/pdsp_test.c:647:     PDSP_ASSERT(pdsp_backlash(&bklsh, -3.0f) == -1.0f);
	movss	.LC26(%rip), %xmm0	 #, tmp153
	movd	%eax, %xmm4	 # _10, _10
	ucomiss	%xmm0, %xmm4	 # tmp153, _10
	jp	.L562	 #,
	movss	.LC26(%rip), %xmm0	 #, tmp154
	movd	%eax, %xmm5	 # _10, _10
	ucomiss	%xmm0, %xmm5	 # tmp154, _10
	je	.L527	 #,
.L562:
	movl	$647, %r8d	 #,
	leaq	.LC2(%rip), %rax	 #, tmp155
	movq	%rax, %rdx	 # tmp155,
	leaq	.LC3(%rip), %rax	 #, tmp156
	movq	%rax, %rcx	 # tmp156,
	call	printf	 #
.L527:
 # ./test/pdsp_test.c:648:     PDSP_ASSERT(pdsp_backlash(&bklsh, -100.0f) == -98.0f);
	leaq	-8(%rbp), %rax	 #, tmp157
	movss	.LC76(%rip), %xmm1	 #,
	movq	%rax, %rcx	 # tmp157,
	call	pdsp_backlash	 #
	movd	%xmm0, %eax	 #, _11
 # ./test/pdsp_test.c:648:     PDSP_ASSERT(pdsp_backlash(&bklsh, -100.0f) == -98.0f);
	movd	%eax, %xmm2	 # _11, _11
	ucomiss	.LC77(%rip), %xmm2	 #, _11
	jp	.L563	 #,
	movd	%eax, %xmm3	 # _11, _11
	ucomiss	.LC77(%rip), %xmm3	 #, _11
	je	.L529	 #,
.L563:
	movl	$648, %r8d	 #,
	leaq	.LC2(%rip), %rax	 #, tmp158
	movq	%rax, %rdx	 # tmp158,
	leaq	.LC3(%rip), %rax	 #, tmp159
	movq	%rax, %rcx	 # tmp159,
	call	printf	 #
.L529:
 # ./test/pdsp_test.c:649:     PDSP_ASSERT(pdsp_backlash(&bklsh, -99.0f) == -98.0f);
	leaq	-8(%rbp), %rax	 #, tmp160
	movss	.LC78(%rip), %xmm1	 #,
	movq	%rax, %rcx	 # tmp160,
	call	pdsp_backlash	 #
	movd	%xmm0, %eax	 #, _12
 # ./test/pdsp_test.c:649:     PDSP_ASSERT(pdsp_backlash(&bklsh, -99.0f) == -98.0f);
	movd	%eax, %xmm4	 # _12, _12
	ucomiss	.LC77(%rip), %xmm4	 #, _12
	jp	.L564	 #,
	movd	%eax, %xmm5	 # _12, _12
	ucomiss	.LC77(%rip), %xmm5	 #, _12
	je	.L531	 #,
.L564:
	movl	$649, %r8d	 #,
	leaq	.LC2(%rip), %rax	 #, tmp161
	movq	%rax, %rdx	 # tmp161,
	leaq	.LC3(%rip), %rax	 #, tmp162
	movq	%rax, %rcx	 # tmp162,
	call	printf	 #
.L531:
 # ./test/pdsp_test.c:650:     PDSP_ASSERT(pdsp_backlash(&bklsh, -98.0f) == -98.0f);
	leaq	-8(%rbp), %rax	 #, tmp163
	movss	.LC77(%rip), %xmm1	 #,
	movq	%rax, %rcx	 # tmp163,
	call	pdsp_backlash	 #
	movd	%xmm0, %eax	 #, _13
 # ./test/pdsp_test.c:650:     PDSP_ASSERT(pdsp_backlash(&bklsh, -98.0f) == -98.0f);
	movd	%eax, %xmm2	 # _13, _13
	ucomiss	.LC77(%rip), %xmm2	 #, _13
	jp	.L565	 #,
	movd	%eax, %xmm3	 # _13, _13
	ucomiss	.LC77(%rip), %xmm3	 #, _13
	je	.L533	 #,
.L565:
	movl	$650, %r8d	 #,
	leaq	.LC2(%rip), %rax	 #, tmp164
	movq	%rax, %rdx	 # tmp164,
	leaq	.LC3(%rip), %rax	 #, tmp165
	movq	%rax, %rcx	 # tmp165,
	call	printf	 #
.L533:
 # ./test/pdsp_test.c:651:     PDSP_ASSERT(pdsp_backlash(&bklsh, -97.0f) == -98.0f);
	leaq	-8(%rbp), %rax	 #, tmp166
	movss	.LC79(%rip), %xmm1	 #,
	movq	%rax, %rcx	 # tmp166,
	call	pdsp_backlash	 #
	movd	%xmm0, %eax	 #, _14
 # ./test/pdsp_test.c:651:     PDSP_ASSERT(pdsp_backlash(&bklsh, -97.0f) == -98.0f);
	movd	%eax, %xmm4	 # _14, _14
	ucomiss	.LC77(%rip), %xmm4	 #, _14
	jp	.L566	 #,
	movd	%eax, %xmm5	 # _14, _14
	ucomiss	.LC77(%rip), %xmm5	 #, _14
	je	.L535	 #,
.L566:
	movl	$651, %r8d	 #,
	leaq	.LC2(%rip), %rax	 #, tmp167
	movq	%rax, %rdx	 # tmp167,
	leaq	.LC3(%rip), %rax	 #, tmp168
	movq	%rax, %rcx	 # tmp168,
	call	printf	 #
.L535:
 # ./test/pdsp_test.c:652:     PDSP_ASSERT(pdsp_backlash(&bklsh, -96.0f) == -98.0f);
	leaq	-8(%rbp), %rax	 #, tmp169
	movss	.LC80(%rip), %xmm1	 #,
	movq	%rax, %rcx	 # tmp169,
	call	pdsp_backlash	 #
	movd	%xmm0, %eax	 #, _15
 # ./test/pdsp_test.c:652:     PDSP_ASSERT(pdsp_backlash(&bklsh, -96.0f) == -98.0f);
	movd	%eax, %xmm2	 # _15, _15
	ucomiss	.LC77(%rip), %xmm2	 #, _15
	jp	.L567	 #,
	movd	%eax, %xmm3	 # _15, _15
	ucomiss	.LC77(%rip), %xmm3	 #, _15
	je	.L537	 #,
.L567:
	movl	$652, %r8d	 #,
	leaq	.LC2(%rip), %rax	 #, tmp170
	movq	%rax, %rdx	 # tmp170,
	leaq	.LC3(%rip), %rax	 #, tmp171
	movq	%rax, %rcx	 # tmp171,
	call	printf	 #
.L537:
 # ./test/pdsp_test.c:653:     PDSP_ASSERT(pdsp_backlash(&bklsh, -95.0f) == -97.0f);
	leaq	-8(%rbp), %rax	 #, tmp172
	movss	.LC81(%rip), %xmm1	 #,
	movq	%rax, %rcx	 # tmp172,
	call	pdsp_backlash	 #
	movd	%xmm0, %eax	 #, _16
 # ./test/pdsp_test.c:653:     PDSP_ASSERT(pdsp_backlash(&bklsh, -95.0f) == -97.0f);
	movd	%eax, %xmm4	 # _16, _16
	ucomiss	.LC79(%rip), %xmm4	 #, _16
	jp	.L568	 #,
	movd	%eax, %xmm5	 # _16, _16
	ucomiss	.LC79(%rip), %xmm5	 #, _16
	je	.L539	 #,
.L568:
	movl	$653, %r8d	 #,
	leaq	.LC2(%rip), %rax	 #, tmp173
	movq	%rax, %rdx	 # tmp173,
	leaq	.LC3(%rip), %rax	 #, tmp174
	movq	%rax, %rcx	 # tmp174,
	call	printf	 #
.L539:
 # ./test/pdsp_test.c:654:     PDSP_ASSERT(pdsp_backlash(&bklsh, 100.0f) == 98.0f);
	leaq	-8(%rbp), %rax	 #, tmp175
	movss	.LC57(%rip), %xmm1	 #,
	movq	%rax, %rcx	 # tmp175,
	call	pdsp_backlash	 #
	movd	%xmm0, %eax	 #, _17
 # ./test/pdsp_test.c:654:     PDSP_ASSERT(pdsp_backlash(&bklsh, 100.0f) == 98.0f);
	movd	%eax, %xmm2	 # _17, _17
	ucomiss	.LC82(%rip), %xmm2	 #, _17
	jp	.L569	 #,
	movd	%eax, %xmm3	 # _17, _17
	ucomiss	.LC82(%rip), %xmm3	 #, _17
	je	.L541	 #,
.L569:
	movl	$654, %r8d	 #,
	leaq	.LC2(%rip), %rax	 #, tmp176
	movq	%rax, %rdx	 # tmp176,
	leaq	.LC3(%rip), %rax	 #, tmp177
	movq	%rax, %rcx	 # tmp177,
	call	printf	 #
.L541:
 # ./test/pdsp_test.c:655:     PDSP_ASSERT(pdsp_backlash(&bklsh, 99.0f) == 98.0f);
	leaq	-8(%rbp), %rax	 #, tmp178
	movss	.LC83(%rip), %xmm1	 #,
	movq	%rax, %rcx	 # tmp178,
	call	pdsp_backlash	 #
	movd	%xmm0, %eax	 #, _18
 # ./test/pdsp_test.c:655:     PDSP_ASSERT(pdsp_backlash(&bklsh, 99.0f) == 98.0f);
	movd	%eax, %xmm4	 # _18, _18
	ucomiss	.LC82(%rip), %xmm4	 #, _18
	jp	.L570	 #,
	movd	%eax, %xmm5	 # _18, _18
	ucomiss	.LC82(%rip), %xmm5	 #, _18
	je	.L543	 #,
.L570:
	movl	$655, %r8d	 #,
	leaq	.LC2(%rip), %rax	 #, tmp179
	movq	%rax, %rdx	 # tmp179,
	leaq	.LC3(%rip), %rax	 #, tmp180
	movq	%rax, %rcx	 # tmp180,
	call	printf	 #
.L543:
 # ./test/pdsp_test.c:656:     PDSP_ASSERT(pdsp_backlash(&bklsh, 98.0f) == 98.0f);
	leaq	-8(%rbp), %rax	 #, tmp181
	movss	.LC82(%rip), %xmm1	 #,
	movq	%rax, %rcx	 # tmp181,
	call	pdsp_backlash	 #
	movd	%xmm0, %eax	 #, _19
 # ./test/pdsp_test.c:656:     PDSP_ASSERT(pdsp_backlash(&bklsh, 98.0f) == 98.0f);
	movd	%eax, %xmm2	 # _19, _19
	ucomiss	.LC82(%rip), %xmm2	 #, _19
	jp	.L571	 #,
	movd	%eax, %xmm3	 # _19, _19
	ucomiss	.LC82(%rip), %xmm3	 #, _19
	je	.L545	 #,
.L571:
	movl	$656, %r8d	 #,
	leaq	.LC2(%rip), %rax	 #, tmp182
	movq	%rax, %rdx	 # tmp182,
	leaq	.LC3(%rip), %rax	 #, tmp183
	movq	%rax, %rcx	 # tmp183,
	call	printf	 #
.L545:
 # ./test/pdsp_test.c:657:     PDSP_ASSERT(pdsp_backlash(&bklsh, 97.0f) == 98.0f);
	leaq	-8(%rbp), %rax	 #, tmp184
	movss	.LC84(%rip), %xmm1	 #,
	movq	%rax, %rcx	 # tmp184,
	call	pdsp_backlash	 #
	movd	%xmm0, %eax	 #, _20
 # ./test/pdsp_test.c:657:     PDSP_ASSERT(pdsp_backlash(&bklsh, 97.0f) == 98.0f);
	movd	%eax, %xmm4	 # _20, _20
	ucomiss	.LC82(%rip), %xmm4	 #, _20
	jp	.L572	 #,
	movd	%eax, %xmm5	 # _20, _20
	ucomiss	.LC82(%rip), %xmm5	 #, _20
	je	.L547	 #,
.L572:
	movl	$657, %r8d	 #,
	leaq	.LC2(%rip), %rax	 #, tmp185
	movq	%rax, %rdx	 # tmp185,
	leaq	.LC3(%rip), %rax	 #, tmp186
	movq	%rax, %rcx	 # tmp186,
	call	printf	 #
.L547:
 # ./test/pdsp_test.c:658:     PDSP_ASSERT(pdsp_backlash(&bklsh, 96.0f) == 98.0f);
	leaq	-8(%rbp), %rax	 #, tmp187
	movss	.LC85(%rip), %xmm1	 #,
	movq	%rax, %rcx	 # tmp187,
	call	pdsp_backlash	 #
	movd	%xmm0, %eax	 #, _21
 # ./test/pdsp_test.c:658:     PDSP_ASSERT(pdsp_backlash(&bklsh, 96.0f) == 98.0f);
	movd	%eax, %xmm2	 # _21, _21
	ucomiss	.LC82(%rip), %xmm2	 #, _21
	jp	.L573	 #,
	movd	%eax, %xmm3	 # _21, _21
	ucomiss	.LC82(%rip), %xmm3	 #, _21
	je	.L549	 #,
.L573:
	movl	$658, %r8d	 #,
	leaq	.LC2(%rip), %rax	 #, tmp188
	movq	%rax, %rdx	 # tmp188,
	leaq	.LC3(%rip), %rax	 #, tmp189
	movq	%rax, %rcx	 # tmp189,
	call	printf	 #
.L549:
 # ./test/pdsp_test.c:659:     PDSP_ASSERT(pdsp_backlash(&bklsh, 95.0f) == 97.0f);
	leaq	-8(%rbp), %rax	 #, tmp190
	movss	.LC86(%rip), %xmm1	 #,
	movq	%rax, %rcx	 # tmp190,
	call	pdsp_backlash	 #
	movd	%xmm0, %eax	 #, _22
 # ./test/pdsp_test.c:659:     PDSP_ASSERT(pdsp_backlash(&bklsh, 95.0f) == 97.0f);
	movd	%eax, %xmm4	 # _22, _22
	ucomiss	.LC84(%rip), %xmm4	 #, _22
	jp	.L574	 #,
	movd	%eax, %xmm5	 # _22, _22
	ucomiss	.LC84(%rip), %xmm5	 #, _22
	je	.L575	 #,
.L574:
	movl	$659, %r8d	 #,
	leaq	.LC2(%rip), %rax	 #, tmp191
	movq	%rax, %rdx	 # tmp191,
	leaq	.LC3(%rip), %rax	 #, tmp192
	movq	%rax, %rcx	 # tmp192,
	call	printf	 #
.L575:
 # ./test/pdsp_test.c:660: }
	nop	
	addq	$48, %rsp	 #,
	popq	%rbp	 #
	ret	
	.seh_endproc
	.section .rdata,"dr"
	.align 8
.LC87:
	.ascii "-- void test_edge_delay(void) --\12\0"
	.text
	.globl	test_edge_delay
	.def	test_edge_delay;	.scl	2;	.type	32;	.endef
	.seh_proc	test_edge_delay
test_edge_delay:
	pushq	%rbp	 #
	.seh_pushreg	%rbp
	movq	%rsp, %rbp	 #,
	.seh_setframe	%rbp, 0
	subq	$48, %rsp	 #,
	.seh_stackalloc	48
	.seh_endprologue
 # ./test/pdsp_test.c:664:     printf("-- void test_edge_delay(void) --\n");
	leaq	.LC87(%rip), %rax	 #, tmp126
	movq	%rax, %rcx	 # tmp126,
	call	printf	 #
 # ./test/pdsp_test.c:666:     pdsp_edge_delay_init(&redfed, 0, 2, 4);
	leaq	-8(%rbp), %rax	 #, tmp127
	movl	$4, %r9d	 #,
	movl	$2, %r8d	 #,
	movl	$0, %edx	 #,
	movq	%rax, %rcx	 # tmp127,
	call	pdsp_edge_delay_init	 #
 # ./test/pdsp_test.c:667:     PDSP_ASSERT(pdsp_edge_delay(&redfed, 0U) == 0U);
	leaq	-8(%rbp), %rax	 #, tmp128
	movl	$0, %edx	 #,
	movq	%rax, %rcx	 # tmp128,
	call	pdsp_edge_delay	 #
 # ./test/pdsp_test.c:667:     PDSP_ASSERT(pdsp_edge_delay(&redfed, 0U) == 0U);
	testw	%ax, %ax	 # _1
	je	.L577	 #,
	movl	$667, %r8d	 #,
	leaq	.LC2(%rip), %rax	 #, tmp129
	movq	%rax, %rdx	 # tmp129,
	leaq	.LC3(%rip), %rax	 #, tmp130
	movq	%rax, %rcx	 # tmp130,
	call	printf	 #
.L577:
 # ./test/pdsp_test.c:668:     PDSP_ASSERT(pdsp_edge_delay(&redfed, 1U) == 0U);
	leaq	-8(%rbp), %rax	 #, tmp131
	movl	$1, %edx	 #,
	movq	%rax, %rcx	 # tmp131,
	call	pdsp_edge_delay	 #
 # ./test/pdsp_test.c:668:     PDSP_ASSERT(pdsp_edge_delay(&redfed, 1U) == 0U);
	testw	%ax, %ax	 # _2
	je	.L578	 #,
	movl	$668, %r8d	 #,
	leaq	.LC2(%rip), %rax	 #, tmp132
	movq	%rax, %rdx	 # tmp132,
	leaq	.LC3(%rip), %rax	 #, tmp133
	movq	%rax, %rcx	 # tmp133,
	call	printf	 #
.L578:
 # ./test/pdsp_test.c:669:     PDSP_ASSERT(pdsp_edge_delay(&redfed, 1U) == 0U);
	leaq	-8(%rbp), %rax	 #, tmp134
	movl	$1, %edx	 #,
	movq	%rax, %rcx	 # tmp134,
	call	pdsp_edge_delay	 #
 # ./test/pdsp_test.c:669:     PDSP_ASSERT(pdsp_edge_delay(&redfed, 1U) == 0U);
	testw	%ax, %ax	 # _3
	je	.L579	 #,
	movl	$669, %r8d	 #,
	leaq	.LC2(%rip), %rax	 #, tmp135
	movq	%rax, %rdx	 # tmp135,
	leaq	.LC3(%rip), %rax	 #, tmp136
	movq	%rax, %rcx	 # tmp136,
	call	printf	 #
.L579:
 # ./test/pdsp_test.c:670:     PDSP_ASSERT(pdsp_edge_delay(&redfed, 1U) == 1U);
	leaq	-8(%rbp), %rax	 #, tmp137
	movl	$1, %edx	 #,
	movq	%rax, %rcx	 # tmp137,
	call	pdsp_edge_delay	 #
 # ./test/pdsp_test.c:670:     PDSP_ASSERT(pdsp_edge_delay(&redfed, 1U) == 1U);
	cmpw	$1, %ax	 #, _4
	je	.L580	 #,
	movl	$670, %r8d	 #,
	leaq	.LC2(%rip), %rax	 #, tmp138
	movq	%rax, %rdx	 # tmp138,
	leaq	.LC3(%rip), %rax	 #, tmp139
	movq	%rax, %rcx	 # tmp139,
	call	printf	 #
.L580:
 # ./test/pdsp_test.c:671:     PDSP_ASSERT(pdsp_edge_delay(&redfed, 1U) == 1U);
	leaq	-8(%rbp), %rax	 #, tmp140
	movl	$1, %edx	 #,
	movq	%rax, %rcx	 # tmp140,
	call	pdsp_edge_delay	 #
 # ./test/pdsp_test.c:671:     PDSP_ASSERT(pdsp_edge_delay(&redfed, 1U) == 1U);
	cmpw	$1, %ax	 #, _5
	je	.L581	 #,
	movl	$671, %r8d	 #,
	leaq	.LC2(%rip), %rax	 #, tmp141
	movq	%rax, %rdx	 # tmp141,
	leaq	.LC3(%rip), %rax	 #, tmp142
	movq	%rax, %rcx	 # tmp142,
	call	printf	 #
.L581:
 # ./test/pdsp_test.c:672:     PDSP_ASSERT(pdsp_edge_delay(&redfed, 0U) == 1U);
	leaq	-8(%rbp), %rax	 #, tmp143
	movl	$0, %edx	 #,
	movq	%rax, %rcx	 # tmp143,
	call	pdsp_edge_delay	 #
 # ./test/pdsp_test.c:672:     PDSP_ASSERT(pdsp_edge_delay(&redfed, 0U) == 1U);
	cmpw	$1, %ax	 #, _6
	je	.L582	 #,
	movl	$672, %r8d	 #,
	leaq	.LC2(%rip), %rax	 #, tmp144
	movq	%rax, %rdx	 # tmp144,
	leaq	.LC3(%rip), %rax	 #, tmp145
	movq	%rax, %rcx	 # tmp145,
	call	printf	 #
.L582:
 # ./test/pdsp_test.c:673:     PDSP_ASSERT(pdsp_edge_delay(&redfed, 0U) == 1U);
	leaq	-8(%rbp), %rax	 #, tmp146
	movl	$0, %edx	 #,
	movq	%rax, %rcx	 # tmp146,
	call	pdsp_edge_delay	 #
 # ./test/pdsp_test.c:673:     PDSP_ASSERT(pdsp_edge_delay(&redfed, 0U) == 1U);
	cmpw	$1, %ax	 #, _7
	je	.L583	 #,
	movl	$673, %r8d	 #,
	leaq	.LC2(%rip), %rax	 #, tmp147
	movq	%rax, %rdx	 # tmp147,
	leaq	.LC3(%rip), %rax	 #, tmp148
	movq	%rax, %rcx	 # tmp148,
	call	printf	 #
.L583:
 # ./test/pdsp_test.c:674:     PDSP_ASSERT(pdsp_edge_delay(&redfed, 0U) == 1U);
	leaq	-8(%rbp), %rax	 #, tmp149
	movl	$0, %edx	 #,
	movq	%rax, %rcx	 # tmp149,
	call	pdsp_edge_delay	 #
 # ./test/pdsp_test.c:674:     PDSP_ASSERT(pdsp_edge_delay(&redfed, 0U) == 1U);
	cmpw	$1, %ax	 #, _8
	je	.L584	 #,
	movl	$674, %r8d	 #,
	leaq	.LC2(%rip), %rax	 #, tmp150
	movq	%rax, %rdx	 # tmp150,
	leaq	.LC3(%rip), %rax	 #, tmp151
	movq	%rax, %rcx	 # tmp151,
	call	printf	 #
.L584:
 # ./test/pdsp_test.c:675:     PDSP_ASSERT(pdsp_edge_delay(&redfed, 0U) == 1U);
	leaq	-8(%rbp), %rax	 #, tmp152
	movl	$0, %edx	 #,
	movq	%rax, %rcx	 # tmp152,
	call	pdsp_edge_delay	 #
 # ./test/pdsp_test.c:675:     PDSP_ASSERT(pdsp_edge_delay(&redfed, 0U) == 1U);
	cmpw	$1, %ax	 #, _9
	je	.L585	 #,
	movl	$675, %r8d	 #,
	leaq	.LC2(%rip), %rax	 #, tmp153
	movq	%rax, %rdx	 # tmp153,
	leaq	.LC3(%rip), %rax	 #, tmp154
	movq	%rax, %rcx	 # tmp154,
	call	printf	 #
.L585:
 # ./test/pdsp_test.c:676:     PDSP_ASSERT(pdsp_edge_delay(&redfed, 0U) == 0U);
	leaq	-8(%rbp), %rax	 #, tmp155
	movl	$0, %edx	 #,
	movq	%rax, %rcx	 # tmp155,
	call	pdsp_edge_delay	 #
 # ./test/pdsp_test.c:676:     PDSP_ASSERT(pdsp_edge_delay(&redfed, 0U) == 0U);
	testw	%ax, %ax	 # _10
	je	.L586	 #,
	movl	$676, %r8d	 #,
	leaq	.LC2(%rip), %rax	 #, tmp156
	movq	%rax, %rdx	 # tmp156,
	leaq	.LC3(%rip), %rax	 #, tmp157
	movq	%rax, %rcx	 # tmp157,
	call	printf	 #
.L586:
 # ./test/pdsp_test.c:677:     PDSP_ASSERT(pdsp_edge_delay(&redfed, 1U) == 0U);
	leaq	-8(%rbp), %rax	 #, tmp158
	movl	$1, %edx	 #,
	movq	%rax, %rcx	 # tmp158,
	call	pdsp_edge_delay	 #
 # ./test/pdsp_test.c:677:     PDSP_ASSERT(pdsp_edge_delay(&redfed, 1U) == 0U);
	testw	%ax, %ax	 # _11
	je	.L587	 #,
	movl	$677, %r8d	 #,
	leaq	.LC2(%rip), %rax	 #, tmp159
	movq	%rax, %rdx	 # tmp159,
	leaq	.LC3(%rip), %rax	 #, tmp160
	movq	%rax, %rcx	 # tmp160,
	call	printf	 #
.L587:
 # ./test/pdsp_test.c:678:     PDSP_ASSERT(pdsp_edge_delay(&redfed, 0U) == 0U);
	leaq	-8(%rbp), %rax	 #, tmp161
	movl	$0, %edx	 #,
	movq	%rax, %rcx	 # tmp161,
	call	pdsp_edge_delay	 #
 # ./test/pdsp_test.c:678:     PDSP_ASSERT(pdsp_edge_delay(&redfed, 0U) == 0U);
	testw	%ax, %ax	 # _12
	je	.L588	 #,
	movl	$678, %r8d	 #,
	leaq	.LC2(%rip), %rax	 #, tmp162
	movq	%rax, %rdx	 # tmp162,
	leaq	.LC3(%rip), %rax	 #, tmp163
	movq	%rax, %rcx	 # tmp163,
	call	printf	 #
.L588:
 # ./test/pdsp_test.c:679:     PDSP_ASSERT(pdsp_edge_delay(&redfed, 0U) == 0U);
	leaq	-8(%rbp), %rax	 #, tmp164
	movl	$0, %edx	 #,
	movq	%rax, %rcx	 # tmp164,
	call	pdsp_edge_delay	 #
 # ./test/pdsp_test.c:679:     PDSP_ASSERT(pdsp_edge_delay(&redfed, 0U) == 0U);
	testw	%ax, %ax	 # _13
	je	.L589	 #,
	movl	$679, %r8d	 #,
	leaq	.LC2(%rip), %rax	 #, tmp165
	movq	%rax, %rdx	 # tmp165,
	leaq	.LC3(%rip), %rax	 #, tmp166
	movq	%rax, %rcx	 # tmp166,
	call	printf	 #
.L589:
 # ./test/pdsp_test.c:680:     PDSP_ASSERT(pdsp_edge_delay(&redfed, 0U) == 0U);
	leaq	-8(%rbp), %rax	 #, tmp167
	movl	$0, %edx	 #,
	movq	%rax, %rcx	 # tmp167,
	call	pdsp_edge_delay	 #
 # ./test/pdsp_test.c:680:     PDSP_ASSERT(pdsp_edge_delay(&redfed, 0U) == 0U);
	testw	%ax, %ax	 # _14
	je	.L590	 #,
	movl	$680, %r8d	 #,
	leaq	.LC2(%rip), %rax	 #, tmp168
	movq	%rax, %rdx	 # tmp168,
	leaq	.LC3(%rip), %rax	 #, tmp169
	movq	%rax, %rcx	 # tmp169,
	call	printf	 #
.L590:
 # ./test/pdsp_test.c:681:     PDSP_ASSERT(pdsp_edge_delay(&redfed, 0U) == 0U);
	leaq	-8(%rbp), %rax	 #, tmp170
	movl	$0, %edx	 #,
	movq	%rax, %rcx	 # tmp170,
	call	pdsp_edge_delay	 #
 # ./test/pdsp_test.c:681:     PDSP_ASSERT(pdsp_edge_delay(&redfed, 0U) == 0U);
	testw	%ax, %ax	 # _15
	je	.L591	 #,
	movl	$681, %r8d	 #,
	leaq	.LC2(%rip), %rax	 #, tmp171
	movq	%rax, %rdx	 # tmp171,
	leaq	.LC3(%rip), %rax	 #, tmp172
	movq	%rax, %rcx	 # tmp172,
	call	printf	 #
.L591:
 # ./test/pdsp_test.c:682:     PDSP_ASSERT(pdsp_edge_delay(&redfed, 1U) == 0U);
	leaq	-8(%rbp), %rax	 #, tmp173
	movl	$1, %edx	 #,
	movq	%rax, %rcx	 # tmp173,
	call	pdsp_edge_delay	 #
 # ./test/pdsp_test.c:682:     PDSP_ASSERT(pdsp_edge_delay(&redfed, 1U) == 0U);
	testw	%ax, %ax	 # _16
	je	.L592	 #,
	movl	$682, %r8d	 #,
	leaq	.LC2(%rip), %rax	 #, tmp174
	movq	%rax, %rdx	 # tmp174,
	leaq	.LC3(%rip), %rax	 #, tmp175
	movq	%rax, %rcx	 # tmp175,
	call	printf	 #
.L592:
 # ./test/pdsp_test.c:683:     PDSP_ASSERT(pdsp_edge_delay(&redfed, 1U) == 0U);
	leaq	-8(%rbp), %rax	 #, tmp176
	movl	$1, %edx	 #,
	movq	%rax, %rcx	 # tmp176,
	call	pdsp_edge_delay	 #
 # ./test/pdsp_test.c:683:     PDSP_ASSERT(pdsp_edge_delay(&redfed, 1U) == 0U);
	testw	%ax, %ax	 # _17
	je	.L593	 #,
	movl	$683, %r8d	 #,
	leaq	.LC2(%rip), %rax	 #, tmp177
	movq	%rax, %rdx	 # tmp177,
	leaq	.LC3(%rip), %rax	 #, tmp178
	movq	%rax, %rcx	 # tmp178,
	call	printf	 #
.L593:
 # ./test/pdsp_test.c:684:     PDSP_ASSERT(pdsp_edge_delay(&redfed, 1U) == 1U);
	leaq	-8(%rbp), %rax	 #, tmp179
	movl	$1, %edx	 #,
	movq	%rax, %rcx	 # tmp179,
	call	pdsp_edge_delay	 #
 # ./test/pdsp_test.c:684:     PDSP_ASSERT(pdsp_edge_delay(&redfed, 1U) == 1U);
	cmpw	$1, %ax	 #, _18
	je	.L594	 #,
	movl	$684, %r8d	 #,
	leaq	.LC2(%rip), %rax	 #, tmp180
	movq	%rax, %rdx	 # tmp180,
	leaq	.LC3(%rip), %rax	 #, tmp181
	movq	%rax, %rcx	 # tmp181,
	call	printf	 #
.L594:
 # ./test/pdsp_test.c:685:     PDSP_ASSERT(pdsp_edge_delay(&redfed, 1U) == 1U);
	leaq	-8(%rbp), %rax	 #, tmp182
	movl	$1, %edx	 #,
	movq	%rax, %rcx	 # tmp182,
	call	pdsp_edge_delay	 #
 # ./test/pdsp_test.c:685:     PDSP_ASSERT(pdsp_edge_delay(&redfed, 1U) == 1U);
	cmpw	$1, %ax	 #, _19
	je	.L595	 #,
	movl	$685, %r8d	 #,
	leaq	.LC2(%rip), %rax	 #, tmp183
	movq	%rax, %rdx	 # tmp183,
	leaq	.LC3(%rip), %rax	 #, tmp184
	movq	%rax, %rcx	 # tmp184,
	call	printf	 #
.L595:
 # ./test/pdsp_test.c:686:     PDSP_ASSERT(pdsp_edge_delay(&redfed, 1U) == 1U);
	leaq	-8(%rbp), %rax	 #, tmp185
	movl	$1, %edx	 #,
	movq	%rax, %rcx	 # tmp185,
	call	pdsp_edge_delay	 #
 # ./test/pdsp_test.c:686:     PDSP_ASSERT(pdsp_edge_delay(&redfed, 1U) == 1U);
	cmpw	$1, %ax	 #, _20
	je	.L596	 #,
	movl	$686, %r8d	 #,
	leaq	.LC2(%rip), %rax	 #, tmp186
	movq	%rax, %rdx	 # tmp186,
	leaq	.LC3(%rip), %rax	 #, tmp187
	movq	%rax, %rcx	 # tmp187,
	call	printf	 #
.L596:
 # ./test/pdsp_test.c:687:     PDSP_ASSERT(pdsp_edge_delay(&redfed, 1U) == 1U);
	leaq	-8(%rbp), %rax	 #, tmp188
	movl	$1, %edx	 #,
	movq	%rax, %rcx	 # tmp188,
	call	pdsp_edge_delay	 #
 # ./test/pdsp_test.c:687:     PDSP_ASSERT(pdsp_edge_delay(&redfed, 1U) == 1U);
	cmpw	$1, %ax	 #, _21
	je	.L597	 #,
	movl	$687, %r8d	 #,
	leaq	.LC2(%rip), %rax	 #, tmp189
	movq	%rax, %rdx	 # tmp189,
	leaq	.LC3(%rip), %rax	 #, tmp190
	movq	%rax, %rcx	 # tmp190,
	call	printf	 #
.L597:
 # ./test/pdsp_test.c:688:     PDSP_ASSERT(pdsp_edge_delay(&redfed, 1U) == 1U);
	leaq	-8(%rbp), %rax	 #, tmp191
	movl	$1, %edx	 #,
	movq	%rax, %rcx	 # tmp191,
	call	pdsp_edge_delay	 #
 # ./test/pdsp_test.c:688:     PDSP_ASSERT(pdsp_edge_delay(&redfed, 1U) == 1U);
	cmpw	$1, %ax	 #, _22
	je	.L598	 #,
	movl	$688, %r8d	 #,
	leaq	.LC2(%rip), %rax	 #, tmp192
	movq	%rax, %rdx	 # tmp192,
	leaq	.LC3(%rip), %rax	 #, tmp193
	movq	%rax, %rcx	 # tmp193,
	call	printf	 #
.L598:
 # ./test/pdsp_test.c:689:     PDSP_ASSERT(pdsp_edge_delay(&redfed, 0U) == 1U);
	leaq	-8(%rbp), %rax	 #, tmp194
	movl	$0, %edx	 #,
	movq	%rax, %rcx	 # tmp194,
	call	pdsp_edge_delay	 #
 # ./test/pdsp_test.c:689:     PDSP_ASSERT(pdsp_edge_delay(&redfed, 0U) == 1U);
	cmpw	$1, %ax	 #, _23
	je	.L599	 #,
	movl	$689, %r8d	 #,
	leaq	.LC2(%rip), %rax	 #, tmp195
	movq	%rax, %rdx	 # tmp195,
	leaq	.LC3(%rip), %rax	 #, tmp196
	movq	%rax, %rcx	 # tmp196,
	call	printf	 #
.L599:
 # ./test/pdsp_test.c:690:     PDSP_ASSERT(pdsp_edge_delay(&redfed, 0U) == 1U);
	leaq	-8(%rbp), %rax	 #, tmp197
	movl	$0, %edx	 #,
	movq	%rax, %rcx	 # tmp197,
	call	pdsp_edge_delay	 #
 # ./test/pdsp_test.c:690:     PDSP_ASSERT(pdsp_edge_delay(&redfed, 0U) == 1U);
	cmpw	$1, %ax	 #, _24
	je	.L600	 #,
	movl	$690, %r8d	 #,
	leaq	.LC2(%rip), %rax	 #, tmp198
	movq	%rax, %rdx	 # tmp198,
	leaq	.LC3(%rip), %rax	 #, tmp199
	movq	%rax, %rcx	 # tmp199,
	call	printf	 #
.L600:
 # ./test/pdsp_test.c:691:     PDSP_ASSERT(pdsp_edge_delay(&redfed, 0U) == 1U);
	leaq	-8(%rbp), %rax	 #, tmp200
	movl	$0, %edx	 #,
	movq	%rax, %rcx	 # tmp200,
	call	pdsp_edge_delay	 #
 # ./test/pdsp_test.c:691:     PDSP_ASSERT(pdsp_edge_delay(&redfed, 0U) == 1U);
	cmpw	$1, %ax	 #, _25
	je	.L601	 #,
	movl	$691, %r8d	 #,
	leaq	.LC2(%rip), %rax	 #, tmp201
	movq	%rax, %rdx	 # tmp201,
	leaq	.LC3(%rip), %rax	 #, tmp202
	movq	%rax, %rcx	 # tmp202,
	call	printf	 #
.L601:
 # ./test/pdsp_test.c:692:     PDSP_ASSERT(pdsp_edge_delay(&redfed, 1U) == 1U);
	leaq	-8(%rbp), %rax	 #, tmp203
	movl	$1, %edx	 #,
	movq	%rax, %rcx	 # tmp203,
	call	pdsp_edge_delay	 #
 # ./test/pdsp_test.c:692:     PDSP_ASSERT(pdsp_edge_delay(&redfed, 1U) == 1U);
	cmpw	$1, %ax	 #, _26
	je	.L602	 #,
	movl	$692, %r8d	 #,
	leaq	.LC2(%rip), %rax	 #, tmp204
	movq	%rax, %rdx	 # tmp204,
	leaq	.LC3(%rip), %rax	 #, tmp205
	movq	%rax, %rcx	 # tmp205,
	call	printf	 #
.L602:
 # ./test/pdsp_test.c:693:     PDSP_ASSERT(pdsp_edge_delay(&redfed, 1U) == 1U);
	leaq	-8(%rbp), %rax	 #, tmp206
	movl	$1, %edx	 #,
	movq	%rax, %rcx	 # tmp206,
	call	pdsp_edge_delay	 #
 # ./test/pdsp_test.c:693:     PDSP_ASSERT(pdsp_edge_delay(&redfed, 1U) == 1U);
	cmpw	$1, %ax	 #, _27
	je	.L603	 #,
	movl	$693, %r8d	 #,
	leaq	.LC2(%rip), %rax	 #, tmp207
	movq	%rax, %rdx	 # tmp207,
	leaq	.LC3(%rip), %rax	 #, tmp208
	movq	%rax, %rcx	 # tmp208,
	call	printf	 #
.L603:
 # ./test/pdsp_test.c:694:     PDSP_ASSERT(pdsp_edge_delay(&redfed, 1U) == 1U);
	leaq	-8(%rbp), %rax	 #, tmp209
	movl	$1, %edx	 #,
	movq	%rax, %rcx	 # tmp209,
	call	pdsp_edge_delay	 #
 # ./test/pdsp_test.c:694:     PDSP_ASSERT(pdsp_edge_delay(&redfed, 1U) == 1U);
	cmpw	$1, %ax	 #, _28
	je	.L604	 #,
	movl	$694, %r8d	 #,
	leaq	.LC2(%rip), %rax	 #, tmp210
	movq	%rax, %rdx	 # tmp210,
	leaq	.LC3(%rip), %rax	 #, tmp211
	movq	%rax, %rcx	 # tmp211,
	call	printf	 #
.L604:
 # ./test/pdsp_test.c:695:     PDSP_ASSERT(pdsp_edge_delay(&redfed, 1U) == 1U);
	leaq	-8(%rbp), %rax	 #, tmp212
	movl	$1, %edx	 #,
	movq	%rax, %rcx	 # tmp212,
	call	pdsp_edge_delay	 #
 # ./test/pdsp_test.c:695:     PDSP_ASSERT(pdsp_edge_delay(&redfed, 1U) == 1U);
	cmpw	$1, %ax	 #, _29
	je	.L605	 #,
	movl	$695, %r8d	 #,
	leaq	.LC2(%rip), %rax	 #, tmp213
	movq	%rax, %rdx	 # tmp213,
	leaq	.LC3(%rip), %rax	 #, tmp214
	movq	%rax, %rcx	 # tmp214,
	call	printf	 #
.L605:
 # ./test/pdsp_test.c:696:     PDSP_ASSERT(pdsp_edge_delay(&redfed, 1U) == 1U);
	leaq	-8(%rbp), %rax	 #, tmp215
	movl	$1, %edx	 #,
	movq	%rax, %rcx	 # tmp215,
	call	pdsp_edge_delay	 #
 # ./test/pdsp_test.c:696:     PDSP_ASSERT(pdsp_edge_delay(&redfed, 1U) == 1U);
	cmpw	$1, %ax	 #, _30
	je	.L606	 #,
	movl	$696, %r8d	 #,
	leaq	.LC2(%rip), %rax	 #, tmp216
	movq	%rax, %rdx	 # tmp216,
	leaq	.LC3(%rip), %rax	 #, tmp217
	movq	%rax, %rcx	 # tmp217,
	call	printf	 #
.L606:
 # ./test/pdsp_test.c:697:     pdsp_edge_delay_init(&redfed, 0, 0, 0);
	leaq	-8(%rbp), %rax	 #, tmp218
	movl	$0, %r9d	 #,
	movl	$0, %r8d	 #,
	movl	$0, %edx	 #,
	movq	%rax, %rcx	 # tmp218,
	call	pdsp_edge_delay_init	 #
 # ./test/pdsp_test.c:698:     PDSP_ASSERT(pdsp_edge_delay(&redfed, 0U) == 0U);
	leaq	-8(%rbp), %rax	 #, tmp219
	movl	$0, %edx	 #,
	movq	%rax, %rcx	 # tmp219,
	call	pdsp_edge_delay	 #
 # ./test/pdsp_test.c:698:     PDSP_ASSERT(pdsp_edge_delay(&redfed, 0U) == 0U);
	testw	%ax, %ax	 # _31
	je	.L607	 #,
	movl	$698, %r8d	 #,
	leaq	.LC2(%rip), %rax	 #, tmp220
	movq	%rax, %rdx	 # tmp220,
	leaq	.LC3(%rip), %rax	 #, tmp221
	movq	%rax, %rcx	 # tmp221,
	call	printf	 #
.L607:
 # ./test/pdsp_test.c:699:     PDSP_ASSERT(pdsp_edge_delay(&redfed, 0U) == 0U);
	leaq	-8(%rbp), %rax	 #, tmp222
	movl	$0, %edx	 #,
	movq	%rax, %rcx	 # tmp222,
	call	pdsp_edge_delay	 #
 # ./test/pdsp_test.c:699:     PDSP_ASSERT(pdsp_edge_delay(&redfed, 0U) == 0U);
	testw	%ax, %ax	 # _32
	je	.L608	 #,
	movl	$699, %r8d	 #,
	leaq	.LC2(%rip), %rax	 #, tmp223
	movq	%rax, %rdx	 # tmp223,
	leaq	.LC3(%rip), %rax	 #, tmp224
	movq	%rax, %rcx	 # tmp224,
	call	printf	 #
.L608:
 # ./test/pdsp_test.c:700:     PDSP_ASSERT(pdsp_edge_delay(&redfed, 1U) == 1U);
	leaq	-8(%rbp), %rax	 #, tmp225
	movl	$1, %edx	 #,
	movq	%rax, %rcx	 # tmp225,
	call	pdsp_edge_delay	 #
 # ./test/pdsp_test.c:700:     PDSP_ASSERT(pdsp_edge_delay(&redfed, 1U) == 1U);
	cmpw	$1, %ax	 #, _33
	je	.L609	 #,
	movl	$700, %r8d	 #,
	leaq	.LC2(%rip), %rax	 #, tmp226
	movq	%rax, %rdx	 # tmp226,
	leaq	.LC3(%rip), %rax	 #, tmp227
	movq	%rax, %rcx	 # tmp227,
	call	printf	 #
.L609:
 # ./test/pdsp_test.c:701:     PDSP_ASSERT(pdsp_edge_delay(&redfed, 1U) == 1U);
	leaq	-8(%rbp), %rax	 #, tmp228
	movl	$1, %edx	 #,
	movq	%rax, %rcx	 # tmp228,
	call	pdsp_edge_delay	 #
 # ./test/pdsp_test.c:701:     PDSP_ASSERT(pdsp_edge_delay(&redfed, 1U) == 1U);
	cmpw	$1, %ax	 #, _34
	je	.L610	 #,
	movl	$701, %r8d	 #,
	leaq	.LC2(%rip), %rax	 #, tmp229
	movq	%rax, %rdx	 # tmp229,
	leaq	.LC3(%rip), %rax	 #, tmp230
	movq	%rax, %rcx	 # tmp230,
	call	printf	 #
.L610:
 # ./test/pdsp_test.c:702:     pdsp_edge_delay_init(&redfed, 0, 1, 2);
	leaq	-8(%rbp), %rax	 #, tmp231
	movl	$2, %r9d	 #,
	movl	$1, %r8d	 #,
	movl	$0, %edx	 #,
	movq	%rax, %rcx	 # tmp231,
	call	pdsp_edge_delay_init	 #
 # ./test/pdsp_test.c:703:     PDSP_ASSERT(pdsp_edge_delay(&redfed, 0U) == 0U);
	leaq	-8(%rbp), %rax	 #, tmp232
	movl	$0, %edx	 #,
	movq	%rax, %rcx	 # tmp232,
	call	pdsp_edge_delay	 #
 # ./test/pdsp_test.c:703:     PDSP_ASSERT(pdsp_edge_delay(&redfed, 0U) == 0U);
	testw	%ax, %ax	 # _35
	je	.L611	 #,
	movl	$703, %r8d	 #,
	leaq	.LC2(%rip), %rax	 #, tmp233
	movq	%rax, %rdx	 # tmp233,
	leaq	.LC3(%rip), %rax	 #, tmp234
	movq	%rax, %rcx	 # tmp234,
	call	printf	 #
.L611:
 # ./test/pdsp_test.c:704:     PDSP_ASSERT(pdsp_edge_delay(&redfed, 1U) == 0U);
	leaq	-8(%rbp), %rax	 #, tmp235
	movl	$1, %edx	 #,
	movq	%rax, %rcx	 # tmp235,
	call	pdsp_edge_delay	 #
 # ./test/pdsp_test.c:704:     PDSP_ASSERT(pdsp_edge_delay(&redfed, 1U) == 0U);
	testw	%ax, %ax	 # _36
	je	.L612	 #,
	movl	$704, %r8d	 #,
	leaq	.LC2(%rip), %rax	 #, tmp236
	movq	%rax, %rdx	 # tmp236,
	leaq	.LC3(%rip), %rax	 #, tmp237
	movq	%rax, %rcx	 # tmp237,
	call	printf	 #
.L612:
 # ./test/pdsp_test.c:705:     PDSP_ASSERT(pdsp_edge_delay(&redfed, 1U) == 1U);
	leaq	-8(%rbp), %rax	 #, tmp238
	movl	$1, %edx	 #,
	movq	%rax, %rcx	 # tmp238,
	call	pdsp_edge_delay	 #
 # ./test/pdsp_test.c:705:     PDSP_ASSERT(pdsp_edge_delay(&redfed, 1U) == 1U);
	cmpw	$1, %ax	 #, _37
	je	.L613	 #,
	movl	$705, %r8d	 #,
	leaq	.LC2(%rip), %rax	 #, tmp239
	movq	%rax, %rdx	 # tmp239,
	leaq	.LC3(%rip), %rax	 #, tmp240
	movq	%rax, %rcx	 # tmp240,
	call	printf	 #
.L613:
 # ./test/pdsp_test.c:706:     PDSP_ASSERT(pdsp_edge_delay(&redfed, 1U) == 1U);
	leaq	-8(%rbp), %rax	 #, tmp241
	movl	$1, %edx	 #,
	movq	%rax, %rcx	 # tmp241,
	call	pdsp_edge_delay	 #
 # ./test/pdsp_test.c:706:     PDSP_ASSERT(pdsp_edge_delay(&redfed, 1U) == 1U);
	cmpw	$1, %ax	 #, _38
	je	.L614	 #,
	movl	$706, %r8d	 #,
	leaq	.LC2(%rip), %rax	 #, tmp242
	movq	%rax, %rdx	 # tmp242,
	leaq	.LC3(%rip), %rax	 #, tmp243
	movq	%rax, %rcx	 # tmp243,
	call	printf	 #
.L614:
 # ./test/pdsp_test.c:707:     PDSP_ASSERT(pdsp_edge_delay(&redfed, 2U) == 1U);
	leaq	-8(%rbp), %rax	 #, tmp244
	movl	$2, %edx	 #,
	movq	%rax, %rcx	 # tmp244,
	call	pdsp_edge_delay	 #
 # ./test/pdsp_test.c:707:     PDSP_ASSERT(pdsp_edge_delay(&redfed, 2U) == 1U);
	cmpw	$1, %ax	 #, _39
	je	.L615	 #,
	movl	$707, %r8d	 #,
	leaq	.LC2(%rip), %rax	 #, tmp245
	movq	%rax, %rdx	 # tmp245,
	leaq	.LC3(%rip), %rax	 #, tmp246
	movq	%rax, %rcx	 # tmp246,
	call	printf	 #
.L615:
 # ./test/pdsp_test.c:708:     PDSP_ASSERT(pdsp_edge_delay(&redfed, 2U) == 2U);
	leaq	-8(%rbp), %rax	 #, tmp247
	movl	$2, %edx	 #,
	movq	%rax, %rcx	 # tmp247,
	call	pdsp_edge_delay	 #
 # ./test/pdsp_test.c:708:     PDSP_ASSERT(pdsp_edge_delay(&redfed, 2U) == 2U);
	cmpw	$2, %ax	 #, _40
	je	.L616	 #,
	movl	$708, %r8d	 #,
	leaq	.LC2(%rip), %rax	 #, tmp248
	movq	%rax, %rdx	 # tmp248,
	leaq	.LC3(%rip), %rax	 #, tmp249
	movq	%rax, %rcx	 # tmp249,
	call	printf	 #
.L616:
 # ./test/pdsp_test.c:709:     PDSP_ASSERT(pdsp_edge_delay(&redfed, 2U) == 2U);
	leaq	-8(%rbp), %rax	 #, tmp250
	movl	$2, %edx	 #,
	movq	%rax, %rcx	 # tmp250,
	call	pdsp_edge_delay	 #
 # ./test/pdsp_test.c:709:     PDSP_ASSERT(pdsp_edge_delay(&redfed, 2U) == 2U);
	cmpw	$2, %ax	 #, _41
	je	.L617	 #,
	movl	$709, %r8d	 #,
	leaq	.LC2(%rip), %rax	 #, tmp251
	movq	%rax, %rdx	 # tmp251,
	leaq	.LC3(%rip), %rax	 #, tmp252
	movq	%rax, %rcx	 # tmp252,
	call	printf	 #
.L617:
 # ./test/pdsp_test.c:710:     PDSP_ASSERT(pdsp_edge_delay(&redfed, 0U) == 2U);
	leaq	-8(%rbp), %rax	 #, tmp253
	movl	$0, %edx	 #,
	movq	%rax, %rcx	 # tmp253,
	call	pdsp_edge_delay	 #
 # ./test/pdsp_test.c:710:     PDSP_ASSERT(pdsp_edge_delay(&redfed, 0U) == 2U);
	cmpw	$2, %ax	 #, _42
	je	.L618	 #,
	movl	$710, %r8d	 #,
	leaq	.LC2(%rip), %rax	 #, tmp254
	movq	%rax, %rdx	 # tmp254,
	leaq	.LC3(%rip), %rax	 #, tmp255
	movq	%rax, %rcx	 # tmp255,
	call	printf	 #
.L618:
 # ./test/pdsp_test.c:711:     PDSP_ASSERT(pdsp_edge_delay(&redfed, 0U) == 2U);
	leaq	-8(%rbp), %rax	 #, tmp256
	movl	$0, %edx	 #,
	movq	%rax, %rcx	 # tmp256,
	call	pdsp_edge_delay	 #
 # ./test/pdsp_test.c:711:     PDSP_ASSERT(pdsp_edge_delay(&redfed, 0U) == 2U);
	cmpw	$2, %ax	 #, _43
	je	.L619	 #,
	movl	$711, %r8d	 #,
	leaq	.LC2(%rip), %rax	 #, tmp257
	movq	%rax, %rdx	 # tmp257,
	leaq	.LC3(%rip), %rax	 #, tmp258
	movq	%rax, %rcx	 # tmp258,
	call	printf	 #
.L619:
 # ./test/pdsp_test.c:712:     PDSP_ASSERT(pdsp_edge_delay(&redfed, 0U) == 0U);
	leaq	-8(%rbp), %rax	 #, tmp259
	movl	$0, %edx	 #,
	movq	%rax, %rcx	 # tmp259,
	call	pdsp_edge_delay	 #
 # ./test/pdsp_test.c:712:     PDSP_ASSERT(pdsp_edge_delay(&redfed, 0U) == 0U);
	testw	%ax, %ax	 # _44
	je	.L621	 #,
	movl	$712, %r8d	 #,
	leaq	.LC2(%rip), %rax	 #, tmp260
	movq	%rax, %rdx	 # tmp260,
	leaq	.LC3(%rip), %rax	 #, tmp261
	movq	%rax, %rcx	 # tmp261,
	call	printf	 #
.L621:
 # ./test/pdsp_test.c:713: }
	nop	
	addq	$48, %rsp	 #,
	popq	%rbp	 #
	ret	
	.seh_endproc
	.section .rdata,"dr"
	.align 8
.LC88:
	.ascii "-- void test_monoflop(void) --\12\0"
	.text
	.globl	test_monoflop
	.def	test_monoflop;	.scl	2;	.type	32;	.endef
	.seh_proc	test_monoflop
test_monoflop:
	pushq	%rbp	 #
	.seh_pushreg	%rbp
	movq	%rsp, %rbp	 #,
	.seh_setframe	%rbp, 0
	subq	$48, %rsp	 #,
	.seh_stackalloc	48
	.seh_endprologue
 # ./test/pdsp_test.c:717:     printf("-- void test_monoflop(void) --\n");
	leaq	.LC88(%rip), %rax	 #, tmp157
	movq	%rax, %rcx	 # tmp157,
	call	printf	 #
 # ./test/pdsp_test.c:719:     pdsp_monoflop_init(&mf, 2, 0, 1);
	leaq	-10(%rbp), %rax	 #, tmp158
	movl	$1, %r9d	 #,
	movl	$0, %r8d	 #,
	movl	$2, %edx	 #,
	movq	%rax, %rcx	 # tmp158,
	call	pdsp_monoflop_init	 #
 # ./test/pdsp_test.c:720:     PDSP_ASSERT(pdsp_monoflop(&mf, PDSP_FALSE) == 0U);
	leaq	-10(%rbp), %rax	 #, tmp159
	movl	$0, %edx	 #,
	movq	%rax, %rcx	 # tmp159,
	call	pdsp_monoflop	 #
 # ./test/pdsp_test.c:720:     PDSP_ASSERT(pdsp_monoflop(&mf, PDSP_FALSE) == 0U);
	testw	%ax, %ax	 # _1
	je	.L623	 #,
	movl	$720, %r8d	 #,
	leaq	.LC2(%rip), %rax	 #, tmp160
	movq	%rax, %rdx	 # tmp160,
	leaq	.LC3(%rip), %rax	 #, tmp161
	movq	%rax, %rcx	 # tmp161,
	call	printf	 #
.L623:
 # ./test/pdsp_test.c:722:     PDSP_ASSERT(pdsp_monoflop(&mf, PDSP_TRUE) == 1U);
	leaq	-10(%rbp), %rax	 #, tmp162
	movl	$1, %edx	 #,
	movq	%rax, %rcx	 # tmp162,
	call	pdsp_monoflop	 #
 # ./test/pdsp_test.c:722:     PDSP_ASSERT(pdsp_monoflop(&mf, PDSP_TRUE) == 1U);
	cmpw	$1, %ax	 #, _2
	je	.L624	 #,
	movl	$722, %r8d	 #,
	leaq	.LC2(%rip), %rax	 #, tmp163
	movq	%rax, %rdx	 # tmp163,
	leaq	.LC3(%rip), %rax	 #, tmp164
	movq	%rax, %rcx	 # tmp164,
	call	printf	 #
.L624:
 # ./test/pdsp_test.c:723:     PDSP_ASSERT(pdsp_monoflop(&mf, PDSP_TRUE) == 1U);
	leaq	-10(%rbp), %rax	 #, tmp165
	movl	$1, %edx	 #,
	movq	%rax, %rcx	 # tmp165,
	call	pdsp_monoflop	 #
 # ./test/pdsp_test.c:723:     PDSP_ASSERT(pdsp_monoflop(&mf, PDSP_TRUE) == 1U);
	cmpw	$1, %ax	 #, _3
	je	.L625	 #,
	movl	$723, %r8d	 #,
	leaq	.LC2(%rip), %rax	 #, tmp166
	movq	%rax, %rdx	 # tmp166,
	leaq	.LC3(%rip), %rax	 #, tmp167
	movq	%rax, %rcx	 # tmp167,
	call	printf	 #
.L625:
 # ./test/pdsp_test.c:724:     PDSP_ASSERT(pdsp_monoflop(&mf, PDSP_TRUE) == 0U);
	leaq	-10(%rbp), %rax	 #, tmp168
	movl	$1, %edx	 #,
	movq	%rax, %rcx	 # tmp168,
	call	pdsp_monoflop	 #
 # ./test/pdsp_test.c:724:     PDSP_ASSERT(pdsp_monoflop(&mf, PDSP_TRUE) == 0U);
	testw	%ax, %ax	 # _4
	je	.L626	 #,
	movl	$724, %r8d	 #,
	leaq	.LC2(%rip), %rax	 #, tmp169
	movq	%rax, %rdx	 # tmp169,
	leaq	.LC3(%rip), %rax	 #, tmp170
	movq	%rax, %rcx	 # tmp170,
	call	printf	 #
.L626:
 # ./test/pdsp_test.c:725:     PDSP_ASSERT(pdsp_monoflop(&mf, PDSP_TRUE) == 0U);
	leaq	-10(%rbp), %rax	 #, tmp171
	movl	$1, %edx	 #,
	movq	%rax, %rcx	 # tmp171,
	call	pdsp_monoflop	 #
 # ./test/pdsp_test.c:725:     PDSP_ASSERT(pdsp_monoflop(&mf, PDSP_TRUE) == 0U);
	testw	%ax, %ax	 # _5
	je	.L627	 #,
	movl	$725, %r8d	 #,
	leaq	.LC2(%rip), %rax	 #, tmp172
	movq	%rax, %rdx	 # tmp172,
	leaq	.LC3(%rip), %rax	 #, tmp173
	movq	%rax, %rcx	 # tmp173,
	call	printf	 #
.L627:
 # ./test/pdsp_test.c:726:     PDSP_ASSERT(pdsp_monoflop(&mf, PDSP_FALSE) == 0U);
	leaq	-10(%rbp), %rax	 #, tmp174
	movl	$0, %edx	 #,
	movq	%rax, %rcx	 # tmp174,
	call	pdsp_monoflop	 #
 # ./test/pdsp_test.c:726:     PDSP_ASSERT(pdsp_monoflop(&mf, PDSP_FALSE) == 0U);
	testw	%ax, %ax	 # _6
	je	.L628	 #,
	movl	$726, %r8d	 #,
	leaq	.LC2(%rip), %rax	 #, tmp175
	movq	%rax, %rdx	 # tmp175,
	leaq	.LC3(%rip), %rax	 #, tmp176
	movq	%rax, %rcx	 # tmp176,
	call	printf	 #
.L628:
 # ./test/pdsp_test.c:728:     PDSP_ASSERT(pdsp_monoflop(&mf, PDSP_TRUE) == 1U);
	leaq	-10(%rbp), %rax	 #, tmp177
	movl	$1, %edx	 #,
	movq	%rax, %rcx	 # tmp177,
	call	pdsp_monoflop	 #
 # ./test/pdsp_test.c:728:     PDSP_ASSERT(pdsp_monoflop(&mf, PDSP_TRUE) == 1U);
	cmpw	$1, %ax	 #, _7
	je	.L629	 #,
	movl	$728, %r8d	 #,
	leaq	.LC2(%rip), %rax	 #, tmp178
	movq	%rax, %rdx	 # tmp178,
	leaq	.LC3(%rip), %rax	 #, tmp179
	movq	%rax, %rcx	 # tmp179,
	call	printf	 #
.L629:
 # ./test/pdsp_test.c:729:     PDSP_ASSERT(pdsp_monoflop(&mf, PDSP_FALSE) == 1U);
	leaq	-10(%rbp), %rax	 #, tmp180
	movl	$0, %edx	 #,
	movq	%rax, %rcx	 # tmp180,
	call	pdsp_monoflop	 #
 # ./test/pdsp_test.c:729:     PDSP_ASSERT(pdsp_monoflop(&mf, PDSP_FALSE) == 1U);
	cmpw	$1, %ax	 #, _8
	je	.L630	 #,
	movl	$729, %r8d	 #,
	leaq	.LC2(%rip), %rax	 #, tmp181
	movq	%rax, %rdx	 # tmp181,
	leaq	.LC3(%rip), %rax	 #, tmp182
	movq	%rax, %rcx	 # tmp182,
	call	printf	 #
.L630:
 # ./test/pdsp_test.c:730:     PDSP_ASSERT(pdsp_monoflop(&mf, PDSP_TRUE) == 0U);
	leaq	-10(%rbp), %rax	 #, tmp183
	movl	$1, %edx	 #,
	movq	%rax, %rcx	 # tmp183,
	call	pdsp_monoflop	 #
 # ./test/pdsp_test.c:730:     PDSP_ASSERT(pdsp_monoflop(&mf, PDSP_TRUE) == 0U);
	testw	%ax, %ax	 # _9
	je	.L631	 #,
	movl	$730, %r8d	 #,
	leaq	.LC2(%rip), %rax	 #, tmp184
	movq	%rax, %rdx	 # tmp184,
	leaq	.LC3(%rip), %rax	 #, tmp185
	movq	%rax, %rcx	 # tmp185,
	call	printf	 #
.L631:
 # ./test/pdsp_test.c:731:     PDSP_ASSERT(pdsp_monoflop(&mf, PDSP_FALSE) == 0U);
	leaq	-10(%rbp), %rax	 #, tmp186
	movl	$0, %edx	 #,
	movq	%rax, %rcx	 # tmp186,
	call	pdsp_monoflop	 #
 # ./test/pdsp_test.c:731:     PDSP_ASSERT(pdsp_monoflop(&mf, PDSP_FALSE) == 0U);
	testw	%ax, %ax	 # _10
	je	.L632	 #,
	movl	$731, %r8d	 #,
	leaq	.LC2(%rip), %rax	 #, tmp187
	movq	%rax, %rdx	 # tmp187,
	leaq	.LC3(%rip), %rax	 #, tmp188
	movq	%rax, %rcx	 # tmp188,
	call	printf	 #
.L632:
 # ./test/pdsp_test.c:732:     PDSP_ASSERT(pdsp_monoflop(&mf, PDSP_TRUE) == 1U);
	leaq	-10(%rbp), %rax	 #, tmp189
	movl	$1, %edx	 #,
	movq	%rax, %rcx	 # tmp189,
	call	pdsp_monoflop	 #
 # ./test/pdsp_test.c:732:     PDSP_ASSERT(pdsp_monoflop(&mf, PDSP_TRUE) == 1U);
	cmpw	$1, %ax	 #, _11
	je	.L633	 #,
	movl	$732, %r8d	 #,
	leaq	.LC2(%rip), %rax	 #, tmp190
	movq	%rax, %rdx	 # tmp190,
	leaq	.LC3(%rip), %rax	 #, tmp191
	movq	%rax, %rcx	 # tmp191,
	call	printf	 #
.L633:
 # ./test/pdsp_test.c:733:     PDSP_ASSERT(pdsp_monoflop(&mf, PDSP_FALSE) == 1U);
	leaq	-10(%rbp), %rax	 #, tmp192
	movl	$0, %edx	 #,
	movq	%rax, %rcx	 # tmp192,
	call	pdsp_monoflop	 #
 # ./test/pdsp_test.c:733:     PDSP_ASSERT(pdsp_monoflop(&mf, PDSP_FALSE) == 1U);
	cmpw	$1, %ax	 #, _12
	je	.L634	 #,
	movl	$733, %r8d	 #,
	leaq	.LC2(%rip), %rax	 #, tmp193
	movq	%rax, %rdx	 # tmp193,
	leaq	.LC3(%rip), %rax	 #, tmp194
	movq	%rax, %rcx	 # tmp194,
	call	printf	 #
.L634:
 # ./test/pdsp_test.c:734:     PDSP_ASSERT(pdsp_monoflop(&mf, PDSP_TRUE) == 0U);
	leaq	-10(%rbp), %rax	 #, tmp195
	movl	$1, %edx	 #,
	movq	%rax, %rcx	 # tmp195,
	call	pdsp_monoflop	 #
 # ./test/pdsp_test.c:734:     PDSP_ASSERT(pdsp_monoflop(&mf, PDSP_TRUE) == 0U);
	testw	%ax, %ax	 # _13
	je	.L635	 #,
	movl	$734, %r8d	 #,
	leaq	.LC2(%rip), %rax	 #, tmp196
	movq	%rax, %rdx	 # tmp196,
	leaq	.LC3(%rip), %rax	 #, tmp197
	movq	%rax, %rcx	 # tmp197,
	call	printf	 #
.L635:
 # ./test/pdsp_test.c:735:     PDSP_ASSERT(pdsp_monoflop(&mf, PDSP_FALSE) == 0U);
	leaq	-10(%rbp), %rax	 #, tmp198
	movl	$0, %edx	 #,
	movq	%rax, %rcx	 # tmp198,
	call	pdsp_monoflop	 #
 # ./test/pdsp_test.c:735:     PDSP_ASSERT(pdsp_monoflop(&mf, PDSP_FALSE) == 0U);
	testw	%ax, %ax	 # _14
	je	.L636	 #,
	movl	$735, %r8d	 #,
	leaq	.LC2(%rip), %rax	 #, tmp199
	movq	%rax, %rdx	 # tmp199,
	leaq	.LC3(%rip), %rax	 #, tmp200
	movq	%rax, %rcx	 # tmp200,
	call	printf	 #
.L636:
 # ./test/pdsp_test.c:737:     pdsp_monoflop_init(&mf, 2, 0, 1);
	leaq	-10(%rbp), %rax	 #, tmp201
	movl	$1, %r9d	 #,
	movl	$0, %r8d	 #,
	movl	$2, %edx	 #,
	movq	%rax, %rcx	 # tmp201,
	call	pdsp_monoflop_init	 #
 # ./test/pdsp_test.c:738:     PDSP_ASSERT(pdsp_monoflop_rtr(&mf, PDSP_FALSE) == 0U);
	leaq	-10(%rbp), %rax	 #, tmp202
	movl	$0, %edx	 #,
	movq	%rax, %rcx	 # tmp202,
	call	pdsp_monoflop_rtr	 #
 # ./test/pdsp_test.c:738:     PDSP_ASSERT(pdsp_monoflop_rtr(&mf, PDSP_FALSE) == 0U);
	testw	%ax, %ax	 # _15
	je	.L637	 #,
	movl	$738, %r8d	 #,
	leaq	.LC2(%rip), %rax	 #, tmp203
	movq	%rax, %rdx	 # tmp203,
	leaq	.LC3(%rip), %rax	 #, tmp204
	movq	%rax, %rcx	 # tmp204,
	call	printf	 #
.L637:
 # ./test/pdsp_test.c:740:     PDSP_ASSERT(pdsp_monoflop_rtr(&mf, PDSP_TRUE) == 1U);
	leaq	-10(%rbp), %rax	 #, tmp205
	movl	$1, %edx	 #,
	movq	%rax, %rcx	 # tmp205,
	call	pdsp_monoflop_rtr	 #
 # ./test/pdsp_test.c:740:     PDSP_ASSERT(pdsp_monoflop_rtr(&mf, PDSP_TRUE) == 1U);
	cmpw	$1, %ax	 #, _16
	je	.L638	 #,
	movl	$740, %r8d	 #,
	leaq	.LC2(%rip), %rax	 #, tmp206
	movq	%rax, %rdx	 # tmp206,
	leaq	.LC3(%rip), %rax	 #, tmp207
	movq	%rax, %rcx	 # tmp207,
	call	printf	 #
.L638:
 # ./test/pdsp_test.c:741:     PDSP_ASSERT(pdsp_monoflop_rtr(&mf, PDSP_TRUE) == 1U);
	leaq	-10(%rbp), %rax	 #, tmp208
	movl	$1, %edx	 #,
	movq	%rax, %rcx	 # tmp208,
	call	pdsp_monoflop_rtr	 #
 # ./test/pdsp_test.c:741:     PDSP_ASSERT(pdsp_monoflop_rtr(&mf, PDSP_TRUE) == 1U);
	cmpw	$1, %ax	 #, _17
	je	.L639	 #,
	movl	$741, %r8d	 #,
	leaq	.LC2(%rip), %rax	 #, tmp209
	movq	%rax, %rdx	 # tmp209,
	leaq	.LC3(%rip), %rax	 #, tmp210
	movq	%rax, %rcx	 # tmp210,
	call	printf	 #
.L639:
 # ./test/pdsp_test.c:742:     PDSP_ASSERT(pdsp_monoflop_rtr(&mf, PDSP_TRUE) == 0U);
	leaq	-10(%rbp), %rax	 #, tmp211
	movl	$1, %edx	 #,
	movq	%rax, %rcx	 # tmp211,
	call	pdsp_monoflop_rtr	 #
 # ./test/pdsp_test.c:742:     PDSP_ASSERT(pdsp_monoflop_rtr(&mf, PDSP_TRUE) == 0U);
	testw	%ax, %ax	 # _18
	je	.L640	 #,
	movl	$742, %r8d	 #,
	leaq	.LC2(%rip), %rax	 #, tmp212
	movq	%rax, %rdx	 # tmp212,
	leaq	.LC3(%rip), %rax	 #, tmp213
	movq	%rax, %rcx	 # tmp213,
	call	printf	 #
.L640:
 # ./test/pdsp_test.c:743:     PDSP_ASSERT(pdsp_monoflop_rtr(&mf, PDSP_TRUE) == 0U);
	leaq	-10(%rbp), %rax	 #, tmp214
	movl	$1, %edx	 #,
	movq	%rax, %rcx	 # tmp214,
	call	pdsp_monoflop_rtr	 #
 # ./test/pdsp_test.c:743:     PDSP_ASSERT(pdsp_monoflop_rtr(&mf, PDSP_TRUE) == 0U);
	testw	%ax, %ax	 # _19
	je	.L641	 #,
	movl	$743, %r8d	 #,
	leaq	.LC2(%rip), %rax	 #, tmp215
	movq	%rax, %rdx	 # tmp215,
	leaq	.LC3(%rip), %rax	 #, tmp216
	movq	%rax, %rcx	 # tmp216,
	call	printf	 #
.L641:
 # ./test/pdsp_test.c:744:     PDSP_ASSERT(pdsp_monoflop_rtr(&mf, PDSP_TRUE) == 0U);
	leaq	-10(%rbp), %rax	 #, tmp217
	movl	$1, %edx	 #,
	movq	%rax, %rcx	 # tmp217,
	call	pdsp_monoflop_rtr	 #
 # ./test/pdsp_test.c:744:     PDSP_ASSERT(pdsp_monoflop_rtr(&mf, PDSP_TRUE) == 0U);
	testw	%ax, %ax	 # _20
	je	.L642	 #,
	movl	$744, %r8d	 #,
	leaq	.LC2(%rip), %rax	 #, tmp218
	movq	%rax, %rdx	 # tmp218,
	leaq	.LC3(%rip), %rax	 #, tmp219
	movq	%rax, %rcx	 # tmp219,
	call	printf	 #
.L642:
 # ./test/pdsp_test.c:745:     PDSP_ASSERT(pdsp_monoflop_rtr(&mf, PDSP_FALSE) == 0U);
	leaq	-10(%rbp), %rax	 #, tmp220
	movl	$0, %edx	 #,
	movq	%rax, %rcx	 # tmp220,
	call	pdsp_monoflop_rtr	 #
 # ./test/pdsp_test.c:745:     PDSP_ASSERT(pdsp_monoflop_rtr(&mf, PDSP_FALSE) == 0U);
	testw	%ax, %ax	 # _21
	je	.L643	 #,
	movl	$745, %r8d	 #,
	leaq	.LC2(%rip), %rax	 #, tmp221
	movq	%rax, %rdx	 # tmp221,
	leaq	.LC3(%rip), %rax	 #, tmp222
	movq	%rax, %rcx	 # tmp222,
	call	printf	 #
.L643:
 # ./test/pdsp_test.c:746:     PDSP_ASSERT(pdsp_monoflop_rtr(&mf, PDSP_FALSE) == 0U);
	leaq	-10(%rbp), %rax	 #, tmp223
	movl	$0, %edx	 #,
	movq	%rax, %rcx	 # tmp223,
	call	pdsp_monoflop_rtr	 #
 # ./test/pdsp_test.c:746:     PDSP_ASSERT(pdsp_monoflop_rtr(&mf, PDSP_FALSE) == 0U);
	testw	%ax, %ax	 # _22
	je	.L644	 #,
	movl	$746, %r8d	 #,
	leaq	.LC2(%rip), %rax	 #, tmp224
	movq	%rax, %rdx	 # tmp224,
	leaq	.LC3(%rip), %rax	 #, tmp225
	movq	%rax, %rcx	 # tmp225,
	call	printf	 #
.L644:
 # ./test/pdsp_test.c:747:     PDSP_ASSERT(pdsp_monoflop_rtr(&mf, PDSP_FALSE) == 0U);
	leaq	-10(%rbp), %rax	 #, tmp226
	movl	$0, %edx	 #,
	movq	%rax, %rcx	 # tmp226,
	call	pdsp_monoflop_rtr	 #
 # ./test/pdsp_test.c:747:     PDSP_ASSERT(pdsp_monoflop_rtr(&mf, PDSP_FALSE) == 0U);
	testw	%ax, %ax	 # _23
	je	.L645	 #,
	movl	$747, %r8d	 #,
	leaq	.LC2(%rip), %rax	 #, tmp227
	movq	%rax, %rdx	 # tmp227,
	leaq	.LC3(%rip), %rax	 #, tmp228
	movq	%rax, %rcx	 # tmp228,
	call	printf	 #
.L645:
 # ./test/pdsp_test.c:748:     PDSP_ASSERT(pdsp_monoflop_rtr(&mf, PDSP_FALSE) == 0U);
	leaq	-10(%rbp), %rax	 #, tmp229
	movl	$0, %edx	 #,
	movq	%rax, %rcx	 # tmp229,
	call	pdsp_monoflop_rtr	 #
 # ./test/pdsp_test.c:748:     PDSP_ASSERT(pdsp_monoflop_rtr(&mf, PDSP_FALSE) == 0U);
	testw	%ax, %ax	 # _24
	je	.L646	 #,
	movl	$748, %r8d	 #,
	leaq	.LC2(%rip), %rax	 #, tmp230
	movq	%rax, %rdx	 # tmp230,
	leaq	.LC3(%rip), %rax	 #, tmp231
	movq	%rax, %rcx	 # tmp231,
	call	printf	 #
.L646:
 # ./test/pdsp_test.c:749:     PDSP_ASSERT(pdsp_monoflop_rtr(&mf, PDSP_FALSE) == 0U);
	leaq	-10(%rbp), %rax	 #, tmp232
	movl	$0, %edx	 #,
	movq	%rax, %rcx	 # tmp232,
	call	pdsp_monoflop_rtr	 #
 # ./test/pdsp_test.c:749:     PDSP_ASSERT(pdsp_monoflop_rtr(&mf, PDSP_FALSE) == 0U);
	testw	%ax, %ax	 # _25
	je	.L647	 #,
	movl	$749, %r8d	 #,
	leaq	.LC2(%rip), %rax	 #, tmp233
	movq	%rax, %rdx	 # tmp233,
	leaq	.LC3(%rip), %rax	 #, tmp234
	movq	%rax, %rcx	 # tmp234,
	call	printf	 #
.L647:
 # ./test/pdsp_test.c:750:     pdsp_monoflop_init(&mf, 4, 0, 1);
	leaq	-10(%rbp), %rax	 #, tmp235
	movl	$1, %r9d	 #,
	movl	$0, %r8d	 #,
	movl	$4, %edx	 #,
	movq	%rax, %rcx	 # tmp235,
	call	pdsp_monoflop_init	 #
 # ./test/pdsp_test.c:751:     PDSP_ASSERT(pdsp_monoflop_rtr(&mf, PDSP_FALSE) == 0U);
	leaq	-10(%rbp), %rax	 #, tmp236
	movl	$0, %edx	 #,
	movq	%rax, %rcx	 # tmp236,
	call	pdsp_monoflop_rtr	 #
 # ./test/pdsp_test.c:751:     PDSP_ASSERT(pdsp_monoflop_rtr(&mf, PDSP_FALSE) == 0U);
	testw	%ax, %ax	 # _26
	je	.L648	 #,
	movl	$751, %r8d	 #,
	leaq	.LC2(%rip), %rax	 #, tmp237
	movq	%rax, %rdx	 # tmp237,
	leaq	.LC3(%rip), %rax	 #, tmp238
	movq	%rax, %rcx	 # tmp238,
	call	printf	 #
.L648:
 # ./test/pdsp_test.c:753:     PDSP_ASSERT(pdsp_monoflop_rtr(&mf, PDSP_TRUE) == 1U);
	leaq	-10(%rbp), %rax	 #, tmp239
	movl	$1, %edx	 #,
	movq	%rax, %rcx	 # tmp239,
	call	pdsp_monoflop_rtr	 #
 # ./test/pdsp_test.c:753:     PDSP_ASSERT(pdsp_monoflop_rtr(&mf, PDSP_TRUE) == 1U);
	cmpw	$1, %ax	 #, _27
	je	.L649	 #,
	movl	$753, %r8d	 #,
	leaq	.LC2(%rip), %rax	 #, tmp240
	movq	%rax, %rdx	 # tmp240,
	leaq	.LC3(%rip), %rax	 #, tmp241
	movq	%rax, %rcx	 # tmp241,
	call	printf	 #
.L649:
 # ./test/pdsp_test.c:754:     PDSP_ASSERT(pdsp_monoflop_rtr(&mf, PDSP_FALSE) == 1U);
	leaq	-10(%rbp), %rax	 #, tmp242
	movl	$0, %edx	 #,
	movq	%rax, %rcx	 # tmp242,
	call	pdsp_monoflop_rtr	 #
 # ./test/pdsp_test.c:754:     PDSP_ASSERT(pdsp_monoflop_rtr(&mf, PDSP_FALSE) == 1U);
	cmpw	$1, %ax	 #, _28
	je	.L650	 #,
	movl	$754, %r8d	 #,
	leaq	.LC2(%rip), %rax	 #, tmp243
	movq	%rax, %rdx	 # tmp243,
	leaq	.LC3(%rip), %rax	 #, tmp244
	movq	%rax, %rcx	 # tmp244,
	call	printf	 #
.L650:
 # ./test/pdsp_test.c:755:     PDSP_ASSERT(pdsp_monoflop_rtr(&mf, PDSP_FALSE) == 1U);
	leaq	-10(%rbp), %rax	 #, tmp245
	movl	$0, %edx	 #,
	movq	%rax, %rcx	 # tmp245,
	call	pdsp_monoflop_rtr	 #
 # ./test/pdsp_test.c:755:     PDSP_ASSERT(pdsp_monoflop_rtr(&mf, PDSP_FALSE) == 1U);
	cmpw	$1, %ax	 #, _29
	je	.L651	 #,
	movl	$755, %r8d	 #,
	leaq	.LC2(%rip), %rax	 #, tmp246
	movq	%rax, %rdx	 # tmp246,
	leaq	.LC3(%rip), %rax	 #, tmp247
	movq	%rax, %rcx	 # tmp247,
	call	printf	 #
.L651:
 # ./test/pdsp_test.c:757:     PDSP_ASSERT(pdsp_monoflop_rtr(&mf, PDSP_TRUE) == 1U);
	leaq	-10(%rbp), %rax	 #, tmp248
	movl	$1, %edx	 #,
	movq	%rax, %rcx	 # tmp248,
	call	pdsp_monoflop_rtr	 #
 # ./test/pdsp_test.c:757:     PDSP_ASSERT(pdsp_monoflop_rtr(&mf, PDSP_TRUE) == 1U);
	cmpw	$1, %ax	 #, _30
	je	.L652	 #,
	movl	$757, %r8d	 #,
	leaq	.LC2(%rip), %rax	 #, tmp249
	movq	%rax, %rdx	 # tmp249,
	leaq	.LC3(%rip), %rax	 #, tmp250
	movq	%rax, %rcx	 # tmp250,
	call	printf	 #
.L652:
 # ./test/pdsp_test.c:758:     PDSP_ASSERT(pdsp_monoflop_rtr(&mf, PDSP_FALSE) == 1U);
	leaq	-10(%rbp), %rax	 #, tmp251
	movl	$0, %edx	 #,
	movq	%rax, %rcx	 # tmp251,
	call	pdsp_monoflop_rtr	 #
 # ./test/pdsp_test.c:758:     PDSP_ASSERT(pdsp_monoflop_rtr(&mf, PDSP_FALSE) == 1U);
	cmpw	$1, %ax	 #, _31
	je	.L653	 #,
	movl	$758, %r8d	 #,
	leaq	.LC2(%rip), %rax	 #, tmp252
	movq	%rax, %rdx	 # tmp252,
	leaq	.LC3(%rip), %rax	 #, tmp253
	movq	%rax, %rcx	 # tmp253,
	call	printf	 #
.L653:
 # ./test/pdsp_test.c:759:     PDSP_ASSERT(pdsp_monoflop_rtr(&mf, PDSP_FALSE) == 1U);
	leaq	-10(%rbp), %rax	 #, tmp254
	movl	$0, %edx	 #,
	movq	%rax, %rcx	 # tmp254,
	call	pdsp_monoflop_rtr	 #
 # ./test/pdsp_test.c:759:     PDSP_ASSERT(pdsp_monoflop_rtr(&mf, PDSP_FALSE) == 1U);
	cmpw	$1, %ax	 #, _32
	je	.L654	 #,
	movl	$759, %r8d	 #,
	leaq	.LC2(%rip), %rax	 #, tmp255
	movq	%rax, %rdx	 # tmp255,
	leaq	.LC3(%rip), %rax	 #, tmp256
	movq	%rax, %rcx	 # tmp256,
	call	printf	 #
.L654:
 # ./test/pdsp_test.c:760:     PDSP_ASSERT(pdsp_monoflop_rtr(&mf, PDSP_FALSE) == 1U);
	leaq	-10(%rbp), %rax	 #, tmp257
	movl	$0, %edx	 #,
	movq	%rax, %rcx	 # tmp257,
	call	pdsp_monoflop_rtr	 #
 # ./test/pdsp_test.c:760:     PDSP_ASSERT(pdsp_monoflop_rtr(&mf, PDSP_FALSE) == 1U);
	cmpw	$1, %ax	 #, _33
	je	.L655	 #,
	movl	$760, %r8d	 #,
	leaq	.LC2(%rip), %rax	 #, tmp258
	movq	%rax, %rdx	 # tmp258,
	leaq	.LC3(%rip), %rax	 #, tmp259
	movq	%rax, %rcx	 # tmp259,
	call	printf	 #
.L655:
 # ./test/pdsp_test.c:761:     PDSP_ASSERT(pdsp_monoflop_rtr(&mf, PDSP_FALSE) == 0U);
	leaq	-10(%rbp), %rax	 #, tmp260
	movl	$0, %edx	 #,
	movq	%rax, %rcx	 # tmp260,
	call	pdsp_monoflop_rtr	 #
 # ./test/pdsp_test.c:761:     PDSP_ASSERT(pdsp_monoflop_rtr(&mf, PDSP_FALSE) == 0U);
	testw	%ax, %ax	 # _34
	je	.L656	 #,
	movl	$761, %r8d	 #,
	leaq	.LC2(%rip), %rax	 #, tmp261
	movq	%rax, %rdx	 # tmp261,
	leaq	.LC3(%rip), %rax	 #, tmp262
	movq	%rax, %rcx	 # tmp262,
	call	printf	 #
.L656:
 # ./test/pdsp_test.c:762:     PDSP_ASSERT(pdsp_monoflop_rtr(&mf, PDSP_FALSE) == 0U);
	leaq	-10(%rbp), %rax	 #, tmp263
	movl	$0, %edx	 #,
	movq	%rax, %rcx	 # tmp263,
	call	pdsp_monoflop_rtr	 #
 # ./test/pdsp_test.c:762:     PDSP_ASSERT(pdsp_monoflop_rtr(&mf, PDSP_FALSE) == 0U);
	testw	%ax, %ax	 # _35
	je	.L657	 #,
	movl	$762, %r8d	 #,
	leaq	.LC2(%rip), %rax	 #, tmp264
	movq	%rax, %rdx	 # tmp264,
	leaq	.LC3(%rip), %rax	 #, tmp265
	movq	%rax, %rcx	 # tmp265,
	call	printf	 #
.L657:
 # ./test/pdsp_test.c:763:     pdsp_monoflop_init(&mf, 0, 0, 1);
	leaq	-10(%rbp), %rax	 #, tmp266
	movl	$1, %r9d	 #,
	movl	$0, %r8d	 #,
	movl	$0, %edx	 #,
	movq	%rax, %rcx	 # tmp266,
	call	pdsp_monoflop_init	 #
 # ./test/pdsp_test.c:764:     PDSP_ASSERT(pdsp_monoflop_rtr(&mf, PDSP_FALSE) == 0U);
	leaq	-10(%rbp), %rax	 #, tmp267
	movl	$0, %edx	 #,
	movq	%rax, %rcx	 # tmp267,
	call	pdsp_monoflop_rtr	 #
 # ./test/pdsp_test.c:764:     PDSP_ASSERT(pdsp_monoflop_rtr(&mf, PDSP_FALSE) == 0U);
	testw	%ax, %ax	 # _36
	je	.L658	 #,
	movl	$764, %r8d	 #,
	leaq	.LC2(%rip), %rax	 #, tmp268
	movq	%rax, %rdx	 # tmp268,
	leaq	.LC3(%rip), %rax	 #, tmp269
	movq	%rax, %rcx	 # tmp269,
	call	printf	 #
.L658:
 # ./test/pdsp_test.c:765:     PDSP_ASSERT(pdsp_monoflop_rtr(&mf, PDSP_TRUE) == 1U);
	leaq	-10(%rbp), %rax	 #, tmp270
	movl	$1, %edx	 #,
	movq	%rax, %rcx	 # tmp270,
	call	pdsp_monoflop_rtr	 #
 # ./test/pdsp_test.c:765:     PDSP_ASSERT(pdsp_monoflop_rtr(&mf, PDSP_TRUE) == 1U);
	cmpw	$1, %ax	 #, _37
	je	.L659	 #,
	movl	$765, %r8d	 #,
	leaq	.LC2(%rip), %rax	 #, tmp271
	movq	%rax, %rdx	 # tmp271,
	leaq	.LC3(%rip), %rax	 #, tmp272
	movq	%rax, %rcx	 # tmp272,
	call	printf	 #
.L659:
 # ./test/pdsp_test.c:766:     PDSP_ASSERT(pdsp_monoflop_rtr(&mf, PDSP_FALSE) == 0U);
	leaq	-10(%rbp), %rax	 #, tmp273
	movl	$0, %edx	 #,
	movq	%rax, %rcx	 # tmp273,
	call	pdsp_monoflop_rtr	 #
 # ./test/pdsp_test.c:766:     PDSP_ASSERT(pdsp_monoflop_rtr(&mf, PDSP_FALSE) == 0U);
	testw	%ax, %ax	 # _38
	je	.L660	 #,
	movl	$766, %r8d	 #,
	leaq	.LC2(%rip), %rax	 #, tmp274
	movq	%rax, %rdx	 # tmp274,
	leaq	.LC3(%rip), %rax	 #, tmp275
	movq	%rax, %rcx	 # tmp275,
	call	printf	 #
.L660:
 # ./test/pdsp_test.c:767:     PDSP_ASSERT(pdsp_monoflop_rtr(&mf, PDSP_TRUE) == 1U);
	leaq	-10(%rbp), %rax	 #, tmp276
	movl	$1, %edx	 #,
	movq	%rax, %rcx	 # tmp276,
