
./build/pdsp.o:     file format pe-x86-64


Disassembly of section .text:

0000000000000000 <printf>:
       0:	55                   	push   %rbp
       1:	53                   	push   %rbx
       2:	48 83 ec 38          	sub    $0x38,%rsp
       6:	48 8d 6c 24 30       	lea    0x30(%rsp),%rbp
       b:	48 89 4d 20          	mov    %rcx,0x20(%rbp)
       f:	48 89 55 28          	mov    %rdx,0x28(%rbp)
      13:	4c 89 45 30          	mov    %r8,0x30(%rbp)
      17:	4c 89 4d 38          	mov    %r9,0x38(%rbp)
      1b:	48 8d 45 28          	lea    0x28(%rbp),%rax
      1f:	48 89 45 f0          	mov    %rax,-0x10(%rbp)
      23:	48 8b 5d f0          	mov    -0x10(%rbp),%rbx
      27:	b9 01 00 00 00       	mov    $0x1,%ecx
      2c:	48 8b 05 00 00 00 00 	mov    0x0(%rip),%rax        # 33 <printf+0x33>
      33:	ff d0                	call   *%rax
      35:	48 89 c1             	mov    %rax,%rcx
      38:	48 8b 45 20          	mov    0x20(%rbp),%rax
      3c:	49 89 d8             	mov    %rbx,%r8
      3f:	48 89 c2             	mov    %rax,%rdx
      42:	e8 00 00 00 00       	call   47 <printf+0x47>
      47:	89 45 fc             	mov    %eax,-0x4(%rbp)
      4a:	8b 45 fc             	mov    -0x4(%rbp),%eax
      4d:	48 83 c4 38          	add    $0x38,%rsp
      51:	5b                   	pop    %rbx
      52:	5d                   	pop    %rbp
      53:	c3                   	ret

0000000000000054 <pdsp_stopwatch_start>:
      54:	55                   	push   %rbp
      55:	48 89 e5             	mov    %rsp,%rbp
      58:	48 83 ec 20          	sub    $0x20,%rsp
      5c:	48 89 4d 10          	mov    %rcx,0x10(%rbp)
      60:	89 55 18             	mov    %edx,0x18(%rbp)
      63:	48 83 7d 10 00       	cmpq   $0x0,0x10(%rbp)
      68:	75 1f                	jne    89 <pdsp_stopwatch_start+0x35>
      6a:	41 b8 55 00 00 00    	mov    $0x55,%r8d
      70:	48 8d 05 20 00 00 00 	lea    0x20(%rip),%rax        # 97 <pdsp_stopwatch_start+0x43>
      77:	48 89 c2             	mov    %rax,%rdx
      7a:	48 8d 05 27 00 00 00 	lea    0x27(%rip),%rax        # a8 <pdsp_stopwatch_stop+0xc>
      81:	48 89 c1             	mov    %rax,%rcx
      84:	e8 77 ff ff ff       	call   0 <printf>
      89:	48 8b 45 10          	mov    0x10(%rbp),%rax
      8d:	48 8b 00             	mov    (%rax),%rax
      90:	8b 55 18             	mov    0x18(%rbp),%edx
      93:	89 10                	mov    %edx,(%rax)
      95:	90                   	nop
      96:	48 83 c4 20          	add    $0x20,%rsp
      9a:	5d                   	pop    %rbp
      9b:	c3                   	ret

000000000000009c <pdsp_stopwatch_stop>:
      9c:	55                   	push   %rbp
      9d:	48 89 e5             	mov    %rsp,%rbp
      a0:	48 83 ec 20          	sub    $0x20,%rsp
      a4:	48 89 4d 10          	mov    %rcx,0x10(%rbp)
      a8:	89 55 18             	mov    %edx,0x18(%rbp)
      ab:	48 83 7d 10 00       	cmpq   $0x0,0x10(%rbp)
      b0:	74 0c                	je     be <pdsp_stopwatch_stop+0x22>
      b2:	48 8b 45 10          	mov    0x10(%rbp),%rax
      b6:	48 8b 00             	mov    (%rax),%rax
      b9:	48 85 c0             	test   %rax,%rax
      bc:	75 1f                	jne    dd <pdsp_stopwatch_stop+0x41>
      be:	41 b8 5c 00 00 00    	mov    $0x5c,%r8d
      c4:	48 8d 05 20 00 00 00 	lea    0x20(%rip),%rax        # eb <pdsp_stopwatch_stop+0x4f>
      cb:	48 89 c2             	mov    %rax,%rdx
      ce:	48 8d 05 27 00 00 00 	lea    0x27(%rip),%rax        # fc <pdsp_stopwatch_stop+0x60>
      d5:	48 89 c1             	mov    %rax,%rcx
      d8:	e8 23 ff ff ff       	call   0 <printf>
      dd:	48 8b 45 10          	mov    0x10(%rbp),%rax
      e1:	48 8b 00             	mov    (%rax),%rax
      e4:	8b 00                	mov    (%rax),%eax
      e6:	3b 45 18             	cmp    0x18(%rbp),%eax
      e9:	73 10                	jae    fb <pdsp_stopwatch_stop+0x5f>
      eb:	48 8b 45 10          	mov    0x10(%rbp),%rax
      ef:	48 8b 00             	mov    (%rax),%rax
      f2:	8b 10                	mov    (%rax),%edx
      f4:	8b 45 18             	mov    0x18(%rbp),%eax
      f7:	29 d0                	sub    %edx,%eax
      f9:	eb 17                	jmp    112 <pdsp_stopwatch_stop+0x76>
      fb:	48 8b 45 10          	mov    0x10(%rbp),%rax
      ff:	48 8b 00             	mov    (%rax),%rax
     102:	8b 00                	mov    (%rax),%eax
     104:	8b 55 18             	mov    0x18(%rbp),%edx
     107:	29 c2                	sub    %eax,%edx
     109:	48 8b 45 10          	mov    0x10(%rbp),%rax
     10d:	8b 40 08             	mov    0x8(%rax),%eax
     110:	01 d0                	add    %edx,%eax
     112:	48 83 c4 20          	add    $0x20,%rsp
     116:	5d                   	pop    %rbp
     117:	c3                   	ret

0000000000000118 <pdsp_call_i16_func>:
     118:	55                   	push   %rbp
     119:	48 89 e5             	mov    %rsp,%rbp
     11c:	48 83 ec 20          	sub    $0x20,%rsp
     120:	48 89 4d 10          	mov    %rcx,0x10(%rbp)
     124:	48 89 55 18          	mov    %rdx,0x18(%rbp)
     128:	44 89 c0             	mov    %r8d,%eax
     12b:	4c 89 4d 28          	mov    %r9,0x28(%rbp)
     12f:	66 89 45 20          	mov    %ax,0x20(%rbp)
     133:	48 83 7d 10 00       	cmpq   $0x0,0x10(%rbp)
     138:	74 0e                	je     148 <pdsp_call_i16_func+0x30>
     13a:	48 83 7d 28 00       	cmpq   $0x0,0x28(%rbp)
     13f:	74 07                	je     148 <pdsp_call_i16_func+0x30>
     141:	48 83 7d 18 00       	cmpq   $0x0,0x18(%rbp)
     146:	75 1f                	jne    167 <pdsp_call_i16_func+0x4f>
     148:	41 b8 6c 00 00 00    	mov    $0x6c,%r8d
     14e:	48 8d 05 20 00 00 00 	lea    0x20(%rip),%rax        # 175 <pdsp_call_i16_func+0x5d>
     155:	48 89 c2             	mov    %rax,%rdx
     158:	48 8d 05 27 00 00 00 	lea    0x27(%rip),%rax        # 186 <pdsp_call_i16_func+0x6e>
     15f:	48 89 c1             	mov    %rax,%rcx
     162:	e8 99 fe ff ff       	call   0 <printf>
     167:	0f b7 45 20          	movzwl 0x20(%rbp),%eax
     16b:	48 8d 14 c5 00 00 00 	lea    0x0(,%rax,8),%rdx
     172:	00 
     173:	48 8b 45 10          	mov    0x10(%rbp),%rax
     177:	48 01 d0             	add    %rdx,%rax
     17a:	48 8b 00             	mov    (%rax),%rax
     17d:	48 85 c0             	test   %rax,%rax
     180:	74 30                	je     1b2 <pdsp_call_i16_func+0x9a>
     182:	0f b7 45 20          	movzwl 0x20(%rbp),%eax
     186:	48 3b 45 18          	cmp    0x18(%rbp),%rax
     18a:	73 26                	jae    1b2 <pdsp_call_i16_func+0x9a>
     18c:	0f b7 45 20          	movzwl 0x20(%rbp),%eax
     190:	48 8d 14 c5 00 00 00 	lea    0x0(,%rax,8),%rdx
     197:	00 
     198:	48 8b 45 10          	mov    0x10(%rbp),%rax
     19c:	48 01 d0             	add    %rdx,%rax
     19f:	48 8b 00             	mov    (%rax),%rax
     1a2:	ff d0                	call   *%rax
     1a4:	48 8b 55 28          	mov    0x28(%rbp),%rdx
     1a8:	66 89 02             	mov    %ax,(%rdx)
     1ab:	b8 00 00 00 00       	mov    $0x0,%eax
     1b0:	eb 05                	jmp    1b7 <pdsp_call_i16_func+0x9f>
     1b2:	b8 02 00 00 00       	mov    $0x2,%eax
     1b7:	48 83 c4 20          	add    $0x20,%rsp
     1bb:	5d                   	pop    %rbp
     1bc:	c3                   	ret

00000000000001bd <pdsp_srec_encode>:
     1bd:	55                   	push   %rbp
     1be:	48 89 e5             	mov    %rsp,%rbp
     1c1:	48 83 ec 20          	sub    $0x20,%rsp
     1c5:	48 89 4d 10          	mov    %rcx,0x10(%rbp)
     1c9:	48 89 55 18          	mov    %rdx,0x18(%rbp)
     1cd:	48 83 7d 10 00       	cmpq   $0x0,0x10(%rbp)
     1d2:	74 07                	je     1db <pdsp_srec_encode+0x1e>
     1d4:	48 83 7d 18 00       	cmpq   $0x0,0x18(%rbp)
     1d9:	75 1f                	jne    1fa <pdsp_srec_encode+0x3d>
     1db:	41 b8 79 00 00 00    	mov    $0x79,%r8d
     1e1:	48 8d 05 20 00 00 00 	lea    0x20(%rip),%rax        # 208 <pdsp_i16_to_string+0x4>
     1e8:	48 89 c2             	mov    %rax,%rdx
     1eb:	48 8d 05 27 00 00 00 	lea    0x27(%rip),%rax        # 219 <pdsp_i16_to_string+0x15>
     1f2:	48 89 c1             	mov    %rax,%rcx
     1f5:	e8 06 fe ff ff       	call   0 <printf>
     1fa:	48 8b 45 10          	mov    0x10(%rbp),%rax
     1fe:	48 83 c4 20          	add    $0x20,%rsp
     202:	5d                   	pop    %rbp
     203:	c3                   	ret

0000000000000204 <pdsp_i16_to_string>:
     204:	55                   	push   %rbp
     205:	48 89 e5             	mov    %rsp,%rbp
     208:	48 83 ec 30          	sub    $0x30,%rsp
     20c:	89 c8                	mov    %ecx,%eax
     20e:	48 89 55 18          	mov    %rdx,0x18(%rbp)
     212:	66 89 45 10          	mov    %ax,0x10(%rbp)
     216:	66 c7 45 fe 05 00    	movw   $0x5,-0x2(%rbp)
     21c:	66 c7 45 fa 00 00    	movw   $0x0,-0x6(%rbp)
     222:	c6 45 fd 00          	movb   $0x0,-0x3(%rbp)
     226:	48 83 7d 18 00       	cmpq   $0x0,0x18(%rbp)
     22b:	75 1f                	jne    24c <pdsp_i16_to_string+0x48>
     22d:	41 b8 ca 00 00 00    	mov    $0xca,%r8d
     233:	48 8d 05 20 00 00 00 	lea    0x20(%rip),%rax        # 25a <pdsp_i16_to_string+0x56>
     23a:	48 89 c2             	mov    %rax,%rdx
     23d:	48 8d 05 27 00 00 00 	lea    0x27(%rip),%rax        # 26b <pdsp_i16_to_string+0x67>
     244:	48 89 c1             	mov    %rax,%rcx
     247:	e8 b4 fd ff ff       	call   0 <printf>
     24c:	66 81 7d 10 00 80    	cmpw   $0x8000,0x10(%rbp)
     252:	75 06                	jne    25a <pdsp_i16_to_string+0x56>
     254:	66 c7 45 10 01 80    	movw   $0x8001,0x10(%rbp)
     25a:	66 83 7d 10 00       	cmpw   $0x0,0x10(%rbp)
     25f:	79 0e                	jns    26f <pdsp_i16_to_string+0x6b>
     261:	0f b7 45 10          	movzwl 0x10(%rbp),%eax
     265:	f7 d8                	neg    %eax
     267:	66 89 45 10          	mov    %ax,0x10(%rbp)
     26b:	c6 45 fd 01          	movb   $0x1,-0x3(%rbp)
     26f:	66 83 7d 10 00       	cmpw   $0x0,0x10(%rbp)
     274:	0f 85 67 01 00 00    	jne    3e1 <pdsp_i16_to_string+0x1dd>
     27a:	0f b7 45 fe          	movzwl -0x2(%rbp),%eax
     27e:	89 c2                	mov    %eax,%edx
     280:	83 ea 01             	sub    $0x1,%edx
     283:	66 89 55 fe          	mov    %dx,-0x2(%rbp)
     287:	48 0f bf d0          	movswq %ax,%rdx
     28b:	48 8b 45 18          	mov    0x18(%rbp),%rax
     28f:	48 01 d0             	add    %rdx,%rax
     292:	c6 00 30             	movb   $0x30,(%rax)
     295:	0f b7 45 fe          	movzwl -0x2(%rbp),%eax
     299:	89 c2                	mov    %eax,%edx
     29b:	83 ea 01             	sub    $0x1,%edx
     29e:	66 89 55 fe          	mov    %dx,-0x2(%rbp)
     2a2:	48 0f bf d0          	movswq %ax,%rdx
     2a6:	48 8b 45 18          	mov    0x18(%rbp),%rax
     2aa:	48 01 d0             	add    %rdx,%rax
     2ad:	c6 00 20             	movb   $0x20,(%rax)
     2b0:	0f b7 45 fe          	movzwl -0x2(%rbp),%eax
     2b4:	89 c2                	mov    %eax,%edx
     2b6:	83 ea 01             	sub    $0x1,%edx
     2b9:	66 89 55 fe          	mov    %dx,-0x2(%rbp)
     2bd:	48 0f bf d0          	movswq %ax,%rdx
     2c1:	48 8b 45 18          	mov    0x18(%rbp),%rax
     2c5:	48 01 d0             	add    %rdx,%rax
     2c8:	c6 00 20             	movb   $0x20,(%rax)
     2cb:	0f b7 45 fe          	movzwl -0x2(%rbp),%eax
     2cf:	89 c2                	mov    %eax,%edx
     2d1:	83 ea 01             	sub    $0x1,%edx
     2d4:	66 89 55 fe          	mov    %dx,-0x2(%rbp)
     2d8:	48 0f bf d0          	movswq %ax,%rdx
     2dc:	48 8b 45 18          	mov    0x18(%rbp),%rax
     2e0:	48 01 d0             	add    %rdx,%rax
     2e3:	c6 00 20             	movb   $0x20,(%rax)
     2e6:	0f b7 45 fe          	movzwl -0x2(%rbp),%eax
     2ea:	89 c2                	mov    %eax,%edx
     2ec:	83 ea 01             	sub    $0x1,%edx
     2ef:	66 89 55 fe          	mov    %dx,-0x2(%rbp)
     2f3:	48 0f bf d0          	movswq %ax,%rdx
     2f7:	48 8b 45 18          	mov    0x18(%rbp),%rax
     2fb:	48 01 d0             	add    %rdx,%rax
     2fe:	c6 00 20             	movb   $0x20,(%rax)
     301:	0f b7 45 fe          	movzwl -0x2(%rbp),%eax
     305:	89 c2                	mov    %eax,%edx
     307:	83 ea 01             	sub    $0x1,%edx
     30a:	66 89 55 fe          	mov    %dx,-0x2(%rbp)
     30e:	48 0f bf d0          	movswq %ax,%rdx
     312:	48 8b 45 18          	mov    0x18(%rbp),%rax
     316:	48 01 d0             	add    %rdx,%rax
     319:	c6 00 20             	movb   $0x20,(%rax)
     31c:	e9 cb 00 00 00       	jmp    3ec <pdsp_i16_to_string+0x1e8>
     321:	66 83 7d 10 00       	cmpw   $0x0,0x10(%rbp)
     326:	74 77                	je     39f <pdsp_i16_to_string+0x19b>
     328:	0f b7 55 10          	movzwl 0x10(%rbp),%edx
     32c:	0f bf c2             	movswl %dx,%eax
     32f:	69 c0 67 66 00 00    	imul   $0x6667,%eax,%eax
     335:	c1 e8 10             	shr    $0x10,%eax
     338:	66 c1 f8 02          	sar    $0x2,%ax
     33c:	41 89 d0             	mov    %edx,%r8d
     33f:	66 41 c1 f8 0f       	sar    $0xf,%r8w
     344:	44 29 c0             	sub    %r8d,%eax
     347:	89 c1                	mov    %eax,%ecx
     349:	89 c8                	mov    %ecx,%eax
     34b:	c1 e0 02             	shl    $0x2,%eax
     34e:	01 c8                	add    %ecx,%eax
     350:	01 c0                	add    %eax,%eax
     352:	29 c2                	sub    %eax,%edx
     354:	66 89 55 fa          	mov    %dx,-0x6(%rbp)
     358:	0f b7 45 fa          	movzwl -0x6(%rbp),%eax
     35c:	8d 48 30             	lea    0x30(%rax),%ecx
     35f:	0f b7 45 fe          	movzwl -0x2(%rbp),%eax
     363:	89 c2                	mov    %eax,%edx
     365:	83 ea 01             	sub    $0x1,%edx
     368:	66 89 55 fe          	mov    %dx,-0x2(%rbp)
     36c:	48 0f bf d0          	movswq %ax,%rdx
     370:	48 8b 45 18          	mov    0x18(%rbp),%rax
     374:	48 01 d0             	add    %rdx,%rax
     377:	89 ca                	mov    %ecx,%edx
     379:	88 10                	mov    %dl,(%rax)
     37b:	0f b7 45 10          	movzwl 0x10(%rbp),%eax
     37f:	0f bf d0             	movswl %ax,%edx
     382:	69 d2 67 66 00 00    	imul   $0x6667,%edx,%edx
     388:	c1 ea 10             	shr    $0x10,%edx
     38b:	66 c1 fa 02          	sar    $0x2,%dx
     38f:	66 c1 f8 0f          	sar    $0xf,%ax
     393:	89 c1                	mov    %eax,%ecx
     395:	89 d0                	mov    %edx,%eax
     397:	29 c8                	sub    %ecx,%eax
     399:	66 89 45 10          	mov    %ax,0x10(%rbp)
     39d:	eb 42                	jmp    3e1 <pdsp_i16_to_string+0x1dd>
     39f:	80 7d fd 00          	cmpb   $0x0,-0x3(%rbp)
     3a3:	74 21                	je     3c6 <pdsp_i16_to_string+0x1c2>
     3a5:	0f b7 45 fe          	movzwl -0x2(%rbp),%eax
     3a9:	89 c2                	mov    %eax,%edx
     3ab:	83 ea 01             	sub    $0x1,%edx
     3ae:	66 89 55 fe          	mov    %dx,-0x2(%rbp)
     3b2:	48 0f bf d0          	movswq %ax,%rdx
     3b6:	48 8b 45 18          	mov    0x18(%rbp),%rax
     3ba:	48 01 d0             	add    %rdx,%rax
     3bd:	c6 00 2d             	movb   $0x2d,(%rax)
     3c0:	c6 45 fd 00          	movb   $0x0,-0x3(%rbp)
     3c4:	eb 1b                	jmp    3e1 <pdsp_i16_to_string+0x1dd>
     3c6:	0f b7 45 fe          	movzwl -0x2(%rbp),%eax
     3ca:	89 c2                	mov    %eax,%edx
     3cc:	83 ea 01             	sub    $0x1,%edx
     3cf:	66 89 55 fe          	mov    %dx,-0x2(%rbp)
     3d3:	48 0f bf d0          	movswq %ax,%rdx
     3d7:	48 8b 45 18          	mov    0x18(%rbp),%rax
     3db:	48 01 d0             	add    %rdx,%rax
     3de:	c6 00 20             	movb   $0x20,(%rax)
     3e1:	66 83 7d fe 00       	cmpw   $0x0,-0x2(%rbp)
     3e6:	0f 89 35 ff ff ff    	jns    321 <pdsp_i16_to_string+0x11d>
     3ec:	48 8b 45 18          	mov    0x18(%rbp),%rax
     3f0:	48 83 c0 06          	add    $0x6,%rax
     3f4:	48 83 c4 30          	add    $0x30,%rsp
     3f8:	5d                   	pop    %rbp
     3f9:	c3                   	ret

00000000000003fa <pdsp_u8_to_base16>:
     3fa:	55                   	push   %rbp
     3fb:	48 89 e5             	mov    %rsp,%rbp
     3fe:	48 83 ec 20          	sub    $0x20,%rsp
     402:	48 89 4d 10          	mov    %rcx,0x10(%rbp)
     406:	48 89 55 18          	mov    %rdx,0x18(%rbp)
     40a:	4c 89 45 20          	mov    %r8,0x20(%rbp)
     40e:	48 83 7d 10 00       	cmpq   $0x0,0x10(%rbp)
     413:	74 0b                	je     420 <pdsp_u8_to_base16+0x26>
     415:	48 83 7d 18 00       	cmpq   $0x0,0x18(%rbp)
     41a:	0f 85 87 00 00 00    	jne    4a7 <pdsp_u8_to_base16+0xad>
     420:	41 b8 00 01 00 00    	mov    $0x100,%r8d
     426:	48 8d 05 20 00 00 00 	lea    0x20(%rip),%rax        # 44d <pdsp_u8_to_base16+0x53>
     42d:	48 89 c2             	mov    %rax,%rdx
     430:	48 8d 05 27 00 00 00 	lea    0x27(%rip),%rax        # 45e <pdsp_u8_to_base16+0x64>
     437:	48 89 c1             	mov    %rax,%rcx
     43a:	e8 c1 fb ff ff       	call   0 <printf>
     43f:	eb 66                	jmp    4a7 <pdsp_u8_to_base16+0xad>
     441:	48 8b 45 18          	mov    0x18(%rbp),%rax
     445:	0f b6 00             	movzbl (%rax),%eax
     448:	c0 e8 04             	shr    $0x4,%al
     44b:	0f b6 c0             	movzbl %al,%eax
     44e:	83 e0 0f             	and    $0xf,%eax
     451:	89 c1                	mov    %eax,%ecx
     453:	48 8b 45 10          	mov    0x10(%rbp),%rax
     457:	48 8d 50 01          	lea    0x1(%rax),%rdx
     45b:	48 89 55 10          	mov    %rdx,0x10(%rbp)
     45f:	48 63 d1             	movslq %ecx,%rdx
     462:	48 8d 0d 00 00 00 00 	lea    0x0(%rip),%rcx        # 469 <pdsp_u8_to_base16+0x6f>
     469:	0f b6 14 0a          	movzbl (%rdx,%rcx,1),%edx
     46d:	88 10                	mov    %dl,(%rax)
     46f:	48 8b 45 18          	mov    0x18(%rbp),%rax
     473:	48 8d 50 01          	lea    0x1(%rax),%rdx
     477:	48 89 55 18          	mov    %rdx,0x18(%rbp)
     47b:	0f b6 00             	movzbl (%rax),%eax
     47e:	0f b6 c0             	movzbl %al,%eax
     481:	83 e0 0f             	and    $0xf,%eax
     484:	89 c1                	mov    %eax,%ecx
     486:	48 8b 45 10          	mov    0x10(%rbp),%rax
     48a:	48 8d 50 01          	lea    0x1(%rax),%rdx
     48e:	48 89 55 10          	mov    %rdx,0x10(%rbp)
     492:	48 63 d1             	movslq %ecx,%rdx
     495:	48 8d 0d 00 00 00 00 	lea    0x0(%rip),%rcx        # 49c <pdsp_u8_to_base16+0xa2>
     49c:	0f b6 14 0a          	movzbl (%rdx,%rcx,1),%edx
     4a0:	88 10                	mov    %dl,(%rax)
     4a2:	48 83 6d 20 01       	subq   $0x1,0x20(%rbp)
     4a7:	48 83 7d 20 00       	cmpq   $0x0,0x20(%rbp)
     4ac:	75 93                	jne    441 <pdsp_u8_to_base16+0x47>
     4ae:	48 8b 45 10          	mov    0x10(%rbp),%rax
     4b2:	48 83 c4 20          	add    $0x20,%rsp
     4b6:	5d                   	pop    %rbp
     4b7:	c3                   	ret

00000000000004b8 <pdsp_u16_to_base16>:
     4b8:	55                   	push   %rbp
     4b9:	48 89 e5             	mov    %rsp,%rbp
     4bc:	48 83 ec 20          	sub    $0x20,%rsp
     4c0:	48 89 4d 10          	mov    %rcx,0x10(%rbp)
     4c4:	89 d0                	mov    %edx,%eax
     4c6:	66 89 45 18          	mov    %ax,0x18(%rbp)
     4ca:	48 83 7d 10 00       	cmpq   $0x0,0x10(%rbp)
     4cf:	75 1f                	jne    4f0 <pdsp_u16_to_base16+0x38>
     4d1:	41 b8 0b 01 00 00    	mov    $0x10b,%r8d
     4d7:	48 8d 05 20 00 00 00 	lea    0x20(%rip),%rax        # 4fe <pdsp_u16_to_base16+0x46>
     4de:	48 89 c2             	mov    %rax,%rdx
     4e1:	48 8d 05 27 00 00 00 	lea    0x27(%rip),%rax        # 50f <pdsp_u16_to_base16+0x57>
     4e8:	48 89 c1             	mov    %rax,%rcx
     4eb:	e8 10 fb ff ff       	call   0 <printf>
     4f0:	0f b7 45 18          	movzwl 0x18(%rbp),%eax
     4f4:	66 c1 e8 0c          	shr    $0xc,%ax
     4f8:	0f b7 c0             	movzwl %ax,%eax
     4fb:	83 e0 0f             	and    $0xf,%eax
     4fe:	89 c1                	mov    %eax,%ecx
     500:	48 8b 45 10          	mov    0x10(%rbp),%rax
     504:	48 8d 50 01          	lea    0x1(%rax),%rdx
     508:	48 89 55 10          	mov    %rdx,0x10(%rbp)
     50c:	48 63 d1             	movslq %ecx,%rdx
     50f:	48 8d 0d 00 00 00 00 	lea    0x0(%rip),%rcx        # 516 <pdsp_u16_to_base16+0x5e>
     516:	0f b6 14 0a          	movzbl (%rdx,%rcx,1),%edx
     51a:	88 10                	mov    %dl,(%rax)
     51c:	0f b7 45 18          	movzwl 0x18(%rbp),%eax
     520:	66 c1 e8 08          	shr    $0x8,%ax
     524:	0f b7 c0             	movzwl %ax,%eax
     527:	83 e0 0f             	and    $0xf,%eax
     52a:	89 c1                	mov    %eax,%ecx
     52c:	48 8b 45 10          	mov    0x10(%rbp),%rax
     530:	48 8d 50 01          	lea    0x1(%rax),%rdx
     534:	48 89 55 10          	mov    %rdx,0x10(%rbp)
     538:	48 63 d1             	movslq %ecx,%rdx
     53b:	48 8d 0d 00 00 00 00 	lea    0x0(%rip),%rcx        # 542 <pdsp_u16_to_base16+0x8a>
     542:	0f b6 14 0a          	movzbl (%rdx,%rcx,1),%edx
     546:	88 10                	mov    %dl,(%rax)
     548:	0f b7 45 18          	movzwl 0x18(%rbp),%eax
     54c:	66 c1 e8 04          	shr    $0x4,%ax
     550:	0f b7 c0             	movzwl %ax,%eax
     553:	83 e0 0f             	and    $0xf,%eax
     556:	89 c1                	mov    %eax,%ecx
     558:	48 8b 45 10          	mov    0x10(%rbp),%rax
     55c:	48 8d 50 01          	lea    0x1(%rax),%rdx
     560:	48 89 55 10          	mov    %rdx,0x10(%rbp)
     564:	48 63 d1             	movslq %ecx,%rdx
     567:	48 8d 0d 00 00 00 00 	lea    0x0(%rip),%rcx        # 56e <pdsp_u16_to_base16+0xb6>
     56e:	0f b6 14 0a          	movzbl (%rdx,%rcx,1),%edx
     572:	88 10                	mov    %dl,(%rax)
     574:	0f b7 45 18          	movzwl 0x18(%rbp),%eax
     578:	83 e0 0f             	and    $0xf,%eax
     57b:	89 c1                	mov    %eax,%ecx
     57d:	48 8b 45 10          	mov    0x10(%rbp),%rax
     581:	48 8d 50 01          	lea    0x1(%rax),%rdx
     585:	48 89 55 10          	mov    %rdx,0x10(%rbp)
     589:	48 63 d1             	movslq %ecx,%rdx
     58c:	48 8d 0d 00 00 00 00 	lea    0x0(%rip),%rcx        # 593 <pdsp_u16_to_base16+0xdb>
     593:	0f b6 14 0a          	movzbl (%rdx,%rcx,1),%edx
     597:	88 10                	mov    %dl,(%rax)
     599:	48 8b 45 10          	mov    0x10(%rbp),%rax
     59d:	48 83 c4 20          	add    $0x20,%rsp
     5a1:	5d                   	pop    %rbp
     5a2:	c3                   	ret

00000000000005a3 <pdsp_u32_to_base16>:
     5a3:	55                   	push   %rbp
     5a4:	48 89 e5             	mov    %rsp,%rbp
     5a7:	48 83 ec 20          	sub    $0x20,%rsp
     5ab:	48 89 4d 10          	mov    %rcx,0x10(%rbp)
     5af:	89 55 18             	mov    %edx,0x18(%rbp)
     5b2:	48 83 7d 10 00       	cmpq   $0x0,0x10(%rbp)
     5b7:	75 1f                	jne    5d8 <pdsp_u32_to_base16+0x35>
     5b9:	41 b8 15 01 00 00    	mov    $0x115,%r8d
     5bf:	48 8d 05 20 00 00 00 	lea    0x20(%rip),%rax        # 5e6 <pdsp_u32_to_base16+0x43>
     5c6:	48 89 c2             	mov    %rax,%rdx
     5c9:	48 8d 05 27 00 00 00 	lea    0x27(%rip),%rax        # 5f7 <pdsp_u32_to_base16+0x54>
     5d0:	48 89 c1             	mov    %rax,%rcx
     5d3:	e8 28 fa ff ff       	call   0 <printf>
     5d8:	8b 45 18             	mov    0x18(%rbp),%eax
     5db:	c1 e8 1c             	shr    $0x1c,%eax
     5de:	89 c1                	mov    %eax,%ecx
     5e0:	48 8b 45 10          	mov    0x10(%rbp),%rax
     5e4:	48 8d 50 01          	lea    0x1(%rax),%rdx
     5e8:	48 89 55 10          	mov    %rdx,0x10(%rbp)
     5ec:	89 c9                	mov    %ecx,%ecx
     5ee:	48 8d 15 00 00 00 00 	lea    0x0(%rip),%rdx        # 5f5 <pdsp_u32_to_base16+0x52>
     5f5:	0f b6 14 11          	movzbl (%rcx,%rdx,1),%edx
     5f9:	88 10                	mov    %dl,(%rax)
     5fb:	8b 45 18             	mov    0x18(%rbp),%eax
     5fe:	c1 e8 18             	shr    $0x18,%eax
     601:	83 e0 0f             	and    $0xf,%eax
     604:	89 c1                	mov    %eax,%ecx
     606:	48 8b 45 10          	mov    0x10(%rbp),%rax
     60a:	48 8d 50 01          	lea    0x1(%rax),%rdx
     60e:	48 89 55 10          	mov    %rdx,0x10(%rbp)
     612:	89 c9                	mov    %ecx,%ecx
     614:	48 8d 15 00 00 00 00 	lea    0x0(%rip),%rdx        # 61b <pdsp_u32_to_base16+0x78>
     61b:	0f b6 14 11          	movzbl (%rcx,%rdx,1),%edx
     61f:	88 10                	mov    %dl,(%rax)
     621:	8b 45 18             	mov    0x18(%rbp),%eax
     624:	c1 e8 14             	shr    $0x14,%eax
     627:	83 e0 0f             	and    $0xf,%eax
     62a:	89 c1                	mov    %eax,%ecx
     62c:	48 8b 45 10          	mov    0x10(%rbp),%rax
     630:	48 8d 50 01          	lea    0x1(%rax),%rdx
     634:	48 89 55 10          	mov    %rdx,0x10(%rbp)
     638:	89 c9                	mov    %ecx,%ecx
     63a:	48 8d 15 00 00 00 00 	lea    0x0(%rip),%rdx        # 641 <pdsp_u32_to_base16+0x9e>
     641:	0f b6 14 11          	movzbl (%rcx,%rdx,1),%edx
     645:	88 10                	mov    %dl,(%rax)
     647:	8b 45 18             	mov    0x18(%rbp),%eax
     64a:	c1 e8 10             	shr    $0x10,%eax
     64d:	83 e0 0f             	and    $0xf,%eax
     650:	89 c1                	mov    %eax,%ecx
     652:	48 8b 45 10          	mov    0x10(%rbp),%rax
     656:	48 8d 50 01          	lea    0x1(%rax),%rdx
     65a:	48 89 55 10          	mov    %rdx,0x10(%rbp)
     65e:	89 c9                	mov    %ecx,%ecx
     660:	48 8d 15 00 00 00 00 	lea    0x0(%rip),%rdx        # 667 <pdsp_u32_to_base16+0xc4>
     667:	0f b6 14 11          	movzbl (%rcx,%rdx,1),%edx
     66b:	88 10                	mov    %dl,(%rax)
     66d:	8b 45 18             	mov    0x18(%rbp),%eax
     670:	c1 e8 0c             	shr    $0xc,%eax
     673:	83 e0 0f             	and    $0xf,%eax
     676:	89 c1                	mov    %eax,%ecx
     678:	48 8b 45 10          	mov    0x10(%rbp),%rax
     67c:	48 8d 50 01          	lea    0x1(%rax),%rdx
     680:	48 89 55 10          	mov    %rdx,0x10(%rbp)
     684:	89 c9                	mov    %ecx,%ecx
     686:	48 8d 15 00 00 00 00 	lea    0x0(%rip),%rdx        # 68d <pdsp_u32_to_base16+0xea>
     68d:	0f b6 14 11          	movzbl (%rcx,%rdx,1),%edx
     691:	88 10                	mov    %dl,(%rax)
     693:	8b 45 18             	mov    0x18(%rbp),%eax
     696:	c1 e8 08             	shr    $0x8,%eax
     699:	83 e0 0f             	and    $0xf,%eax
     69c:	89 c1                	mov    %eax,%ecx
     69e:	48 8b 45 10          	mov    0x10(%rbp),%rax
     6a2:	48 8d 50 01          	lea    0x1(%rax),%rdx
     6a6:	48 89 55 10          	mov    %rdx,0x10(%rbp)
     6aa:	89 c9                	mov    %ecx,%ecx
     6ac:	48 8d 15 00 00 00 00 	lea    0x0(%rip),%rdx        # 6b3 <pdsp_u32_to_base16+0x110>
     6b3:	0f b6 14 11          	movzbl (%rcx,%rdx,1),%edx
     6b7:	88 10                	mov    %dl,(%rax)
     6b9:	8b 45 18             	mov    0x18(%rbp),%eax
     6bc:	c1 e8 04             	shr    $0x4,%eax
     6bf:	83 e0 0f             	and    $0xf,%eax
     6c2:	89 c1                	mov    %eax,%ecx
     6c4:	48 8b 45 10          	mov    0x10(%rbp),%rax
     6c8:	48 8d 50 01          	lea    0x1(%rax),%rdx
     6cc:	48 89 55 10          	mov    %rdx,0x10(%rbp)
     6d0:	89 c9                	mov    %ecx,%ecx
     6d2:	48 8d 15 00 00 00 00 	lea    0x0(%rip),%rdx        # 6d9 <pdsp_u32_to_base16+0x136>
     6d9:	0f b6 14 11          	movzbl (%rcx,%rdx,1),%edx
     6dd:	88 10                	mov    %dl,(%rax)
     6df:	8b 45 18             	mov    0x18(%rbp),%eax
     6e2:	83 e0 0f             	and    $0xf,%eax
     6e5:	89 c1                	mov    %eax,%ecx
     6e7:	48 8b 45 10          	mov    0x10(%rbp),%rax
     6eb:	48 8d 50 01          	lea    0x1(%rax),%rdx
     6ef:	48 89 55 10          	mov    %rdx,0x10(%rbp)
     6f3:	89 c9                	mov    %ecx,%ecx
     6f5:	48 8d 15 00 00 00 00 	lea    0x0(%rip),%rdx        # 6fc <pdsp_u32_to_base16+0x159>
     6fc:	0f b6 14 11          	movzbl (%rcx,%rdx,1),%edx
     700:	88 10                	mov    %dl,(%rax)
     702:	48 8b 45 10          	mov    0x10(%rbp),%rax
     706:	48 83 c4 20          	add    $0x20,%rsp
     70a:	5d                   	pop    %rbp
     70b:	c3                   	ret

000000000000070c <pdsp_u64_to_base16>:
     70c:	55                   	push   %rbp
     70d:	48 89 e5             	mov    %rsp,%rbp
     710:	48 83 ec 20          	sub    $0x20,%rsp
     714:	48 89 4d 10          	mov    %rcx,0x10(%rbp)
     718:	48 89 55 18          	mov    %rdx,0x18(%rbp)
     71c:	48 83 7d 10 00       	cmpq   $0x0,0x10(%rbp)
     721:	75 1f                	jne    742 <pdsp_u64_to_base16+0x36>
     723:	41 b8 23 01 00 00    	mov    $0x123,%r8d
     729:	48 8d 05 20 00 00 00 	lea    0x20(%rip),%rax        # 750 <pdsp_u64_to_base16+0x44>
     730:	48 89 c2             	mov    %rax,%rdx
     733:	48 8d 05 27 00 00 00 	lea    0x27(%rip),%rax        # 761 <pdsp_u64_to_base16+0x55>
     73a:	48 89 c1             	mov    %rax,%rcx
     73d:	e8 be f8 ff ff       	call   0 <printf>
     742:	48 8b 45 18          	mov    0x18(%rbp),%rax
     746:	48 c1 e8 20          	shr    $0x20,%rax
     74a:	89 c2                	mov    %eax,%edx
     74c:	48 8b 45 10          	mov    0x10(%rbp),%rax
     750:	48 89 c1             	mov    %rax,%rcx
     753:	e8 4b fe ff ff       	call   5a3 <pdsp_u32_to_base16>
     758:	48 89 45 10          	mov    %rax,0x10(%rbp)
     75c:	48 8b 45 18          	mov    0x18(%rbp),%rax
     760:	89 c2                	mov    %eax,%edx
     762:	48 8b 45 10          	mov    0x10(%rbp),%rax
     766:	48 89 c1             	mov    %rax,%rcx
     769:	e8 35 fe ff ff       	call   5a3 <pdsp_u32_to_base16>
     76e:	48 89 45 10          	mov    %rax,0x10(%rbp)
     772:	48 8b 45 10          	mov    0x10(%rbp),%rax
     776:	48 83 c4 20          	add    $0x20,%rsp
     77a:	5d                   	pop    %rbp
     77b:	c3                   	ret

000000000000077c <pdsp_u16_to_base64>:
     77c:	55                   	push   %rbp
     77d:	48 89 e5             	mov    %rsp,%rbp
     780:	48 83 ec 20          	sub    $0x20,%rsp
     784:	48 89 4d 10          	mov    %rcx,0x10(%rbp)
     788:	89 d0                	mov    %edx,%eax
     78a:	66 89 45 18          	mov    %ax,0x18(%rbp)
     78e:	48 83 7d 10 00       	cmpq   $0x0,0x10(%rbp)
     793:	75 1f                	jne    7b4 <pdsp_u16_to_base64+0x38>
     795:	41 b8 2b 01 00 00    	mov    $0x12b,%r8d
     79b:	48 8d 05 20 00 00 00 	lea    0x20(%rip),%rax        # 7c2 <pdsp_u16_to_base64+0x46>
     7a2:	48 89 c2             	mov    %rax,%rdx
     7a5:	48 8d 05 27 00 00 00 	lea    0x27(%rip),%rax        # 7d3 <pdsp_u16_to_base64+0x57>
     7ac:	48 89 c1             	mov    %rax,%rcx
     7af:	e8 4c f8 ff ff       	call   0 <printf>
     7b4:	0f b7 45 18          	movzwl 0x18(%rbp),%eax
     7b8:	66 c1 e8 0a          	shr    $0xa,%ax
     7bc:	0f b7 c0             	movzwl %ax,%eax
     7bf:	83 e0 3f             	and    $0x3f,%eax
     7c2:	89 c1                	mov    %eax,%ecx
     7c4:	48 8b 45 10          	mov    0x10(%rbp),%rax
     7c8:	48 8d 50 01          	lea    0x1(%rax),%rdx
     7cc:	48 89 55 10          	mov    %rdx,0x10(%rbp)
     7d0:	48 63 d1             	movslq %ecx,%rdx
     7d3:	48 8d 0d 20 00 00 00 	lea    0x20(%rip),%rcx        # 7fa <pdsp_u16_to_base64+0x7e>
     7da:	0f b6 14 0a          	movzbl (%rdx,%rcx,1),%edx
     7de:	88 10                	mov    %dl,(%rax)
     7e0:	0f b7 45 18          	movzwl 0x18(%rbp),%eax
     7e4:	66 c1 e8 04          	shr    $0x4,%ax
     7e8:	0f b7 c0             	movzwl %ax,%eax
     7eb:	83 e0 3f             	and    $0x3f,%eax
     7ee:	89 c1                	mov    %eax,%ecx
     7f0:	48 8b 45 10          	mov    0x10(%rbp),%rax
     7f4:	48 8d 50 01          	lea    0x1(%rax),%rdx
     7f8:	48 89 55 10          	mov    %rdx,0x10(%rbp)
     7fc:	48 63 d1             	movslq %ecx,%rdx
     7ff:	48 8d 0d 20 00 00 00 	lea    0x20(%rip),%rcx        # 826 <pdsp_u16_to_base64+0xaa>
     806:	0f b6 14 0a          	movzbl (%rdx,%rcx,1),%edx
     80a:	88 10                	mov    %dl,(%rax)
     80c:	0f b7 45 18          	movzwl 0x18(%rbp),%eax
     810:	c1 e0 02             	shl    $0x2,%eax
     813:	83 e0 3f             	and    $0x3f,%eax
     816:	89 c1                	mov    %eax,%ecx
     818:	48 8b 45 10          	mov    0x10(%rbp),%rax
     81c:	48 8d 50 01          	lea    0x1(%rax),%rdx
     820:	48 89 55 10          	mov    %rdx,0x10(%rbp)
     824:	48 63 d1             	movslq %ecx,%rdx
     827:	48 8d 0d 20 00 00 00 	lea    0x20(%rip),%rcx        # 84e <pdsp_u32_to_base64+0x10>
     82e:	0f b6 14 0a          	movzbl (%rdx,%rcx,1),%edx
     832:	88 10                	mov    %dl,(%rax)
     834:	48 8b 45 10          	mov    0x10(%rbp),%rax
     838:	48 83 c4 20          	add    $0x20,%rsp
     83c:	5d                   	pop    %rbp
     83d:	c3                   	ret

000000000000083e <pdsp_u32_to_base64>:
     83e:	55                   	push   %rbp
     83f:	48 89 e5             	mov    %rsp,%rbp
     842:	48 83 ec 20          	sub    $0x20,%rsp
     846:	48 89 4d 10          	mov    %rcx,0x10(%rbp)
     84a:	89 55 18             	mov    %edx,0x18(%rbp)
     84d:	48 83 7d 10 00       	cmpq   $0x0,0x10(%rbp)
     852:	75 1f                	jne    873 <pdsp_u32_to_base64+0x35>
     854:	41 b8 34 01 00 00    	mov    $0x134,%r8d
     85a:	48 8d 05 20 00 00 00 	lea    0x20(%rip),%rax        # 881 <pdsp_u32_to_base64+0x43>
     861:	48 89 c2             	mov    %rax,%rdx
     864:	48 8d 05 27 00 00 00 	lea    0x27(%rip),%rax        # 892 <pdsp_u32_to_base64+0x54>
     86b:	48 89 c1             	mov    %rax,%rcx
     86e:	e8 8d f7 ff ff       	call   0 <printf>
     873:	8b 45 18             	mov    0x18(%rbp),%eax
     876:	c1 e8 1a             	shr    $0x1a,%eax
     879:	89 c1                	mov    %eax,%ecx
     87b:	48 8b 45 10          	mov    0x10(%rbp),%rax
     87f:	48 8d 50 01          	lea    0x1(%rax),%rdx
     883:	48 89 55 10          	mov    %rdx,0x10(%rbp)
     887:	89 c9                	mov    %ecx,%ecx
     889:	48 8d 15 20 00 00 00 	lea    0x20(%rip),%rdx        # 8b0 <pdsp_u32_to_base64+0x72>
     890:	0f b6 14 11          	movzbl (%rcx,%rdx,1),%edx
     894:	88 10                	mov    %dl,(%rax)
     896:	8b 45 18             	mov    0x18(%rbp),%eax
     899:	c1 e8 14             	shr    $0x14,%eax
     89c:	83 e0 3f             	and    $0x3f,%eax
     89f:	89 c1                	mov    %eax,%ecx
     8a1:	48 8b 45 10          	mov    0x10(%rbp),%rax
     8a5:	48 8d 50 01          	lea    0x1(%rax),%rdx
     8a9:	48 89 55 10          	mov    %rdx,0x10(%rbp)
     8ad:	89 c9                	mov    %ecx,%ecx
     8af:	48 8d 15 20 00 00 00 	lea    0x20(%rip),%rdx        # 8d6 <pdsp_u32_to_base64+0x98>
     8b6:	0f b6 14 11          	movzbl (%rcx,%rdx,1),%edx
     8ba:	88 10                	mov    %dl,(%rax)
     8bc:	8b 45 18             	mov    0x18(%rbp),%eax
     8bf:	c1 e8 0e             	shr    $0xe,%eax
     8c2:	83 e0 3f             	and    $0x3f,%eax
     8c5:	89 c1                	mov    %eax,%ecx
     8c7:	48 8b 45 10          	mov    0x10(%rbp),%rax
     8cb:	48 8d 50 01          	lea    0x1(%rax),%rdx
     8cf:	48 89 55 10          	mov    %rdx,0x10(%rbp)
     8d3:	89 c9                	mov    %ecx,%ecx
     8d5:	48 8d 15 20 00 00 00 	lea    0x20(%rip),%rdx        # 8fc <pdsp_u32_to_base64+0xbe>
     8dc:	0f b6 14 11          	movzbl (%rcx,%rdx,1),%edx
     8e0:	88 10                	mov    %dl,(%rax)
     8e2:	8b 45 18             	mov    0x18(%rbp),%eax
     8e5:	c1 e8 08             	shr    $0x8,%eax
     8e8:	83 e0 3f             	and    $0x3f,%eax
     8eb:	89 c1                	mov    %eax,%ecx
     8ed:	48 8b 45 10          	mov    0x10(%rbp),%rax
     8f1:	48 8d 50 01          	lea    0x1(%rax),%rdx
     8f5:	48 89 55 10          	mov    %rdx,0x10(%rbp)
     8f9:	89 c9                	mov    %ecx,%ecx
     8fb:	48 8d 15 20 00 00 00 	lea    0x20(%rip),%rdx        # 922 <pdsp_u32_to_base64+0xe4>
     902:	0f b6 14 11          	movzbl (%rcx,%rdx,1),%edx
     906:	88 10                	mov    %dl,(%rax)
     908:	8b 45 18             	mov    0x18(%rbp),%eax
     90b:	c1 e8 02             	shr    $0x2,%eax
     90e:	83 e0 3f             	and    $0x3f,%eax
     911:	89 c1                	mov    %eax,%ecx
     913:	48 8b 45 10          	mov    0x10(%rbp),%rax
     917:	48 8d 50 01          	lea    0x1(%rax),%rdx
     91b:	48 89 55 10          	mov    %rdx,0x10(%rbp)
     91f:	89 c9                	mov    %ecx,%ecx
     921:	48 8d 15 20 00 00 00 	lea    0x20(%rip),%rdx        # 948 <pdsp_u32_to_base64+0x10a>
     928:	0f b6 14 11          	movzbl (%rcx,%rdx,1),%edx
     92c:	88 10                	mov    %dl,(%rax)
     92e:	8b 45 18             	mov    0x18(%rbp),%eax
     931:	c1 e0 04             	shl    $0x4,%eax
     934:	83 e0 3f             	and    $0x3f,%eax
     937:	89 c1                	mov    %eax,%ecx
     939:	48 8b 45 10          	mov    0x10(%rbp),%rax
     93d:	48 8d 50 01          	lea    0x1(%rax),%rdx
     941:	48 89 55 10          	mov    %rdx,0x10(%rbp)
     945:	89 c9                	mov    %ecx,%ecx
     947:	48 8d 15 20 00 00 00 	lea    0x20(%rip),%rdx        # 96e <pdsp_u64_to_base64+0x10>
     94e:	0f b6 14 11          	movzbl (%rcx,%rdx,1),%edx
     952:	88 10                	mov    %dl,(%rax)
     954:	48 8b 45 10          	mov    0x10(%rbp),%rax
     958:	48 83 c4 20          	add    $0x20,%rsp
     95c:	5d                   	pop    %rbp
     95d:	c3                   	ret

000000000000095e <pdsp_u64_to_base64>:
     95e:	55                   	push   %rbp
     95f:	48 89 e5             	mov    %rsp,%rbp
     962:	48 83 ec 20          	sub    $0x20,%rsp
     966:	48 89 4d 10          	mov    %rcx,0x10(%rbp)
     96a:	48 89 55 18          	mov    %rdx,0x18(%rbp)
     96e:	48 83 7d 10 00       	cmpq   $0x0,0x10(%rbp)
     973:	75 1f                	jne    994 <pdsp_u64_to_base64+0x36>
     975:	41 b8 40 01 00 00    	mov    $0x140,%r8d
     97b:	48 8d 05 20 00 00 00 	lea    0x20(%rip),%rax        # 9a2 <pdsp_u64_to_base64+0x44>
     982:	48 89 c2             	mov    %rax,%rdx
     985:	48 8d 05 27 00 00 00 	lea    0x27(%rip),%rax        # 9b3 <pdsp_u64_to_base64+0x55>
     98c:	48 89 c1             	mov    %rax,%rcx
     98f:	e8 6c f6 ff ff       	call   0 <printf>
     994:	48 8b 45 18          	mov    0x18(%rbp),%rax
     998:	48 c1 e8 3a          	shr    $0x3a,%rax
     99c:	48 89 c1             	mov    %rax,%rcx
     99f:	48 8b 45 10          	mov    0x10(%rbp),%rax
     9a3:	48 8d 50 01          	lea    0x1(%rax),%rdx
     9a7:	48 89 55 10          	mov    %rdx,0x10(%rbp)
     9ab:	48 8d 15 20 00 00 00 	lea    0x20(%rip),%rdx        # 9d2 <pdsp_u64_to_base64+0x74>
     9b2:	0f b6 14 11          	movzbl (%rcx,%rdx,1),%edx
     9b6:	88 10                	mov    %dl,(%rax)
     9b8:	48 8b 45 18          	mov    0x18(%rbp),%rax
     9bc:	48 c1 e8 34          	shr    $0x34,%rax
     9c0:	83 e0 3f             	and    $0x3f,%eax
     9c3:	48 89 c1             	mov    %rax,%rcx
     9c6:	48 8b 45 10          	mov    0x10(%rbp),%rax
     9ca:	48 8d 50 01          	lea    0x1(%rax),%rdx
     9ce:	48 89 55 10          	mov    %rdx,0x10(%rbp)
     9d2:	48 8d 15 20 00 00 00 	lea    0x20(%rip),%rdx        # 9f9 <pdsp_u64_to_base64+0x9b>
     9d9:	0f b6 14 11          	movzbl (%rcx,%rdx,1),%edx
     9dd:	88 10                	mov    %dl,(%rax)
     9df:	48 8b 45 18          	mov    0x18(%rbp),%rax
     9e3:	48 c1 e8 2e          	shr    $0x2e,%rax
     9e7:	83 e0 3f             	and    $0x3f,%eax
     9ea:	48 89 c1             	mov    %rax,%rcx
     9ed:	48 8b 45 10          	mov    0x10(%rbp),%rax
     9f1:	48 8d 50 01          	lea    0x1(%rax),%rdx
     9f5:	48 89 55 10          	mov    %rdx,0x10(%rbp)
     9f9:	48 8d 15 20 00 00 00 	lea    0x20(%rip),%rdx        # a20 <pdsp_u64_to_base64+0xc2>
     a00:	0f b6 14 11          	movzbl (%rcx,%rdx,1),%edx
     a04:	88 10                	mov    %dl,(%rax)
     a06:	48 8b 45 18          	mov    0x18(%rbp),%rax
     a0a:	48 c1 e8 28          	shr    $0x28,%rax
     a0e:	83 e0 3f             	and    $0x3f,%eax
     a11:	48 89 c1             	mov    %rax,%rcx
     a14:	48 8b 45 10          	mov    0x10(%rbp),%rax
     a18:	48 8d 50 01          	lea    0x1(%rax),%rdx
     a1c:	48 89 55 10          	mov    %rdx,0x10(%rbp)
     a20:	48 8d 15 20 00 00 00 	lea    0x20(%rip),%rdx        # a47 <pdsp_u64_to_base64+0xe9>
     a27:	0f b6 14 11          	movzbl (%rcx,%rdx,1),%edx
     a2b:	88 10                	mov    %dl,(%rax)
     a2d:	48 8b 45 18          	mov    0x18(%rbp),%rax
     a31:	48 c1 e8 22          	shr    $0x22,%rax
     a35:	83 e0 3f             	and    $0x3f,%eax
     a38:	48 89 c1             	mov    %rax,%rcx
     a3b:	48 8b 45 10          	mov    0x10(%rbp),%rax
     a3f:	48 8d 50 01          	lea    0x1(%rax),%rdx
     a43:	48 89 55 10          	mov    %rdx,0x10(%rbp)
     a47:	48 8d 15 20 00 00 00 	lea    0x20(%rip),%rdx        # a6e <pdsp_u64_to_base64+0x110>
     a4e:	0f b6 14 11          	movzbl (%rcx,%rdx,1),%edx
     a52:	88 10                	mov    %dl,(%rax)
     a54:	48 8b 45 18          	mov    0x18(%rbp),%rax
     a58:	48 c1 e8 1c          	shr    $0x1c,%rax
     a5c:	83 e0 3f             	and    $0x3f,%eax
     a5f:	48 89 c1             	mov    %rax,%rcx
     a62:	48 8b 45 10          	mov    0x10(%rbp),%rax
     a66:	48 8d 50 01          	lea    0x1(%rax),%rdx
     a6a:	48 89 55 10          	mov    %rdx,0x10(%rbp)
     a6e:	48 8d 15 20 00 00 00 	lea    0x20(%rip),%rdx        # a95 <pdsp_u64_to_base64+0x137>
     a75:	0f b6 14 11          	movzbl (%rcx,%rdx,1),%edx
     a79:	88 10                	mov    %dl,(%rax)
     a7b:	48 8b 45 18          	mov    0x18(%rbp),%rax
     a7f:	48 c1 e8 16          	shr    $0x16,%rax
     a83:	83 e0 3f             	and    $0x3f,%eax
     a86:	48 89 c1             	mov    %rax,%rcx
     a89:	48 8b 45 10          	mov    0x10(%rbp),%rax
     a8d:	48 8d 50 01          	lea    0x1(%rax),%rdx
     a91:	48 89 55 10          	mov    %rdx,0x10(%rbp)
     a95:	48 8d 15 20 00 00 00 	lea    0x20(%rip),%rdx        # abc <pdsp_u64_to_base64+0x15e>
     a9c:	0f b6 14 11          	movzbl (%rcx,%rdx,1),%edx
     aa0:	88 10                	mov    %dl,(%rax)
     aa2:	48 8b 45 18          	mov    0x18(%rbp),%rax
     aa6:	48 c1 e8 10          	shr    $0x10,%rax
     aaa:	83 e0 3f             	and    $0x3f,%eax
     aad:	48 89 c1             	mov    %rax,%rcx
     ab0:	48 8b 45 10          	mov    0x10(%rbp),%rax
     ab4:	48 8d 50 01          	lea    0x1(%rax),%rdx
     ab8:	48 89 55 10          	mov    %rdx,0x10(%rbp)
     abc:	48 8d 15 20 00 00 00 	lea    0x20(%rip),%rdx        # ae3 <pdsp_u64_to_base64+0x185>
     ac3:	0f b6 14 11          	movzbl (%rcx,%rdx,1),%edx
     ac7:	88 10                	mov    %dl,(%rax)
     ac9:	48 8b 45 18          	mov    0x18(%rbp),%rax
     acd:	48 c1 e8 0a          	shr    $0xa,%rax
     ad1:	83 e0 3f             	and    $0x3f,%eax
     ad4:	48 89 c1             	mov    %rax,%rcx
     ad7:	48 8b 45 10          	mov    0x10(%rbp),%rax
     adb:	48 8d 50 01          	lea    0x1(%rax),%rdx
     adf:	48 89 55 10          	mov    %rdx,0x10(%rbp)
     ae3:	48 8d 15 20 00 00 00 	lea    0x20(%rip),%rdx        # b0a <pdsp_u64_to_base64+0x1ac>
     aea:	0f b6 14 11          	movzbl (%rcx,%rdx,1),%edx
     aee:	88 10                	mov    %dl,(%rax)
     af0:	48 8b 45 18          	mov    0x18(%rbp),%rax
     af4:	48 c1 e8 04          	shr    $0x4,%rax
     af8:	83 e0 3f             	and    $0x3f,%eax
     afb:	48 89 c1             	mov    %rax,%rcx
     afe:	48 8b 45 10          	mov    0x10(%rbp),%rax
     b02:	48 8d 50 01          	lea    0x1(%rax),%rdx
     b06:	48 89 55 10          	mov    %rdx,0x10(%rbp)
     b0a:	48 8d 15 20 00 00 00 	lea    0x20(%rip),%rdx        # b31 <pdsp_u64_to_base64+0x1d3>
     b11:	0f b6 14 11          	movzbl (%rcx,%rdx,1),%edx
     b15:	88 10                	mov    %dl,(%rax)
     b17:	48 8b 45 18          	mov    0x18(%rbp),%rax
     b1b:	48 c1 e0 02          	shl    $0x2,%rax
     b1f:	83 e0 3f             	and    $0x3f,%eax
     b22:	48 89 c1             	mov    %rax,%rcx
     b25:	48 8b 45 10          	mov    0x10(%rbp),%rax
     b29:	48 8d 50 01          	lea    0x1(%rax),%rdx
     b2d:	48 89 55 10          	mov    %rdx,0x10(%rbp)
     b31:	48 8d 15 20 00 00 00 	lea    0x20(%rip),%rdx        # b58 <pdsp_u16_to_base16_alt+0x10>
     b38:	0f b6 14 11          	movzbl (%rcx,%rdx,1),%edx
     b3c:	88 10                	mov    %dl,(%rax)
     b3e:	48 8b 45 10          	mov    0x10(%rbp),%rax
     b42:	48 83 c4 20          	add    $0x20,%rsp
     b46:	5d                   	pop    %rbp
     b47:	c3                   	ret

0000000000000b48 <pdsp_u16_to_base16_alt>:
     b48:	55                   	push   %rbp
     b49:	48 89 e5             	mov    %rsp,%rbp
     b4c:	48 83 ec 20          	sub    $0x20,%rsp
     b50:	89 c8                	mov    %ecx,%eax
     b52:	48 89 55 18          	mov    %rdx,0x18(%rbp)
     b56:	44 89 c2             	mov    %r8d,%edx
     b59:	66 89 45 10          	mov    %ax,0x10(%rbp)
     b5d:	89 d0                	mov    %edx,%eax
     b5f:	88 45 20             	mov    %al,0x20(%rbp)
     b62:	48 83 7d 18 00       	cmpq   $0x0,0x18(%rbp)
     b67:	75 1f                	jne    b88 <pdsp_u16_to_base16_alt+0x40>
     b69:	41 b8 54 01 00 00    	mov    $0x154,%r8d
     b6f:	48 8d 05 20 00 00 00 	lea    0x20(%rip),%rax        # b96 <pdsp_u16_to_base16_alt+0x4e>
     b76:	48 89 c2             	mov    %rax,%rdx
     b79:	48 8d 05 27 00 00 00 	lea    0x27(%rip),%rax        # ba7 <pdsp_u16_to_base16_alt+0x5f>
     b80:	48 89 c1             	mov    %rax,%rcx
     b83:	e8 78 f4 ff ff       	call   0 <printf>
     b88:	0f b6 55 20          	movzbl 0x20(%rbp),%edx
     b8c:	66 81 7d 10 ff 0f    	cmpw   $0xfff,0x10(%rbp)
     b92:	0f 97 c0             	seta   %al
     b95:	0f b6 c0             	movzbl %al,%eax
     b98:	09 d0                	or     %edx,%eax
     b9a:	85 c0                	test   %eax,%eax
     b9c:	0f 84 0d 01 00 00    	je     caf <pdsp_u16_to_base16_alt+0x167>
     ba2:	0f b7 45 10          	movzwl 0x10(%rbp),%eax
     ba6:	66 c1 e8 0c          	shr    $0xc,%ax
     baa:	83 e0 0f             	and    $0xf,%eax
     bad:	88 05 00 00 00 00    	mov    %al,0x0(%rip)        # bb3 <pdsp_u16_to_base16_alt+0x6b>
     bb3:	0f b6 05 00 00 00 00 	movzbl 0x0(%rip),%eax        # bba <pdsp_u16_to_base16_alt+0x72>
     bba:	3c 09                	cmp    $0x9,%al
     bbc:	7e 07                	jle    bc5 <pdsp_u16_to_base16_alt+0x7d>
     bbe:	ba 37 00 00 00       	mov    $0x37,%edx
     bc3:	eb 05                	jmp    bca <pdsp_u16_to_base16_alt+0x82>
     bc5:	ba 30 00 00 00       	mov    $0x30,%edx
     bca:	0f b6 05 00 00 00 00 	movzbl 0x0(%rip),%eax        # bd1 <pdsp_u16_to_base16_alt+0x89>
     bd1:	8d 0c 02             	lea    (%rdx,%rax,1),%ecx
     bd4:	48 8b 45 18          	mov    0x18(%rbp),%rax
     bd8:	48 8d 50 01          	lea    0x1(%rax),%rdx
     bdc:	48 89 55 18          	mov    %rdx,0x18(%rbp)
     be0:	89 ca                	mov    %ecx,%edx
     be2:	88 10                	mov    %dl,(%rax)
     be4:	0f b7 45 10          	movzwl 0x10(%rbp),%eax
     be8:	66 c1 e8 08          	shr    $0x8,%ax
     bec:	83 e0 0f             	and    $0xf,%eax
     bef:	88 05 00 00 00 00    	mov    %al,0x0(%rip)        # bf5 <pdsp_u16_to_base16_alt+0xad>
     bf5:	0f b6 05 00 00 00 00 	movzbl 0x0(%rip),%eax        # bfc <pdsp_u16_to_base16_alt+0xb4>
     bfc:	3c 09                	cmp    $0x9,%al
     bfe:	7e 07                	jle    c07 <pdsp_u16_to_base16_alt+0xbf>
     c00:	ba 37 00 00 00       	mov    $0x37,%edx
     c05:	eb 05                	jmp    c0c <pdsp_u16_to_base16_alt+0xc4>
     c07:	ba 30 00 00 00       	mov    $0x30,%edx
     c0c:	0f b6 05 00 00 00 00 	movzbl 0x0(%rip),%eax        # c13 <pdsp_u16_to_base16_alt+0xcb>
     c13:	8d 0c 02             	lea    (%rdx,%rax,1),%ecx
     c16:	48 8b 45 18          	mov    0x18(%rbp),%rax
     c1a:	48 8d 50 01          	lea    0x1(%rax),%rdx
     c1e:	48 89 55 18          	mov    %rdx,0x18(%rbp)
     c22:	89 ca                	mov    %ecx,%edx
     c24:	88 10                	mov    %dl,(%rax)
     c26:	0f b7 45 10          	movzwl 0x10(%rbp),%eax
     c2a:	66 c1 e8 04          	shr    $0x4,%ax
     c2e:	83 e0 0f             	and    $0xf,%eax
     c31:	88 05 00 00 00 00    	mov    %al,0x0(%rip)        # c37 <pdsp_u16_to_base16_alt+0xef>
     c37:	0f b6 05 00 00 00 00 	movzbl 0x0(%rip),%eax        # c3e <pdsp_u16_to_base16_alt+0xf6>
     c3e:	3c 09                	cmp    $0x9,%al
     c40:	7e 07                	jle    c49 <pdsp_u16_to_base16_alt+0x101>
     c42:	ba 37 00 00 00       	mov    $0x37,%edx
     c47:	eb 05                	jmp    c4e <pdsp_u16_to_base16_alt+0x106>
     c49:	ba 30 00 00 00       	mov    $0x30,%edx
     c4e:	0f b6 05 00 00 00 00 	movzbl 0x0(%rip),%eax        # c55 <pdsp_u16_to_base16_alt+0x10d>
     c55:	8d 0c 02             	lea    (%rdx,%rax,1),%ecx
     c58:	48 8b 45 18          	mov    0x18(%rbp),%rax
     c5c:	48 8d 50 01          	lea    0x1(%rax),%rdx
     c60:	48 89 55 18          	mov    %rdx,0x18(%rbp)
     c64:	89 ca                	mov    %ecx,%edx
     c66:	88 10                	mov    %dl,(%rax)
     c68:	0f b7 45 10          	movzwl 0x10(%rbp),%eax
     c6c:	83 e0 0f             	and    $0xf,%eax
     c6f:	88 05 00 00 00 00    	mov    %al,0x0(%rip)        # c75 <pdsp_u16_to_base16_alt+0x12d>
     c75:	0f b6 05 00 00 00 00 	movzbl 0x0(%rip),%eax        # c7c <pdsp_u16_to_base16_alt+0x134>
     c7c:	3c 09                	cmp    $0x9,%al
     c7e:	7e 07                	jle    c87 <pdsp_u16_to_base16_alt+0x13f>
     c80:	ba 37 00 00 00       	mov    $0x37,%edx
     c85:	eb 05                	jmp    c8c <pdsp_u16_to_base16_alt+0x144>
     c87:	ba 30 00 00 00       	mov    $0x30,%edx
     c8c:	0f b6 05 00 00 00 00 	movzbl 0x0(%rip),%eax        # c93 <pdsp_u16_to_base16_alt+0x14b>
     c93:	8d 0c 02             	lea    (%rdx,%rax,1),%ecx
     c96:	48 8b 45 18          	mov    0x18(%rbp),%rax
     c9a:	48 8d 50 01          	lea    0x1(%rax),%rdx
     c9e:	48 89 55 18          	mov    %rdx,0x18(%rbp)
     ca2:	89 ca                	mov    %ecx,%edx
     ca4:	88 10                	mov    %dl,(%rax)
     ca6:	48 8b 45 18          	mov    0x18(%rbp),%rax
     caa:	e9 aa 01 00 00       	jmp    e59 <pdsp_u16_to_base16_alt+0x311>
     caf:	66 81 7d 10 ff 00    	cmpw   $0xff,0x10(%rbp)
     cb5:	0f 86 cb 00 00 00    	jbe    d86 <pdsp_u16_to_base16_alt+0x23e>
     cbb:	0f b7 45 10          	movzwl 0x10(%rbp),%eax
     cbf:	66 c1 e8 08          	shr    $0x8,%ax
     cc3:	83 e0 0f             	and    $0xf,%eax
     cc6:	88 05 00 00 00 00    	mov    %al,0x0(%rip)        # ccc <pdsp_u16_to_base16_alt+0x184>
     ccc:	0f b6 05 00 00 00 00 	movzbl 0x0(%rip),%eax        # cd3 <pdsp_u16_to_base16_alt+0x18b>
     cd3:	3c 09                	cmp    $0x9,%al
     cd5:	7e 07                	jle    cde <pdsp_u16_to_base16_alt+0x196>
     cd7:	ba 37 00 00 00       	mov    $0x37,%edx
     cdc:	eb 05                	jmp    ce3 <pdsp_u16_to_base16_alt+0x19b>
     cde:	ba 30 00 00 00       	mov    $0x30,%edx
     ce3:	0f b6 05 00 00 00 00 	movzbl 0x0(%rip),%eax        # cea <pdsp_u16_to_base16_alt+0x1a2>
     cea:	8d 0c 02             	lea    (%rdx,%rax,1),%ecx
     ced:	48 8b 45 18          	mov    0x18(%rbp),%rax
     cf1:	48 8d 50 01          	lea    0x1(%rax),%rdx
     cf5:	48 89 55 18          	mov    %rdx,0x18(%rbp)
     cf9:	89 ca                	mov    %ecx,%edx
     cfb:	88 10                	mov    %dl,(%rax)
     cfd:	0f b7 45 10          	movzwl 0x10(%rbp),%eax
     d01:	66 c1 e8 04          	shr    $0x4,%ax
     d05:	83 e0 0f             	and    $0xf,%eax
     d08:	88 05 00 00 00 00    	mov    %al,0x0(%rip)        # d0e <pdsp_u16_to_base16_alt+0x1c6>
     d0e:	0f b6 05 00 00 00 00 	movzbl 0x0(%rip),%eax        # d15 <pdsp_u16_to_base16_alt+0x1cd>
     d15:	3c 09                	cmp    $0x9,%al
     d17:	7e 07                	jle    d20 <pdsp_u16_to_base16_alt+0x1d8>
     d19:	ba 37 00 00 00       	mov    $0x37,%edx
     d1e:	eb 05                	jmp    d25 <pdsp_u16_to_base16_alt+0x1dd>
     d20:	ba 30 00 00 00       	mov    $0x30,%edx
     d25:	0f b6 05 00 00 00 00 	movzbl 0x0(%rip),%eax        # d2c <pdsp_u16_to_base16_alt+0x1e4>
     d2c:	8d 0c 02             	lea    (%rdx,%rax,1),%ecx
     d2f:	48 8b 45 18          	mov    0x18(%rbp),%rax
     d33:	48 8d 50 01          	lea    0x1(%rax),%rdx
     d37:	48 89 55 18          	mov    %rdx,0x18(%rbp)
     d3b:	89 ca                	mov    %ecx,%edx
     d3d:	88 10                	mov    %dl,(%rax)
     d3f:	0f b7 45 10          	movzwl 0x10(%rbp),%eax
     d43:	83 e0 0f             	and    $0xf,%eax
     d46:	88 05 00 00 00 00    	mov    %al,0x0(%rip)        # d4c <pdsp_u16_to_base16_alt+0x204>
     d4c:	0f b6 05 00 00 00 00 	movzbl 0x0(%rip),%eax        # d53 <pdsp_u16_to_base16_alt+0x20b>
     d53:	3c 09                	cmp    $0x9,%al
     d55:	7e 07                	jle    d5e <pdsp_u16_to_base16_alt+0x216>
     d57:	ba 37 00 00 00       	mov    $0x37,%edx
     d5c:	eb 05                	jmp    d63 <pdsp_u16_to_base16_alt+0x21b>
     d5e:	ba 30 00 00 00       	mov    $0x30,%edx
     d63:	0f b6 05 00 00 00 00 	movzbl 0x0(%rip),%eax        # d6a <pdsp_u16_to_base16_alt+0x222>
     d6a:	8d 0c 02             	lea    (%rdx,%rax,1),%ecx
     d6d:	48 8b 45 18          	mov    0x18(%rbp),%rax
     d71:	48 8d 50 01          	lea    0x1(%rax),%rdx
     d75:	48 89 55 18          	mov    %rdx,0x18(%rbp)
     d79:	89 ca                	mov    %ecx,%edx
     d7b:	88 10                	mov    %dl,(%rax)
     d7d:	48 8b 45 18          	mov    0x18(%rbp),%rax
     d81:	e9 d3 00 00 00       	jmp    e59 <pdsp_u16_to_base16_alt+0x311>
     d86:	66 83 7d 10 0f       	cmpw   $0xf,0x10(%rbp)
     d8b:	0f 86 86 00 00 00    	jbe    e17 <pdsp_u16_to_base16_alt+0x2cf>
     d91:	0f b7 45 10          	movzwl 0x10(%rbp),%eax
     d95:	66 c1 e8 04          	shr    $0x4,%ax
     d99:	83 e0 0f             	and    $0xf,%eax
     d9c:	88 05 00 00 00 00    	mov    %al,0x0(%rip)        # da2 <pdsp_u16_to_base16_alt+0x25a>
     da2:	0f b6 05 00 00 00 00 	movzbl 0x0(%rip),%eax        # da9 <pdsp_u16_to_base16_alt+0x261>
     da9:	3c 09                	cmp    $0x9,%al
     dab:	7e 07                	jle    db4 <pdsp_u16_to_base16_alt+0x26c>
     dad:	ba 37 00 00 00       	mov    $0x37,%edx
     db2:	eb 05                	jmp    db9 <pdsp_u16_to_base16_alt+0x271>
     db4:	ba 30 00 00 00       	mov    $0x30,%edx
     db9:	0f b6 05 00 00 00 00 	movzbl 0x0(%rip),%eax        # dc0 <pdsp_u16_to_base16_alt+0x278>
     dc0:	8d 0c 02             	lea    (%rdx,%rax,1),%ecx
     dc3:	48 8b 45 18          	mov    0x18(%rbp),%rax
     dc7:	48 8d 50 01          	lea    0x1(%rax),%rdx
     dcb:	48 89 55 18          	mov    %rdx,0x18(%rbp)
     dcf:	89 ca                	mov    %ecx,%edx
     dd1:	88 10                	mov    %dl,(%rax)
     dd3:	0f b7 45 10          	movzwl 0x10(%rbp),%eax
     dd7:	83 e0 0f             	and    $0xf,%eax
     dda:	88 05 00 00 00 00    	mov    %al,0x0(%rip)        # de0 <pdsp_u16_to_base16_alt+0x298>
     de0:	0f b6 05 00 00 00 00 	movzbl 0x0(%rip),%eax        # de7 <pdsp_u16_to_base16_alt+0x29f>
     de7:	3c 09                	cmp    $0x9,%al
     de9:	7e 07                	jle    df2 <pdsp_u16_to_base16_alt+0x2aa>
     deb:	ba 37 00 00 00       	mov    $0x37,%edx
     df0:	eb 05                	jmp    df7 <pdsp_u16_to_base16_alt+0x2af>
     df2:	ba 30 00 00 00       	mov    $0x30,%edx
     df7:	0f b6 05 00 00 00 00 	movzbl 0x0(%rip),%eax        # dfe <pdsp_u16_to_base16_alt+0x2b6>
     dfe:	8d 0c 02             	lea    (%rdx,%rax,1),%ecx
     e01:	48 8b 45 18          	mov    0x18(%rbp),%rax
     e05:	48 8d 50 01          	lea    0x1(%rax),%rdx
     e09:	48 89 55 18          	mov    %rdx,0x18(%rbp)
     e0d:	89 ca                	mov    %ecx,%edx
     e0f:	88 10                	mov    %dl,(%rax)
     e11:	48 8b 45 18          	mov    0x18(%rbp),%rax
     e15:	eb 42                	jmp    e59 <pdsp_u16_to_base16_alt+0x311>
     e17:	0f b7 45 10          	movzwl 0x10(%rbp),%eax
     e1b:	83 e0 0f             	and    $0xf,%eax
     e1e:	88 05 00 00 00 00    	mov    %al,0x0(%rip)        # e24 <pdsp_u16_to_base16_alt+0x2dc>
     e24:	0f b6 05 00 00 00 00 	movzbl 0x0(%rip),%eax        # e2b <pdsp_u16_to_base16_alt+0x2e3>
     e2b:	3c 09                	cmp    $0x9,%al
     e2d:	7e 07                	jle    e36 <pdsp_u16_to_base16_alt+0x2ee>
     e2f:	ba 37 00 00 00       	mov    $0x37,%edx
     e34:	eb 05                	jmp    e3b <pdsp_u16_to_base16_alt+0x2f3>
     e36:	ba 30 00 00 00       	mov    $0x30,%edx
     e3b:	0f b6 05 00 00 00 00 	movzbl 0x0(%rip),%eax        # e42 <pdsp_u16_to_base16_alt+0x2fa>
     e42:	8d 0c 02             	lea    (%rdx,%rax,1),%ecx
     e45:	48 8b 45 18          	mov    0x18(%rbp),%rax
     e49:	48 8d 50 01          	lea    0x1(%rax),%rdx
     e4d:	48 89 55 18          	mov    %rdx,0x18(%rbp)
     e51:	89 ca                	mov    %ecx,%edx
     e53:	88 10                	mov    %dl,(%rax)
     e55:	48 8b 45 18          	mov    0x18(%rbp),%rax
     e59:	48 83 c4 20          	add    $0x20,%rsp
     e5d:	5d                   	pop    %rbp
     e5e:	c3                   	ret

0000000000000e5f <pdsp_u64_to_base16_alt>:
     e5f:	55                   	push   %rbp
     e60:	48 89 e5             	mov    %rsp,%rbp
     e63:	48 83 ec 20          	sub    $0x20,%rsp
     e67:	48 89 4d 10          	mov    %rcx,0x10(%rbp)
     e6b:	48 89 55 18          	mov    %rdx,0x18(%rbp)
     e6f:	48 83 7d 18 00       	cmpq   $0x0,0x18(%rbp)
     e74:	75 1f                	jne    e95 <pdsp_u64_to_base16_alt+0x36>
     e76:	41 b8 85 01 00 00    	mov    $0x185,%r8d
     e7c:	48 8d 05 20 00 00 00 	lea    0x20(%rip),%rax        # ea3 <pdsp_u64_to_base16_alt+0x44>
     e83:	48 89 c2             	mov    %rax,%rdx
     e86:	48 8d 05 27 00 00 00 	lea    0x27(%rip),%rax        # eb4 <pdsp_u64_to_base16_alt+0x55>
     e8d:	48 89 c1             	mov    %rax,%rcx
     e90:	e8 6b f1 ff ff       	call   0 <printf>
     e95:	48 8b 45 10          	mov    0x10(%rbp),%rax
     e99:	48 c1 e8 30          	shr    $0x30,%rax
     e9d:	0f b7 c0             	movzwl %ax,%eax
     ea0:	48 8b 55 18          	mov    0x18(%rbp),%rdx
     ea4:	41 b8 01 00 00 00    	mov    $0x1,%r8d
     eaa:	89 c1                	mov    %eax,%ecx
     eac:	e8 97 fc ff ff       	call   b48 <pdsp_u16_to_base16_alt>
     eb1:	48 89 45 18          	mov    %rax,0x18(%rbp)
     eb5:	48 8b 45 10          	mov    0x10(%rbp),%rax
     eb9:	48 c1 e8 20          	shr    $0x20,%rax
     ebd:	0f b7 c0             	movzwl %ax,%eax
     ec0:	48 8b 55 18          	mov    0x18(%rbp),%rdx
     ec4:	41 b8 01 00 00 00    	mov    $0x1,%r8d
     eca:	89 c1                	mov    %eax,%ecx
     ecc:	e8 77 fc ff ff       	call   b48 <pdsp_u16_to_base16_alt>
     ed1:	48 89 45 18          	mov    %rax,0x18(%rbp)
     ed5:	48 8b 45 10          	mov    0x10(%rbp),%rax
     ed9:	48 c1 e8 10          	shr    $0x10,%rax
     edd:	0f b7 c0             	movzwl %ax,%eax
     ee0:	48 8b 55 18          	mov    0x18(%rbp),%rdx
     ee4:	41 b8 01 00 00 00    	mov    $0x1,%r8d
     eea:	89 c1                	mov    %eax,%ecx
     eec:	e8 57 fc ff ff       	call   b48 <pdsp_u16_to_base16_alt>
     ef1:	48 89 45 18          	mov    %rax,0x18(%rbp)
     ef5:	48 8b 45 10          	mov    0x10(%rbp),%rax
     ef9:	0f b7 c0             	movzwl %ax,%eax
     efc:	48 8b 55 18          	mov    0x18(%rbp),%rdx
     f00:	41 b8 01 00 00 00    	mov    $0x1,%r8d
     f06:	89 c1                	mov    %eax,%ecx
     f08:	e8 3b fc ff ff       	call   b48 <pdsp_u16_to_base16_alt>
     f0d:	48 89 45 18          	mov    %rax,0x18(%rbp)
     f11:	48 8b 45 18          	mov    0x18(%rbp),%rax
     f15:	48 83 c4 20          	add    $0x20,%rsp
     f19:	5d                   	pop    %rbp
     f1a:	c3                   	ret

0000000000000f1b <pdsp_map>:
     f1b:	55                   	push   %rbp
     f1c:	48 89 e5             	mov    %rsp,%rbp
     f1f:	f3 0f 11 45 10       	movss  %xmm0,0x10(%rbp)
     f24:	f3 0f 11 4d 18       	movss  %xmm1,0x18(%rbp)
     f29:	f3 0f 11 55 20       	movss  %xmm2,0x20(%rbp)
     f2e:	f3 0f 11 5d 28       	movss  %xmm3,0x28(%rbp)
     f33:	f3 0f 10 45 20       	movss  0x20(%rbp),%xmm0
     f38:	f3 0f 5c 45 18       	subss  0x18(%rbp),%xmm0
     f3d:	66 0f ef c9          	pxor   %xmm1,%xmm1
     f41:	0f 2e c1             	ucomiss %xmm1,%xmm0
     f44:	7a 24                	jp     f6a <pdsp_map+0x4f>
     f46:	66 0f ef c9          	pxor   %xmm1,%xmm1
     f4a:	0f 2e c1             	ucomiss %xmm1,%xmm0
     f4d:	75 1b                	jne    f6a <pdsp_map+0x4f>
     f4f:	f3 0f 10 45 30       	movss  0x30(%rbp),%xmm0
     f54:	0f 28 c8             	movaps %xmm0,%xmm1
     f57:	f3 0f 58 4d 28       	addss  0x28(%rbp),%xmm1
     f5c:	f3 0f 10 05 40 00 00 	movss  0x40(%rip),%xmm0        # fa4 <pdsp_map_idx+0x7>
     f63:	00 
     f64:	f3 0f 59 c1          	mulss  %xmm1,%xmm0
     f68:	eb 31                	jmp    f9b <pdsp_map+0x80>
     f6a:	f3 0f 10 45 30       	movss  0x30(%rbp),%xmm0
     f6f:	f3 0f 5c 45 28       	subss  0x28(%rbp),%xmm0
     f74:	f3 0f 10 4d 20       	movss  0x20(%rbp),%xmm1
     f79:	0f 28 d1             	movaps %xmm1,%xmm2
     f7c:	f3 0f 5c 55 18       	subss  0x18(%rbp),%xmm2
     f81:	0f 28 c8             	movaps %xmm0,%xmm1
     f84:	f3 0f 5e ca          	divss  %xmm2,%xmm1
     f88:	f3 0f 10 45 10       	movss  0x10(%rbp),%xmm0
     f8d:	f3 0f 5c 45 18       	subss  0x18(%rbp),%xmm0
     f92:	f3 0f 59 c1          	mulss  %xmm1,%xmm0
     f96:	f3 0f 58 45 28       	addss  0x28(%rbp),%xmm0
     f9b:	5d                   	pop    %rbp
     f9c:	c3                   	ret

0000000000000f9d <pdsp_map_idx>:
     f9d:	55                   	push   %rbp
     f9e:	48 89 e5             	mov    %rsp,%rbp
     fa1:	48 83 ec 30          	sub    $0x30,%rsp
     fa5:	f3 0f 11 45 10       	movss  %xmm0,0x10(%rbp)
     faa:	f3 0f 11 4d 18       	movss  %xmm1,0x18(%rbp)
     faf:	f3 0f 11 55 20       	movss  %xmm2,0x20(%rbp)
     fb4:	f3 0f 11 5d 28       	movss  %xmm3,0x28(%rbp)
     fb9:	f3 0f 10 45 18       	movss  0x18(%rbp),%xmm0
     fbe:	8b 45 10             	mov    0x10(%rbp),%eax
     fc1:	0f 28 c8             	movaps %xmm0,%xmm1
     fc4:	66 0f 6e c0          	movd   %eax,%xmm0
     fc8:	e8 00 00 00 00       	call   fcd <pdsp_map_idx+0x30>
     fcd:	66 0f 7e c2          	movd   %xmm0,%edx
     fd1:	8b 45 20             	mov    0x20(%rbp),%eax
     fd4:	66 0f 6e ca          	movd   %edx,%xmm1
     fd8:	66 0f 6e c0          	movd   %eax,%xmm0
     fdc:	e8 00 00 00 00       	call   fe1 <pdsp_map_idx+0x44>
     fe1:	66 0f 7e c0          	movd   %xmm0,%eax
     fe5:	89 45 10             	mov    %eax,0x10(%rbp)
     fe8:	f3 0f 10 45 20       	movss  0x20(%rbp),%xmm0
     fed:	f3 0f 5c 45 18       	subss  0x18(%rbp),%xmm0
     ff2:	66 0f ef c9          	pxor   %xmm1,%xmm1
     ff6:	0f 2e c1             	ucomiss %xmm1,%xmm0
     ff9:	7a 21                	jp     101c <pdsp_map_idx+0x7f>
     ffb:	66 0f ef c9          	pxor   %xmm1,%xmm1
     fff:	0f 2e c1             	ucomiss %xmm1,%xmm0
    1002:	75 18                	jne    101c <pdsp_map_idx+0x7f>
    1004:	f3 0f 10 4d 28       	movss  0x28(%rbp),%xmm1
    1009:	f3 0f 10 05 40 00 00 	movss  0x40(%rip),%xmm0        # 1051 <pdsp_map_idx+0xb4>
    1010:	00 
    1011:	f3 0f 59 c1          	mulss  %xmm1,%xmm0
    1015:	f3 0f 11 45 fc       	movss  %xmm0,-0x4(%rbp)
    101a:	eb 2c                	jmp    1048 <pdsp_map_idx+0xab>
    101c:	f3 0f 10 45 20       	movss  0x20(%rbp),%xmm0
    1021:	0f 28 d0             	movaps %xmm0,%xmm2
    1024:	f3 0f 5c 55 18       	subss  0x18(%rbp),%xmm2
    1029:	f3 0f 10 45 28       	movss  0x28(%rbp),%xmm0
    102e:	0f 28 c8             	movaps %xmm0,%xmm1
    1031:	f3 0f 5e ca          	divss  %xmm2,%xmm1
    1035:	f3 0f 10 45 10       	movss  0x10(%rbp),%xmm0
    103a:	f3 0f 5c 45 18       	subss  0x18(%rbp),%xmm0
    103f:	f3 0f 59 c1          	mulss  %xmm1,%xmm0
    1043:	f3 0f 11 45 fc       	movss  %xmm0,-0x4(%rbp)
    1048:	f3 0f 2c 45 fc       	cvttss2si -0x4(%rbp),%eax
    104d:	48 83 c4 30          	add    $0x30,%rsp
    1051:	5d                   	pop    %rbp
    1052:	c3                   	ret

0000000000001053 <pdsp_interpolate_2d>:
    1053:	55                   	push   %rbp
    1054:	48 89 e5             	mov    %rsp,%rbp
    1057:	48 83 ec 40          	sub    $0x40,%rsp
    105b:	48 89 4d 10          	mov    %rcx,0x10(%rbp)
    105f:	48 89 55 18          	mov    %rdx,0x18(%rbp)
    1063:	44 89 45 20          	mov    %r8d,0x20(%rbp)
    1067:	f3 0f 11 5d 28       	movss  %xmm3,0x28(%rbp)
    106c:	c7 45 fc 01 00 00 00 	movl   $0x1,-0x4(%rbp)
    1073:	48 83 7d 10 00       	cmpq   $0x0,0x10(%rbp)
    1078:	74 0d                	je     1087 <pdsp_interpolate_2d+0x34>
    107a:	48 83 7d 18 00       	cmpq   $0x0,0x18(%rbp)
    107f:	74 06                	je     1087 <pdsp_interpolate_2d+0x34>
    1081:	83 7d 20 00          	cmpl   $0x0,0x20(%rbp)
    1085:	75 25                	jne    10ac <pdsp_interpolate_2d+0x59>
    1087:	41 b8 bf 01 00 00    	mov    $0x1bf,%r8d
    108d:	48 8d 05 20 00 00 00 	lea    0x20(%rip),%rax        # 10b4 <pdsp_interpolate_2d+0x61>
    1094:	48 89 c2             	mov    %rax,%rdx
    1097:	48 8d 05 27 00 00 00 	lea    0x27(%rip),%rax        # 10c5 <pdsp_interpolate_2d+0x72>
    109e:	48 89 c1             	mov    %rax,%rcx
    10a1:	e8 5a ef ff ff       	call   0 <printf>
    10a6:	eb 04                	jmp    10ac <pdsp_interpolate_2d+0x59>
    10a8:	83 45 fc 01          	addl   $0x1,-0x4(%rbp)
    10ac:	8b 45 fc             	mov    -0x4(%rbp),%eax
    10af:	48 8d 14 85 00 00 00 	lea    0x0(,%rax,4),%rdx
    10b6:	00 
    10b7:	48 8b 45 10          	mov    0x10(%rbp),%rax
    10bb:	48 01 d0             	add    %rdx,%rax
    10be:	f3 0f 10 08          	movss  (%rax),%xmm1
    10c2:	f3 0f 10 45 28       	movss  0x28(%rbp),%xmm0
    10c7:	0f 2f c1             	comiss %xmm1,%xmm0
    10ca:	76 0b                	jbe    10d7 <pdsp_interpolate_2d+0x84>
    10cc:	8b 45 20             	mov    0x20(%rbp),%eax
    10cf:	83 e8 01             	sub    $0x1,%eax
    10d2:	39 45 fc             	cmp    %eax,-0x4(%rbp)
    10d5:	72 d1                	jb     10a8 <pdsp_interpolate_2d+0x55>
    10d7:	8b 45 fc             	mov    -0x4(%rbp),%eax
    10da:	48 8d 14 85 00 00 00 	lea    0x0(,%rax,4),%rdx
    10e1:	00 
    10e2:	48 8b 45 18          	mov    0x18(%rbp),%rax
    10e6:	48 01 d0             	add    %rdx,%rax
    10e9:	f3 0f 10 00          	movss  (%rax),%xmm0
    10ed:	8b 45 fc             	mov    -0x4(%rbp),%eax
    10f0:	83 e8 01             	sub    $0x1,%eax
    10f3:	89 c0                	mov    %eax,%eax
    10f5:	48 8d 14 85 00 00 00 	lea    0x0(,%rax,4),%rdx
    10fc:	00 
    10fd:	48 8b 45 18          	mov    0x18(%rbp),%rax
    1101:	48 01 d0             	add    %rdx,%rax
    1104:	f3 0f 10 18          	movss  (%rax),%xmm3
    1108:	8b 45 fc             	mov    -0x4(%rbp),%eax
    110b:	48 8d 14 85 00 00 00 	lea    0x0(,%rax,4),%rdx
    1112:	00 
    1113:	48 8b 45 10          	mov    0x10(%rbp),%rax
    1117:	48 01 d0             	add    %rdx,%rax
    111a:	f3 0f 10 10          	movss  (%rax),%xmm2
    111e:	8b 45 fc             	mov    -0x4(%rbp),%eax
    1121:	83 e8 01             	sub    $0x1,%eax
    1124:	89 c0                	mov    %eax,%eax
    1126:	48 8d 14 85 00 00 00 	lea    0x0(,%rax,4),%rdx
    112d:	00 
    112e:	48 8b 45 10          	mov    0x10(%rbp),%rax
    1132:	48 01 d0             	add    %rdx,%rax
    1135:	f3 0f 10 08          	movss  (%rax),%xmm1
    1139:	8b 45 28             	mov    0x28(%rbp),%eax
    113c:	f3 0f 11 44 24 20    	movss  %xmm0,0x20(%rsp)
    1142:	66 0f 6e c0          	movd   %eax,%xmm0
    1146:	e8 d0 fd ff ff       	call   f1b <pdsp_map>
    114b:	48 83 c4 40          	add    $0x40,%rsp
    114f:	5d                   	pop    %rbp
    1150:	c3                   	ret

0000000000001151 <pdsp_lookup>:
    1151:	55                   	push   %rbp
    1152:	48 89 e5             	mov    %rsp,%rbp
    1155:	48 83 ec 20          	sub    $0x20,%rsp
    1159:	48 89 4d 10          	mov    %rcx,0x10(%rbp)
    115d:	f3 0f 11 4d 18       	movss  %xmm1,0x18(%rbp)
    1162:	f3 0f 11 55 20       	movss  %xmm2,0x20(%rbp)
    1167:	f3 0f 11 5d 28       	movss  %xmm3,0x28(%rbp)
    116c:	48 83 7d 10 00       	cmpq   $0x0,0x10(%rbp)
    1171:	74 14                	je     1187 <pdsp_lookup+0x36>
    1173:	66 0f ef c0          	pxor   %xmm0,%xmm0
    1177:	0f 2e 45 18          	ucomiss 0x18(%rbp),%xmm0
    117b:	7a 29                	jp     11a6 <pdsp_lookup+0x55>
    117d:	66 0f ef c0          	pxor   %xmm0,%xmm0
    1181:	0f 2e 45 18          	ucomiss 0x18(%rbp),%xmm0
    1185:	75 1f                	jne    11a6 <pdsp_lookup+0x55>
    1187:	41 b8 d0 01 00 00    	mov    $0x1d0,%r8d
    118d:	48 8d 05 20 00 00 00 	lea    0x20(%rip),%rax        # 11b4 <pdsp_lookup+0x63>
    1194:	48 89 c2             	mov    %rax,%rdx
    1197:	48 8d 05 27 00 00 00 	lea    0x27(%rip),%rax        # 11c5 <pdsp_lookup+0x74>
    119e:	48 89 c1             	mov    %rax,%rcx
    11a1:	e8 5a ee ff ff       	call   0 <printf>
    11a6:	f3 0f 10 45 30       	movss  0x30(%rbp),%xmm0
    11ab:	f3 0f 59 45 20       	mulss  0x20(%rbp),%xmm0
    11b0:	f3 0f 58 45 28       	addss  0x28(%rbp),%xmm0
    11b5:	8b 45 18             	mov    0x18(%rbp),%eax
    11b8:	0f 28 c8             	movaps %xmm0,%xmm1
    11bb:	66 0f 6e c0          	movd   %eax,%xmm0
    11bf:	e8 00 00 00 00       	call   11c4 <pdsp_lookup+0x73>
    11c4:	66 0f 7e c0          	movd   %xmm0,%eax
    11c8:	66 0f ef c9          	pxor   %xmm1,%xmm1
    11cc:	66 0f 6e c0          	movd   %eax,%xmm0
    11d0:	e8 00 00 00 00       	call   11d5 <pdsp_lookup+0x84>
    11d5:	f3 0f 2c c0          	cvttss2si %xmm0,%eax
    11d9:	48 0f bf c0          	movswq %ax,%rax
    11dd:	48 8d 14 85 00 00 00 	lea    0x0(,%rax,4),%rdx
    11e4:	00 
    11e5:	48 8b 45 10          	mov    0x10(%rbp),%rax
    11e9:	48 01 d0             	add    %rdx,%rax
    11ec:	f3 0f 10 00          	movss  (%rax),%xmm0
    11f0:	48 83 c4 20          	add    $0x20,%rsp
    11f4:	5d                   	pop    %rbp
    11f5:	c3                   	ret

00000000000011f6 <pdsp_array_set_f32>:
    11f6:	55                   	push   %rbp
    11f7:	48 89 e5             	mov    %rsp,%rbp
    11fa:	48 83 ec 30          	sub    $0x30,%rsp
    11fe:	48 89 4d 10          	mov    %rcx,0x10(%rbp)
    1202:	48 89 55 18          	mov    %rdx,0x18(%rbp)
    1206:	f3 0f 11 55 20       	movss  %xmm2,0x20(%rbp)
    120b:	c7 45 fc 00 00 00 00 	movl   $0x0,-0x4(%rbp)
    1212:	48 83 7d 10 00       	cmpq   $0x0,0x10(%rbp)
    1217:	74 07                	je     1220 <pdsp_array_set_f32+0x2a>
    1219:	48 83 7d 18 00       	cmpq   $0x0,0x18(%rbp)
    121e:	75 1f                	jne    123f <pdsp_array_set_f32+0x49>
    1220:	41 b8 d8 01 00 00    	mov    $0x1d8,%r8d
    1226:	48 8d 05 20 00 00 00 	lea    0x20(%rip),%rax        # 124d <pdsp_array_set_f32+0x57>
    122d:	48 89 c2             	mov    %rax,%rdx
    1230:	48 8d 05 27 00 00 00 	lea    0x27(%rip),%rax        # 125e <pdsp_array_set_f32+0x68>
    1237:	48 89 c1             	mov    %rax,%rcx
    123a:	e8 c1 ed ff ff       	call   0 <printf>
    123f:	c7 45 fc 00 00 00 00 	movl   $0x0,-0x4(%rbp)
    1246:	eb 1f                	jmp    1267 <pdsp_array_set_f32+0x71>
    1248:	8b 45 fc             	mov    -0x4(%rbp),%eax
    124b:	48 8d 14 85 00 00 00 	lea    0x0(,%rax,4),%rdx
    1252:	00 
    1253:	48 8b 45 10          	mov    0x10(%rbp),%rax
    1257:	48 01 d0             	add    %rdx,%rax
    125a:	f3 0f 10 45 20       	movss  0x20(%rbp),%xmm0
    125f:	f3 0f 11 00          	movss  %xmm0,(%rax)
    1263:	83 45 fc 01          	addl   $0x1,-0x4(%rbp)
    1267:	8b 45 fc             	mov    -0x4(%rbp),%eax
    126a:	48 3b 45 18          	cmp    0x18(%rbp),%rax
    126e:	72 d8                	jb     1248 <pdsp_array_set_f32+0x52>
    1270:	90                   	nop
    1271:	90                   	nop
    1272:	48 83 c4 30          	add    $0x30,%rsp
    1276:	5d                   	pop    %rbp
    1277:	c3                   	ret

0000000000001278 <pdsp_array_set_i16>:
    1278:	55                   	push   %rbp
    1279:	48 89 e5             	mov    %rsp,%rbp
    127c:	48 83 ec 30          	sub    $0x30,%rsp
    1280:	48 89 4d 10          	mov    %rcx,0x10(%rbp)
    1284:	48 89 55 18          	mov    %rdx,0x18(%rbp)
    1288:	44 89 c0             	mov    %r8d,%eax
    128b:	66 89 45 20          	mov    %ax,0x20(%rbp)
    128f:	c7 45 fc 00 00 00 00 	movl   $0x0,-0x4(%rbp)
    1296:	48 83 7d 10 00       	cmpq   $0x0,0x10(%rbp)
    129b:	74 07                	je     12a4 <pdsp_array_set_i16+0x2c>
    129d:	48 83 7d 18 00       	cmpq   $0x0,0x18(%rbp)
    12a2:	75 1f                	jne    12c3 <pdsp_array_set_i16+0x4b>
    12a4:	41 b8 e3 01 00 00    	mov    $0x1e3,%r8d
    12aa:	48 8d 05 20 00 00 00 	lea    0x20(%rip),%rax        # 12d1 <pdsp_array_set_i16+0x59>
    12b1:	48 89 c2             	mov    %rax,%rdx
    12b4:	48 8d 05 27 00 00 00 	lea    0x27(%rip),%rax        # 12e2 <pdsp_array_set_i16+0x6a>
    12bb:	48 89 c1             	mov    %rax,%rcx
    12be:	e8 3d ed ff ff       	call   0 <printf>
    12c3:	c7 45 fc 00 00 00 00 	movl   $0x0,-0x4(%rbp)
    12ca:	eb 19                	jmp    12e5 <pdsp_array_set_i16+0x6d>
    12cc:	8b 45 fc             	mov    -0x4(%rbp),%eax
    12cf:	48 8d 14 00          	lea    (%rax,%rax,1),%rdx
    12d3:	48 8b 45 10          	mov    0x10(%rbp),%rax
    12d7:	48 01 c2             	add    %rax,%rdx
    12da:	0f b7 45 20          	movzwl 0x20(%rbp),%eax
    12de:	66 89 02             	mov    %ax,(%rdx)
    12e1:	83 45 fc 01          	addl   $0x1,-0x4(%rbp)
    12e5:	8b 45 fc             	mov    -0x4(%rbp),%eax
    12e8:	48 3b 45 18          	cmp    0x18(%rbp),%rax
    12ec:	72 de                	jb     12cc <pdsp_array_set_i16+0x54>
    12ee:	90                   	nop
    12ef:	90                   	nop
    12f0:	48 83 c4 30          	add    $0x30,%rsp
    12f4:	5d                   	pop    %rbp
    12f5:	c3                   	ret

00000000000012f6 <pdsp_array_apply_f32>:
    12f6:	55                   	push   %rbp
    12f7:	53                   	push   %rbx
    12f8:	48 83 ec 38          	sub    $0x38,%rsp
    12fc:	48 8d 6c 24 30       	lea    0x30(%rsp),%rbp
    1301:	48 89 4d 20          	mov    %rcx,0x20(%rbp)
    1305:	48 89 55 28          	mov    %rdx,0x28(%rbp)
    1309:	44 89 45 30          	mov    %r8d,0x30(%rbp)
    130d:	4c 89 4d 38          	mov    %r9,0x38(%rbp)
    1311:	c7 45 fc 00 00 00 00 	movl   $0x0,-0x4(%rbp)
    1318:	48 83 7d 20 00       	cmpq   $0x0,0x20(%rbp)
    131d:	74 14                	je     1333 <pdsp_array_apply_f32+0x3d>
    131f:	48 83 7d 28 00       	cmpq   $0x0,0x28(%rbp)
    1324:	74 0d                	je     1333 <pdsp_array_apply_f32+0x3d>
    1326:	83 7d 30 00          	cmpl   $0x0,0x30(%rbp)
    132a:	74 07                	je     1333 <pdsp_array_apply_f32+0x3d>
    132c:	48 83 7d 38 00       	cmpq   $0x0,0x38(%rbp)
    1331:	75 1f                	jne    1352 <pdsp_array_apply_f32+0x5c>
    1333:	41 b8 f0 01 00 00    	mov    $0x1f0,%r8d
    1339:	48 8d 05 20 00 00 00 	lea    0x20(%rip),%rax        # 1360 <pdsp_array_apply_f32+0x6a>
    1340:	48 89 c2             	mov    %rax,%rdx
    1343:	48 8d 05 27 00 00 00 	lea    0x27(%rip),%rax        # 1371 <pdsp_array_apply_f32+0x7b>
    134a:	48 89 c1             	mov    %rax,%rcx
    134d:	e8 ae ec ff ff       	call   0 <printf>
    1352:	c7 45 fc 00 00 00 00 	movl   $0x0,-0x4(%rbp)
    1359:	eb 3b                	jmp    1396 <pdsp_array_apply_f32+0xa0>
    135b:	8b 45 fc             	mov    -0x4(%rbp),%eax
    135e:	48 8d 14 85 00 00 00 	lea    0x0(,%rax,4),%rdx
    1365:	00 
    1366:	48 8b 45 20          	mov    0x20(%rbp),%rax
    136a:	48 01 d0             	add    %rdx,%rax
    136d:	8b 00                	mov    (%rax),%eax
    136f:	8b 55 fc             	mov    -0x4(%rbp),%edx
    1372:	48 8d 0c 95 00 00 00 	lea    0x0(,%rdx,4),%rcx
    1379:	00 
    137a:	48 8b 55 28          	mov    0x28(%rbp),%rdx
    137e:	48 8d 1c 11          	lea    (%rcx,%rdx,1),%rbx
    1382:	48 8b 55 38          	mov    0x38(%rbp),%rdx
    1386:	66 0f 6e c0          	movd   %eax,%xmm0
    138a:	ff d2                	call   *%rdx
    138c:	66 0f 7e c0          	movd   %xmm0,%eax
    1390:	89 03                	mov    %eax,(%rbx)
    1392:	83 45 fc 01          	addl   $0x1,-0x4(%rbp)
    1396:	8b 45 fc             	mov    -0x4(%rbp),%eax
    1399:	3b 45 30             	cmp    0x30(%rbp),%eax
    139c:	72 bd                	jb     135b <pdsp_array_apply_f32+0x65>
    139e:	90                   	nop
    139f:	90                   	nop
    13a0:	48 83 c4 38          	add    $0x38,%rsp
    13a4:	5b                   	pop    %rbx
    13a5:	5d                   	pop    %rbp
    13a6:	c3                   	ret

00000000000013a7 <pdsp_array_apply_i16>:
    13a7:	55                   	push   %rbp
    13a8:	53                   	push   %rbx
    13a9:	48 83 ec 38          	sub    $0x38,%rsp
    13ad:	48 8d 6c 24 30       	lea    0x30(%rsp),%rbp
    13b2:	48 89 4d 20          	mov    %rcx,0x20(%rbp)
    13b6:	48 89 55 28          	mov    %rdx,0x28(%rbp)
    13ba:	44 89 45 30          	mov    %r8d,0x30(%rbp)
    13be:	4c 89 4d 38          	mov    %r9,0x38(%rbp)
    13c2:	c7 45 fc 00 00 00 00 	movl   $0x0,-0x4(%rbp)
    13c9:	48 83 7d 20 00       	cmpq   $0x0,0x20(%rbp)
    13ce:	74 14                	je     13e4 <pdsp_array_apply_i16+0x3d>
    13d0:	48 83 7d 28 00       	cmpq   $0x0,0x28(%rbp)
    13d5:	74 0d                	je     13e4 <pdsp_array_apply_i16+0x3d>
    13d7:	83 7d 30 00          	cmpl   $0x0,0x30(%rbp)
    13db:	74 07                	je     13e4 <pdsp_array_apply_i16+0x3d>
    13dd:	48 83 7d 38 00       	cmpq   $0x0,0x38(%rbp)
    13e2:	75 1f                	jne    1403 <pdsp_array_apply_i16+0x5c>
    13e4:	41 b8 fe 01 00 00    	mov    $0x1fe,%r8d
    13ea:	48 8d 05 20 00 00 00 	lea    0x20(%rip),%rax        # 1411 <pdsp_array_apply_i16+0x6a>
    13f1:	48 89 c2             	mov    %rax,%rdx
    13f4:	48 8d 05 27 00 00 00 	lea    0x27(%rip),%rax        # 1422 <pdsp_array_apply_i16+0x7b>
    13fb:	48 89 c1             	mov    %rax,%rcx
    13fe:	e8 fd eb ff ff       	call   0 <printf>
    1403:	c7 45 fc 00 00 00 00 	movl   $0x0,-0x4(%rbp)
    140a:	eb 30                	jmp    143c <pdsp_array_apply_i16+0x95>
    140c:	8b 45 fc             	mov    -0x4(%rbp),%eax
    140f:	48 8d 14 00          	lea    (%rax,%rax,1),%rdx
    1413:	48 8b 45 20          	mov    0x20(%rbp),%rax
    1417:	48 01 d0             	add    %rdx,%rax
    141a:	0f b7 00             	movzwl (%rax),%eax
    141d:	98                   	cwtl
    141e:	8b 55 fc             	mov    -0x4(%rbp),%edx
    1421:	48 8d 0c 12          	lea    (%rdx,%rdx,1),%rcx
    1425:	48 8b 55 28          	mov    0x28(%rbp),%rdx
    1429:	48 8d 1c 11          	lea    (%rcx,%rdx,1),%rbx
    142d:	48 8b 55 38          	mov    0x38(%rbp),%rdx
    1431:	89 c1                	mov    %eax,%ecx
    1433:	ff d2                	call   *%rdx
    1435:	66 89 03             	mov    %ax,(%rbx)
    1438:	83 45 fc 01          	addl   $0x1,-0x4(%rbp)
    143c:	8b 45 fc             	mov    -0x4(%rbp),%eax
    143f:	3b 45 30             	cmp    0x30(%rbp),%eax
    1442:	72 c8                	jb     140c <pdsp_array_apply_i16+0x65>
    1444:	90                   	nop
    1445:	90                   	nop
    1446:	48 83 c4 38          	add    $0x38,%rsp
    144a:	5b                   	pop    %rbx
    144b:	5d                   	pop    %rbp
    144c:	c3                   	ret

000000000000144d <pdsp_array_linspace_f32>:
    144d:	55                   	push   %rbp
    144e:	53                   	push   %rbx
    144f:	48 83 ec 48          	sub    $0x48,%rsp
    1453:	48 8d 6c 24 40       	lea    0x40(%rsp),%rbp
    1458:	48 89 4d 20          	mov    %rcx,0x20(%rbp)
    145c:	89 55 28             	mov    %edx,0x28(%rbp)
    145f:	f3 0f 11 55 30       	movss  %xmm2,0x30(%rbp)
    1464:	f3 0f 11 5d 38       	movss  %xmm3,0x38(%rbp)
    1469:	c7 45 fc 00 00 00 00 	movl   $0x0,-0x4(%rbp)
    1470:	48 83 7d 20 00       	cmpq   $0x0,0x20(%rbp)
    1475:	74 06                	je     147d <pdsp_array_linspace_f32+0x30>
    1477:	83 7d 28 00          	cmpl   $0x0,0x28(%rbp)
    147b:	75 1f                	jne    149c <pdsp_array_linspace_f32+0x4f>
    147d:	41 b8 0c 02 00 00    	mov    $0x20c,%r8d
    1483:	48 8d 05 20 00 00 00 	lea    0x20(%rip),%rax        # 14aa <pdsp_array_linspace_f32+0x5d>
    148a:	48 89 c2             	mov    %rax,%rdx
    148d:	48 8d 05 27 00 00 00 	lea    0x27(%rip),%rax        # 14bb <pdsp_array_linspace_f32+0x6e>
    1494:	48 89 c1             	mov    %rax,%rcx
    1497:	e8 64 eb ff ff       	call   0 <printf>
    149c:	c7 45 fc 00 00 00 00 	movl   $0x0,-0x4(%rbp)
    14a3:	e9 ac 00 00 00       	jmp    1554 <pdsp_array_linspace_f32+0x107>
    14a8:	8b 45 28             	mov    0x28(%rbp),%eax
    14ab:	48 85 c0             	test   %rax,%rax
    14ae:	78 0b                	js     14bb <pdsp_array_linspace_f32+0x6e>
    14b0:	66 0f ef c0          	pxor   %xmm0,%xmm0
    14b4:	f3 48 0f 2a c0       	cvtsi2ss %rax,%xmm0
    14b9:	eb 19                	jmp    14d4 <pdsp_array_linspace_f32+0x87>
    14bb:	48 89 c2             	mov    %rax,%rdx
    14be:	48 d1 ea             	shr    %rdx
    14c1:	83 e0 01             	and    $0x1,%eax
    14c4:	48 09 c2             	or     %rax,%rdx
    14c7:	66 0f ef c0          	pxor   %xmm0,%xmm0
    14cb:	f3 48 0f 2a c2       	cvtsi2ss %rdx,%xmm0
    14d0:	f3 0f 58 c0          	addss  %xmm0,%xmm0
    14d4:	f3 0f 10 0d 44 00 00 	movss  0x44(%rip),%xmm1        # 1520 <pdsp_array_linspace_f32+0xd3>
    14db:	00 
    14dc:	0f 28 d0             	movaps %xmm0,%xmm2
    14df:	f3 0f 5c d1          	subss  %xmm1,%xmm2
    14e3:	8b 45 fc             	mov    -0x4(%rbp),%eax
    14e6:	48 85 c0             	test   %rax,%rax
    14e9:	78 0f                	js     14fa <pdsp_array_linspace_f32+0xad>
    14eb:	66 0f ef e4          	pxor   %xmm4,%xmm4
    14ef:	f3 48 0f 2a e0       	cvtsi2ss %rax,%xmm4
    14f4:	66 0f 7e e0          	movd   %xmm4,%eax
    14f8:	eb 1d                	jmp    1517 <pdsp_array_linspace_f32+0xca>
    14fa:	48 89 c2             	mov    %rax,%rdx
    14fd:	48 d1 ea             	shr    %rdx
    1500:	83 e0 01             	and    $0x1,%eax
    1503:	48 09 c2             	or     %rax,%rdx
    1506:	66 0f ef c0          	pxor   %xmm0,%xmm0
    150a:	f3 48 0f 2a c2       	cvtsi2ss %rdx,%xmm0
    150f:	f3 0f 58 c0          	addss  %xmm0,%xmm0
    1513:	66 0f 7e c0          	movd   %xmm0,%eax
    1517:	8b 55 fc             	mov    -0x4(%rbp),%edx
    151a:	48 8d 0c 95 00 00 00 	lea    0x0(,%rdx,4),%rcx
    1521:	00 
    1522:	48 8b 55 20          	mov    0x20(%rbp),%rdx
    1526:	48 8d 1c 11          	lea    (%rcx,%rdx,1),%rbx
    152a:	f3 0f 10 4d 30       	movss  0x30(%rbp),%xmm1
    152f:	f3 0f 10 45 38       	movss  0x38(%rbp),%xmm0
    1534:	f3 0f 11 44 24 20    	movss  %xmm0,0x20(%rsp)
    153a:	0f 28 d9             	movaps %xmm1,%xmm3
    153d:	66 0f ef c9          	pxor   %xmm1,%xmm1
    1541:	66 0f 6e c0          	movd   %eax,%xmm0
    1545:	e8 d1 f9 ff ff       	call   f1b <pdsp_map>
    154a:	66 0f 7e c0          	movd   %xmm0,%eax
    154e:	89 03                	mov    %eax,(%rbx)
    1550:	83 45 fc 01          	addl   $0x1,-0x4(%rbp)
    1554:	8b 45 fc             	mov    -0x4(%rbp),%eax
    1557:	3b 45 28             	cmp    0x28(%rbp),%eax
    155a:	0f 82 48 ff ff ff    	jb     14a8 <pdsp_array_linspace_f32+0x5b>
    1560:	90                   	nop
    1561:	90                   	nop
    1562:	48 83 c4 48          	add    $0x48,%rsp
    1566:	5b                   	pop    %rbx
    1567:	5d                   	pop    %rbp
    1568:	c3                   	ret

0000000000001569 <pdsp_array_logspace_f32>:
    1569:	55                   	push   %rbp
    156a:	53                   	push   %rbx
    156b:	48 83 ec 48          	sub    $0x48,%rsp
    156f:	48 8d 6c 24 40       	lea    0x40(%rsp),%rbp
    1574:	48 89 4d 20          	mov    %rcx,0x20(%rbp)
    1578:	89 55 28             	mov    %edx,0x28(%rbp)
    157b:	f3 0f 11 55 30       	movss  %xmm2,0x30(%rbp)
    1580:	f3 0f 11 5d 38       	movss  %xmm3,0x38(%rbp)
    1585:	c7 45 fc 00 00 00 00 	movl   $0x0,-0x4(%rbp)
    158c:	48 83 7d 20 00       	cmpq   $0x0,0x20(%rbp)
    1591:	74 06                	je     1599 <pdsp_array_logspace_f32+0x30>
    1593:	83 7d 28 00          	cmpl   $0x0,0x28(%rbp)
    1597:	75 1f                	jne    15b8 <pdsp_array_logspace_f32+0x4f>
    1599:	41 b8 1b 02 00 00    	mov    $0x21b,%r8d
    159f:	48 8d 05 20 00 00 00 	lea    0x20(%rip),%rax        # 15c6 <pdsp_array_logspace_f32+0x5d>
    15a6:	48 89 c2             	mov    %rax,%rdx
    15a9:	48 8d 05 27 00 00 00 	lea    0x27(%rip),%rax        # 15d7 <pdsp_array_logspace_f32+0x6e>
    15b0:	48 89 c1             	mov    %rax,%rcx
    15b3:	e8 48 ea ff ff       	call   0 <printf>
    15b8:	c7 45 fc 00 00 00 00 	movl   $0x0,-0x4(%rbp)
    15bf:	e9 c3 00 00 00       	jmp    1687 <pdsp_array_logspace_f32+0x11e>
    15c4:	8b 45 28             	mov    0x28(%rbp),%eax
    15c7:	48 85 c0             	test   %rax,%rax
    15ca:	78 0b                	js     15d7 <pdsp_array_logspace_f32+0x6e>
    15cc:	66 0f ef c0          	pxor   %xmm0,%xmm0
    15d0:	f3 48 0f 2a c0       	cvtsi2ss %rax,%xmm0
    15d5:	eb 19                	jmp    15f0 <pdsp_array_logspace_f32+0x87>
    15d7:	48 89 c2             	mov    %rax,%rdx
    15da:	48 d1 ea             	shr    %rdx
    15dd:	83 e0 01             	and    $0x1,%eax
    15e0:	48 09 c2             	or     %rax,%rdx
    15e3:	66 0f ef c0          	pxor   %xmm0,%xmm0
    15e7:	f3 48 0f 2a c2       	cvtsi2ss %rdx,%xmm0
    15ec:	f3 0f 58 c0          	addss  %xmm0,%xmm0
    15f0:	f3 0f 10 0d 44 00 00 	movss  0x44(%rip),%xmm1        # 163c <pdsp_array_logspace_f32+0xd3>
    15f7:	00 
    15f8:	0f 28 d0             	movaps %xmm0,%xmm2
    15fb:	f3 0f 5c d1          	subss  %xmm1,%xmm2
    15ff:	8b 45 fc             	mov    -0x4(%rbp),%eax
    1602:	48 85 c0             	test   %rax,%rax
    1605:	78 0f                	js     1616 <pdsp_array_logspace_f32+0xad>
    1607:	66 0f ef e4          	pxor   %xmm4,%xmm4
    160b:	f3 48 0f 2a e0       	cvtsi2ss %rax,%xmm4
    1610:	66 0f 7e e0          	movd   %xmm4,%eax
    1614:	eb 1d                	jmp    1633 <pdsp_array_logspace_f32+0xca>
    1616:	48 89 c2             	mov    %rax,%rdx
    1619:	48 d1 ea             	shr    %rdx
    161c:	83 e0 01             	and    $0x1,%eax
    161f:	48 09 c2             	or     %rax,%rdx
    1622:	66 0f ef c0          	pxor   %xmm0,%xmm0
    1626:	f3 48 0f 2a c2       	cvtsi2ss %rdx,%xmm0
    162b:	f3 0f 58 c0          	addss  %xmm0,%xmm0
    162f:	66 0f 7e c0          	movd   %xmm0,%eax
    1633:	f3 0f 10 4d 30       	movss  0x30(%rbp),%xmm1
    1638:	f3 0f 10 45 38       	movss  0x38(%rbp),%xmm0
    163d:	f3 0f 11 44 24 20    	movss  %xmm0,0x20(%rsp)
    1643:	0f 28 d9             	movaps %xmm1,%xmm3
    1646:	66 0f ef c9          	pxor   %xmm1,%xmm1
    164a:	66 0f 6e c0          	movd   %eax,%xmm0
    164e:	e8 c8 f8 ff ff       	call   f1b <pdsp_map>
    1653:	66 0f 7e c0          	movd   %xmm0,%eax
    1657:	8b 55 fc             	mov    -0x4(%rbp),%edx
    165a:	48 8d 0c 95 00 00 00 	lea    0x0(,%rdx,4),%rcx
    1661:	00 
    1662:	48 8b 55 20          	mov    0x20(%rbp),%rdx
    1666:	48 8d 1c 11          	lea    (%rcx,%rdx,1),%rbx
    166a:	66 0f 6e c8          	movd   %eax,%xmm1
    166e:	8b 05 48 00 00 00    	mov    0x48(%rip),%eax        # 16bc <pdsp_hysteresis_value_clear+0x20>
    1674:	66 0f 6e c0          	movd   %eax,%xmm0
    1678:	e8 00 00 00 00       	call   167d <pdsp_array_logspace_f32+0x114>
    167d:	66 0f 7e c0          	movd   %xmm0,%eax
    1681:	89 03                	mov    %eax,(%rbx)
    1683:	83 45 fc 01          	addl   $0x1,-0x4(%rbp)
    1687:	8b 45 fc             	mov    -0x4(%rbp),%eax
    168a:	3b 45 28             	cmp    0x28(%rbp),%eax
    168d:	0f 82 31 ff ff ff    	jb     15c4 <pdsp_array_logspace_f32+0x5b>
    1693:	90                   	nop
    1694:	90                   	nop
    1695:	48 83 c4 48          	add    $0x48,%rsp
    1699:	5b                   	pop    %rbx
    169a:	5d                   	pop    %rbp
    169b:	c3                   	ret

000000000000169c <pdsp_hysteresis_value_clear>:
    169c:	55                   	push   %rbp
    169d:	48 89 e5             	mov    %rsp,%rbp
    16a0:	48 83 ec 20          	sub    $0x20,%rsp
    16a4:	48 89 4d 10          	mov    %rcx,0x10(%rbp)
    16a8:	48 83 7d 10 00       	cmpq   $0x0,0x10(%rbp)
    16ad:	75 1f                	jne    16ce <pdsp_hysteresis_value_clear+0x32>
    16af:	41 b8 26 02 00 00    	mov    $0x226,%r8d
    16b5:	48 8d 05 20 00 00 00 	lea    0x20(%rip),%rax        # 16dc <pdsp_hysteresis_value_init>
    16bc:	48 89 c2             	mov    %rax,%rdx
    16bf:	48 8d 05 27 00 00 00 	lea    0x27(%rip),%rax        # 16ed <pdsp_hysteresis_value_init+0x11>
    16c6:	48 89 c1             	mov    %rax,%rcx
    16c9:	e8 32 e9 ff ff       	call   0 <printf>
    16ce:	48 8b 45 10          	mov    0x10(%rbp),%rax
    16d2:	c6 00 00             	movb   $0x0,(%rax)
    16d5:	90                   	nop
    16d6:	48 83 c4 20          	add    $0x20,%rsp
    16da:	5d                   	pop    %rbp
    16db:	c3                   	ret

00000000000016dc <pdsp_hysteresis_value_init>:
    16dc:	55                   	push   %rbp
    16dd:	48 89 e5             	mov    %rsp,%rbp
    16e0:	48 89 4d 10          	mov    %rcx,0x10(%rbp)
    16e4:	f3 0f 11 4d 18       	movss  %xmm1,0x18(%rbp)
    16e9:	f3 0f 11 55 20       	movss  %xmm2,0x20(%rbp)
    16ee:	48 8b 45 10          	mov    0x10(%rbp),%rax
    16f2:	c6 00 00             	movb   $0x0,(%rax)
    16f5:	48 8b 45 10          	mov    0x10(%rbp),%rax
    16f9:	f3 0f 10 45 18       	movss  0x18(%rbp),%xmm0
    16fe:	f3 0f 11 40 04       	movss  %xmm0,0x4(%rax)
    1703:	48 8b 45 10          	mov    0x10(%rbp),%rax
    1707:	f3 0f 10 45 20       	movss  0x20(%rbp),%xmm0
    170c:	f3 0f 11 40 08       	movss  %xmm0,0x8(%rax)
    1711:	90                   	nop
    1712:	5d                   	pop    %rbp
    1713:	c3                   	ret

0000000000001714 <pdsp_hysteresis_value>:
    1714:	55                   	push   %rbp
    1715:	48 89 e5             	mov    %rsp,%rbp
    1718:	48 83 ec 20          	sub    $0x20,%rsp
    171c:	48 89 4d 10          	mov    %rcx,0x10(%rbp)
    1720:	f3 0f 11 4d 18       	movss  %xmm1,0x18(%rbp)
    1725:	48 83 7d 10 00       	cmpq   $0x0,0x10(%rbp)
    172a:	75 1f                	jne    174b <pdsp_hysteresis_value+0x37>
    172c:	41 b8 36 02 00 00    	mov    $0x236,%r8d
    1732:	48 8d 05 20 00 00 00 	lea    0x20(%rip),%rax        # 1759 <pdsp_hysteresis_value+0x45>
    1739:	48 89 c2             	mov    %rax,%rdx
    173c:	48 8d 05 27 00 00 00 	lea    0x27(%rip),%rax        # 176a <pdsp_hysteresis_value+0x56>
    1743:	48 89 c1             	mov    %rax,%rcx
    1746:	e8 b5 e8 ff ff       	call   0 <printf>
    174b:	48 8b 45 10          	mov    0x10(%rbp),%rax
    174f:	f3 0f 10 48 08       	movss  0x8(%rax),%xmm1
    1754:	f3 0f 10 45 18       	movss  0x18(%rbp),%xmm0
    1759:	0f 2f c1             	comiss %xmm1,%xmm0
    175c:	76 09                	jbe    1767 <pdsp_hysteresis_value+0x53>
    175e:	48 8b 45 10          	mov    0x10(%rbp),%rax
    1762:	c6 00 01             	movb   $0x1,(%rax)
    1765:	eb 16                	jmp    177d <pdsp_hysteresis_value+0x69>
    1767:	48 8b 45 10          	mov    0x10(%rbp),%rax
    176b:	f3 0f 10 40 04       	movss  0x4(%rax),%xmm0
    1770:	0f 2f 45 18          	comiss 0x18(%rbp),%xmm0
    1774:	76 07                	jbe    177d <pdsp_hysteresis_value+0x69>
    1776:	48 8b 45 10          	mov    0x10(%rbp),%rax
    177a:	c6 00 00             	movb   $0x0,(%rax)
    177d:	48 8b 45 10          	mov    0x10(%rbp),%rax
    1781:	0f b6 00             	movzbl (%rax),%eax
    1784:	48 83 c4 20          	add    $0x20,%rsp
    1788:	5d                   	pop    %rbp
    1789:	c3                   	ret

000000000000178a <pdsp_hysteresis_list_clear>:
    178a:	55                   	push   %rbp
    178b:	48 89 e5             	mov    %rsp,%rbp
    178e:	48 83 ec 20          	sub    $0x20,%rsp
    1792:	48 89 4d 10          	mov    %rcx,0x10(%rbp)
    1796:	48 83 7d 10 00       	cmpq   $0x0,0x10(%rbp)
    179b:	75 1f                	jne    17bc <pdsp_hysteresis_list_clear+0x32>
    179d:	41 b8 47 02 00 00    	mov    $0x247,%r8d
    17a3:	48 8d 05 20 00 00 00 	lea    0x20(%rip),%rax        # 17ca <pdsp_hysteresis_list_clear+0x40>
    17aa:	48 89 c2             	mov    %rax,%rdx
    17ad:	48 8d 05 27 00 00 00 	lea    0x27(%rip),%rax        # 17db <pdsp_hysteresis_list_init+0xf>
    17b4:	48 89 c1             	mov    %rax,%rcx
    17b7:	e8 44 e8 ff ff       	call   0 <printf>
    17bc:	48 8b 45 10          	mov    0x10(%rbp),%rax
    17c0:	66 c7 00 00 00       	movw   $0x0,(%rax)
    17c5:	90                   	nop
    17c6:	48 83 c4 20          	add    $0x20,%rsp
    17ca:	5d                   	pop    %rbp
    17cb:	c3                   	ret

00000000000017cc <pdsp_hysteresis_list_init>:
    17cc:	55                   	push   %rbp
    17cd:	48 89 e5             	mov    %rsp,%rbp
    17d0:	48 89 4d 10          	mov    %rcx,0x10(%rbp)
    17d4:	48 89 55 18          	mov    %rdx,0x18(%rbp)
    17d8:	4c 89 45 20          	mov    %r8,0x20(%rbp)
    17dc:	44 89 c8             	mov    %r9d,%eax
    17df:	66 89 45 28          	mov    %ax,0x28(%rbp)
    17e3:	48 8b 45 10          	mov    0x10(%rbp),%rax
    17e7:	66 c7 00 00 00       	movw   $0x0,(%rax)
    17ec:	48 8b 45 10          	mov    0x10(%rbp),%rax
    17f0:	48 8b 55 18          	mov    0x18(%rbp),%rdx
    17f4:	48 89 50 08          	mov    %rdx,0x8(%rax)
    17f8:	48 8b 45 10          	mov    0x10(%rbp),%rax
    17fc:	48 8b 55 20          	mov    0x20(%rbp),%rdx
    1800:	48 89 50 10          	mov    %rdx,0x10(%rax)
    1804:	48 8b 45 10          	mov    0x10(%rbp),%rax
    1808:	0f b7 55 28          	movzwl 0x28(%rbp),%edx
    180c:	66 89 50 18          	mov    %dx,0x18(%rax)
    1810:	90                   	nop
    1811:	5d                   	pop    %rbp
    1812:	c3                   	ret

0000000000001813 <pdsp_hysteresis_list>:
    1813:	55                   	push   %rbp
    1814:	48 89 e5             	mov    %rsp,%rbp
    1817:	48 83 ec 20          	sub    $0x20,%rsp
    181b:	48 89 4d 10          	mov    %rcx,0x10(%rbp)
    181f:	f3 0f 11 4d 18       	movss  %xmm1,0x18(%rbp)
    1824:	48 83 7d 10 00       	cmpq   $0x0,0x10(%rbp)
    1829:	75 1f                	jne    184a <pdsp_hysteresis_list+0x37>
    182b:	41 b8 59 02 00 00    	mov    $0x259,%r8d
    1831:	48 8d 05 20 00 00 00 	lea    0x20(%rip),%rax        # 1858 <pdsp_hysteresis_list+0x45>
    1838:	48 89 c2             	mov    %rax,%rdx
    183b:	48 8d 05 27 00 00 00 	lea    0x27(%rip),%rax        # 1869 <pdsp_hysteresis_list+0x56>
    1842:	48 89 c1             	mov    %rax,%rcx
    1845:	e8 b6 e7 ff ff       	call   0 <printf>
    184a:	48 8b 45 10          	mov    0x10(%rbp),%rax
    184e:	48 8b 50 08          	mov    0x8(%rax),%rdx
    1852:	48 8b 45 10          	mov    0x10(%rbp),%rax
    1856:	0f b7 00             	movzwl (%rax),%eax
    1859:	0f b7 c0             	movzwl %ax,%eax
    185c:	48 c1 e0 02          	shl    $0x2,%rax
    1860:	48 01 d0             	add    %rdx,%rax
    1863:	f3 0f 10 08          	movss  (%rax),%xmm1
    1867:	f3 0f 10 45 18       	movss  0x18(%rbp),%xmm0
    186c:	0f 2f c1             	comiss %xmm1,%xmm0
    186f:	76 2f                	jbe    18a0 <pdsp_hysteresis_list+0x8d>
    1871:	48 8b 45 10          	mov    0x10(%rbp),%rax
    1875:	0f b7 00             	movzwl (%rax),%eax
    1878:	0f b7 d0             	movzwl %ax,%edx
    187b:	48 8b 45 10          	mov    0x10(%rbp),%rax
    187f:	0f b7 40 18          	movzwl 0x18(%rax),%eax
    1883:	0f b7 c0             	movzwl %ax,%eax
    1886:	83 e8 02             	sub    $0x2,%eax
    1889:	39 c2                	cmp    %eax,%edx
    188b:	7d 53                	jge    18e0 <pdsp_hysteresis_list+0xcd>
    188d:	48 8b 45 10          	mov    0x10(%rbp),%rax
    1891:	0f b7 00             	movzwl (%rax),%eax
    1894:	8d 50 01             	lea    0x1(%rax),%edx
    1897:	48 8b 45 10          	mov    0x10(%rbp),%rax
    189b:	66 89 10             	mov    %dx,(%rax)
    189e:	eb 40                	jmp    18e0 <pdsp_hysteresis_list+0xcd>
    18a0:	48 8b 45 10          	mov    0x10(%rbp),%rax
    18a4:	48 8b 50 10          	mov    0x10(%rax),%rdx
    18a8:	48 8b 45 10          	mov    0x10(%rbp),%rax
    18ac:	0f b7 00             	movzwl (%rax),%eax
    18af:	0f b7 c0             	movzwl %ax,%eax
    18b2:	48 c1 e0 02          	shl    $0x2,%rax
    18b6:	48 01 d0             	add    %rdx,%rax
    18b9:	f3 0f 10 00          	movss  (%rax),%xmm0
    18bd:	0f 2f 45 18          	comiss 0x18(%rbp),%xmm0
    18c1:	76 1d                	jbe    18e0 <pdsp_hysteresis_list+0xcd>
    18c3:	48 8b 45 10          	mov    0x10(%rbp),%rax
    18c7:	0f b7 00             	movzwl (%rax),%eax
    18ca:	66 85 c0             	test   %ax,%ax
    18cd:	74 11                	je     18e0 <pdsp_hysteresis_list+0xcd>
    18cf:	48 8b 45 10          	mov    0x10(%rbp),%rax
    18d3:	0f b7 00             	movzwl (%rax),%eax
    18d6:	8d 50 ff             	lea    -0x1(%rax),%edx
    18d9:	48 8b 45 10          	mov    0x10(%rbp),%rax
    18dd:	66 89 10             	mov    %dx,(%rax)
    18e0:	48 8b 45 10          	mov    0x10(%rbp),%rax
    18e4:	0f b7 00             	movzwl (%rax),%eax
    18e7:	48 83 c4 20          	add    $0x20,%rsp
    18eb:	5d                   	pop    %rbp
    18ec:	c3                   	ret

00000000000018ed <pdsp_debounce_clear>:
    18ed:	55                   	push   %rbp
    18ee:	48 89 e5             	mov    %rsp,%rbp
    18f1:	48 83 ec 20          	sub    $0x20,%rsp
    18f5:	48 89 4d 10          	mov    %rcx,0x10(%rbp)
    18f9:	48 83 7d 10 00       	cmpq   $0x0,0x10(%rbp)
    18fe:	75 1f                	jne    191f <pdsp_debounce_clear+0x32>
    1900:	41 b8 70 02 00 00    	mov    $0x270,%r8d
    1906:	48 8d 05 20 00 00 00 	lea    0x20(%rip),%rax        # 192d <pdsp_debounce_clear+0x40>
    190d:	48 89 c2             	mov    %rax,%rdx
    1910:	48 8d 05 27 00 00 00 	lea    0x27(%rip),%rax        # 193e <pdsp_debounce+0x4>
    1917:	48 89 c1             	mov    %rax,%rcx
    191a:	e8 e1 e6 ff ff       	call   0 <printf>
    191f:	48 8b 45 10          	mov    0x10(%rbp),%rax
    1923:	c6 00 00             	movb   $0x0,(%rax)
    1926:	48 8b 45 10          	mov    0x10(%rbp),%rax
    192a:	66 0f ef c0          	pxor   %xmm0,%xmm0
    192e:	f3 0f 11 40 04       	movss  %xmm0,0x4(%rax)
    1933:	90                   	nop
    1934:	48 83 c4 20          	add    $0x20,%rsp
    1938:	5d                   	pop    %rbp
    1939:	c3                   	ret

000000000000193a <pdsp_debounce>:
    193a:	55                   	push   %rbp
    193b:	48 89 e5             	mov    %rsp,%rbp
    193e:	48 83 ec 20          	sub    $0x20,%rsp
    1942:	48 89 4d 10          	mov    %rcx,0x10(%rbp)
    1946:	89 d0                	mov    %edx,%eax
    1948:	88 45 18             	mov    %al,0x18(%rbp)
    194b:	48 83 7d 10 00       	cmpq   $0x0,0x10(%rbp)
    1950:	75 1f                	jne    1971 <pdsp_debounce+0x37>
    1952:	41 b8 78 02 00 00    	mov    $0x278,%r8d
    1958:	48 8d 05 20 00 00 00 	lea    0x20(%rip),%rax        # 197f <pdsp_debounce+0x45>
    195f:	48 89 c2             	mov    %rax,%rdx
    1962:	48 8d 05 27 00 00 00 	lea    0x27(%rip),%rax        # 1990 <pdsp_debounce+0x56>
    1969:	48 89 c1             	mov    %rax,%rcx
    196c:	e8 8f e6 ff ff       	call   0 <printf>
    1971:	48 8b 45 10          	mov    0x10(%rbp),%rax
    1975:	0f b6 00             	movzbl (%rax),%eax
    1978:	83 f0 01             	xor    $0x1,%eax
    197b:	84 c0                	test   %al,%al
    197d:	74 56                	je     19d5 <pdsp_debounce+0x9b>
    197f:	80 7d 18 00          	cmpb   $0x0,0x18(%rbp)
    1983:	74 50                	je     19d5 <pdsp_debounce+0x9b>
    1985:	48 8b 45 10          	mov    0x10(%rbp),%rax
    1989:	f3 0f 10 48 04       	movss  0x4(%rax),%xmm1
    198e:	48 8b 45 10          	mov    0x10(%rbp),%rax
    1992:	f3 0f 10 40 08       	movss  0x8(%rax),%xmm0
    1997:	f3 0f 58 c1          	addss  %xmm1,%xmm0
    199b:	48 8b 45 10          	mov    0x10(%rbp),%rax
    199f:	f3 0f 11 40 04       	movss  %xmm0,0x4(%rax)
    19a4:	48 8b 45 10          	mov    0x10(%rbp),%rax
    19a8:	f3 0f 10 40 04       	movss  0x4(%rax),%xmm0
    19ad:	48 8b 45 10          	mov    0x10(%rbp),%rax
    19b1:	f3 0f 10 48 0c       	movss  0xc(%rax),%xmm1
    19b6:	0f 2f c1             	comiss %xmm1,%xmm0
    19b9:	0f 86 85 00 00 00    	jbe    1a44 <pdsp_debounce+0x10a>
    19bf:	48 8b 45 10          	mov    0x10(%rbp),%rax
    19c3:	c6 00 01             	movb   $0x1,(%rax)
    19c6:	48 8b 45 10          	mov    0x10(%rbp),%rax
    19ca:	66 0f ef c0          	pxor   %xmm0,%xmm0
    19ce:	f3 0f 11 40 04       	movss  %xmm0,0x4(%rax)
    19d3:	eb 6f                	jmp    1a44 <pdsp_debounce+0x10a>
    19d5:	48 8b 45 10          	mov    0x10(%rbp),%rax
    19d9:	0f b6 00             	movzbl (%rax),%eax
    19dc:	84 c0                	test   %al,%al
    19de:	74 57                	je     1a37 <pdsp_debounce+0xfd>
    19e0:	0f b6 45 18          	movzbl 0x18(%rbp),%eax
    19e4:	83 f0 01             	xor    $0x1,%eax
    19e7:	84 c0                	test   %al,%al
    19e9:	74 4c                	je     1a37 <pdsp_debounce+0xfd>
    19eb:	48 8b 45 10          	mov    0x10(%rbp),%rax
    19ef:	f3 0f 10 48 04       	movss  0x4(%rax),%xmm1
    19f4:	48 8b 45 10          	mov    0x10(%rbp),%rax
    19f8:	f3 0f 10 40 08       	movss  0x8(%rax),%xmm0
    19fd:	f3 0f 58 c1          	addss  %xmm1,%xmm0
    1a01:	48 8b 45 10          	mov    0x10(%rbp),%rax
    1a05:	f3 0f 11 40 04       	movss  %xmm0,0x4(%rax)
    1a0a:	48 8b 45 10          	mov    0x10(%rbp),%rax
    1a0e:	f3 0f 10 40 04       	movss  0x4(%rax),%xmm0
    1a13:	48 8b 45 10          	mov    0x10(%rbp),%rax
    1a17:	f3 0f 10 48 10       	movss  0x10(%rax),%xmm1
    1a1c:	0f 2f c1             	comiss %xmm1,%xmm0
    1a1f:	76 23                	jbe    1a44 <pdsp_debounce+0x10a>
    1a21:	48 8b 45 10          	mov    0x10(%rbp),%rax
    1a25:	c6 00 00             	movb   $0x0,(%rax)
    1a28:	48 8b 45 10          	mov    0x10(%rbp),%rax
    1a2c:	66 0f ef c0          	pxor   %xmm0,%xmm0
    1a30:	f3 0f 11 40 04       	movss  %xmm0,0x4(%rax)
    1a35:	eb 0d                	jmp    1a44 <pdsp_debounce+0x10a>
    1a37:	48 8b 45 10          	mov    0x10(%rbp),%rax
    1a3b:	66 0f ef c0          	pxor   %xmm0,%xmm0
    1a3f:	f3 0f 11 40 04       	movss  %xmm0,0x4(%rax)
    1a44:	48 8b 45 10          	mov    0x10(%rbp),%rax
    1a48:	0f b6 00             	movzbl (%rax),%eax
    1a4b:	48 83 c4 20          	add    $0x20,%rsp
    1a4f:	5d                   	pop    %rbp
    1a50:	c3                   	ret

0000000000001a51 <pdsp_debounce_cnt_clear>:
    1a51:	55                   	push   %rbp
    1a52:	48 89 e5             	mov    %rsp,%rbp
    1a55:	48 83 ec 20          	sub    $0x20,%rsp
    1a59:	48 89 4d 10          	mov    %rcx,0x10(%rbp)
    1a5d:	48 83 7d 10 00       	cmpq   $0x0,0x10(%rbp)
    1a62:	75 1f                	jne    1a83 <pdsp_debounce_cnt_clear+0x32>
    1a64:	41 b8 97 02 00 00    	mov    $0x297,%r8d
    1a6a:	48 8d 05 20 00 00 00 	lea    0x20(%rip),%rax        # 1a91 <pdsp_debounce_cnt_clear+0x40>
    1a71:	48 89 c2             	mov    %rax,%rdx
    1a74:	48 8d 05 27 00 00 00 	lea    0x27(%rip),%rax        # 1aa2 <pdsp_debounce_cnt+0x7>
    1a7b:	48 89 c1             	mov    %rax,%rcx
    1a7e:	e8 7d e5 ff ff       	call   0 <printf>
    1a83:	48 8b 45 10          	mov    0x10(%rbp),%rax
    1a87:	c6 00 00             	movb   $0x0,(%rax)
    1a8a:	48 8b 45 10          	mov    0x10(%rbp),%rax
    1a8e:	66 c7 40 02 00 00    	movw   $0x0,0x2(%rax)
    1a94:	90                   	nop
    1a95:	48 83 c4 20          	add    $0x20,%rsp
    1a99:	5d                   	pop    %rbp
    1a9a:	c3                   	ret

0000000000001a9b <pdsp_debounce_cnt>:
    1a9b:	55                   	push   %rbp
    1a9c:	48 89 e5             	mov    %rsp,%rbp
    1a9f:	48 83 ec 20          	sub    $0x20,%rsp
    1aa3:	48 89 4d 10          	mov    %rcx,0x10(%rbp)
    1aa7:	89 d0                	mov    %edx,%eax
    1aa9:	88 45 18             	mov    %al,0x18(%rbp)
    1aac:	48 83 7d 10 00       	cmpq   $0x0,0x10(%rbp)
    1ab1:	75 1f                	jne    1ad2 <pdsp_debounce_cnt+0x37>
    1ab3:	41 b8 9f 02 00 00    	mov    $0x29f,%r8d
    1ab9:	48 8d 05 20 00 00 00 	lea    0x20(%rip),%rax        # 1ae0 <pdsp_debounce_cnt+0x45>
    1ac0:	48 89 c2             	mov    %rax,%rdx
    1ac3:	48 8d 05 27 00 00 00 	lea    0x27(%rip),%rax        # 1af1 <pdsp_debounce_cnt+0x56>
    1aca:	48 89 c1             	mov    %rax,%rcx
    1acd:	e8 2e e5 ff ff       	call   0 <printf>
    1ad2:	48 8b 45 10          	mov    0x10(%rbp),%rax
    1ad6:	0f b6 00             	movzbl (%rax),%eax
    1ad9:	83 f0 01             	xor    $0x1,%eax
    1adc:	84 c0                	test   %al,%al
    1ade:	74 41                	je     1b21 <pdsp_debounce_cnt+0x86>
    1ae0:	80 7d 18 00          	cmpb   $0x0,0x18(%rbp)
    1ae4:	74 3b                	je     1b21 <pdsp_debounce_cnt+0x86>
    1ae6:	48 8b 45 10          	mov    0x10(%rbp),%rax
    1aea:	0f b7 40 02          	movzwl 0x2(%rax),%eax
    1aee:	8d 50 01             	lea    0x1(%rax),%edx
    1af1:	48 8b 45 10          	mov    0x10(%rbp),%rax
    1af5:	66 89 50 02          	mov    %dx,0x2(%rax)
    1af9:	48 8b 45 10          	mov    0x10(%rbp),%rax
    1afd:	0f b7 50 02          	movzwl 0x2(%rax),%edx
    1b01:	48 8b 45 10          	mov    0x10(%rbp),%rax
    1b05:	0f b7 40 04          	movzwl 0x4(%rax),%eax
    1b09:	66 39 d0             	cmp    %dx,%ax
    1b0c:	73 6e                	jae    1b7c <pdsp_debounce_cnt+0xe1>
    1b0e:	48 8b 45 10          	mov    0x10(%rbp),%rax
    1b12:	c6 00 01             	movb   $0x1,(%rax)
    1b15:	48 8b 45 10          	mov    0x10(%rbp),%rax
    1b19:	66 c7 40 02 00 00    	movw   $0x0,0x2(%rax)
    1b1f:	eb 5b                	jmp    1b7c <pdsp_debounce_cnt+0xe1>
    1b21:	48 8b 45 10          	mov    0x10(%rbp),%rax
    1b25:	0f b6 00             	movzbl (%rax),%eax
    1b28:	84 c0                	test   %al,%al
    1b2a:	74 46                	je     1b72 <pdsp_debounce_cnt+0xd7>
    1b2c:	0f b6 45 18          	movzbl 0x18(%rbp),%eax
    1b30:	83 f0 01             	xor    $0x1,%eax
    1b33:	84 c0                	test   %al,%al
    1b35:	74 3b                	je     1b72 <pdsp_debounce_cnt+0xd7>
    1b37:	48 8b 45 10          	mov    0x10(%rbp),%rax
    1b3b:	0f b7 40 02          	movzwl 0x2(%rax),%eax
    1b3f:	8d 50 01             	lea    0x1(%rax),%edx
    1b42:	48 8b 45 10          	mov    0x10(%rbp),%rax
    1b46:	66 89 50 02          	mov    %dx,0x2(%rax)
    1b4a:	48 8b 45 10          	mov    0x10(%rbp),%rax
    1b4e:	0f b7 50 02          	movzwl 0x2(%rax),%edx
    1b52:	48 8b 45 10          	mov    0x10(%rbp),%rax
    1b56:	0f b7 40 06          	movzwl 0x6(%rax),%eax
    1b5a:	66 39 d0             	cmp    %dx,%ax
    1b5d:	73 1d                	jae    1b7c <pdsp_debounce_cnt+0xe1>
    1b5f:	48 8b 45 10          	mov    0x10(%rbp),%rax
    1b63:	c6 00 00             	movb   $0x0,(%rax)
    1b66:	48 8b 45 10          	mov    0x10(%rbp),%rax
    1b6a:	66 c7 40 02 00 00    	movw   $0x0,0x2(%rax)
    1b70:	eb 0a                	jmp    1b7c <pdsp_debounce_cnt+0xe1>
    1b72:	48 8b 45 10          	mov    0x10(%rbp),%rax
    1b76:	66 c7 40 02 00 00    	movw   $0x0,0x2(%rax)
    1b7c:	48 8b 45 10          	mov    0x10(%rbp),%rax
    1b80:	0f b6 00             	movzbl (%rax),%eax
    1b83:	48 83 c4 20          	add    $0x20,%rsp
    1b87:	5d                   	pop    %rbp
    1b88:	c3                   	ret

0000000000001b89 <pdsp_robust_clear>:
    1b89:	55                   	push   %rbp
    1b8a:	48 89 e5             	mov    %rsp,%rbp
    1b8d:	48 83 ec 20          	sub    $0x20,%rsp
    1b91:	48 89 4d 10          	mov    %rcx,0x10(%rbp)
    1b95:	48 83 7d 10 00       	cmpq   $0x0,0x10(%rbp)
    1b9a:	75 1f                	jne    1bbb <pdsp_robust_clear+0x32>
    1b9c:	41 b8 be 02 00 00    	mov    $0x2be,%r8d
    1ba2:	48 8d 05 20 00 00 00 	lea    0x20(%rip),%rax        # 1bc9 <pdsp_robust_clear+0x40>
    1ba9:	48 89 c2             	mov    %rax,%rdx
    1bac:	48 8d 05 27 00 00 00 	lea    0x27(%rip),%rax        # 1bda <pdsp_robust+0x2>
    1bb3:	48 89 c1             	mov    %rax,%rcx
    1bb6:	e8 45 e4 ff ff       	call   0 <printf>
    1bbb:	48 8b 45 10          	mov    0x10(%rbp),%rax
    1bbf:	66 c7 00 00 00       	movw   $0x0,(%rax)
    1bc4:	48 8b 45 10          	mov    0x10(%rbp),%rax
    1bc8:	66 0f ef c0          	pxor   %xmm0,%xmm0
    1bcc:	f3 0f 11 40 04       	movss  %xmm0,0x4(%rax)
    1bd1:	90                   	nop
    1bd2:	48 83 c4 20          	add    $0x20,%rsp
    1bd6:	5d                   	pop    %rbp
    1bd7:	c3                   	ret

0000000000001bd8 <pdsp_robust>:
    1bd8:	55                   	push   %rbp
    1bd9:	48 89 e5             	mov    %rsp,%rbp
    1bdc:	48 83 ec 20          	sub    $0x20,%rsp
    1be0:	48 89 4d 10          	mov    %rcx,0x10(%rbp)
    1be4:	f3 0f 11 4d 18       	movss  %xmm1,0x18(%rbp)
    1be9:	48 83 7d 10 00       	cmpq   $0x0,0x10(%rbp)
    1bee:	75 1f                	jne    1c0f <pdsp_robust+0x37>
    1bf0:	41 b8 c5 02 00 00    	mov    $0x2c5,%r8d
    1bf6:	48 8d 05 20 00 00 00 	lea    0x20(%rip),%rax        # 1c1d <pdsp_robust+0x45>
    1bfd:	48 89 c2             	mov    %rax,%rdx
    1c00:	48 8d 05 27 00 00 00 	lea    0x27(%rip),%rax        # 1c2e <pdsp_robust+0x56>
    1c07:	48 89 c1             	mov    %rax,%rcx
    1c0a:	e8 f1 e3 ff ff       	call   0 <printf>
    1c0f:	48 8b 45 10          	mov    0x10(%rbp),%rax
    1c13:	48 8b 50 10          	mov    0x10(%rax),%rdx
    1c17:	48 8b 45 10          	mov    0x10(%rbp),%rax
    1c1b:	0f b7 00             	movzwl (%rax),%eax
    1c1e:	0f b7 c0             	movzwl %ax,%eax
    1c21:	48 c1 e0 02          	shl    $0x2,%rax
    1c25:	48 01 d0             	add    %rdx,%rax
    1c28:	f3 0f 10 08          	movss  (%rax),%xmm1
    1c2c:	f3 0f 10 45 18       	movss  0x18(%rbp),%xmm0
    1c31:	0f 2f c1             	comiss %xmm1,%xmm0
    1c34:	0f 86 a9 00 00 00    	jbe    1ce3 <pdsp_robust+0x10b>
    1c3a:	48 8b 45 10          	mov    0x10(%rbp),%rax
    1c3e:	0f b7 00             	movzwl (%rax),%eax
    1c41:	0f b7 d0             	movzwl %ax,%edx
    1c44:	48 8b 45 10          	mov    0x10(%rbp),%rax
    1c48:	0f b7 40 30          	movzwl 0x30(%rax),%eax
    1c4c:	0f b7 c0             	movzwl %ax,%eax
    1c4f:	83 e8 01             	sub    $0x1,%eax
    1c52:	39 c2                	cmp    %eax,%edx
    1c54:	7d 1f                	jge    1c75 <pdsp_robust+0x9d>
    1c56:	48 8b 45 10          	mov    0x10(%rbp),%rax
    1c5a:	f3 0f 10 48 04       	movss  0x4(%rax),%xmm1
    1c5f:	48 8b 45 10          	mov    0x10(%rbp),%rax
    1c63:	f3 0f 10 40 08       	movss  0x8(%rax),%xmm0
    1c68:	f3 0f 58 c1          	addss  %xmm1,%xmm0
    1c6c:	48 8b 45 10          	mov    0x10(%rbp),%rax
    1c70:	f3 0f 11 40 04       	movss  %xmm0,0x4(%rax)
    1c75:	48 8b 45 10          	mov    0x10(%rbp),%rax
    1c79:	f3 0f 10 40 04       	movss  0x4(%rax),%xmm0
    1c7e:	48 8b 45 10          	mov    0x10(%rbp),%rax
    1c82:	48 8b 50 20          	mov    0x20(%rax),%rdx
    1c86:	48 8b 45 10          	mov    0x10(%rbp),%rax
    1c8a:	0f b7 00             	movzwl (%rax),%eax
    1c8d:	0f b7 c0             	movzwl %ax,%eax
    1c90:	48 c1 e0 02          	shl    $0x2,%rax
    1c94:	48 01 d0             	add    %rdx,%rax
    1c97:	f3 0f 10 08          	movss  (%rax),%xmm1
    1c9b:	0f 2f c1             	comiss %xmm1,%xmm0
    1c9e:	0f 86 f5 00 00 00    	jbe    1d99 <pdsp_robust+0x1c1>
    1ca4:	48 8b 45 10          	mov    0x10(%rbp),%rax
    1ca8:	0f b7 00             	movzwl (%rax),%eax
    1cab:	0f b7 d0             	movzwl %ax,%edx
    1cae:	48 8b 45 10          	mov    0x10(%rbp),%rax
    1cb2:	0f b7 40 30          	movzwl 0x30(%rax),%eax
    1cb6:	0f b7 c0             	movzwl %ax,%eax
    1cb9:	83 e8 01             	sub    $0x1,%eax
    1cbc:	39 c2                	cmp    %eax,%edx
    1cbe:	7d 11                	jge    1cd1 <pdsp_robust+0xf9>
    1cc0:	48 8b 45 10          	mov    0x10(%rbp),%rax
    1cc4:	0f b7 00             	movzwl (%rax),%eax
    1cc7:	8d 50 01             	lea    0x1(%rax),%edx
    1cca:	48 8b 45 10          	mov    0x10(%rbp),%rax
    1cce:	66 89 10             	mov    %dx,(%rax)
    1cd1:	48 8b 45 10          	mov    0x10(%rbp),%rax
    1cd5:	66 0f ef c0          	pxor   %xmm0,%xmm0
    1cd9:	f3 0f 11 40 04       	movss  %xmm0,0x4(%rax)
    1cde:	e9 b6 00 00 00       	jmp    1d99 <pdsp_robust+0x1c1>
    1ce3:	48 8b 45 10          	mov    0x10(%rbp),%rax
    1ce7:	48 8b 50 18          	mov    0x18(%rax),%rdx
    1ceb:	48 8b 45 10          	mov    0x10(%rbp),%rax
    1cef:	0f b7 00             	movzwl (%rax),%eax
    1cf2:	0f b7 c0             	movzwl %ax,%eax
    1cf5:	48 c1 e0 02          	shl    $0x2,%rax
    1cf9:	48 01 d0             	add    %rdx,%rax
    1cfc:	f3 0f 10 00          	movss  (%rax),%xmm0
    1d00:	0f 2f 45 18          	comiss 0x18(%rbp),%xmm0
    1d04:	0f 86 82 00 00 00    	jbe    1d8c <pdsp_robust+0x1b4>
    1d0a:	48 8b 45 10          	mov    0x10(%rbp),%rax
    1d0e:	0f b7 00             	movzwl (%rax),%eax
    1d11:	66 85 c0             	test   %ax,%ax
    1d14:	74 1f                	je     1d35 <pdsp_robust+0x15d>
    1d16:	48 8b 45 10          	mov    0x10(%rbp),%rax
    1d1a:	f3 0f 10 48 04       	movss  0x4(%rax),%xmm1
    1d1f:	48 8b 45 10          	mov    0x10(%rbp),%rax
    1d23:	f3 0f 10 40 08       	movss  0x8(%rax),%xmm0
    1d28:	f3 0f 58 c1          	addss  %xmm1,%xmm0
    1d2c:	48 8b 45 10          	mov    0x10(%rbp),%rax
    1d30:	f3 0f 11 40 04       	movss  %xmm0,0x4(%rax)
    1d35:	48 8b 45 10          	mov    0x10(%rbp),%rax
    1d39:	f3 0f 10 40 04       	movss  0x4(%rax),%xmm0
    1d3e:	48 8b 45 10          	mov    0x10(%rbp),%rax
    1d42:	48 8b 50 28          	mov    0x28(%rax),%rdx
    1d46:	48 8b 45 10          	mov    0x10(%rbp),%rax
    1d4a:	0f b7 00             	movzwl (%rax),%eax
    1d4d:	0f b7 c0             	movzwl %ax,%eax
    1d50:	48 c1 e0 02          	shl    $0x2,%rax
    1d54:	48 01 d0             	add    %rdx,%rax
    1d57:	f3 0f 10 08          	movss  (%rax),%xmm1
    1d5b:	0f 2f c1             	comiss %xmm1,%xmm0
    1d5e:	76 39                	jbe    1d99 <pdsp_robust+0x1c1>
    1d60:	48 8b 45 10          	mov    0x10(%rbp),%rax
    1d64:	0f b7 00             	movzwl (%rax),%eax
    1d67:	66 85 c0             	test   %ax,%ax
    1d6a:	74 11                	je     1d7d <pdsp_robust+0x1a5>
    1d6c:	48 8b 45 10          	mov    0x10(%rbp),%rax
    1d70:	0f b7 00             	movzwl (%rax),%eax
    1d73:	8d 50 ff             	lea    -0x1(%rax),%edx
    1d76:	48 8b 45 10          	mov    0x10(%rbp),%rax
    1d7a:	66 89 10             	mov    %dx,(%rax)
    1d7d:	48 8b 45 10          	mov    0x10(%rbp),%rax
    1d81:	66 0f ef c0          	pxor   %xmm0,%xmm0
    1d85:	f3 0f 11 40 04       	movss  %xmm0,0x4(%rax)
    1d8a:	eb 0d                	jmp    1d99 <pdsp_robust+0x1c1>
    1d8c:	48 8b 45 10          	mov    0x10(%rbp),%rax
    1d90:	66 0f ef c0          	pxor   %xmm0,%xmm0
    1d94:	f3 0f 11 40 04       	movss  %xmm0,0x4(%rax)
    1d99:	48 8b 45 10          	mov    0x10(%rbp),%rax
    1d9d:	0f b7 00             	movzwl (%rax),%eax
    1da0:	48 83 c4 20          	add    $0x20,%rsp
    1da4:	5d                   	pop    %rbp
    1da5:	c3                   	ret

0000000000001da6 <pdsp_backlash_init>:
    1da6:	55                   	push   %rbp
    1da7:	48 89 e5             	mov    %rsp,%rbp
    1daa:	48 83 ec 20          	sub    $0x20,%rsp
    1dae:	48 89 4d 10          	mov    %rcx,0x10(%rbp)
    1db2:	f3 0f 11 4d 18       	movss  %xmm1,0x18(%rbp)
    1db7:	f3 0f 11 55 20       	movss  %xmm2,0x20(%rbp)
    1dbc:	48 83 7d 10 00       	cmpq   $0x0,0x10(%rbp)
    1dc1:	75 1f                	jne    1de2 <pdsp_backlash_init+0x3c>
    1dc3:	41 b8 f7 02 00 00    	mov    $0x2f7,%r8d
    1dc9:	48 8d 05 20 00 00 00 	lea    0x20(%rip),%rax        # 1df0 <pdsp_backlash_init+0x4a>
    1dd0:	48 89 c2             	mov    %rax,%rdx
    1dd3:	48 8d 05 27 00 00 00 	lea    0x27(%rip),%rax        # 1e01 <pdsp_backlash_init+0x5b>
    1dda:	48 89 c1             	mov    %rax,%rcx
    1ddd:	e8 1e e2 ff ff       	call   0 <printf>
    1de2:	48 8b 45 10          	mov    0x10(%rbp),%rax
    1de6:	f3 0f 10 45 18       	movss  0x18(%rbp),%xmm0
    1deb:	f3 0f 11 00          	movss  %xmm0,(%rax)
    1def:	48 8b 45 10          	mov    0x10(%rbp),%rax
    1df3:	f3 0f 10 45 20       	movss  0x20(%rbp),%xmm0
    1df8:	f3 0f 11 40 04       	movss  %xmm0,0x4(%rax)
    1dfd:	90                   	nop
    1dfe:	48 83 c4 20          	add    $0x20,%rsp
    1e02:	5d                   	pop    %rbp
    1e03:	c3                   	ret

0000000000001e04 <pdsp_backlash>:
    1e04:	55                   	push   %rbp
    1e05:	48 89 e5             	mov    %rsp,%rbp
    1e08:	48 83 ec 20          	sub    $0x20,%rsp
    1e0c:	48 89 4d 10          	mov    %rcx,0x10(%rbp)
    1e10:	f3 0f 11 4d 18       	movss  %xmm1,0x18(%rbp)
    1e15:	48 83 7d 10 00       	cmpq   $0x0,0x10(%rbp)
    1e1a:	75 1f                	jne    1e3b <pdsp_backlash+0x37>
    1e1c:	41 b8 fe 02 00 00    	mov    $0x2fe,%r8d
    1e22:	48 8d 05 20 00 00 00 	lea    0x20(%rip),%rax        # 1e49 <pdsp_backlash+0x45>
    1e29:	48 89 c2             	mov    %rax,%rdx
    1e2c:	48 8d 05 27 00 00 00 	lea    0x27(%rip),%rax        # 1e5a <pdsp_backlash+0x56>
    1e33:	48 89 c1             	mov    %rax,%rcx
    1e36:	e8 c5 e1 ff ff       	call   0 <printf>
    1e3b:	48 8b 45 10          	mov    0x10(%rbp),%rax
    1e3f:	f3 0f 10 08          	movss  (%rax),%xmm1
    1e43:	f3 0f 10 45 18       	movss  0x18(%rbp),%xmm0
    1e48:	f3 0f 5c c1          	subss  %xmm1,%xmm0
    1e4c:	66 0f 7e c0          	movd   %xmm0,%eax
    1e50:	48 8b 55 10          	mov    0x10(%rbp),%rdx
    1e54:	f3 0f 10 42 04       	movss  0x4(%rdx),%xmm0
    1e59:	0f 28 c8             	movaps %xmm0,%xmm1
    1e5c:	66 0f 6e c0          	movd   %eax,%xmm0
    1e60:	e8 00 00 00 00       	call   1e65 <pdsp_backlash+0x61>
    1e65:	66 0f 7e c0          	movd   %xmm0,%eax
    1e69:	48 8b 55 10          	mov    0x10(%rbp),%rdx
    1e6d:	89 42 04             	mov    %eax,0x4(%rdx)
    1e70:	48 8b 45 10          	mov    0x10(%rbp),%rax
    1e74:	f3 0f 10 00          	movss  (%rax),%xmm0
    1e78:	f3 0f 58 45 18       	addss  0x18(%rbp),%xmm0
    1e7d:	66 0f 7e c0          	movd   %xmm0,%eax
    1e81:	48 8b 55 10          	mov    0x10(%rbp),%rdx
    1e85:	f3 0f 10 42 04       	movss  0x4(%rdx),%xmm0
    1e8a:	0f 28 c8             	movaps %xmm0,%xmm1
    1e8d:	66 0f 6e c0          	movd   %eax,%xmm0
    1e91:	e8 00 00 00 00       	call   1e96 <pdsp_backlash+0x92>
    1e96:	66 0f 7e c0          	movd   %xmm0,%eax
    1e9a:	48 8b 55 10          	mov    0x10(%rbp),%rdx
    1e9e:	89 42 04             	mov    %eax,0x4(%rdx)
    1ea1:	48 8b 45 10          	mov    0x10(%rbp),%rax
    1ea5:	f3 0f 10 40 04       	movss  0x4(%rax),%xmm0
    1eaa:	48 83 c4 20          	add    $0x20,%rsp
    1eae:	5d                   	pop    %rbp
    1eaf:	c3                   	ret

0000000000001eb0 <pdsp_edge_delay_init>:
    1eb0:	55                   	push   %rbp
    1eb1:	48 89 e5             	mov    %rsp,%rbp
    1eb4:	48 83 ec 20          	sub    $0x20,%rsp
    1eb8:	48 89 4d 10          	mov    %rcx,0x10(%rbp)
    1ebc:	89 d0                	mov    %edx,%eax
    1ebe:	44 89 c1             	mov    %r8d,%ecx
    1ec1:	44 89 ca             	mov    %r9d,%edx
    1ec4:	66 89 45 18          	mov    %ax,0x18(%rbp)
    1ec8:	89 c8                	mov    %ecx,%eax
    1eca:	66 89 45 20          	mov    %ax,0x20(%rbp)
    1ece:	89 d0                	mov    %edx,%eax
    1ed0:	66 89 45 28          	mov    %ax,0x28(%rbp)
    1ed4:	48 83 7d 10 00       	cmpq   $0x0,0x10(%rbp)
    1ed9:	75 1f                	jne    1efa <pdsp_edge_delay_init+0x4a>
    1edb:	41 b8 09 03 00 00    	mov    $0x309,%r8d
    1ee1:	48 8d 05 20 00 00 00 	lea    0x20(%rip),%rax        # 1f08 <pdsp_edge_delay_init+0x58>
    1ee8:	48 89 c2             	mov    %rax,%rdx
    1eeb:	48 8d 05 27 00 00 00 	lea    0x27(%rip),%rax        # 1f19 <pdsp_edge_delay_init+0x69>
    1ef2:	48 89 c1             	mov    %rax,%rcx
    1ef5:	e8 06 e1 ff ff       	call   0 <printf>
    1efa:	48 8b 45 10          	mov    0x10(%rbp),%rax
    1efe:	0f b7 55 18          	movzwl 0x18(%rbp),%edx
    1f02:	66 89 10             	mov    %dx,(%rax)
    1f05:	48 8b 45 10          	mov    0x10(%rbp),%rax
    1f09:	66 c7 40 02 00 00    	movw   $0x0,0x2(%rax)
    1f0f:	48 8b 45 10          	mov    0x10(%rbp),%rax
    1f13:	0f b7 55 20          	movzwl 0x20(%rbp),%edx
    1f17:	66 89 50 04          	mov    %dx,0x4(%rax)
    1f1b:	48 8b 45 10          	mov    0x10(%rbp),%rax
    1f1f:	0f b7 55 28          	movzwl 0x28(%rbp),%edx
    1f23:	66 89 50 06          	mov    %dx,0x6(%rax)
    1f27:	90                   	nop
    1f28:	48 83 c4 20          	add    $0x20,%rsp
    1f2c:	5d                   	pop    %rbp
    1f2d:	c3                   	ret

0000000000001f2e <pdsp_edge_delay>:
    1f2e:	55                   	push   %rbp
    1f2f:	48 89 e5             	mov    %rsp,%rbp
    1f32:	48 83 ec 20          	sub    $0x20,%rsp
    1f36:	48 89 4d 10          	mov    %rcx,0x10(%rbp)
    1f3a:	89 d0                	mov    %edx,%eax
    1f3c:	66 89 45 18          	mov    %ax,0x18(%rbp)
    1f40:	48 83 7d 10 00       	cmpq   $0x0,0x10(%rbp)
    1f45:	75 1f                	jne    1f66 <pdsp_edge_delay+0x38>
    1f47:	41 b8 13 03 00 00    	mov    $0x313,%r8d
    1f4d:	48 8d 05 20 00 00 00 	lea    0x20(%rip),%rax        # 1f74 <pdsp_edge_delay+0x46>
    1f54:	48 89 c2             	mov    %rax,%rdx
    1f57:	48 8d 05 27 00 00 00 	lea    0x27(%rip),%rax        # 1f85 <pdsp_edge_delay+0x57>
    1f5e:	48 89 c1             	mov    %rax,%rcx
    1f61:	e8 9a e0 ff ff       	call   0 <printf>
    1f66:	48 8b 45 10          	mov    0x10(%rbp),%rax
    1f6a:	0f b7 00             	movzwl (%rax),%eax
    1f6d:	66 3b 45 18          	cmp    0x18(%rbp),%ax
    1f71:	73 41                	jae    1fb4 <pdsp_edge_delay+0x86>
    1f73:	48 8b 45 10          	mov    0x10(%rbp),%rax
    1f77:	0f b7 50 02          	movzwl 0x2(%rax),%edx
    1f7b:	48 8b 45 10          	mov    0x10(%rbp),%rax
    1f7f:	0f b7 40 04          	movzwl 0x4(%rax),%eax
    1f83:	66 39 c2             	cmp    %ax,%dx
    1f86:	73 15                	jae    1f9d <pdsp_edge_delay+0x6f>
    1f88:	48 8b 45 10          	mov    0x10(%rbp),%rax
    1f8c:	0f b7 40 02          	movzwl 0x2(%rax),%eax
    1f90:	8d 50 01             	lea    0x1(%rax),%edx
    1f93:	48 8b 45 10          	mov    0x10(%rbp),%rax
    1f97:	66 89 50 02          	mov    %dx,0x2(%rax)
    1f9b:	eb 6f                	jmp    200c <pdsp_edge_delay+0xde>
    1f9d:	48 8b 45 10          	mov    0x10(%rbp),%rax
    1fa1:	66 c7 40 02 00 00    	movw   $0x0,0x2(%rax)
    1fa7:	48 8b 45 10          	mov    0x10(%rbp),%rax
    1fab:	0f b7 55 18          	movzwl 0x18(%rbp),%edx
    1faf:	66 89 10             	mov    %dx,(%rax)
    1fb2:	eb 58                	jmp    200c <pdsp_edge_delay+0xde>
    1fb4:	48 8b 45 10          	mov    0x10(%rbp),%rax
    1fb8:	0f b7 00             	movzwl (%rax),%eax
    1fbb:	66 39 45 18          	cmp    %ax,0x18(%rbp)
    1fbf:	73 41                	jae    2002 <pdsp_edge_delay+0xd4>
    1fc1:	48 8b 45 10          	mov    0x10(%rbp),%rax
    1fc5:	0f b7 50 02          	movzwl 0x2(%rax),%edx
    1fc9:	48 8b 45 10          	mov    0x10(%rbp),%rax
    1fcd:	0f b7 40 06          	movzwl 0x6(%rax),%eax
    1fd1:	66 39 c2             	cmp    %ax,%dx
    1fd4:	73 15                	jae    1feb <pdsp_edge_delay+0xbd>
    1fd6:	48 8b 45 10          	mov    0x10(%rbp),%rax
    1fda:	0f b7 40 02          	movzwl 0x2(%rax),%eax
    1fde:	8d 50 01             	lea    0x1(%rax),%edx
    1fe1:	48 8b 45 10          	mov    0x10(%rbp),%rax
    1fe5:	66 89 50 02          	mov    %dx,0x2(%rax)
    1fe9:	eb 21                	jmp    200c <pdsp_edge_delay+0xde>
    1feb:	48 8b 45 10          	mov    0x10(%rbp),%rax
    1fef:	66 c7 40 02 00 00    	movw   $0x0,0x2(%rax)
    1ff5:	48 8b 45 10          	mov    0x10(%rbp),%rax
    1ff9:	0f b7 55 18          	movzwl 0x18(%rbp),%edx
    1ffd:	66 89 10             	mov    %dx,(%rax)
    2000:	eb 0a                	jmp    200c <pdsp_edge_delay+0xde>
    2002:	48 8b 45 10          	mov    0x10(%rbp),%rax
    2006:	66 c7 40 02 00 00    	movw   $0x0,0x2(%rax)
    200c:	48 8b 45 10          	mov    0x10(%rbp),%rax
    2010:	0f b7 00             	movzwl (%rax),%eax
    2013:	48 83 c4 20          	add    $0x20,%rsp
    2017:	5d                   	pop    %rbp
    2018:	c3                   	ret

0000000000002019 <pdsp_monoflop_init>:
    2019:	55                   	push   %rbp
    201a:	48 89 e5             	mov    %rsp,%rbp
    201d:	48 83 ec 20          	sub    $0x20,%rsp
    2021:	48 89 4d 10          	mov    %rcx,0x10(%rbp)
    2025:	89 d0                	mov    %edx,%eax
    2027:	44 89 c1             	mov    %r8d,%ecx
    202a:	44 89 ca             	mov    %r9d,%edx
    202d:	66 89 45 18          	mov    %ax,0x18(%rbp)
    2031:	89 c8                	mov    %ecx,%eax
    2033:	66 89 45 20          	mov    %ax,0x20(%rbp)
    2037:	89 d0                	mov    %edx,%eax
    2039:	66 89 45 28          	mov    %ax,0x28(%rbp)
    203d:	48 83 7d 10 00       	cmpq   $0x0,0x10(%rbp)
    2042:	75 1f                	jne    2063 <pdsp_monoflop_init+0x4a>
    2044:	41 b8 3b 03 00 00    	mov    $0x33b,%r8d
    204a:	48 8d 05 20 00 00 00 	lea    0x20(%rip),%rax        # 2071 <pdsp_monoflop_init+0x58>
    2051:	48 89 c2             	mov    %rax,%rdx
    2054:	48 8d 05 27 00 00 00 	lea    0x27(%rip),%rax        # 2082 <pdsp_monoflop_init+0x69>
    205b:	48 89 c1             	mov    %rax,%rcx
    205e:	e8 9d df ff ff       	call   0 <printf>
    2063:	48 8b 45 10          	mov    0x10(%rbp),%rax
    2067:	c6 00 00             	movb   $0x0,(%rax)
    206a:	48 8b 45 10          	mov    0x10(%rbp),%rax
    206e:	66 c7 40 02 00 00    	movw   $0x0,0x2(%rax)
    2074:	48 8b 45 10          	mov    0x10(%rbp),%rax
    2078:	0f b7 55 18          	movzwl 0x18(%rbp),%edx
    207c:	66 89 50 04          	mov    %dx,0x4(%rax)
    2080:	48 8b 45 10          	mov    0x10(%rbp),%rax
    2084:	0f b7 55 20          	movzwl 0x20(%rbp),%edx
    2088:	66 89 50 06          	mov    %dx,0x6(%rax)
    208c:	48 8b 45 10          	mov    0x10(%rbp),%rax
    2090:	0f b7 55 28          	movzwl 0x28(%rbp),%edx
    2094:	66 89 50 08          	mov    %dx,0x8(%rax)
    2098:	90                   	nop
    2099:	48 83 c4 20          	add    $0x20,%rsp
    209d:	5d                   	pop    %rbp
    209e:	c3                   	ret

000000000000209f <pdsp_monoflop>:
    209f:	55                   	push   %rbp
    20a0:	48 89 e5             	mov    %rsp,%rbp
    20a3:	48 83 ec 20          	sub    $0x20,%rsp
    20a7:	48 89 4d 10          	mov    %rcx,0x10(%rbp)
    20ab:	89 d0                	mov    %edx,%eax
    20ad:	88 45 18             	mov    %al,0x18(%rbp)
    20b0:	48 83 7d 10 00       	cmpq   $0x0,0x10(%rbp)
    20b5:	75 1f                	jne    20d6 <pdsp_monoflop+0x37>
    20b7:	41 b8 46 03 00 00    	mov    $0x346,%r8d
    20bd:	48 8d 05 20 00 00 00 	lea    0x20(%rip),%rax        # 20e4 <pdsp_monoflop+0x45>
    20c4:	48 89 c2             	mov    %rax,%rdx
    20c7:	48 8d 05 27 00 00 00 	lea    0x27(%rip),%rax        # 20f5 <pdsp_monoflop+0x56>
    20ce:	48 89 c1             	mov    %rax,%rcx
    20d1:	e8 2a df ff ff       	call   0 <printf>
    20d6:	80 7d 18 00          	cmpb   $0x0,0x18(%rbp)
    20da:	74 3f                	je     211b <pdsp_monoflop+0x7c>
    20dc:	48 8b 45 10          	mov    0x10(%rbp),%rax
    20e0:	0f b6 00             	movzbl (%rax),%eax
    20e3:	83 f0 01             	xor    $0x1,%eax
    20e6:	84 c0                	test   %al,%al
    20e8:	74 31                	je     211b <pdsp_monoflop+0x7c>
    20ea:	48 8b 45 10          	mov    0x10(%rbp),%rax
    20ee:	0f b7 40 02          	movzwl 0x2(%rax),%eax
    20f2:	66 85 c0             	test   %ax,%ax
    20f5:	75 24                	jne    211b <pdsp_monoflop+0x7c>
    20f7:	48 8b 45 10          	mov    0x10(%rbp),%rax
    20fb:	0f b7 50 04          	movzwl 0x4(%rax),%edx
    20ff:	48 8b 45 10          	mov    0x10(%rbp),%rax
    2103:	66 89 50 02          	mov    %dx,0x2(%rax)
    2107:	48 8b 45 10          	mov    0x10(%rbp),%rax
    210b:	0f b6 55 18          	movzbl 0x18(%rbp),%edx
    210f:	88 10                	mov    %dl,(%rax)
    2111:	48 8b 45 10          	mov    0x10(%rbp),%rax
    2115:	0f b7 40 08          	movzwl 0x8(%rax),%eax
    2119:	eb 53                	jmp    216e <pdsp_monoflop+0xcf>
    211b:	48 8b 45 10          	mov    0x10(%rbp),%rax
    211f:	0f b7 40 02          	movzwl 0x2(%rax),%eax
    2123:	66 85 c0             	test   %ax,%ax
    2126:	74 13                	je     213b <pdsp_monoflop+0x9c>
    2128:	48 8b 45 10          	mov    0x10(%rbp),%rax
    212c:	0f b7 40 02          	movzwl 0x2(%rax),%eax
    2130:	8d 50 ff             	lea    -0x1(%rax),%edx
    2133:	48 8b 45 10          	mov    0x10(%rbp),%rax
    2137:	66 89 50 02          	mov    %dx,0x2(%rax)
    213b:	48 8b 45 10          	mov    0x10(%rbp),%rax
    213f:	0f b7 40 02          	movzwl 0x2(%rax),%eax
    2143:	66 85 c0             	test   %ax,%ax
    2146:	74 14                	je     215c <pdsp_monoflop+0xbd>
    2148:	48 8b 45 10          	mov    0x10(%rbp),%rax
    214c:	0f b6 55 18          	movzbl 0x18(%rbp),%edx
    2150:	88 10                	mov    %dl,(%rax)
    2152:	48 8b 45 10          	mov    0x10(%rbp),%rax
    2156:	0f b7 40 08          	movzwl 0x8(%rax),%eax
    215a:	eb 12                	jmp    216e <pdsp_monoflop+0xcf>
    215c:	48 8b 45 10          	mov    0x10(%rbp),%rax
    2160:	0f b6 55 18          	movzbl 0x18(%rbp),%edx
    2164:	88 10                	mov    %dl,(%rax)
    2166:	48 8b 45 10          	mov    0x10(%rbp),%rax
    216a:	0f b7 40 06          	movzwl 0x6(%rax),%eax
    216e:	48 83 c4 20          	add    $0x20,%rsp
    2172:	5d                   	pop    %rbp
    2173:	c3                   	ret

0000000000002174 <pdsp_monoflop_rtr>:
    2174:	55                   	push   %rbp
    2175:	48 89 e5             	mov    %rsp,%rbp
    2178:	48 83 ec 20          	sub    $0x20,%rsp
    217c:	48 89 4d 10          	mov    %rcx,0x10(%rbp)
    2180:	89 d0                	mov    %edx,%eax
    2182:	88 45 18             	mov    %al,0x18(%rbp)
    2185:	48 83 7d 10 00       	cmpq   $0x0,0x10(%rbp)
    218a:	75 1f                	jne    21ab <pdsp_monoflop_rtr+0x37>
    218c:	41 b8 61 03 00 00    	mov    $0x361,%r8d
    2192:	48 8d 05 20 00 00 00 	lea    0x20(%rip),%rax        # 21b9 <pdsp_monoflop_rtr+0x45>
    2199:	48 89 c2             	mov    %rax,%rdx
    219c:	48 8d 05 27 00 00 00 	lea    0x27(%rip),%rax        # 21ca <pdsp_monoflop_rtr+0x56>
    21a3:	48 89 c1             	mov    %rax,%rcx
    21a6:	e8 55 de ff ff       	call   0 <printf>
    21ab:	80 7d 18 00          	cmpb   $0x0,0x18(%rbp)
    21af:	74 32                	je     21e3 <pdsp_monoflop_rtr+0x6f>
    21b1:	48 8b 45 10          	mov    0x10(%rbp),%rax
    21b5:	0f b6 00             	movzbl (%rax),%eax
    21b8:	83 f0 01             	xor    $0x1,%eax
    21bb:	84 c0                	test   %al,%al
    21bd:	74 24                	je     21e3 <pdsp_monoflop_rtr+0x6f>
    21bf:	48 8b 45 10          	mov    0x10(%rbp),%rax
    21c3:	0f b7 50 04          	movzwl 0x4(%rax),%edx
    21c7:	48 8b 45 10          	mov    0x10(%rbp),%rax
    21cb:	66 89 50 02          	mov    %dx,0x2(%rax)
    21cf:	48 8b 45 10          	mov    0x10(%rbp),%rax
    21d3:	0f b6 55 18          	movzbl 0x18(%rbp),%edx
    21d7:	88 10                	mov    %dl,(%rax)
    21d9:	48 8b 45 10          	mov    0x10(%rbp),%rax
    21dd:	0f b7 40 08          	movzwl 0x8(%rax),%eax
    21e1:	eb 53                	jmp    2236 <pdsp_monoflop_rtr+0xc2>
    21e3:	48 8b 45 10          	mov    0x10(%rbp),%rax
    21e7:	0f b7 40 02          	movzwl 0x2(%rax),%eax
    21eb:	66 85 c0             	test   %ax,%ax
    21ee:	74 13                	je     2203 <pdsp_monoflop_rtr+0x8f>
    21f0:	48 8b 45 10          	mov    0x10(%rbp),%rax
    21f4:	0f b7 40 02          	movzwl 0x2(%rax),%eax
    21f8:	8d 50 ff             	lea    -0x1(%rax),%edx
    21fb:	48 8b 45 10          	mov    0x10(%rbp),%rax
    21ff:	66 89 50 02          	mov    %dx,0x2(%rax)
    2203:	48 8b 45 10          	mov    0x10(%rbp),%rax
    2207:	0f b7 40 02          	movzwl 0x2(%rax),%eax
    220b:	66 85 c0             	test   %ax,%ax
    220e:	74 14                	je     2224 <pdsp_monoflop_rtr+0xb0>
    2210:	48 8b 45 10          	mov    0x10(%rbp),%rax
    2214:	0f b6 55 18          	movzbl 0x18(%rbp),%edx
    2218:	88 10                	mov    %dl,(%rax)
    221a:	48 8b 45 10          	mov    0x10(%rbp),%rax
    221e:	0f b7 40 08          	movzwl 0x8(%rax),%eax
    2222:	eb 12                	jmp    2236 <pdsp_monoflop_rtr+0xc2>
    2224:	48 8b 45 10          	mov    0x10(%rbp),%rax
    2228:	0f b6 55 18          	movzbl 0x18(%rbp),%edx
    222c:	88 10                	mov    %dl,(%rax)
    222e:	48 8b 45 10          	mov    0x10(%rbp),%rax
    2232:	0f b7 40 06          	movzwl 0x6(%rax),%eax
    2236:	48 83 c4 20          	add    $0x20,%rsp
    223a:	5d                   	pop    %rbp
    223b:	c3                   	ret

000000000000223c <pdsp_monoflop_rtr_det>:
    223c:	55                   	push   %rbp
    223d:	48 89 e5             	mov    %rsp,%rbp
    2240:	48 83 ec 20          	sub    $0x20,%rsp
    2244:	48 89 4d 10          	mov    %rcx,0x10(%rbp)
    2248:	89 d0                	mov    %edx,%eax
    224a:	88 45 18             	mov    %al,0x18(%rbp)
    224d:	48 83 7d 10 00       	cmpq   $0x0,0x10(%rbp)
    2252:	75 1f                	jne    2273 <pdsp_monoflop_rtr_det+0x37>
    2254:	41 b8 7b 03 00 00    	mov    $0x37b,%r8d
    225a:	48 8d 05 20 00 00 00 	lea    0x20(%rip),%rax        # 2281 <pdsp_monoflop_rtr_det+0x45>
    2261:	48 89 c2             	mov    %rax,%rdx
    2264:	48 8d 05 27 00 00 00 	lea    0x27(%rip),%rax        # 2292 <pdsp_monoflop_rtr_det+0x56>
    226b:	48 89 c1             	mov    %rax,%rcx
    226e:	e8 8d dd ff ff       	call   0 <printf>
    2273:	48 8b 45 10          	mov    0x10(%rbp),%rax
    2277:	0f b6 00             	movzbl (%rax),%eax
    227a:	38 45 18             	cmp    %al,0x18(%rbp)
    227d:	74 24                	je     22a3 <pdsp_monoflop_rtr_det+0x67>
    227f:	48 8b 45 10          	mov    0x10(%rbp),%rax
    2283:	0f b7 50 04          	movzwl 0x4(%rax),%edx
    2287:	48 8b 45 10          	mov    0x10(%rbp),%rax
    228b:	66 89 50 02          	mov    %dx,0x2(%rax)
    228f:	48 8b 45 10          	mov    0x10(%rbp),%rax
    2293:	0f b6 55 18          	movzbl 0x18(%rbp),%edx
    2297:	88 10                	mov    %dl,(%rax)
    2299:	48 8b 45 10          	mov    0x10(%rbp),%rax
    229d:	0f b7 40 08          	movzwl 0x8(%rax),%eax
    22a1:	eb 46                	jmp    22e9 <pdsp_monoflop_rtr_det+0xad>
    22a3:	48 8b 45 10          	mov    0x10(%rbp),%rax
    22a7:	0f b7 40 02          	movzwl 0x2(%rax),%eax
    22ab:	66 85 c0             	test   %ax,%ax
    22ae:	74 27                	je     22d7 <pdsp_monoflop_rtr_det+0x9b>
    22b0:	48 8b 45 10          	mov    0x10(%rbp),%rax
    22b4:	0f b7 40 02          	movzwl 0x2(%rax),%eax
    22b8:	8d 50 ff             	lea    -0x1(%rax),%edx
    22bb:	48 8b 45 10          	mov    0x10(%rbp),%rax
    22bf:	66 89 50 02          	mov    %dx,0x2(%rax)
    22c3:	48 8b 45 10          	mov    0x10(%rbp),%rax
    22c7:	0f b6 55 18          	movzbl 0x18(%rbp),%edx
    22cb:	88 10                	mov    %dl,(%rax)
    22cd:	48 8b 45 10          	mov    0x10(%rbp),%rax
    22d1:	0f b7 40 08          	movzwl 0x8(%rax),%eax
    22d5:	eb 12                	jmp    22e9 <pdsp_monoflop_rtr_det+0xad>
    22d7:	48 8b 45 10          	mov    0x10(%rbp),%rax
    22db:	0f b6 55 18          	movzbl 0x18(%rbp),%edx
    22df:	88 10                	mov    %dl,(%rax)
    22e1:	48 8b 45 10          	mov    0x10(%rbp),%rax
    22e5:	0f b7 40 06          	movzwl 0x6(%rax),%eax
    22e9:	48 83 c4 20          	add    $0x20,%rsp
    22ed:	5d                   	pop    %rbp
    22ee:	c3                   	ret

00000000000022ef <pdsp_pulse_init>:
    22ef:	55                   	push   %rbp
    22f0:	48 89 e5             	mov    %rsp,%rbp
    22f3:	48 83 ec 30          	sub    $0x30,%rsp
    22f7:	48 89 4d 10          	mov    %rcx,0x10(%rbp)
    22fb:	89 d0                	mov    %edx,%eax
    22fd:	44 89 c9             	mov    %r9d,%ecx
    2300:	8b 55 30             	mov    0x30(%rbp),%edx
    2303:	66 89 45 18          	mov    %ax,0x18(%rbp)
    2307:	44 89 c0             	mov    %r8d,%eax
    230a:	66 89 45 20          	mov    %ax,0x20(%rbp)
    230e:	89 c8                	mov    %ecx,%eax
    2310:	66 89 45 28          	mov    %ax,0x28(%rbp)
    2314:	89 d0                	mov    %edx,%eax
    2316:	66 89 45 fc          	mov    %ax,-0x4(%rbp)
    231a:	48 83 7d 10 00       	cmpq   $0x0,0x10(%rbp)
    231f:	75 1f                	jne    2340 <pdsp_pulse_init+0x51>
    2321:	41 b8 94 03 00 00    	mov    $0x394,%r8d
    2327:	48 8d 05 20 00 00 00 	lea    0x20(%rip),%rax        # 234e <pdsp_pulse_init+0x5f>
    232e:	48 89 c2             	mov    %rax,%rdx
    2331:	48 8d 05 27 00 00 00 	lea    0x27(%rip),%rax        # 235f <pdsp_pulse_init+0x70>
    2338:	48 89 c1             	mov    %rax,%rcx
    233b:	e8 c0 dc ff ff       	call   0 <printf>
    2340:	48 8b 45 10          	mov    0x10(%rbp),%rax
    2344:	66 c7 00 00 00       	movw   $0x0,(%rax)
    2349:	48 8b 45 10          	mov    0x10(%rbp),%rax
    234d:	0f b7 55 18          	movzwl 0x18(%rbp),%edx
    2351:	66 89 50 02          	mov    %dx,0x2(%rax)
    2355:	48 8b 45 10          	mov    0x10(%rbp),%rax
    2359:	0f b7 55 20          	movzwl 0x20(%rbp),%edx
    235d:	66 89 50 04          	mov    %dx,0x4(%rax)
    2361:	48 8b 45 10          	mov    0x10(%rbp),%rax
    2365:	0f b7 55 28          	movzwl 0x28(%rbp),%edx
    2369:	66 89 50 06          	mov    %dx,0x6(%rax)
    236d:	48 8b 45 10          	mov    0x10(%rbp),%rax
    2371:	0f b7 55 fc          	movzwl -0x4(%rbp),%edx
    2375:	66 89 50 08          	mov    %dx,0x8(%rax)
    2379:	90                   	nop
    237a:	48 83 c4 30          	add    $0x30,%rsp
    237e:	5d                   	pop    %rbp
    237f:	c3                   	ret

0000000000002380 <pdsp_pulse>:
    2380:	55                   	push   %rbp
    2381:	48 89 e5             	mov    %rsp,%rbp
    2384:	48 83 ec 20          	sub    $0x20,%rsp
    2388:	48 89 4d 10          	mov    %rcx,0x10(%rbp)
    238c:	48 83 7d 10 00       	cmpq   $0x0,0x10(%rbp)
    2391:	75 1f                	jne    23b2 <pdsp_pulse+0x32>
    2393:	41 b8 9e 03 00 00    	mov    $0x39e,%r8d
    2399:	48 8d 05 20 00 00 00 	lea    0x20(%rip),%rax        # 23c0 <pdsp_pulse+0x40>
    23a0:	48 89 c2             	mov    %rax,%rdx
    23a3:	48 8d 05 27 00 00 00 	lea    0x27(%rip),%rax        # 23d1 <pdsp_pulse+0x51>
    23aa:	48 89 c1             	mov    %rax,%rcx
    23ad:	e8 4e dc ff ff       	call   0 <printf>
    23b2:	48 8b 45 10          	mov    0x10(%rbp),%rax
    23b6:	0f b7 10             	movzwl (%rax),%edx
    23b9:	48 8b 45 10          	mov    0x10(%rbp),%rax
    23bd:	0f b7 40 02          	movzwl 0x2(%rax),%eax
    23c1:	66 39 c2             	cmp    %ax,%dx
    23c4:	73 1b                	jae    23e1 <pdsp_pulse+0x61>
    23c6:	48 8b 45 10          	mov    0x10(%rbp),%rax
    23ca:	0f b7 00             	movzwl (%rax),%eax
    23cd:	8d 50 01             	lea    0x1(%rax),%edx
    23d0:	48 8b 45 10          	mov    0x10(%rbp),%rax
    23d4:	66 89 10             	mov    %dx,(%rax)
    23d7:	48 8b 45 10          	mov    0x10(%rbp),%rax
    23db:	0f b7 40 06          	movzwl 0x6(%rax),%eax
    23df:	eb 36                	jmp    2417 <pdsp_pulse+0x97>
    23e1:	48 8b 45 10          	mov    0x10(%rbp),%rax
    23e5:	0f b7 00             	movzwl (%rax),%eax
    23e8:	8d 50 01             	lea    0x1(%rax),%edx
    23eb:	48 8b 45 10          	mov    0x10(%rbp),%rax
    23ef:	66 89 10             	mov    %dx,(%rax)
    23f2:	48 8b 45 10          	mov    0x10(%rbp),%rax
    23f6:	0f b7 10             	movzwl (%rax),%edx
    23f9:	48 8b 45 10          	mov    0x10(%rbp),%rax
    23fd:	0f b7 40 04          	movzwl 0x4(%rax),%eax
    2401:	66 39 c2             	cmp    %ax,%dx
    2404:	72 09                	jb     240f <pdsp_pulse+0x8f>
    2406:	48 8b 45 10          	mov    0x10(%rbp),%rax
    240a:	66 c7 00 00 00       	movw   $0x0,(%rax)
    240f:	48 8b 45 10          	mov    0x10(%rbp),%rax
    2413:	0f b7 40 08          	movzwl 0x8(%rax),%eax
    2417:	48 83 c4 20          	add    $0x20,%rsp
    241b:	5d                   	pop    %rbp
    241c:	c3                   	ret

000000000000241d <pdsp_bit_write_u16>:
    241d:	55                   	push   %rbp
    241e:	48 89 e5             	mov    %rsp,%rbp
    2421:	48 83 ec 20          	sub    $0x20,%rsp
    2425:	48 89 4d 10          	mov    %rcx,0x10(%rbp)
    2429:	89 d0                	mov    %edx,%eax
    242b:	44 89 c2             	mov    %r8d,%edx
    242e:	66 89 45 18          	mov    %ax,0x18(%rbp)
    2432:	89 d0                	mov    %edx,%eax
    2434:	88 45 20             	mov    %al,0x20(%rbp)
    2437:	48 83 7d 10 00       	cmpq   $0x0,0x10(%rbp)
    243c:	74 07                	je     2445 <pdsp_bit_write_u16+0x28>
    243e:	66 83 7d 18 0f       	cmpw   $0xf,0x18(%rbp)
    2443:	76 1f                	jbe    2464 <pdsp_bit_write_u16+0x47>
    2445:	41 b8 b2 03 00 00    	mov    $0x3b2,%r8d
    244b:	48 8d 05 20 00 00 00 	lea    0x20(%rip),%rax        # 2472 <pdsp_bit_write_u16+0x55>
    2452:	48 89 c2             	mov    %rax,%rdx
    2455:	48 8d 05 27 00 00 00 	lea    0x27(%rip),%rax        # 2483 <pdsp_bit_write_u16+0x66>
    245c:	48 89 c1             	mov    %rax,%rcx
    245f:	e8 9c db ff ff       	call   0 <printf>
    2464:	80 7d 20 00          	cmpb   $0x0,0x20(%rbp)
    2468:	74 27                	je     2491 <pdsp_bit_write_u16+0x74>
    246a:	48 8b 45 10          	mov    0x10(%rbp),%rax
    246e:	0f b7 00             	movzwl (%rax),%eax
    2471:	41 89 c0             	mov    %eax,%r8d
    2474:	0f b7 45 18          	movzwl 0x18(%rbp),%eax
    2478:	ba 01 00 00 00       	mov    $0x1,%edx
    247d:	89 c1                	mov    %eax,%ecx
    247f:	d3 e2                	shl    %cl,%edx
    2481:	89 d0                	mov    %edx,%eax
    2483:	44 09 c0             	or     %r8d,%eax
    2486:	89 c2                	mov    %eax,%edx
    2488:	48 8b 45 10          	mov    0x10(%rbp),%rax
    248c:	66 89 10             	mov    %dx,(%rax)
    248f:	eb 27                	jmp    24b8 <pdsp_bit_write_u16+0x9b>
    2491:	48 8b 45 10          	mov    0x10(%rbp),%rax
    2495:	0f b7 00             	movzwl (%rax),%eax
    2498:	41 89 c0             	mov    %eax,%r8d
    249b:	0f b7 45 18          	movzwl 0x18(%rbp),%eax
    249f:	ba 01 00 00 00       	mov    $0x1,%edx
    24a4:	89 c1                	mov    %eax,%ecx
    24a6:	d3 e2                	shl    %cl,%edx
    24a8:	89 d0                	mov    %edx,%eax
    24aa:	f7 d0                	not    %eax
    24ac:	44 21 c0             	and    %r8d,%eax
    24af:	89 c2                	mov    %eax,%edx
    24b1:	48 8b 45 10          	mov    0x10(%rbp),%rax
    24b5:	66 89 10             	mov    %dx,(%rax)
    24b8:	90                   	nop
    24b9:	48 83 c4 20          	add    $0x20,%rsp
    24bd:	5d                   	pop    %rbp
    24be:	c3                   	ret

00000000000024bf <pdsp_bit_write_u32>:
    24bf:	55                   	push   %rbp
    24c0:	48 89 e5             	mov    %rsp,%rbp
    24c3:	48 83 ec 20          	sub    $0x20,%rsp
    24c7:	48 89 4d 10          	mov    %rcx,0x10(%rbp)
    24cb:	89 d0                	mov    %edx,%eax
    24cd:	44 89 c2             	mov    %r8d,%edx
    24d0:	66 89 45 18          	mov    %ax,0x18(%rbp)
    24d4:	89 d0                	mov    %edx,%eax
    24d6:	88 45 20             	mov    %al,0x20(%rbp)
    24d9:	48 83 7d 10 00       	cmpq   $0x0,0x10(%rbp)
    24de:	74 07                	je     24e7 <pdsp_bit_write_u32+0x28>
    24e0:	66 83 7d 18 1f       	cmpw   $0x1f,0x18(%rbp)
    24e5:	76 1f                	jbe    2506 <pdsp_bit_write_u32+0x47>
    24e7:	41 b8 c0 03 00 00    	mov    $0x3c0,%r8d
    24ed:	48 8d 05 20 00 00 00 	lea    0x20(%rip),%rax        # 2514 <pdsp_bit_write_u32+0x55>
    24f4:	48 89 c2             	mov    %rax,%rdx
    24f7:	48 8d 05 27 00 00 00 	lea    0x27(%rip),%rax        # 2525 <pdsp_bit_write_u32+0x66>
    24fe:	48 89 c1             	mov    %rax,%rcx
    2501:	e8 fa da ff ff       	call   0 <printf>
    2506:	80 7d 20 00          	cmpb   $0x0,0x20(%rbp)
    250a:	74 22                	je     252e <pdsp_bit_write_u32+0x6f>
    250c:	48 8b 45 10          	mov    0x10(%rbp),%rax
    2510:	8b 10                	mov    (%rax),%edx
    2512:	0f b7 45 18          	movzwl 0x18(%rbp),%eax
    2516:	41 b8 01 00 00 00    	mov    $0x1,%r8d
    251c:	89 c1                	mov    %eax,%ecx
    251e:	41 d3 e0             	shl    %cl,%r8d
    2521:	44 89 c0             	mov    %r8d,%eax
    2524:	09 c2                	or     %eax,%edx
    2526:	48 8b 45 10          	mov    0x10(%rbp),%rax
    252a:	89 10                	mov    %edx,(%rax)
    252c:	eb 22                	jmp    2550 <pdsp_bit_write_u32+0x91>
    252e:	48 8b 45 10          	mov    0x10(%rbp),%rax
    2532:	8b 10                	mov    (%rax),%edx
    2534:	0f b7 45 18          	movzwl 0x18(%rbp),%eax
    2538:	41 b8 01 00 00 00    	mov    $0x1,%r8d
    253e:	89 c1                	mov    %eax,%ecx
    2540:	41 d3 e0             	shl    %cl,%r8d
    2543:	44 89 c0             	mov    %r8d,%eax
    2546:	f7 d0                	not    %eax
    2548:	21 c2                	and    %eax,%edx
    254a:	48 8b 45 10          	mov    0x10(%rbp),%rax
    254e:	89 10                	mov    %edx,(%rax)
    2550:	90                   	nop
    2551:	48 83 c4 20          	add    $0x20,%rsp
    2555:	5d                   	pop    %rbp
    2556:	c3                   	ret

0000000000002557 <pdsp_bit_read_u16>:
    2557:	55                   	push   %rbp
    2558:	48 89 e5             	mov    %rsp,%rbp
    255b:	48 83 ec 20          	sub    $0x20,%rsp
    255f:	48 89 4d 10          	mov    %rcx,0x10(%rbp)
    2563:	89 d0                	mov    %edx,%eax
    2565:	66 89 45 18          	mov    %ax,0x18(%rbp)
    2569:	48 83 7d 10 00       	cmpq   $0x0,0x10(%rbp)
    256e:	74 07                	je     2577 <pdsp_bit_read_u16+0x20>
    2570:	66 83 7d 18 0f       	cmpw   $0xf,0x18(%rbp)
    2575:	76 1f                	jbe    2596 <pdsp_bit_read_u16+0x3f>
    2577:	41 b8 ce 03 00 00    	mov    $0x3ce,%r8d
    257d:	48 8d 05 20 00 00 00 	lea    0x20(%rip),%rax        # 25a4 <pdsp_bit_read_u16+0x4d>
    2584:	48 89 c2             	mov    %rax,%rdx
    2587:	48 8d 05 27 00 00 00 	lea    0x27(%rip),%rax        # 25b5 <pdsp_bit_read_u16+0x5e>
    258e:	48 89 c1             	mov    %rax,%rcx
    2591:	e8 6a da ff ff       	call   0 <printf>
    2596:	48 8b 45 10          	mov    0x10(%rbp),%rax
    259a:	0f b7 00             	movzwl (%rax),%eax
    259d:	0f b7 d0             	movzwl %ax,%edx
    25a0:	0f b7 45 18          	movzwl 0x18(%rbp),%eax
    25a4:	89 c1                	mov    %eax,%ecx
    25a6:	d3 fa                	sar    %cl,%edx
    25a8:	89 d0                	mov    %edx,%eax
    25aa:	83 e0 01             	and    $0x1,%eax
    25ad:	85 c0                	test   %eax,%eax
    25af:	0f 95 c0             	setne  %al
    25b2:	48 83 c4 20          	add    $0x20,%rsp
    25b6:	5d                   	pop    %rbp
    25b7:	c3                   	ret

00000000000025b8 <pdsp_bit_read_u32>:
    25b8:	55                   	push   %rbp
    25b9:	48 89 e5             	mov    %rsp,%rbp
    25bc:	48 83 ec 20          	sub    $0x20,%rsp
    25c0:	48 89 4d 10          	mov    %rcx,0x10(%rbp)
    25c4:	89 d0                	mov    %edx,%eax
    25c6:	66 89 45 18          	mov    %ax,0x18(%rbp)
    25ca:	48 83 7d 10 00       	cmpq   $0x0,0x10(%rbp)
    25cf:	74 07                	je     25d8 <pdsp_bit_read_u32+0x20>
    25d1:	66 83 7d 18 1f       	cmpw   $0x1f,0x18(%rbp)
    25d6:	76 1f                	jbe    25f7 <pdsp_bit_read_u32+0x3f>
    25d8:	41 b8 d5 03 00 00    	mov    $0x3d5,%r8d
    25de:	48 8d 05 20 00 00 00 	lea    0x20(%rip),%rax        # 2605 <pdsp_bit_read_u32+0x4d>
    25e5:	48 89 c2             	mov    %rax,%rdx
    25e8:	48 8d 05 27 00 00 00 	lea    0x27(%rip),%rax        # 2616 <pdsp_mask_set+0x1>
    25ef:	48 89 c1             	mov    %rax,%rcx
    25f2:	e8 09 da ff ff       	call   0 <printf>
    25f7:	48 8b 45 10          	mov    0x10(%rbp),%rax
    25fb:	8b 10                	mov    (%rax),%edx
    25fd:	0f b7 45 18          	movzwl 0x18(%rbp),%eax
    2601:	89 c1                	mov    %eax,%ecx
    2603:	d3 ea                	shr    %cl,%edx
    2605:	89 d0                	mov    %edx,%eax
    2607:	83 e0 01             	and    $0x1,%eax
    260a:	85 c0                	test   %eax,%eax
    260c:	0f 95 c0             	setne  %al
    260f:	48 83 c4 20          	add    $0x20,%rsp
    2613:	5d                   	pop    %rbp
    2614:	c3                   	ret

0000000000002615 <pdsp_mask_set>:
    2615:	55                   	push   %rbp
    2616:	48 89 e5             	mov    %rsp,%rbp
    2619:	48 83 ec 20          	sub    $0x20,%rsp
    261d:	48 89 4d 10          	mov    %rcx,0x10(%rbp)
    2621:	89 55 18             	mov    %edx,0x18(%rbp)
    2624:	48 83 7d 10 00       	cmpq   $0x0,0x10(%rbp)
    2629:	75 1f                	jne    264a <pdsp_mask_set+0x35>
    262b:	41 b8 db 03 00 00    	mov    $0x3db,%r8d
    2631:	48 8d 05 20 00 00 00 	lea    0x20(%rip),%rax        # 2658 <pdsp_mask_set+0x43>
    2638:	48 89 c2             	mov    %rax,%rdx
    263b:	48 8d 05 27 00 00 00 	lea    0x27(%rip),%rax        # 2669 <pdsp_mask_clear+0x7>
    2642:	48 89 c1             	mov    %rax,%rcx
    2645:	e8 b6 d9 ff ff       	call   0 <printf>
    264a:	48 8b 45 10          	mov    0x10(%rbp),%rax
    264e:	8b 00                	mov    (%rax),%eax
    2650:	0b 45 18             	or     0x18(%rbp),%eax
    2653:	89 c2                	mov    %eax,%edx
    2655:	48 8b 45 10          	mov    0x10(%rbp),%rax
    2659:	89 10                	mov    %edx,(%rax)
    265b:	90                   	nop
    265c:	48 83 c4 20          	add    $0x20,%rsp
    2660:	5d                   	pop    %rbp
    2661:	c3                   	ret

0000000000002662 <pdsp_mask_clear>:
    2662:	55                   	push   %rbp
    2663:	48 89 e5             	mov    %rsp,%rbp
    2666:	48 83 ec 20          	sub    $0x20,%rsp
    266a:	48 89 4d 10          	mov    %rcx,0x10(%rbp)
    266e:	89 55 18             	mov    %edx,0x18(%rbp)
    2671:	48 83 7d 10 00       	cmpq   $0x0,0x10(%rbp)
    2676:	75 1f                	jne    2697 <pdsp_mask_clear+0x35>
    2678:	41 b8 e1 03 00 00    	mov    $0x3e1,%r8d
    267e:	48 8d 05 20 00 00 00 	lea    0x20(%rip),%rax        # 26a5 <pdsp_mask_clear+0x43>
    2685:	48 89 c2             	mov    %rax,%rdx
    2688:	48 8d 05 27 00 00 00 	lea    0x27(%rip),%rax        # 26b6 <pdsp_mask_get+0x5>
    268f:	48 89 c1             	mov    %rax,%rcx
    2692:	e8 69 d9 ff ff       	call   0 <printf>
    2697:	48 8b 45 10          	mov    0x10(%rbp),%rax
    269b:	8b 00                	mov    (%rax),%eax
    269d:	8b 55 18             	mov    0x18(%rbp),%edx
    26a0:	f7 d2                	not    %edx
    26a2:	21 c2                	and    %eax,%edx
    26a4:	48 8b 45 10          	mov    0x10(%rbp),%rax
    26a8:	89 10                	mov    %edx,(%rax)
    26aa:	90                   	nop
    26ab:	48 83 c4 20          	add    $0x20,%rsp
    26af:	5d                   	pop    %rbp
    26b0:	c3                   	ret

00000000000026b1 <pdsp_mask_get>:
    26b1:	55                   	push   %rbp
    26b2:	48 89 e5             	mov    %rsp,%rbp
    26b5:	48 83 ec 20          	sub    $0x20,%rsp
    26b9:	48 89 4d 10          	mov    %rcx,0x10(%rbp)
    26bd:	89 55 18             	mov    %edx,0x18(%rbp)
    26c0:	44 89 45 20          	mov    %r8d,0x20(%rbp)
    26c4:	48 83 7d 10 00       	cmpq   $0x0,0x10(%rbp)
    26c9:	75 1f                	jne    26ea <pdsp_mask_get+0x39>
    26cb:	41 b8 e9 03 00 00    	mov    $0x3e9,%r8d
    26d1:	48 8d 05 20 00 00 00 	lea    0x20(%rip),%rax        # 26f8 <pdsp_mask_get+0x47>
    26d8:	48 89 c2             	mov    %rax,%rdx
    26db:	48 8d 05 27 00 00 00 	lea    0x27(%rip),%rax        # 2709 <pdsp_mask_get+0x58>
    26e2:	48 89 c1             	mov    %rax,%rcx
    26e5:	e8 16 d9 ff ff       	call   0 <printf>
    26ea:	48 8b 45 10          	mov    0x10(%rbp),%rax
    26ee:	8b 00                	mov    (%rax),%eax
    26f0:	23 45 18             	and    0x18(%rbp),%eax
    26f3:	89 c2                	mov    %eax,%edx
    26f5:	48 8b 45 10          	mov    0x10(%rbp),%rax
    26f9:	8b 00                	mov    (%rax),%eax
    26fb:	f7 d0                	not    %eax
    26fd:	23 45 20             	and    0x20(%rbp),%eax
    2700:	09 d0                	or     %edx,%eax
    2702:	85 c0                	test   %eax,%eax
    2704:	0f 95 c0             	setne  %al
    2707:	48 83 c4 20          	add    $0x20,%rsp
    270b:	5d                   	pop    %rbp
    270c:	c3                   	ret

000000000000270d <pdsp_signal_write_f32>:
    270d:	55                   	push   %rbp
    270e:	48 89 e5             	mov    %rsp,%rbp
    2711:	48 83 ec 20          	sub    $0x20,%rsp
    2715:	48 89 4d 10          	mov    %rcx,0x10(%rbp)
    2719:	48 89 55 18          	mov    %rdx,0x18(%rbp)
    271d:	f3 0f 11 55 20       	movss  %xmm2,0x20(%rbp)
    2722:	48 83 7d 10 00       	cmpq   $0x0,0x10(%rbp)
    2727:	75 1f                	jne    2748 <pdsp_signal_write_f32+0x3b>
    2729:	41 b8 f1 03 00 00    	mov    $0x3f1,%r8d
    272f:	48 8d 05 20 00 00 00 	lea    0x20(%rip),%rax        # 2756 <pdsp_signal_write_f32+0x49>
    2736:	48 89 c2             	mov    %rax,%rdx
    2739:	48 8d 05 27 00 00 00 	lea    0x27(%rip),%rax        # 2767 <pdsp_signal_write_f32+0x5a>
    2740:	48 89 c1             	mov    %rax,%rcx
    2743:	e8 b8 d8 ff ff       	call   0 <printf>
    2748:	48 8b 45 10          	mov    0x10(%rbp),%rax
    274c:	f3 0f 10 00          	movss  (%rax),%xmm0
    2750:	0f 28 c8             	movaps %xmm0,%xmm1
    2753:	f3 0f 59 4d 20       	mulss  0x20(%rbp),%xmm1
    2758:	48 8b 45 10          	mov    0x10(%rbp),%rax
    275c:	f3 0f 10 40 04       	movss  0x4(%rax),%xmm0
    2761:	f3 0f 58 c1          	addss  %xmm1,%xmm0
    2765:	f3 0f 2c c0          	cvttss2si %xmm0,%eax
    2769:	0f b7 c8             	movzwl %ax,%ecx
    276c:	48 8b 55 18          	mov    0x18(%rbp),%rdx
    2770:	48 8b 45 10          	mov    0x10(%rbp),%rax
    2774:	41 89 c8             	mov    %ecx,%r8d
    2777:	48 89 c1             	mov    %rax,%rcx
    277a:	e8 51 00 00 00       	call   27d0 <pdsp_signal_write_u16>
    277f:	90                   	nop
    2780:	48 83 c4 20          	add    $0x20,%rsp
    2784:	5d                   	pop    %rbp
    2785:	c3                   	ret

0000000000002786 <pdsp_signal_read_f32>:
    2786:	55                   	push   %rbp
    2787:	48 89 e5             	mov    %rsp,%rbp
    278a:	48 83 ec 20          	sub    $0x20,%rsp
    278e:	48 89 4d 10          	mov    %rcx,0x10(%rbp)
    2792:	48 89 55 18          	mov    %rdx,0x18(%rbp)
    2796:	48 8b 55 18          	mov    0x18(%rbp),%rdx
    279a:	48 8b 45 10          	mov    0x10(%rbp),%rax
    279e:	48 89 c1             	mov    %rax,%rcx
    27a1:	e8 c4 00 00 00       	call   286a <pdsp_signal_read_u16>
    27a6:	0f b7 c0             	movzwl %ax,%eax
    27a9:	66 0f ef c0          	pxor   %xmm0,%xmm0
    27ad:	f3 0f 2a c0          	cvtsi2ss %eax,%xmm0
    27b1:	48 8b 45 10          	mov    0x10(%rbp),%rax
    27b5:	f3 0f 10 48 04       	movss  0x4(%rax),%xmm1
    27ba:	f3 0f 5c c1          	subss  %xmm1,%xmm0
    27be:	48 8b 45 10          	mov    0x10(%rbp),%rax
    27c2:	f3 0f 10 08          	movss  (%rax),%xmm1
    27c6:	f3 0f 5e c1          	divss  %xmm1,%xmm0
    27ca:	48 83 c4 20          	add    $0x20,%rsp
    27ce:	5d                   	pop    %rbp
    27cf:	c3                   	ret

00000000000027d0 <pdsp_signal_write_u16>:
    27d0:	55                   	push   %rbp
    27d1:	48 89 e5             	mov    %rsp,%rbp
    27d4:	48 83 ec 20          	sub    $0x20,%rsp
    27d8:	48 89 4d 10          	mov    %rcx,0x10(%rbp)
    27dc:	48 89 55 18          	mov    %rdx,0x18(%rbp)
    27e0:	44 89 c0             	mov    %r8d,%eax
    27e3:	66 89 45 20          	mov    %ax,0x20(%rbp)
    27e7:	48 83 7d 10 00       	cmpq   $0x0,0x10(%rbp)
    27ec:	74 0e                	je     27fc <pdsp_signal_write_u16+0x2c>
    27ee:	48 8b 45 10          	mov    0x10(%rbp),%rax
    27f2:	0f b7 40 08          	movzwl 0x8(%rax),%eax
    27f6:	66 83 f8 3f          	cmp    $0x3f,%ax
    27fa:	76 1f                	jbe    281b <pdsp_signal_write_u16+0x4b>
    27fc:	41 b8 03 04 00 00    	mov    $0x403,%r8d
    2802:	48 8d 05 20 00 00 00 	lea    0x20(%rip),%rax        # 2829 <pdsp_signal_write_u16+0x59>
    2809:	48 89 c2             	mov    %rax,%rdx
    280c:	48 8d 05 27 00 00 00 	lea    0x27(%rip),%rax        # 283a <pdsp_signal_write_u16+0x6a>
    2813:	48 89 c1             	mov    %rax,%rcx
    2816:	e8 e5 d7 ff ff       	call   0 <printf>
    281b:	48 8b 45 18          	mov    0x18(%rbp),%rax
    281f:	48 8b 10             	mov    (%rax),%rdx
    2822:	48 8b 45 10          	mov    0x10(%rbp),%rax
    2826:	0f b7 40 0a          	movzwl 0xa(%rax),%eax
    282a:	0f b7 c0             	movzwl %ax,%eax
    282d:	48 98                	cltq
    282f:	48 8d 0c 00          	lea    (%rax,%rax,1),%rcx
    2833:	48 8d 05 00 00 00 00 	lea    0x0(%rip),%rax        # 283a <pdsp_signal_write_u16+0x6a>
    283a:	0f b7 04 01          	movzwl (%rcx,%rax,1),%eax
    283e:	66 23 45 20          	and    0x20(%rbp),%ax
    2842:	44 0f b7 c0          	movzwl %ax,%r8d
    2846:	48 8b 45 10          	mov    0x10(%rbp),%rax
    284a:	0f b7 40 08          	movzwl 0x8(%rax),%eax
    284e:	0f b7 c0             	movzwl %ax,%eax
    2851:	89 c1                	mov    %eax,%ecx
    2853:	49 d3 e0             	shl    %cl,%r8
    2856:	4c 89 c0             	mov    %r8,%rax
    2859:	48 09 c2             	or     %rax,%rdx
    285c:	48 8b 45 18          	mov    0x18(%rbp),%rax
    2860:	48 89 10             	mov    %rdx,(%rax)
    2863:	90                   	nop
    2864:	48 83 c4 20          	add    $0x20,%rsp
    2868:	5d                   	pop    %rbp
    2869:	c3                   	ret

000000000000286a <pdsp_signal_read_u16>:
    286a:	55                   	push   %rbp
    286b:	48 89 e5             	mov    %rsp,%rbp
    286e:	48 83 ec 20          	sub    $0x20,%rsp
    2872:	48 89 4d 10          	mov    %rcx,0x10(%rbp)
    2876:	48 89 55 18          	mov    %rdx,0x18(%rbp)
    287a:	48 83 7d 10 00       	cmpq   $0x0,0x10(%rbp)
    287f:	74 0e                	je     288f <pdsp_signal_read_u16+0x25>
    2881:	48 8b 45 10          	mov    0x10(%rbp),%rax
    2885:	0f b7 40 08          	movzwl 0x8(%rax),%eax
    2889:	66 83 f8 3f          	cmp    $0x3f,%ax
    288d:	76 1f                	jbe    28ae <pdsp_signal_read_u16+0x44>
    288f:	41 b8 0b 04 00 00    	mov    $0x40b,%r8d
    2895:	48 8d 05 20 00 00 00 	lea    0x20(%rip),%rax        # 28bc <pdsp_signal_read_u16+0x52>
    289c:	48 89 c2             	mov    %rax,%rdx
    289f:	48 8d 05 27 00 00 00 	lea    0x27(%rip),%rax        # 28cd <pdsp_signal_read_u16+0x63>
    28a6:	48 89 c1             	mov    %rax,%rcx
    28a9:	e8 52 d7 ff ff       	call   0 <printf>
    28ae:	48 8b 45 18          	mov    0x18(%rbp),%rax
    28b2:	48 8b 10             	mov    (%rax),%rdx
    28b5:	48 8b 45 10          	mov    0x10(%rbp),%rax
    28b9:	0f b7 40 08          	movzwl 0x8(%rax),%eax
    28bd:	0f b7 c0             	movzwl %ax,%eax
    28c0:	89 c1                	mov    %eax,%ecx
    28c2:	48 d3 ea             	shr    %cl,%rdx
    28c5:	48 89 d0             	mov    %rdx,%rax
    28c8:	89 c1                	mov    %eax,%ecx
    28ca:	48 8b 45 10          	mov    0x10(%rbp),%rax
    28ce:	0f b7 40 0a          	movzwl 0xa(%rax),%eax
    28d2:	0f b7 c0             	movzwl %ax,%eax
    28d5:	48 98                	cltq
    28d7:	48 8d 14 00          	lea    (%rax,%rax,1),%rdx
    28db:	48 8d 05 00 00 00 00 	lea    0x0(%rip),%rax        # 28e2 <pdsp_signal_read_u16+0x78>
    28e2:	0f b7 04 02          	movzwl (%rdx,%rax,1),%eax
    28e6:	21 c8                	and    %ecx,%eax
    28e8:	48 83 c4 20          	add    $0x20,%rsp
    28ec:	5d                   	pop    %rbp
    28ed:	c3                   	ret

00000000000028ee <pdsp_mean2w_f32>:
    28ee:	55                   	push   %rbp
    28ef:	48 89 e5             	mov    %rsp,%rbp
    28f2:	f3 0f 11 45 10       	movss  %xmm0,0x10(%rbp)
    28f7:	f3 0f 11 4d 18       	movss  %xmm1,0x18(%rbp)
    28fc:	f3 0f 11 55 20       	movss  %xmm2,0x20(%rbp)
    2901:	f3 0f 10 45 10       	movss  0x10(%rbp),%xmm0
    2906:	0f 28 c8             	movaps %xmm0,%xmm1
    2909:	f3 0f 59 4d 20       	mulss  0x20(%rbp),%xmm1
    290e:	f3 0f 10 05 44 00 00 	movss  0x44(%rip),%xmm0        # 295a <pdsp_mean4_u16+0x34>
    2915:	00 
    2916:	f3 0f 5c 45 20       	subss  0x20(%rbp),%xmm0
    291b:	f3 0f 59 45 18       	mulss  0x18(%rbp),%xmm0
    2920:	f3 0f 58 c1          	addss  %xmm1,%xmm0
    2924:	5d                   	pop    %rbp
    2925:	c3                   	ret

0000000000002926 <pdsp_mean4_u16>:
    2926:	55                   	push   %rbp
    2927:	48 89 e5             	mov    %rsp,%rbp
    292a:	48 83 ec 20          	sub    $0x20,%rsp
    292e:	48 89 4d 10          	mov    %rcx,0x10(%rbp)
    2932:	48 83 7d 10 00       	cmpq   $0x0,0x10(%rbp)
    2937:	75 1f                	jne    2958 <pdsp_mean4_u16+0x32>
    2939:	41 b8 18 04 00 00    	mov    $0x418,%r8d
    293f:	48 8d 05 20 00 00 00 	lea    0x20(%rip),%rax        # 2966 <pdsp_mean4_u16+0x40>
    2946:	48 89 c2             	mov    %rax,%rdx
    2949:	48 8d 05 27 00 00 00 	lea    0x27(%rip),%rax        # 2977 <pdsp_mean4_u16+0x51>
    2950:	48 89 c1             	mov    %rax,%rcx
    2953:	e8 a8 d6 ff ff       	call   0 <printf>
    2958:	48 8b 45 10          	mov    0x10(%rbp),%rax
    295c:	0f b7 00             	movzwl (%rax),%eax
    295f:	0f b7 d0             	movzwl %ax,%edx
    2962:	48 8b 45 10          	mov    0x10(%rbp),%rax
    2966:	48 83 c0 02          	add    $0x2,%rax
    296a:	0f b7 00             	movzwl (%rax),%eax
    296d:	0f b7 c0             	movzwl %ax,%eax
    2970:	01 c2                	add    %eax,%edx
    2972:	48 8b 45 10          	mov    0x10(%rbp),%rax
    2976:	48 83 c0 04          	add    $0x4,%rax
    297a:	0f b7 00             	movzwl (%rax),%eax
    297d:	0f b7 c0             	movzwl %ax,%eax
    2980:	01 c2                	add    %eax,%edx
    2982:	48 8b 45 10          	mov    0x10(%rbp),%rax
    2986:	48 83 c0 06          	add    $0x6,%rax
    298a:	0f b7 00             	movzwl (%rax),%eax
    298d:	0f b7 c0             	movzwl %ax,%eax
    2990:	01 d0                	add    %edx,%eax
    2992:	89 c0                	mov    %eax,%eax
    2994:	48 85 c0             	test   %rax,%rax
    2997:	78 0b                	js     29a4 <pdsp_mean4_u16+0x7e>
    2999:	66 0f ef c0          	pxor   %xmm0,%xmm0
    299d:	f3 48 0f 2a c0       	cvtsi2ss %rax,%xmm0
    29a2:	eb 19                	jmp    29bd <pdsp_mean4_u16+0x97>
    29a4:	48 89 c2             	mov    %rax,%rdx
    29a7:	48 d1 ea             	shr    %rdx
    29aa:	83 e0 01             	and    $0x1,%eax
    29ad:	48 09 c2             	or     %rax,%rdx
    29b0:	66 0f ef c0          	pxor   %xmm0,%xmm0
    29b4:	f3 48 0f 2a c2       	cvtsi2ss %rdx,%xmm0
    29b9:	f3 0f 58 c0          	addss  %xmm0,%xmm0
    29bd:	f3 0f 10 0d 4c 00 00 	movss  0x4c(%rip),%xmm1        # 2a11 <pdsp_mean8_u16+0x42>
    29c4:	00 
    29c5:	f3 0f 59 c1          	mulss  %xmm1,%xmm0
    29c9:	48 83 c4 20          	add    $0x20,%rsp
    29cd:	5d                   	pop    %rbp
    29ce:	c3                   	ret

00000000000029cf <pdsp_mean8_u16>:
    29cf:	55                   	push   %rbp
    29d0:	48 89 e5             	mov    %rsp,%rbp
    29d3:	48 83 ec 20          	sub    $0x20,%rsp
    29d7:	48 89 4d 10          	mov    %rcx,0x10(%rbp)
    29db:	48 83 7d 10 00       	cmpq   $0x0,0x10(%rbp)
    29e0:	75 1f                	jne    2a01 <pdsp_mean8_u16+0x32>
    29e2:	41 b8 20 04 00 00    	mov    $0x420,%r8d
    29e8:	48 8d 05 20 00 00 00 	lea    0x20(%rip),%rax        # 2a0f <pdsp_mean8_u16+0x40>
    29ef:	48 89 c2             	mov    %rax,%rdx
    29f2:	48 8d 05 27 00 00 00 	lea    0x27(%rip),%rax        # 2a20 <pdsp_mean8_u16+0x51>
    29f9:	48 89 c1             	mov    %rax,%rcx
    29fc:	e8 ff d5 ff ff       	call   0 <printf>
    2a01:	48 8b 45 10          	mov    0x10(%rbp),%rax
    2a05:	0f b7 00             	movzwl (%rax),%eax
    2a08:	0f b7 d0             	movzwl %ax,%edx
    2a0b:	48 8b 45 10          	mov    0x10(%rbp),%rax
    2a0f:	48 83 c0 02          	add    $0x2,%rax
    2a13:	0f b7 00             	movzwl (%rax),%eax
    2a16:	0f b7 c0             	movzwl %ax,%eax
    2a19:	01 c2                	add    %eax,%edx
    2a1b:	48 8b 45 10          	mov    0x10(%rbp),%rax
    2a1f:	48 83 c0 04          	add    $0x4,%rax
    2a23:	0f b7 00             	movzwl (%rax),%eax
    2a26:	0f b7 c0             	movzwl %ax,%eax
    2a29:	01 c2                	add    %eax,%edx
    2a2b:	48 8b 45 10          	mov    0x10(%rbp),%rax
    2a2f:	48 83 c0 06          	add    $0x6,%rax
    2a33:	0f b7 00             	movzwl (%rax),%eax
    2a36:	0f b7 c0             	movzwl %ax,%eax
    2a39:	01 c2                	add    %eax,%edx
    2a3b:	48 8b 45 10          	mov    0x10(%rbp),%rax
    2a3f:	48 83 c0 08          	add    $0x8,%rax
    2a43:	0f b7 00             	movzwl (%rax),%eax
    2a46:	0f b7 c0             	movzwl %ax,%eax
    2a49:	01 c2                	add    %eax,%edx
    2a4b:	48 8b 45 10          	mov    0x10(%rbp),%rax
    2a4f:	48 83 c0 0a          	add    $0xa,%rax
    2a53:	0f b7 00             	movzwl (%rax),%eax
    2a56:	0f b7 c0             	movzwl %ax,%eax
    2a59:	01 c2                	add    %eax,%edx
    2a5b:	48 8b 45 10          	mov    0x10(%rbp),%rax
    2a5f:	48 83 c0 0c          	add    $0xc,%rax
    2a63:	0f b7 00             	movzwl (%rax),%eax
    2a66:	0f b7 c0             	movzwl %ax,%eax
    2a69:	01 c2                	add    %eax,%edx
    2a6b:	48 8b 45 10          	mov    0x10(%rbp),%rax
    2a6f:	48 83 c0 0e          	add    $0xe,%rax
    2a73:	0f b7 00             	movzwl (%rax),%eax
    2a76:	0f b7 c0             	movzwl %ax,%eax
    2a79:	01 d0                	add    %edx,%eax
    2a7b:	89 c0                	mov    %eax,%eax
    2a7d:	48 85 c0             	test   %rax,%rax
    2a80:	78 0b                	js     2a8d <pdsp_mean8_u16+0xbe>
    2a82:	66 0f ef c0          	pxor   %xmm0,%xmm0
    2a86:	f3 48 0f 2a c0       	cvtsi2ss %rax,%xmm0
    2a8b:	eb 19                	jmp    2aa6 <pdsp_mean8_u16+0xd7>
    2a8d:	48 89 c2             	mov    %rax,%rdx
    2a90:	48 d1 ea             	shr    %rdx
    2a93:	83 e0 01             	and    $0x1,%eax
    2a96:	48 09 c2             	or     %rax,%rdx
    2a99:	66 0f ef c0          	pxor   %xmm0,%xmm0
    2a9d:	f3 48 0f 2a c2       	cvtsi2ss %rdx,%xmm0
    2aa2:	f3 0f 58 c0          	addss  %xmm0,%xmm0
    2aa6:	f3 0f 10 0d 50 00 00 	movss  0x50(%rip),%xmm1        # 2afe <pdsp_queue_init+0x46>
    2aad:	00 
    2aae:	f3 0f 59 c1          	mulss  %xmm1,%xmm0
    2ab2:	48 83 c4 20          	add    $0x20,%rsp
    2ab6:	5d                   	pop    %rbp
    2ab7:	c3                   	ret

0000000000002ab8 <pdsp_queue_init>:
    2ab8:	55                   	push   %rbp
    2ab9:	48 89 e5             	mov    %rsp,%rbp
    2abc:	48 83 ec 20          	sub    $0x20,%rsp
    2ac0:	48 89 4d 10          	mov    %rcx,0x10(%rbp)
    2ac4:	48 83 7d 10 00       	cmpq   $0x0,0x10(%rbp)
    2ac9:	75 1f                	jne    2aea <pdsp_queue_init+0x32>
    2acb:	41 b8 2a 04 00 00    	mov    $0x42a,%r8d
    2ad1:	48 8d 05 20 00 00 00 	lea    0x20(%rip),%rax        # 2af8 <pdsp_queue_init+0x40>
    2ad8:	48 89 c2             	mov    %rax,%rdx
    2adb:	48 8d 05 27 00 00 00 	lea    0x27(%rip),%rax        # 2b09 <pdsp_queue_init+0x51>
    2ae2:	48 89 c1             	mov    %rax,%rcx
    2ae5:	e8 16 d5 ff ff       	call   0 <printf>
    2aea:	48 8b 45 10          	mov    0x10(%rbp),%rax
    2aee:	48 8b 00             	mov    (%rax),%rax
    2af1:	66 c7 40 04 00 00    	movw   $0x0,0x4(%rax)
    2af7:	48 8b 45 10          	mov    0x10(%rbp),%rax
    2afb:	0f b7 40 10          	movzwl 0x10(%rax),%eax
    2aff:	8d 50 ff             	lea    -0x1(%rax),%edx
    2b02:	48 8b 45 10          	mov    0x10(%rbp),%rax
    2b06:	48 8b 00             	mov    (%rax),%rax
    2b09:	66 89 10             	mov    %dx,(%rax)
    2b0c:	48 8b 45 10          	mov    0x10(%rbp),%rax
    2b10:	48 8b 00             	mov    (%rax),%rax
    2b13:	66 c7 40 02 00 00    	movw   $0x0,0x2(%rax)
    2b19:	90                   	nop
    2b1a:	48 83 c4 20          	add    $0x20,%rsp
    2b1e:	5d                   	pop    %rbp
    2b1f:	c3                   	ret

0000000000002b20 <pdsp_queue_is_not_empty>:
    2b20:	55                   	push   %rbp
    2b21:	48 89 e5             	mov    %rsp,%rbp
    2b24:	48 83 ec 20          	sub    $0x20,%rsp
    2b28:	48 89 4d 10          	mov    %rcx,0x10(%rbp)
    2b2c:	48 83 7d 10 00       	cmpq   $0x0,0x10(%rbp)
    2b31:	74 0c                	je     2b3f <pdsp_queue_is_not_empty+0x1f>
    2b33:	48 8b 45 10          	mov    0x10(%rbp),%rax
    2b37:	48 8b 00             	mov    (%rax),%rax
    2b3a:	48 85 c0             	test   %rax,%rax
    2b3d:	75 1f                	jne    2b5e <pdsp_queue_is_not_empty+0x3e>
    2b3f:	41 b8 32 04 00 00    	mov    $0x432,%r8d
    2b45:	48 8d 05 20 00 00 00 	lea    0x20(%rip),%rax        # 2b6c <pdsp_queue_is_not_empty+0x4c>
    2b4c:	48 89 c2             	mov    %rax,%rdx
    2b4f:	48 8d 05 27 00 00 00 	lea    0x27(%rip),%rax        # 2b7d <pdsp_queue_is_not_full+0x8>
    2b56:	48 89 c1             	mov    %rax,%rcx
    2b59:	e8 a2 d4 ff ff       	call   0 <printf>
    2b5e:	48 8b 45 10          	mov    0x10(%rbp),%rax
    2b62:	48 8b 00             	mov    (%rax),%rax
    2b65:	0f b7 40 04          	movzwl 0x4(%rax),%eax
    2b69:	66 85 c0             	test   %ax,%ax
    2b6c:	0f 9f c0             	setg   %al
    2b6f:	48 83 c4 20          	add    $0x20,%rsp
    2b73:	5d                   	pop    %rbp
    2b74:	c3                   	ret

0000000000002b75 <pdsp_queue_is_not_full>:
    2b75:	55                   	push   %rbp
    2b76:	48 89 e5             	mov    %rsp,%rbp
    2b79:	48 83 ec 20          	sub    $0x20,%rsp
    2b7d:	48 89 4d 10          	mov    %rcx,0x10(%rbp)
    2b81:	48 83 7d 10 00       	cmpq   $0x0,0x10(%rbp)
    2b86:	74 0c                	je     2b94 <pdsp_queue_is_not_full+0x1f>
    2b88:	48 8b 45 10          	mov    0x10(%rbp),%rax
    2b8c:	48 8b 00             	mov    (%rax),%rax
    2b8f:	48 85 c0             	test   %rax,%rax
    2b92:	75 1f                	jne    2bb3 <pdsp_queue_is_not_full+0x3e>
    2b94:	41 b8 38 04 00 00    	mov    $0x438,%r8d
    2b9a:	48 8d 05 20 00 00 00 	lea    0x20(%rip),%rax        # 2bc1 <pdsp_queue_is_not_full+0x4c>
    2ba1:	48 89 c2             	mov    %rax,%rdx
    2ba4:	48 8d 05 27 00 00 00 	lea    0x27(%rip),%rax        # 2bd2 <pdsp_queue_advance_head>
    2bab:	48 89 c1             	mov    %rax,%rcx
    2bae:	e8 4d d4 ff ff       	call   0 <printf>
    2bb3:	48 8b 45 10          	mov    0x10(%rbp),%rax
    2bb7:	48 8b 00             	mov    (%rax),%rax
    2bba:	0f b7 50 04          	movzwl 0x4(%rax),%edx
    2bbe:	48 8b 45 10          	mov    0x10(%rbp),%rax
    2bc2:	0f b7 40 10          	movzwl 0x10(%rax),%eax
    2bc6:	66 39 c2             	cmp    %ax,%dx
    2bc9:	0f 9c c0             	setl   %al
    2bcc:	48 83 c4 20          	add    $0x20,%rsp
    2bd0:	5d                   	pop    %rbp
    2bd1:	c3                   	ret

0000000000002bd2 <pdsp_queue_advance_head>:
    2bd2:	55                   	push   %rbp
    2bd3:	48 89 e5             	mov    %rsp,%rbp
    2bd6:	48 83 ec 20          	sub    $0x20,%rsp
    2bda:	48 89 4d 10          	mov    %rcx,0x10(%rbp)
    2bde:	48 83 7d 10 00       	cmpq   $0x0,0x10(%rbp)
    2be3:	74 0c                	je     2bf1 <pdsp_queue_advance_head+0x1f>
    2be5:	48 8b 45 10          	mov    0x10(%rbp),%rax
    2be9:	48 8b 00             	mov    (%rax),%rax
    2bec:	48 85 c0             	test   %rax,%rax
    2bef:	75 1f                	jne    2c10 <pdsp_queue_advance_head+0x3e>
    2bf1:	41 b8 3e 04 00 00    	mov    $0x43e,%r8d
    2bf7:	48 8d 05 20 00 00 00 	lea    0x20(%rip),%rax        # 2c1e <pdsp_queue_advance_head+0x4c>
    2bfe:	48 89 c2             	mov    %rax,%rdx
    2c01:	48 8d 05 27 00 00 00 	lea    0x27(%rip),%rax        # 2c2f <pdsp_queue_advance_head+0x5d>
    2c08:	48 89 c1             	mov    %rax,%rcx
    2c0b:	e8 f0 d3 ff ff       	call   0 <printf>
    2c10:	48 8b 45 10          	mov    0x10(%rbp),%rax
    2c14:	48 8b 00             	mov    (%rax),%rax
    2c17:	0f b7 10             	movzwl (%rax),%edx
    2c1a:	83 c2 01             	add    $0x1,%edx
    2c1d:	66 89 10             	mov    %dx,(%rax)
    2c20:	48 8b 45 10          	mov    0x10(%rbp),%rax
    2c24:	48 8b 00             	mov    (%rax),%rax
    2c27:	0f b7 10             	movzwl (%rax),%edx
    2c2a:	48 8b 45 10          	mov    0x10(%rbp),%rax
    2c2e:	0f b7 40 10          	movzwl 0x10(%rax),%eax
    2c32:	66 39 c2             	cmp    %ax,%dx
    2c35:	7c 0c                	jl     2c43 <pdsp_queue_advance_head+0x71>
    2c37:	48 8b 45 10          	mov    0x10(%rbp),%rax
    2c3b:	48 8b 00             	mov    (%rax),%rax
    2c3e:	66 c7 00 00 00       	movw   $0x0,(%rax)
    2c43:	48 8b 45 10          	mov    0x10(%rbp),%rax
    2c47:	48 8b 00             	mov    (%rax),%rax
    2c4a:	0f b7 50 04          	movzwl 0x4(%rax),%edx
    2c4e:	83 c2 01             	add    $0x1,%edx
    2c51:	66 89 50 04          	mov    %dx,0x4(%rax)
    2c55:	90                   	nop
    2c56:	48 83 c4 20          	add    $0x20,%rsp
    2c5a:	5d                   	pop    %rbp
    2c5b:	c3                   	ret

0000000000002c5c <pdsp_queue_advance_tail>:
    2c5c:	55                   	push   %rbp
    2c5d:	48 89 e5             	mov    %rsp,%rbp
    2c60:	48 83 ec 20          	sub    $0x20,%rsp
    2c64:	48 89 4d 10          	mov    %rcx,0x10(%rbp)
    2c68:	48 83 7d 10 00       	cmpq   $0x0,0x10(%rbp)
    2c6d:	74 0c                	je     2c7b <pdsp_queue_advance_tail+0x1f>
    2c6f:	48 8b 45 10          	mov    0x10(%rbp),%rax
    2c73:	48 8b 00             	mov    (%rax),%rax
    2c76:	48 85 c0             	test   %rax,%rax
    2c79:	75 1f                	jne    2c9a <pdsp_queue_advance_tail+0x3e>
    2c7b:	41 b8 49 04 00 00    	mov    $0x449,%r8d
    2c81:	48 8d 05 20 00 00 00 	lea    0x20(%rip),%rax        # 2ca8 <pdsp_queue_advance_tail+0x4c>
    2c88:	48 89 c2             	mov    %rax,%rdx
    2c8b:	48 8d 05 27 00 00 00 	lea    0x27(%rip),%rax        # 2cb9 <pdsp_queue_advance_tail+0x5d>
    2c92:	48 89 c1             	mov    %rax,%rcx
    2c95:	e8 66 d3 ff ff       	call   0 <printf>
    2c9a:	48 8b 45 10          	mov    0x10(%rbp),%rax
    2c9e:	48 8b 00             	mov    (%rax),%rax
    2ca1:	0f b7 50 02          	movzwl 0x2(%rax),%edx
    2ca5:	83 c2 01             	add    $0x1,%edx
    2ca8:	66 89 50 02          	mov    %dx,0x2(%rax)
    2cac:	48 8b 45 10          	mov    0x10(%rbp),%rax
    2cb0:	48 8b 00             	mov    (%rax),%rax
    2cb3:	0f b7 50 02          	movzwl 0x2(%rax),%edx
    2cb7:	48 8b 45 10          	mov    0x10(%rbp),%rax
    2cbb:	0f b7 40 10          	movzwl 0x10(%rax),%eax
    2cbf:	66 39 c2             	cmp    %ax,%dx
    2cc2:	7c 0d                	jl     2cd1 <pdsp_queue_advance_tail+0x75>
    2cc4:	48 8b 45 10          	mov    0x10(%rbp),%rax
    2cc8:	48 8b 00             	mov    (%rax),%rax
    2ccb:	66 c7 40 02 00 00    	movw   $0x0,0x2(%rax)
    2cd1:	48 8b 45 10          	mov    0x10(%rbp),%rax
    2cd5:	48 8b 00             	mov    (%rax),%rax
    2cd8:	0f b7 50 04          	movzwl 0x4(%rax),%edx
    2cdc:	83 ea 01             	sub    $0x1,%edx
    2cdf:	66 89 50 04          	mov    %dx,0x4(%rax)
    2ce3:	90                   	nop
    2ce4:	48 83 c4 20          	add    $0x20,%rsp
    2ce8:	5d                   	pop    %rbp
    2ce9:	c3                   	ret

0000000000002cea <pdsp_queue_push_ch>:
    2cea:	55                   	push   %rbp
    2ceb:	48 89 e5             	mov    %rsp,%rbp
    2cee:	48 83 ec 20          	sub    $0x20,%rsp
    2cf2:	48 89 4d 10          	mov    %rcx,0x10(%rbp)
    2cf6:	89 d0                	mov    %edx,%eax
    2cf8:	88 45 18             	mov    %al,0x18(%rbp)
    2cfb:	48 83 7d 10 00       	cmpq   $0x0,0x10(%rbp)
    2d00:	75 1f                	jne    2d21 <pdsp_queue_push_ch+0x37>
    2d02:	41 b8 55 04 00 00    	mov    $0x455,%r8d
    2d08:	48 8d 05 20 00 00 00 	lea    0x20(%rip),%rax        # 2d2f <pdsp_queue_push_ch+0x45>
    2d0f:	48 89 c2             	mov    %rax,%rdx
    2d12:	48 8d 05 27 00 00 00 	lea    0x27(%rip),%rax        # 2d40 <pdsp_queue_push_ch+0x56>
    2d19:	48 89 c1             	mov    %rax,%rcx
    2d1c:	e8 df d2 ff ff       	call   0 <printf>
    2d21:	48 8b 45 10          	mov    0x10(%rbp),%rax
    2d25:	48 89 c1             	mov    %rax,%rcx
    2d28:	e8 a5 fe ff ff       	call   2bd2 <pdsp_queue_advance_head>
    2d2d:	48 8b 45 10          	mov    0x10(%rbp),%rax
    2d31:	48 8b 50 08          	mov    0x8(%rax),%rdx
    2d35:	48 8b 45 10          	mov    0x10(%rbp),%rax
    2d39:	48 8b 00             	mov    (%rax),%rax
    2d3c:	0f b7 00             	movzwl (%rax),%eax
    2d3f:	48 0f bf c0          	movswq %ax,%rax
    2d43:	48 01 c2             	add    %rax,%rdx
    2d46:	0f b6 45 18          	movzbl 0x18(%rbp),%eax
    2d4a:	88 02                	mov    %al,(%rdx)
    2d4c:	90                   	nop
    2d4d:	48 83 c4 20          	add    $0x20,%rsp
    2d51:	5d                   	pop    %rbp
    2d52:	c3                   	ret

0000000000002d53 <pdsp_queue_push_i16>:
    2d53:	55                   	push   %rbp
    2d54:	48 89 e5             	mov    %rsp,%rbp
    2d57:	48 83 ec 20          	sub    $0x20,%rsp
    2d5b:	48 89 4d 10          	mov    %rcx,0x10(%rbp)
    2d5f:	89 d0                	mov    %edx,%eax
    2d61:	66 89 45 18          	mov    %ax,0x18(%rbp)
    2d65:	48 83 7d 10 00       	cmpq   $0x0,0x10(%rbp)
    2d6a:	75 1f                	jne    2d8b <pdsp_queue_push_i16+0x38>
    2d6c:	41 b8 5d 04 00 00    	mov    $0x45d,%r8d
    2d72:	48 8d 05 20 00 00 00 	lea    0x20(%rip),%rax        # 2d99 <pdsp_queue_push_i16+0x46>
    2d79:	48 89 c2             	mov    %rax,%rdx
    2d7c:	48 8d 05 27 00 00 00 	lea    0x27(%rip),%rax        # 2daa <pdsp_queue_push_i16+0x57>
    2d83:	48 89 c1             	mov    %rax,%rcx
    2d86:	e8 75 d2 ff ff       	call   0 <printf>
    2d8b:	48 8b 45 10          	mov    0x10(%rbp),%rax
    2d8f:	48 89 c1             	mov    %rax,%rcx
    2d92:	e8 3b fe ff ff       	call   2bd2 <pdsp_queue_advance_head>
    2d97:	48 8b 45 10          	mov    0x10(%rbp),%rax
    2d9b:	48 8b 50 08          	mov    0x8(%rax),%rdx
    2d9f:	48 8b 45 10          	mov    0x10(%rbp),%rax
    2da3:	48 8b 00             	mov    (%rax),%rax
    2da6:	0f b7 00             	movzwl (%rax),%eax
    2da9:	48 0f bf c0          	movswq %ax,%rax
    2dad:	48 01 c0             	add    %rax,%rax
    2db0:	48 01 c2             	add    %rax,%rdx
    2db3:	0f b7 45 18          	movzwl 0x18(%rbp),%eax
    2db7:	66 89 02             	mov    %ax,(%rdx)
    2dba:	90                   	nop
    2dbb:	48 83 c4 20          	add    $0x20,%rsp
    2dbf:	5d                   	pop    %rbp
    2dc0:	c3                   	ret

0000000000002dc1 <pdsp_queue_push_i32>:
    2dc1:	55                   	push   %rbp
    2dc2:	48 89 e5             	mov    %rsp,%rbp
    2dc5:	48 83 ec 20          	sub    $0x20,%rsp
    2dc9:	48 89 4d 10          	mov    %rcx,0x10(%rbp)
    2dcd:	89 55 18             	mov    %edx,0x18(%rbp)
    2dd0:	48 83 7d 10 00       	cmpq   $0x0,0x10(%rbp)
    2dd5:	75 1f                	jne    2df6 <pdsp_queue_push_i32+0x35>
    2dd7:	41 b8 65 04 00 00    	mov    $0x465,%r8d
    2ddd:	48 8d 05 20 00 00 00 	lea    0x20(%rip),%rax        # 2e04 <pdsp_queue_push_i32+0x43>
    2de4:	48 89 c2             	mov    %rax,%rdx
    2de7:	48 8d 05 27 00 00 00 	lea    0x27(%rip),%rax        # 2e15 <pdsp_queue_push_i32+0x54>
    2dee:	48 89 c1             	mov    %rax,%rcx
    2df1:	e8 0a d2 ff ff       	call   0 <printf>
    2df6:	48 8b 45 10          	mov    0x10(%rbp),%rax
    2dfa:	48 89 c1             	mov    %rax,%rcx
    2dfd:	e8 d0 fd ff ff       	call   2bd2 <pdsp_queue_advance_head>
    2e02:	48 8b 45 10          	mov    0x10(%rbp),%rax
    2e06:	48 8b 50 08          	mov    0x8(%rax),%rdx
    2e0a:	48 8b 45 10          	mov    0x10(%rbp),%rax
    2e0e:	48 8b 00             	mov    (%rax),%rax
    2e11:	0f b7 00             	movzwl (%rax),%eax
    2e14:	48 0f bf c0          	movswq %ax,%rax
    2e18:	48 c1 e0 02          	shl    $0x2,%rax
    2e1c:	48 01 c2             	add    %rax,%rdx
    2e1f:	8b 45 18             	mov    0x18(%rbp),%eax
    2e22:	89 02                	mov    %eax,(%rdx)
    2e24:	90                   	nop
    2e25:	48 83 c4 20          	add    $0x20,%rsp
    2e29:	5d                   	pop    %rbp
    2e2a:	c3                   	ret

0000000000002e2b <pdsp_queue_push_f32>:
    2e2b:	55                   	push   %rbp
    2e2c:	48 89 e5             	mov    %rsp,%rbp
    2e2f:	48 83 ec 20          	sub    $0x20,%rsp
    2e33:	48 89 4d 10          	mov    %rcx,0x10(%rbp)
    2e37:	f3 0f 11 4d 18       	movss  %xmm1,0x18(%rbp)
    2e3c:	48 83 7d 10 00       	cmpq   $0x0,0x10(%rbp)
    2e41:	75 1f                	jne    2e62 <pdsp_queue_push_f32+0x37>
    2e43:	41 b8 6d 04 00 00    	mov    $0x46d,%r8d
    2e49:	48 8d 05 20 00 00 00 	lea    0x20(%rip),%rax        # 2e70 <pdsp_queue_push_f32+0x45>
    2e50:	48 89 c2             	mov    %rax,%rdx
    2e53:	48 8d 05 27 00 00 00 	lea    0x27(%rip),%rax        # 2e81 <pdsp_queue_push_f32+0x56>
    2e5a:	48 89 c1             	mov    %rax,%rcx
    2e5d:	e8 9e d1 ff ff       	call   0 <printf>
    2e62:	48 8b 45 10          	mov    0x10(%rbp),%rax
    2e66:	48 89 c1             	mov    %rax,%rcx
    2e69:	e8 64 fd ff ff       	call   2bd2 <pdsp_queue_advance_head>
    2e6e:	48 8b 45 10          	mov    0x10(%rbp),%rax
    2e72:	48 8b 50 08          	mov    0x8(%rax),%rdx
    2e76:	48 8b 45 10          	mov    0x10(%rbp),%rax
    2e7a:	48 8b 00             	mov    (%rax),%rax
    2e7d:	0f b7 00             	movzwl (%rax),%eax
    2e80:	48 0f bf c0          	movswq %ax,%rax
    2e84:	48 c1 e0 02          	shl    $0x2,%rax
    2e88:	48 01 d0             	add    %rdx,%rax
    2e8b:	f3 0f 10 45 18       	movss  0x18(%rbp),%xmm0
    2e90:	f3 0f 11 00          	movss  %xmm0,(%rax)
    2e94:	90                   	nop
    2e95:	48 83 c4 20          	add    $0x20,%rsp
    2e99:	5d                   	pop    %rbp
    2e9a:	c3                   	ret

0000000000002e9b <pdsp_queue_push_u64>:
    2e9b:	55                   	push   %rbp
    2e9c:	48 89 e5             	mov    %rsp,%rbp
    2e9f:	48 83 ec 20          	sub    $0x20,%rsp
    2ea3:	48 89 4d 10          	mov    %rcx,0x10(%rbp)
    2ea7:	48 89 55 18          	mov    %rdx,0x18(%rbp)
    2eab:	48 83 7d 10 00       	cmpq   $0x0,0x10(%rbp)
    2eb0:	75 1f                	jne    2ed1 <pdsp_queue_push_u64+0x36>
    2eb2:	41 b8 75 04 00 00    	mov    $0x475,%r8d
    2eb8:	48 8d 05 20 00 00 00 	lea    0x20(%rip),%rax        # 2edf <pdsp_queue_push_u64+0x44>
    2ebf:	48 89 c2             	mov    %rax,%rdx
    2ec2:	48 8d 05 27 00 00 00 	lea    0x27(%rip),%rax        # 2ef0 <pdsp_queue_push_u64+0x55>
    2ec9:	48 89 c1             	mov    %rax,%rcx
    2ecc:	e8 2f d1 ff ff       	call   0 <printf>
    2ed1:	48 8b 45 10          	mov    0x10(%rbp),%rax
    2ed5:	48 89 c1             	mov    %rax,%rcx
    2ed8:	e8 f5 fc ff ff       	call   2bd2 <pdsp_queue_advance_head>
    2edd:	48 8b 45 10          	mov    0x10(%rbp),%rax
    2ee1:	48 8b 50 08          	mov    0x8(%rax),%rdx
    2ee5:	48 8b 45 10          	mov    0x10(%rbp),%rax
    2ee9:	48 8b 00             	mov    (%rax),%rax
    2eec:	0f b7 00             	movzwl (%rax),%eax
    2eef:	48 0f bf c0          	movswq %ax,%rax
    2ef3:	48 c1 e0 03          	shl    $0x3,%rax
    2ef7:	48 01 c2             	add    %rax,%rdx
    2efa:	48 8b 45 18          	mov    0x18(%rbp),%rax
    2efe:	48 89 02             	mov    %rax,(%rdx)
    2f01:	90                   	nop
    2f02:	48 83 c4 20          	add    $0x20,%rsp
    2f06:	5d                   	pop    %rbp
    2f07:	c3                   	ret

0000000000002f08 <pdsp_queue_pop_ch>:
    2f08:	55                   	push   %rbp
    2f09:	48 89 e5             	mov    %rsp,%rbp
    2f0c:	48 83 ec 30          	sub    $0x30,%rsp
    2f10:	48 89 4d 10          	mov    %rcx,0x10(%rbp)
    2f14:	48 83 7d 10 00       	cmpq   $0x0,0x10(%rbp)
    2f19:	75 1f                	jne    2f3a <pdsp_queue_pop_ch+0x32>
    2f1b:	41 b8 7d 04 00 00    	mov    $0x47d,%r8d
    2f21:	48 8d 05 20 00 00 00 	lea    0x20(%rip),%rax        # 2f48 <pdsp_queue_pop_ch+0x40>
    2f28:	48 89 c2             	mov    %rax,%rdx
    2f2b:	48 8d 05 27 00 00 00 	lea    0x27(%rip),%rax        # 2f59 <pdsp_queue_pop_ch+0x51>
    2f32:	48 89 c1             	mov    %rax,%rcx
    2f35:	e8 c6 d0 ff ff       	call   0 <printf>
    2f3a:	48 8b 45 10          	mov    0x10(%rbp),%rax
    2f3e:	48 8b 50 08          	mov    0x8(%rax),%rdx
    2f42:	48 8b 45 10          	mov    0x10(%rbp),%rax
    2f46:	48 8b 00             	mov    (%rax),%rax
    2f49:	0f b7 40 02          	movzwl 0x2(%rax),%eax
    2f4d:	48 0f bf c0          	movswq %ax,%rax
    2f51:	48 01 d0             	add    %rdx,%rax
    2f54:	0f b6 00             	movzbl (%rax),%eax
    2f57:	88 45 ff             	mov    %al,-0x1(%rbp)
    2f5a:	48 8b 45 10          	mov    0x10(%rbp),%rax
    2f5e:	48 89 c1             	mov    %rax,%rcx
    2f61:	e8 f6 fc ff ff       	call   2c5c <pdsp_queue_advance_tail>
    2f66:	0f b6 45 ff          	movzbl -0x1(%rbp),%eax
    2f6a:	48 83 c4 30          	add    $0x30,%rsp
    2f6e:	5d                   	pop    %rbp
    2f6f:	c3                   	ret

0000000000002f70 <pdsp_queue_pop_i16>:
    2f70:	55                   	push   %rbp
    2f71:	48 89 e5             	mov    %rsp,%rbp
    2f74:	48 83 ec 30          	sub    $0x30,%rsp
    2f78:	48 89 4d 10          	mov    %rcx,0x10(%rbp)
    2f7c:	48 83 7d 10 00       	cmpq   $0x0,0x10(%rbp)
    2f81:	75 1f                	jne    2fa2 <pdsp_queue_pop_i16+0x32>
    2f83:	41 b8 86 04 00 00    	mov    $0x486,%r8d
    2f89:	48 8d 05 20 00 00 00 	lea    0x20(%rip),%rax        # 2fb0 <pdsp_queue_pop_i16+0x40>
    2f90:	48 89 c2             	mov    %rax,%rdx
    2f93:	48 8d 05 27 00 00 00 	lea    0x27(%rip),%rax        # 2fc1 <pdsp_queue_pop_i16+0x51>
    2f9a:	48 89 c1             	mov    %rax,%rcx
    2f9d:	e8 5e d0 ff ff       	call   0 <printf>
    2fa2:	48 8b 45 10          	mov    0x10(%rbp),%rax
    2fa6:	48 8b 50 08          	mov    0x8(%rax),%rdx
    2faa:	48 8b 45 10          	mov    0x10(%rbp),%rax
    2fae:	48 8b 00             	mov    (%rax),%rax
    2fb1:	0f b7 40 02          	movzwl 0x2(%rax),%eax
    2fb5:	48 0f bf c0          	movswq %ax,%rax
    2fb9:	48 01 c0             	add    %rax,%rax
    2fbc:	48 01 d0             	add    %rdx,%rax
    2fbf:	0f b7 00             	movzwl (%rax),%eax
    2fc2:	66 89 45 fe          	mov    %ax,-0x2(%rbp)
    2fc6:	48 8b 45 10          	mov    0x10(%rbp),%rax
    2fca:	48 89 c1             	mov    %rax,%rcx
    2fcd:	e8 8a fc ff ff       	call   2c5c <pdsp_queue_advance_tail>
    2fd2:	0f b7 45 fe          	movzwl -0x2(%rbp),%eax
    2fd6:	48 83 c4 30          	add    $0x30,%rsp
    2fda:	5d                   	pop    %rbp
    2fdb:	c3                   	ret

0000000000002fdc <pdsp_queue_pop_i32>:
    2fdc:	55                   	push   %rbp
    2fdd:	48 89 e5             	mov    %rsp,%rbp
    2fe0:	48 83 ec 30          	sub    $0x30,%rsp
    2fe4:	48 89 4d 10          	mov    %rcx,0x10(%rbp)
    2fe8:	48 83 7d 10 00       	cmpq   $0x0,0x10(%rbp)
    2fed:	75 1f                	jne    300e <pdsp_queue_pop_i32+0x32>
    2fef:	41 b8 8f 04 00 00    	mov    $0x48f,%r8d
    2ff5:	48 8d 05 20 00 00 00 	lea    0x20(%rip),%rax        # 301c <pdsp_queue_pop_i32+0x40>
    2ffc:	48 89 c2             	mov    %rax,%rdx
    2fff:	48 8d 05 27 00 00 00 	lea    0x27(%rip),%rax        # 302d <pdsp_queue_pop_i32+0x51>
    3006:	48 89 c1             	mov    %rax,%rcx
    3009:	e8 f2 cf ff ff       	call   0 <printf>
    300e:	48 8b 45 10          	mov    0x10(%rbp),%rax
    3012:	48 8b 50 08          	mov    0x8(%rax),%rdx
    3016:	48 8b 45 10          	mov    0x10(%rbp),%rax
    301a:	48 8b 00             	mov    (%rax),%rax
    301d:	0f b7 40 02          	movzwl 0x2(%rax),%eax
    3021:	48 0f bf c0          	movswq %ax,%rax
    3025:	48 c1 e0 02          	shl    $0x2,%rax
    3029:	48 01 d0             	add    %rdx,%rax
    302c:	8b 00                	mov    (%rax),%eax
    302e:	89 45 fc             	mov    %eax,-0x4(%rbp)
    3031:	48 8b 45 10          	mov    0x10(%rbp),%rax
    3035:	48 89 c1             	mov    %rax,%rcx
    3038:	e8 1f fc ff ff       	call   2c5c <pdsp_queue_advance_tail>
    303d:	8b 45 fc             	mov    -0x4(%rbp),%eax
    3040:	48 83 c4 30          	add    $0x30,%rsp
    3044:	5d                   	pop    %rbp
    3045:	c3                   	ret

0000000000003046 <pdsp_queue_pop_f32>:
    3046:	55                   	push   %rbp
    3047:	48 89 e5             	mov    %rsp,%rbp
    304a:	48 83 ec 30          	sub    $0x30,%rsp
    304e:	48 89 4d 10          	mov    %rcx,0x10(%rbp)
    3052:	48 83 7d 10 00       	cmpq   $0x0,0x10(%rbp)
    3057:	75 1f                	jne    3078 <pdsp_queue_pop_f32+0x32>
    3059:	41 b8 98 04 00 00    	mov    $0x498,%r8d
    305f:	48 8d 05 20 00 00 00 	lea    0x20(%rip),%rax        # 3086 <pdsp_queue_pop_f32+0x40>
    3066:	48 89 c2             	mov    %rax,%rdx
    3069:	48 8d 05 27 00 00 00 	lea    0x27(%rip),%rax        # 3097 <pdsp_queue_pop_f32+0x51>
    3070:	48 89 c1             	mov    %rax,%rcx
    3073:	e8 88 cf ff ff       	call   0 <printf>
    3078:	48 8b 45 10          	mov    0x10(%rbp),%rax
    307c:	48 8b 50 08          	mov    0x8(%rax),%rdx
    3080:	48 8b 45 10          	mov    0x10(%rbp),%rax
    3084:	48 8b 00             	mov    (%rax),%rax
    3087:	0f b7 40 02          	movzwl 0x2(%rax),%eax
    308b:	48 0f bf c0          	movswq %ax,%rax
    308f:	48 c1 e0 02          	shl    $0x2,%rax
    3093:	48 01 d0             	add    %rdx,%rax
    3096:	f3 0f 10 00          	movss  (%rax),%xmm0
    309a:	f3 0f 11 45 fc       	movss  %xmm0,-0x4(%rbp)
    309f:	48 8b 45 10          	mov    0x10(%rbp),%rax
    30a3:	48 89 c1             	mov    %rax,%rcx
    30a6:	e8 b1 fb ff ff       	call   2c5c <pdsp_queue_advance_tail>
    30ab:	f3 0f 10 45 fc       	movss  -0x4(%rbp),%xmm0
    30b0:	48 83 c4 30          	add    $0x30,%rsp
    30b4:	5d                   	pop    %rbp
    30b5:	c3                   	ret

00000000000030b6 <pdsp_queue_pop_u64>:
    30b6:	55                   	push   %rbp
    30b7:	48 89 e5             	mov    %rsp,%rbp
    30ba:	48 83 ec 30          	sub    $0x30,%rsp
    30be:	48 89 4d 10          	mov    %rcx,0x10(%rbp)
    30c2:	48 83 7d 10 00       	cmpq   $0x0,0x10(%rbp)
    30c7:	75 1f                	jne    30e8 <pdsp_queue_pop_u64+0x32>
    30c9:	41 b8 a1 04 00 00    	mov    $0x4a1,%r8d
    30cf:	48 8d 05 20 00 00 00 	lea    0x20(%rip),%rax        # 30f6 <pdsp_queue_pop_u64+0x40>
    30d6:	48 89 c2             	mov    %rax,%rdx
    30d9:	48 8d 05 27 00 00 00 	lea    0x27(%rip),%rax        # 3107 <pdsp_queue_pop_u64+0x51>
    30e0:	48 89 c1             	mov    %rax,%rcx
    30e3:	e8 18 cf ff ff       	call   0 <printf>
    30e8:	48 8b 45 10          	mov    0x10(%rbp),%rax
    30ec:	48 8b 50 08          	mov    0x8(%rax),%rdx
    30f0:	48 8b 45 10          	mov    0x10(%rbp),%rax
    30f4:	48 8b 00             	mov    (%rax),%rax
    30f7:	0f b7 40 02          	movzwl 0x2(%rax),%eax
    30fb:	48 0f bf c0          	movswq %ax,%rax
    30ff:	48 c1 e0 03          	shl    $0x3,%rax
    3103:	48 01 d0             	add    %rdx,%rax
    3106:	48 8b 00             	mov    (%rax),%rax
    3109:	48 89 45 f8          	mov    %rax,-0x8(%rbp)
    310d:	48 8b 45 10          	mov    0x10(%rbp),%rax
    3111:	48 89 c1             	mov    %rax,%rcx
    3114:	e8 43 fb ff ff       	call   2c5c <pdsp_queue_advance_tail>
    3119:	48 8b 45 f8          	mov    -0x8(%rbp),%rax
    311d:	48 83 c4 30          	add    $0x30,%rsp
    3121:	5d                   	pop    %rbp
    3122:	c3                   	ret

0000000000003123 <pdsp_llc_init>:
    3123:	55                   	push   %rbp
    3124:	48 89 e5             	mov    %rsp,%rbp
    3127:	48 83 ec 20          	sub    $0x20,%rsp
    312b:	48 89 4d 10          	mov    %rcx,0x10(%rbp)
    312f:	89 55 18             	mov    %edx,0x18(%rbp)
    3132:	f3 0f 11 55 20       	movss  %xmm2,0x20(%rbp)
    3137:	f3 0f 11 5d 28       	movss  %xmm3,0x28(%rbp)
    313c:	48 8b 45 10          	mov    0x10(%rbp),%rax
    3140:	8b 55 18             	mov    0x18(%rbp),%edx
    3143:	89 10                	mov    %edx,(%rax)
    3145:	48 8b 45 10          	mov    0x10(%rbp),%rax
    3149:	48 83 c0 04          	add    $0x4,%rax
    314d:	f3 0f 10 45 20       	movss  0x20(%rbp),%xmm0
    3152:	0f 28 c8             	movaps %xmm0,%xmm1
    3155:	48 89 c1             	mov    %rax,%rcx
    3158:	e8 e7 05 00 00       	call   3744 <pdsp_expavg_init>
    315d:	48 8b 45 10          	mov    0x10(%rbp),%rax
    3161:	48 8d 48 10          	lea    0x10(%rax),%rcx
    3165:	48 8b 55 30          	mov    0x30(%rbp),%rdx
    3169:	48 8b 45 38          	mov    0x38(%rbp),%rax
    316d:	41 b9 0d 00 00 00    	mov    $0xd,%r9d
    3173:	49 89 d0             	mov    %rdx,%r8
    3176:	48 89 c2             	mov    %rax,%rdx
    3179:	e8 4e e6 ff ff       	call   17cc <pdsp_hysteresis_list_init>
    317e:	48 8b 45 10          	mov    0x10(%rbp),%rax
    3182:	48 83 c0 34          	add    $0x34,%rax
    3186:	f3 0f 10 45 28       	movss  0x28(%rbp),%xmm0
    318b:	0f 28 c8             	movaps %xmm0,%xmm1
    318e:	48 89 c1             	mov    %rax,%rcx
    3191:	e8 ae 05 00 00       	call   3744 <pdsp_expavg_init>
    3196:	48 8b 45 10          	mov    0x10(%rbp),%rax
    319a:	48 83 c0 40          	add    $0x40,%rax
    319e:	f3 0f 10 45 28       	movss  0x28(%rbp),%xmm0
    31a3:	0f 28 c8             	movaps %xmm0,%xmm1
    31a6:	48 89 c1             	mov    %rax,%rcx
    31a9:	e8 96 05 00 00       	call   3744 <pdsp_expavg_init>
    31ae:	48 8b 45 10          	mov    0x10(%rbp),%rax
    31b2:	48 83 c0 48          	add    $0x48,%rax
    31b6:	f3 0f 10 45 28       	movss  0x28(%rbp),%xmm0
    31bb:	0f 28 c8             	movaps %xmm0,%xmm1
    31be:	48 89 c1             	mov    %rax,%rcx
    31c1:	e8 7e 05 00 00       	call   3744 <pdsp_expavg_init>
    31c6:	48 8b 45 10          	mov    0x10(%rbp),%rax
    31ca:	66 0f ef c0          	pxor   %xmm0,%xmm0
    31ce:	f3 0f 11 40 50       	movss  %xmm0,0x50(%rax)
    31d3:	48 8b 45 10          	mov    0x10(%rbp),%rax
    31d7:	66 0f ef c0          	pxor   %xmm0,%xmm0
    31db:	f3 0f 11 40 30       	movss  %xmm0,0x30(%rax)
    31e0:	48 8b 45 10          	mov    0x10(%rbp),%rax
    31e4:	66 c7 40 54 00 00    	movw   $0x0,0x54(%rax)
    31ea:	48 8b 45 10          	mov    0x10(%rbp),%rax
    31ee:	48 8d 48 58          	lea    0x58(%rax),%rcx
    31f2:	48 8b 55 40          	mov    0x40(%rbp),%rdx
    31f6:	48 8b 45 48          	mov    0x48(%rbp),%rax
    31fa:	41 b9 05 00 00 00    	mov    $0x5,%r9d
    3200:	49 89 d0             	mov    %rdx,%r8
    3203:	48 89 c2             	mov    %rax,%rdx
    3206:	e8 c1 e5 ff ff       	call   17cc <pdsp_hysteresis_list_init>
    320b:	48 8b 45 10          	mov    0x10(%rbp),%rax
    320f:	c6 40 78 00          	movb   $0x0,0x78(%rax)
    3213:	48 8b 45 10          	mov    0x10(%rbp),%rax
    3217:	c7 40 7c 00 00 00 00 	movl   $0x0,0x7c(%rax)
    321e:	48 8b 45 10          	mov    0x10(%rbp),%rax
    3222:	c7 80 80 00 00 00 00 	movl   $0x0,0x80(%rax)
    3229:	00 00 00 
    322c:	48 8b 45 10          	mov    0x10(%rbp),%rax
    3230:	c6 80 84 00 00 00 00 	movb   $0x0,0x84(%rax)
    3237:	48 8b 45 10          	mov    0x10(%rbp),%rax
    323b:	c6 80 85 00 00 00 00 	movb   $0x0,0x85(%rax)
    3242:	90                   	nop
    3243:	48 83 c4 20          	add    $0x20,%rsp
    3247:	5d                   	pop    %rbp
    3248:	c3                   	ret

0000000000003249 <pdsp_llc_run>:
    3249:	55                   	push   %rbp
    324a:	48 89 e5             	mov    %rsp,%rbp
    324d:	48 89 4d 10          	mov    %rcx,0x10(%rbp)
    3251:	48 8b 45 10          	mov    0x10(%rbp),%rax
    3255:	66 0f ef c0          	pxor   %xmm0,%xmm0
    3259:	f3 0f 11 40 50       	movss  %xmm0,0x50(%rax)
    325e:	48 8b 45 10          	mov    0x10(%rbp),%rax
    3262:	66 0f ef c0          	pxor   %xmm0,%xmm0
    3266:	f3 0f 11 40 30       	movss  %xmm0,0x30(%rax)
    326b:	48 8b 45 10          	mov    0x10(%rbp),%rax
    326f:	c6 40 78 00          	movb   $0x0,0x78(%rax)
    3273:	48 8b 45 10          	mov    0x10(%rbp),%rax
    3277:	c7 40 7c 00 00 00 00 	movl   $0x0,0x7c(%rax)
    327e:	48 8b 45 10          	mov    0x10(%rbp),%rax
    3282:	c7 80 80 00 00 00 00 	movl   $0x0,0x80(%rax)
    3289:	00 00 00 
    328c:	90                   	nop
    328d:	5d                   	pop    %rbp
    328e:	c3                   	ret

000000000000328f <pdsp_llc_set_values>:
    328f:	55                   	push   %rbp
    3290:	48 89 e5             	mov    %rsp,%rbp
    3293:	48 83 ec 20          	sub    $0x20,%rsp
    3297:	48 89 4d 10          	mov    %rcx,0x10(%rbp)
    329b:	f3 0f 11 4d 18       	movss  %xmm1,0x18(%rbp)
    32a0:	f3 0f 11 55 20       	movss  %xmm2,0x20(%rbp)
    32a5:	f3 0f 11 5d 28       	movss  %xmm3,0x28(%rbp)
    32aa:	48 8b 45 10          	mov    0x10(%rbp),%rax
    32ae:	48 83 c0 04          	add    $0x4,%rax
    32b2:	f3 0f 10 45 18       	movss  0x18(%rbp),%xmm0
    32b7:	0f 28 c8             	movaps %xmm0,%xmm1
    32ba:	48 89 c1             	mov    %rax,%rcx
    32bd:	e8 1f 05 00 00       	call   37e1 <pdsp_expavg>
    32c2:	48 8b 45 10          	mov    0x10(%rbp),%rax
    32c6:	48 83 c0 34          	add    $0x34,%rax
    32ca:	f3 0f 10 45 20       	movss  0x20(%rbp),%xmm0
    32cf:	0f 28 c8             	movaps %xmm0,%xmm1
    32d2:	48 89 c1             	mov    %rax,%rcx
    32d5:	e8 07 05 00 00       	call   37e1 <pdsp_expavg>
    32da:	48 8b 45 10          	mov    0x10(%rbp),%rax
    32de:	48 83 c0 40          	add    $0x40,%rax
    32e2:	f3 0f 10 45 28       	movss  0x28(%rbp),%xmm0
    32e7:	0f 28 c8             	movaps %xmm0,%xmm1
    32ea:	48 89 c1             	mov    %rax,%rcx
    32ed:	e8 ef 04 00 00       	call   37e1 <pdsp_expavg>
    32f2:	48 8b 45 10          	mov    0x10(%rbp),%rax
    32f6:	48 83 c0 48          	add    $0x48,%rax
    32fa:	f3 0f 10 45 30       	movss  0x30(%rbp),%xmm0
    32ff:	0f 28 c8             	movaps %xmm0,%xmm1
    3302:	48 89 c1             	mov    %rax,%rcx
    3305:	e8 d7 04 00 00       	call   37e1 <pdsp_expavg>
    330a:	90                   	nop
    330b:	48 83 c4 20          	add    $0x20,%rsp
    330f:	5d                   	pop    %rbp
    3310:	c3                   	ret

0000000000003311 <pdsp_llc_set_ev_ready>:
    3311:	55                   	push   %rbp
    3312:	48 89 e5             	mov    %rsp,%rbp
    3315:	48 89 4d 10          	mov    %rcx,0x10(%rbp)
    3319:	89 55 18             	mov    %edx,0x18(%rbp)
    331c:	48 8b 45 10          	mov    0x10(%rbp),%rax
    3320:	8b 55 18             	mov    0x18(%rbp),%edx
    3323:	89 50 7c             	mov    %edx,0x7c(%rax)
    3326:	90                   	nop
    3327:	5d                   	pop    %rbp
    3328:	c3                   	ret

0000000000003329 <pdsp_llc_get_se_ready>:
    3329:	55                   	push   %rbp
    332a:	48 89 e5             	mov    %rsp,%rbp
    332d:	48 89 4d 10          	mov    %rcx,0x10(%rbp)
    3331:	48 8b 45 10          	mov    0x10(%rbp),%rax
    3335:	8b 80 80 00 00 00    	mov    0x80(%rax),%eax
    333b:	5d                   	pop    %rbp
    333c:	c3                   	ret

000000000000333d <pdsp_llc_get_plug_detected>:
    333d:	55                   	push   %rbp
    333e:	48 89 e5             	mov    %rsp,%rbp
    3341:	48 89 4d 10          	mov    %rcx,0x10(%rbp)
    3345:	48 8b 45 10          	mov    0x10(%rbp),%rax
    3349:	0f b6 40 78          	movzbl 0x78(%rax),%eax
    334d:	5d                   	pop    %rbp
    334e:	c3                   	ret

000000000000334f <pdsp_llc_get_cp_duty_state>:
    334f:	55                   	push   %rbp
    3350:	48 89 e5             	mov    %rsp,%rbp
    3353:	48 89 4d 10          	mov    %rcx,0x10(%rbp)
    3357:	48 8b 45 10          	mov    0x10(%rbp),%rax
    335b:	0f b7 40 58          	movzwl 0x58(%rax),%eax
    335f:	5d                   	pop    %rbp
    3360:	c3                   	ret

0000000000003361 <pdsp_llc_get_s2_normal_status>:
    3361:	55                   	push   %rbp
    3362:	48 89 e5             	mov    %rsp,%rbp
    3365:	48 89 4d 10          	mov    %rcx,0x10(%rbp)
    3369:	48 8b 45 10          	mov    0x10(%rbp),%rax
    336d:	0f b6 80 84 00 00 00 	movzbl 0x84(%rax),%eax
    3374:	5d                   	pop    %rbp
    3375:	c3                   	ret

0000000000003376 <pdsp_llc_get_s2_ventilation_status>:
    3376:	55                   	push   %rbp
    3377:	48 89 e5             	mov    %rsp,%rbp
    337a:	48 89 4d 10          	mov    %rcx,0x10(%rbp)
    337e:	48 8b 45 10          	mov    0x10(%rbp),%rax
    3382:	0f b6 80 85 00 00 00 	movzbl 0x85(%rax),%eax
    3389:	5d                   	pop    %rbp
    338a:	c3                   	ret

000000000000338b <pdsp_ain>:
    338b:	55                   	push   %rbp
    338c:	48 89 e5             	mov    %rsp,%rbp
    338f:	48 83 ec 20          	sub    $0x20,%rsp
    3393:	48 89 4d 10          	mov    %rcx,0x10(%rbp)
    3397:	f3 0f 11 4d 18       	movss  %xmm1,0x18(%rbp)
    339c:	48 83 7d 10 00       	cmpq   $0x0,0x10(%rbp)
    33a1:	75 1f                	jne    33c2 <pdsp_ain+0x37>
    33a3:	41 b8 fc 04 00 00    	mov    $0x4fc,%r8d
    33a9:	48 8d 05 20 00 00 00 	lea    0x20(%rip),%rax        # 33d0 <pdsp_ain+0x45>
    33b0:	48 89 c2             	mov    %rax,%rdx
    33b3:	48 8d 05 27 00 00 00 	lea    0x27(%rip),%rax        # 33e1 <pdsp_ain+0x56>
    33ba:	48 89 c1             	mov    %rax,%rcx
    33bd:	e8 3e cc ff ff       	call   0 <printf>
    33c2:	48 8b 45 10          	mov    0x10(%rbp),%rax
    33c6:	8b 00                	mov    (%rax),%eax
    33c8:	85 c0                	test   %eax,%eax
    33ca:	75 20                	jne    33ec <pdsp_ain+0x61>
    33cc:	48 8b 45 10          	mov    0x10(%rbp),%rax
    33d0:	f3 0f 10 40 08       	movss  0x8(%rax),%xmm0
    33d5:	0f 28 c8             	movaps %xmm0,%xmm1
    33d8:	f3 0f 59 4d 18       	mulss  0x18(%rbp),%xmm1
    33dd:	48 8b 45 10          	mov    0x10(%rbp),%rax
    33e1:	f3 0f 10 40 0c       	movss  0xc(%rax),%xmm0
    33e6:	f3 0f 58 c1          	addss  %xmm1,%xmm0
    33ea:	eb 53                	jmp    343f <pdsp_ain+0xb4>
    33ec:	48 8b 45 10          	mov    0x10(%rbp),%rax
    33f0:	8b 00                	mov    (%rax),%eax
    33f2:	83 f8 01             	cmp    $0x1,%eax
    33f5:	75 0b                	jne    3402 <pdsp_ain+0x77>
    33f7:	48 8b 45 10          	mov    0x10(%rbp),%rax
    33fb:	f3 0f 10 40 04       	movss  0x4(%rax),%xmm0
    3400:	eb 3d                	jmp    343f <pdsp_ain+0xb4>
    3402:	48 8b 45 10          	mov    0x10(%rbp),%rax
    3406:	8b 00                	mov    (%rax),%eax
    3408:	83 f8 02             	cmp    $0x2,%eax
    340b:	75 2d                	jne    343a <pdsp_ain+0xaf>
    340d:	48 8b 45 10          	mov    0x10(%rbp),%rax
    3411:	f3 0f 10 40 08       	movss  0x8(%rax),%xmm0
    3416:	0f 28 c8             	movaps %xmm0,%xmm1
    3419:	f3 0f 59 4d 18       	mulss  0x18(%rbp),%xmm1
    341e:	48 8b 45 10          	mov    0x10(%rbp),%rax
    3422:	f3 0f 10 40 0c       	movss  0xc(%rax),%xmm0
    3427:	f3 0f 58 c8          	addss  %xmm0,%xmm1
    342b:	48 8b 45 10          	mov    0x10(%rbp),%rax
    342f:	f3 0f 10 40 04       	movss  0x4(%rax),%xmm0
    3434:	f3 0f 58 c1          	addss  %xmm1,%xmm0
    3438:	eb 05                	jmp    343f <pdsp_ain+0xb4>
    343a:	f3 0f 10 45 18       	movss  0x18(%rbp),%xmm0
    343f:	48 83 c4 20          	add    $0x20,%rsp
    3443:	5d                   	pop    %rbp
    3444:	c3                   	ret

0000000000003445 <pdsp_ain_ovr>:
    3445:	55                   	push   %rbp
    3446:	48 89 e5             	mov    %rsp,%rbp
    3449:	48 83 ec 20          	sub    $0x20,%rsp
    344d:	48 89 4d 10          	mov    %rcx,0x10(%rbp)
    3451:	f3 0f 11 4d 18       	movss  %xmm1,0x18(%rbp)
    3456:	48 83 7d 10 00       	cmpq   $0x0,0x10(%rbp)
    345b:	75 1f                	jne    347c <pdsp_ain_ovr+0x37>
    345d:	41 b8 12 05 00 00    	mov    $0x512,%r8d
    3463:	48 8d 05 20 00 00 00 	lea    0x20(%rip),%rax        # 348a <pdsp_ain_ovr+0x45>
    346a:	48 89 c2             	mov    %rax,%rdx
    346d:	48 8d 05 27 00 00 00 	lea    0x27(%rip),%rax        # 349b <pdsp_ain_ovr+0x56>
    3474:	48 89 c1             	mov    %rax,%rcx
    3477:	e8 84 cb ff ff       	call   0 <printf>
    347c:	48 8b 45 10          	mov    0x10(%rbp),%rax
    3480:	f3 0f 10 40 08       	movss  0x8(%rax),%xmm0
    3485:	0f 28 c8             	movaps %xmm0,%xmm1
    3488:	f3 0f 59 4d 18       	mulss  0x18(%rbp),%xmm1
    348d:	48 8b 45 10          	mov    0x10(%rbp),%rax
    3491:	f3 0f 10 40 0c       	movss  0xc(%rax),%xmm0
    3496:	f3 0f 58 c8          	addss  %xmm0,%xmm1
    349a:	48 8b 45 10          	mov    0x10(%rbp),%rax
    349e:	f3 0f 10 40 04       	movss  0x4(%rax),%xmm0
    34a3:	f3 0f 58 c1          	addss  %xmm1,%xmm0
    34a7:	48 83 c4 20          	add    $0x20,%rsp
    34ab:	5d                   	pop    %rbp
    34ac:	c3                   	ret

00000000000034ad <pdsp_ain_ovr_enable>:
    34ad:	55                   	push   %rbp
    34ae:	48 89 e5             	mov    %rsp,%rbp
    34b1:	48 83 ec 20          	sub    $0x20,%rsp
    34b5:	48 89 4d 10          	mov    %rcx,0x10(%rbp)
    34b9:	f3 0f 11 4d 18       	movss  %xmm1,0x18(%rbp)
    34be:	48 83 7d 10 00       	cmpq   $0x0,0x10(%rbp)
    34c3:	75 1f                	jne    34e4 <pdsp_ain_ovr_enable+0x37>
    34c5:	41 b8 1a 05 00 00    	mov    $0x51a,%r8d
    34cb:	48 8d 05 20 00 00 00 	lea    0x20(%rip),%rax        # 34f2 <pdsp_ain_ovr_enable+0x45>
    34d2:	48 89 c2             	mov    %rax,%rdx
    34d5:	48 8d 05 27 00 00 00 	lea    0x27(%rip),%rax        # 3503 <pdsp_ain_ovr_disable>
    34dc:	48 89 c1             	mov    %rax,%rcx
    34df:	e8 1c cb ff ff       	call   0 <printf>
    34e4:	48 8b 45 10          	mov    0x10(%rbp),%rax
    34e8:	c7 00 01 00 00 00    	movl   $0x1,(%rax)
    34ee:	48 8b 45 10          	mov    0x10(%rbp),%rax
    34f2:	f3 0f 10 45 18       	movss  0x18(%rbp),%xmm0
    34f7:	f3 0f 11 40 04       	movss  %xmm0,0x4(%rax)
    34fc:	90                   	nop
    34fd:	48 83 c4 20          	add    $0x20,%rsp
    3501:	5d                   	pop    %rbp
    3502:	c3                   	ret

0000000000003503 <pdsp_ain_ovr_disable>:
    3503:	55                   	push   %rbp
    3504:	48 89 e5             	mov    %rsp,%rbp
    3507:	48 83 ec 20          	sub    $0x20,%rsp
    350b:	48 89 4d 10          	mov    %rcx,0x10(%rbp)
    350f:	48 83 7d 10 00       	cmpq   $0x0,0x10(%rbp)
    3514:	75 1f                	jne    3535 <pdsp_ain_ovr_disable+0x32>
    3516:	41 b8 21 05 00 00    	mov    $0x521,%r8d
    351c:	48 8d 05 20 00 00 00 	lea    0x20(%rip),%rax        # 3543 <pdsp_ain_ovr_disable+0x40>
    3523:	48 89 c2             	mov    %rax,%rdx
    3526:	48 8d 05 27 00 00 00 	lea    0x27(%rip),%rax        # 3554 <pdsp_ain_ovr_inject+0xe>
    352d:	48 89 c1             	mov    %rax,%rcx
    3530:	e8 cb ca ff ff       	call   0 <printf>
    3535:	48 8b 45 10          	mov    0x10(%rbp),%rax
    3539:	c7 00 00 00 00 00    	movl   $0x0,(%rax)
    353f:	90                   	nop
    3540:	48 83 c4 20          	add    $0x20,%rsp
    3544:	5d                   	pop    %rbp
    3545:	c3                   	ret

0000000000003546 <pdsp_ain_ovr_inject>:
    3546:	55                   	push   %rbp
    3547:	48 89 e5             	mov    %rsp,%rbp
    354a:	48 83 ec 20          	sub    $0x20,%rsp
    354e:	48 89 4d 10          	mov    %rcx,0x10(%rbp)
    3552:	f3 0f 11 4d 18       	movss  %xmm1,0x18(%rbp)
    3557:	48 83 7d 10 00       	cmpq   $0x0,0x10(%rbp)
    355c:	75 1f                	jne    357d <pdsp_ain_ovr_inject+0x37>
    355e:	41 b8 28 05 00 00    	mov    $0x528,%r8d
    3564:	48 8d 05 20 00 00 00 	lea    0x20(%rip),%rax        # 358b <pdsp_ain_ovr_inject+0x45>
    356b:	48 89 c2             	mov    %rax,%rdx
    356e:	48 8d 05 27 00 00 00 	lea    0x27(%rip),%rax        # 359c <pdsp_ain_calibrate_gain>
    3575:	48 89 c1             	mov    %rax,%rcx
    3578:	e8 83 ca ff ff       	call   0 <printf>
    357d:	48 8b 45 10          	mov    0x10(%rbp),%rax
    3581:	c7 00 02 00 00 00    	movl   $0x2,(%rax)
    3587:	48 8b 45 10          	mov    0x10(%rbp),%rax
    358b:	f3 0f 10 45 18       	movss  0x18(%rbp),%xmm0
    3590:	f3 0f 11 40 04       	movss  %xmm0,0x4(%rax)
    3595:	90                   	nop
    3596:	48 83 c4 20          	add    $0x20,%rsp
    359a:	5d                   	pop    %rbp
    359b:	c3                   	ret

000000000000359c <pdsp_ain_calibrate_gain>:
    359c:	55                   	push   %rbp
    359d:	48 89 e5             	mov    %rsp,%rbp
    35a0:	f3 0f 11 45 10       	movss  %xmm0,0x10(%rbp)
    35a5:	f3 0f 11 4d 18       	movss  %xmm1,0x18(%rbp)
    35aa:	f3 0f 11 55 20       	movss  %xmm2,0x20(%rbp)
    35af:	66 0f ef c0          	pxor   %xmm0,%xmm0
    35b3:	0f 2e 45 20          	ucomiss 0x20(%rbp),%xmm0
    35b7:	7a 14                	jp     35cd <pdsp_ain_calibrate_gain+0x31>
    35b9:	66 0f ef c0          	pxor   %xmm0,%xmm0
    35bd:	0f 2e 45 20          	ucomiss 0x20(%rbp),%xmm0
    35c1:	75 0a                	jne    35cd <pdsp_ain_calibrate_gain+0x31>
    35c3:	f3 0f 10 45 18       	movss  0x18(%rbp),%xmm0
    35c8:	f3 0f 11 45 20       	movss  %xmm0,0x20(%rbp)
    35cd:	f3 0f 10 45 10       	movss  0x10(%rbp),%xmm0
    35d2:	f3 0f 59 45 18       	mulss  0x18(%rbp),%xmm0
    35d7:	f3 0f 5e 45 20       	divss  0x20(%rbp),%xmm0
    35dc:	5d                   	pop    %rbp
    35dd:	c3                   	ret

00000000000035de <pdsp_ain_calibrate_offset>:
    35de:	55                   	push   %rbp
    35df:	48 89 e5             	mov    %rsp,%rbp
    35e2:	f3 0f 11 45 10       	movss  %xmm0,0x10(%rbp)
    35e7:	f3 0f 11 4d 18       	movss  %xmm1,0x18(%rbp)
    35ec:	f3 0f 11 55 20       	movss  %xmm2,0x20(%rbp)
    35f1:	f3 0f 10 45 18       	movss  0x18(%rbp),%xmm0
    35f6:	f3 0f 5c 45 20       	subss  0x20(%rbp),%xmm0
    35fb:	f3 0f 58 45 10       	addss  0x10(%rbp),%xmm0
    3600:	5d                   	pop    %rbp
    3601:	c3                   	ret

0000000000003602 <pdsp_minmax_clear>:
    3602:	55                   	push   %rbp
    3603:	48 89 e5             	mov    %rsp,%rbp
    3606:	48 83 ec 20          	sub    $0x20,%rsp
    360a:	48 89 4d 10          	mov    %rcx,0x10(%rbp)
    360e:	48 83 7d 10 00       	cmpq   $0x0,0x10(%rbp)
    3613:	75 1f                	jne    3634 <pdsp_minmax_clear+0x32>
    3615:	41 b8 41 05 00 00    	mov    $0x541,%r8d
    361b:	48 8d 05 20 00 00 00 	lea    0x20(%rip),%rax        # 3642 <pdsp_minmax_clear+0x40>
    3622:	48 89 c2             	mov    %rax,%rdx
    3625:	48 8d 05 27 00 00 00 	lea    0x27(%rip),%rax        # 3653 <pdsp_minmax_clear+0x51>
    362c:	48 89 c1             	mov    %rax,%rcx
    362f:	e8 cc c9 ff ff       	call   0 <printf>
    3634:	48 8b 45 10          	mov    0x10(%rbp),%rax
    3638:	f3 0f 10 05 54 00 00 	movss  0x54(%rip),%xmm0        # 3694 <pdsp_minmax+0x2b>
    363f:	00 
    3640:	f3 0f 11 00          	movss  %xmm0,(%rax)
    3644:	48 8b 45 10          	mov    0x10(%rbp),%rax
    3648:	f3 0f 10 05 58 00 00 	movss  0x58(%rip),%xmm0        # 36a8 <pdsp_minmax+0x3f>
    364f:	00 
    3650:	f3 0f 11 40 04       	movss  %xmm0,0x4(%rax)
    3655:	48 8b 45 10          	mov    0x10(%rbp),%rax
    3659:	66 0f ef c0          	pxor   %xmm0,%xmm0
    365d:	f3 0f 11 40 08       	movss  %xmm0,0x8(%rax)
    3662:	90                   	nop
    3663:	48 83 c4 20          	add    $0x20,%rsp
    3667:	5d                   	pop    %rbp
    3668:	c3                   	ret

0000000000003669 <pdsp_minmax>:
    3669:	55                   	push   %rbp
    366a:	48 89 e5             	mov    %rsp,%rbp
    366d:	48 83 ec 20          	sub    $0x20,%rsp
    3671:	48 89 4d 10          	mov    %rcx,0x10(%rbp)
    3675:	f3 0f 11 4d 18       	movss  %xmm1,0x18(%rbp)
    367a:	48 83 7d 10 00       	cmpq   $0x0,0x10(%rbp)
    367f:	75 1f                	jne    36a0 <pdsp_minmax+0x37>
    3681:	41 b8 49 05 00 00    	mov    $0x549,%r8d
    3687:	48 8d 05 20 00 00 00 	lea    0x20(%rip),%rax        # 36ae <pdsp_minmax+0x45>
    368e:	48 89 c2             	mov    %rax,%rdx
    3691:	48 8d 05 27 00 00 00 	lea    0x27(%rip),%rax        # 36bf <pdsp_minmax+0x56>
    3698:	48 89 c1             	mov    %rax,%rcx
    369b:	e8 60 c9 ff ff       	call   0 <printf>
    36a0:	48 8b 45 10          	mov    0x10(%rbp),%rax
    36a4:	f3 0f 10 00          	movss  (%rax),%xmm0
    36a8:	8b 45 18             	mov    0x18(%rbp),%eax
    36ab:	0f 28 c8             	movaps %xmm0,%xmm1
    36ae:	66 0f 6e c0          	movd   %eax,%xmm0
    36b2:	e8 00 00 00 00       	call   36b7 <pdsp_minmax+0x4e>
    36b7:	66 0f 7e c0          	movd   %xmm0,%eax
    36bb:	48 8b 55 10          	mov    0x10(%rbp),%rdx
    36bf:	89 02                	mov    %eax,(%rdx)
    36c1:	48 8b 45 10          	mov    0x10(%rbp),%rax
    36c5:	f3 0f 10 40 04       	movss  0x4(%rax),%xmm0
    36ca:	8b 45 18             	mov    0x18(%rbp),%eax
    36cd:	0f 28 c8             	movaps %xmm0,%xmm1
    36d0:	66 0f 6e c0          	movd   %eax,%xmm0
    36d4:	e8 00 00 00 00       	call   36d9 <pdsp_minmax+0x70>
    36d9:	66 0f 7e c0          	movd   %xmm0,%eax
    36dd:	48 8b 55 10          	mov    0x10(%rbp),%rdx
    36e1:	89 42 04             	mov    %eax,0x4(%rdx)
    36e4:	48 8b 45 10          	mov    0x10(%rbp),%rax
    36e8:	f3 0f 10 40 04       	movss  0x4(%rax),%xmm0
    36ed:	48 8b 45 10          	mov    0x10(%rbp),%rax
    36f1:	f3 0f 10 08          	movss  (%rax),%xmm1
    36f5:	f3 0f 5c c1          	subss  %xmm1,%xmm0
    36f9:	48 8b 45 10          	mov    0x10(%rbp),%rax
    36fd:	f3 0f 11 40 08       	movss  %xmm0,0x8(%rax)
    3702:	90                   	nop
    3703:	48 83 c4 20          	add    $0x20,%rsp
    3707:	5d                   	pop    %rbp
    3708:	c3                   	ret

0000000000003709 <pdsp_expavg_c2d>:
    3709:	55                   	push   %rbp
    370a:	48 89 e5             	mov    %rsp,%rbp
    370d:	48 89 4d 10          	mov    %rcx,0x10(%rbp)
    3711:	f3 0f 11 4d 18       	movss  %xmm1,0x18(%rbp)
    3716:	f3 0f 11 55 20       	movss  %xmm2,0x20(%rbp)
    371b:	f3 0f 10 45 18       	movss  0x18(%rbp),%xmm0
    3720:	0f 28 c8             	movaps %xmm0,%xmm1
    3723:	f3 0f 58 c8          	addss  %xmm0,%xmm1
    3727:	f3 0f 10 05 5c 00 00 	movss  0x5c(%rip),%xmm0        # 378b <pdsp_expavg_init+0x47>
    372e:	00 
    372f:	f3 0f 59 c1          	mulss  %xmm1,%xmm0
    3733:	f3 0f 59 45 20       	mulss  0x20(%rbp),%xmm0
    3738:	48 8b 45 10          	mov    0x10(%rbp),%rax
    373c:	f3 0f 11 40 04       	movss  %xmm0,0x4(%rax)
    3741:	90                   	nop
    3742:	5d                   	pop    %rbp
    3743:	c3                   	ret

0000000000003744 <pdsp_expavg_init>:
    3744:	55                   	push   %rbp
    3745:	48 89 e5             	mov    %rsp,%rbp
    3748:	48 83 ec 20          	sub    $0x20,%rsp
    374c:	48 89 4d 10          	mov    %rcx,0x10(%rbp)
    3750:	f3 0f 11 4d 18       	movss  %xmm1,0x18(%rbp)
    3755:	48 83 7d 10 00       	cmpq   $0x0,0x10(%rbp)
    375a:	75 1f                	jne    377b <pdsp_expavg_init+0x37>
    375c:	41 b8 57 05 00 00    	mov    $0x557,%r8d
    3762:	48 8d 05 20 00 00 00 	lea    0x20(%rip),%rax        # 3789 <pdsp_expavg_init+0x45>
    3769:	48 89 c2             	mov    %rax,%rdx
    376c:	48 8d 05 27 00 00 00 	lea    0x27(%rip),%rax        # 379a <pdsp_expavg_init+0x56>
    3773:	48 89 c1             	mov    %rax,%rcx
    3776:	e8 85 c8 ff ff       	call   0 <printf>
    377b:	48 8b 45 10          	mov    0x10(%rbp),%rax
    377f:	66 0f ef c0          	pxor   %xmm0,%xmm0
    3783:	f3 0f 11 00          	movss  %xmm0,(%rax)
    3787:	48 8b 45 10          	mov    0x10(%rbp),%rax
    378b:	f3 0f 10 45 18       	movss  0x18(%rbp),%xmm0
    3790:	f3 0f 11 40 04       	movss  %xmm0,0x4(%rax)
    3795:	90                   	nop
    3796:	48 83 c4 20          	add    $0x20,%rsp
    379a:	5d                   	pop    %rbp
    379b:	c3                   	ret

000000000000379c <pdsp_expavg_clear>:
    379c:	55                   	push   %rbp
    379d:	48 89 e5             	mov    %rsp,%rbp
    37a0:	48 83 ec 20          	sub    $0x20,%rsp
    37a4:	48 89 4d 10          	mov    %rcx,0x10(%rbp)
    37a8:	48 83 7d 10 00       	cmpq   $0x0,0x10(%rbp)
    37ad:	75 1f                	jne    37ce <pdsp_expavg_clear+0x32>
    37af:	41 b8 5e 05 00 00    	mov    $0x55e,%r8d
    37b5:	48 8d 05 20 00 00 00 	lea    0x20(%rip),%rax        # 37dc <pdsp_expavg_clear+0x40>
    37bc:	48 89 c2             	mov    %rax,%rdx
    37bf:	48 8d 05 27 00 00 00 	lea    0x27(%rip),%rax        # 37ed <pdsp_expavg+0xc>
    37c6:	48 89 c1             	mov    %rax,%rcx
    37c9:	e8 32 c8 ff ff       	call   0 <printf>
    37ce:	48 8b 45 10          	mov    0x10(%rbp),%rax
    37d2:	66 0f ef c0          	pxor   %xmm0,%xmm0
    37d6:	f3 0f 11 00          	movss  %xmm0,(%rax)
    37da:	90                   	nop
    37db:	48 83 c4 20          	add    $0x20,%rsp
    37df:	5d                   	pop    %rbp
    37e0:	c3                   	ret

00000000000037e1 <pdsp_expavg>:
    37e1:	55                   	push   %rbp
    37e2:	48 89 e5             	mov    %rsp,%rbp
    37e5:	48 83 ec 20          	sub    $0x20,%rsp
    37e9:	48 89 4d 10          	mov    %rcx,0x10(%rbp)
    37ed:	f3 0f 11 4d 18       	movss  %xmm1,0x18(%rbp)
    37f2:	48 83 7d 10 00       	cmpq   $0x0,0x10(%rbp)
    37f7:	75 1f                	jne    3818 <pdsp_expavg+0x37>
    37f9:	41 b8 64 05 00 00    	mov    $0x564,%r8d
    37ff:	48 8d 05 20 00 00 00 	lea    0x20(%rip),%rax        # 3826 <pdsp_expavg+0x45>
    3806:	48 89 c2             	mov    %rax,%rdx
    3809:	48 8d 05 27 00 00 00 	lea    0x27(%rip),%rax        # 3837 <pdsp_expavg+0x56>
    3810:	48 89 c1             	mov    %rax,%rcx
    3813:	e8 e8 c7 ff ff       	call   0 <printf>
    3818:	48 8b 45 10          	mov    0x10(%rbp),%rax
    381c:	f3 0f 10 08          	movss  (%rax),%xmm1
    3820:	48 8b 45 10          	mov    0x10(%rbp),%rax
    3824:	f3 0f 10 50 04       	movss  0x4(%rax),%xmm2
    3829:	48 8b 45 10          	mov    0x10(%rbp),%rax
    382d:	f3 0f 10 18          	movss  (%rax),%xmm3
    3831:	f3 0f 10 45 18       	movss  0x18(%rbp),%xmm0
    3836:	f3 0f 5c c3          	subss  %xmm3,%xmm0
    383a:	f3 0f 59 c2          	mulss  %xmm2,%xmm0
    383e:	f3 0f 58 c1          	addss  %xmm1,%xmm0
    3842:	48 8b 45 10          	mov    0x10(%rbp),%rax
    3846:	f3 0f 11 00          	movss  %xmm0,(%rax)
    384a:	48 8b 45 10          	mov    0x10(%rbp),%rax
    384e:	f3 0f 10 00          	movss  (%rax),%xmm0
    3852:	48 83 c4 20          	add    $0x20,%rsp
    3856:	5d                   	pop    %rbp
    3857:	c3                   	ret

0000000000003858 <pdsp_smoothstep>:
    3858:	55                   	push   %rbp
    3859:	48 89 e5             	mov    %rsp,%rbp
    385c:	f3 0f 11 45 10       	movss  %xmm0,0x10(%rbp)
    3861:	f3 0f 11 4d 18       	movss  %xmm1,0x18(%rbp)
    3866:	f3 0f 11 55 20       	movss  %xmm2,0x20(%rbp)
    386b:	f3 0f 10 45 10       	movss  0x10(%rbp),%xmm0
    3870:	0f 2f 45 20          	comiss 0x20(%rbp),%xmm0
    3874:	76 06                	jbe    387c <pdsp_smoothstep+0x24>
    3876:	66 0f ef c0          	pxor   %xmm0,%xmm0
    387a:	eb 5a                	jmp    38d6 <pdsp_smoothstep+0x7e>
    387c:	f3 0f 10 45 20       	movss  0x20(%rbp),%xmm0
    3881:	0f 2f 45 18          	comiss 0x18(%rbp),%xmm0
    3885:	72 0a                	jb     3891 <pdsp_smoothstep+0x39>
    3887:	f3 0f 10 05 44 00 00 	movss  0x44(%rip),%xmm0        # 38d3 <pdsp_smoothstep+0x7b>
    388e:	00 
    388f:	eb 45                	jmp    38d6 <pdsp_smoothstep+0x7e>
    3891:	f3 0f 10 45 20       	movss  0x20(%rbp),%xmm0
    3896:	f3 0f 5c 45 10       	subss  0x10(%rbp),%xmm0
    389b:	f3 0f 10 4d 18       	movss  0x18(%rbp),%xmm1
    38a0:	f3 0f 5c 4d 10       	subss  0x10(%rbp),%xmm1
    38a5:	f3 0f 5e c1          	divss  %xmm1,%xmm0
    38a9:	f3 0f 11 45 20       	movss  %xmm0,0x20(%rbp)
    38ae:	f3 0f 10 45 20       	movss  0x20(%rbp),%xmm0
    38b3:	0f 28 c8             	movaps %xmm0,%xmm1
    38b6:	f3 0f 59 c8          	mulss  %xmm0,%xmm1
    38ba:	f3 0f 10 45 20       	movss  0x20(%rbp),%xmm0
    38bf:	0f 28 d0             	movaps %xmm0,%xmm2
    38c2:	f3 0f 58 d0          	addss  %xmm0,%xmm2
    38c6:	f3 0f 10 05 60 00 00 	movss  0x60(%rip),%xmm0        # 392e <pdsp_1p1z_c2d+0x56>
    38cd:	00 
    38ce:	f3 0f 5c c2          	subss  %xmm2,%xmm0
    38d2:	f3 0f 59 c1          	mulss  %xmm1,%xmm0
    38d6:	5d                   	pop    %rbp
    38d7:	c3                   	ret

00000000000038d8 <pdsp_1p1z_c2d>:
    38d8:	55                   	push   %rbp
    38d9:	48 89 e5             	mov    %rsp,%rbp
    38dc:	48 83 ec 10          	sub    $0x10,%rsp
    38e0:	48 89 4d 10          	mov    %rcx,0x10(%rbp)
    38e4:	48 89 55 18          	mov    %rdx,0x18(%rbp)
    38e8:	f3 0f 11 55 20       	movss  %xmm2,0x20(%rbp)
    38ed:	f3 0f 10 05 64 00 00 	movss  0x64(%rip),%xmm0        # 3959 <pdsp_1p1z_c2d+0x81>
    38f4:	00 
    38f5:	f3 0f 5e 45 20       	divss  0x20(%rbp),%xmm0
    38fa:	f3 0f 11 45 fc       	movss  %xmm0,-0x4(%rbp)
    38ff:	48 8b 45 10          	mov    0x10(%rbp),%rax
    3903:	f3 0f 10 40 0c       	movss  0xc(%rax),%xmm0
    3908:	0f 28 c8             	movaps %xmm0,%xmm1
    390b:	f3 0f 59 4d fc       	mulss  -0x4(%rbp),%xmm1
    3910:	48 8b 45 10          	mov    0x10(%rbp),%rax
    3914:	f3 0f 10 40 08       	movss  0x8(%rax),%xmm0
    3919:	f3 0f 58 c8          	addss  %xmm0,%xmm1
    391d:	f3 0f 10 05 44 00 00 	movss  0x44(%rip),%xmm0        # 3969 <pdsp_1p1z_c2d+0x91>
    3924:	00 
    3925:	f3 0f 5e c1          	divss  %xmm1,%xmm0
    3929:	f3 0f 11 45 f8       	movss  %xmm0,-0x8(%rbp)
    392e:	48 8b 45 10          	mov    0x10(%rbp),%rax
    3932:	f3 0f 10 40 04       	movss  0x4(%rax),%xmm0
    3937:	0f 28 c8             	movaps %xmm0,%xmm1
    393a:	f3 0f 59 4d fc       	mulss  -0x4(%rbp),%xmm1
    393f:	48 8b 45 10          	mov    0x10(%rbp),%rax
    3943:	f3 0f 10 00          	movss  (%rax),%xmm0
    3947:	f3 0f 58 c1          	addss  %xmm1,%xmm0
    394b:	f3 0f 59 45 f8       	mulss  -0x8(%rbp),%xmm0
    3950:	48 8b 45 18          	mov    0x18(%rbp),%rax
    3954:	f3 0f 11 00          	movss  %xmm0,(%rax)
    3958:	48 8b 45 10          	mov    0x10(%rbp),%rax
    395c:	f3 0f 10 00          	movss  (%rax),%xmm0
    3960:	48 8b 45 10          	mov    0x10(%rbp),%rax
    3964:	f3 0f 10 48 04       	movss  0x4(%rax),%xmm1
    3969:	f3 0f 59 4d fc       	mulss  -0x4(%rbp),%xmm1
    396e:	f3 0f 5c c1          	subss  %xmm1,%xmm0
    3972:	f3 0f 59 45 f8       	mulss  -0x8(%rbp),%xmm0
    3977:	48 8b 45 18          	mov    0x18(%rbp),%rax
    397b:	f3 0f 11 40 04       	movss  %xmm0,0x4(%rax)
    3980:	48 8b 45 10          	mov    0x10(%rbp),%rax
    3984:	f3 0f 10 40 08       	movss  0x8(%rax),%xmm0
    3989:	48 8b 45 10          	mov    0x10(%rbp),%rax
    398d:	f3 0f 10 48 0c       	movss  0xc(%rax),%xmm1
    3992:	f3 0f 59 4d fc       	mulss  -0x4(%rbp),%xmm1
    3997:	f3 0f 5c c1          	subss  %xmm1,%xmm0
    399b:	f3 0f 59 45 f8       	mulss  -0x8(%rbp),%xmm0
    39a0:	48 8b 45 18          	mov    0x18(%rbp),%rax
    39a4:	f3 0f 11 40 08       	movss  %xmm0,0x8(%rax)
    39a9:	90                   	nop
    39aa:	48 83 c4 10          	add    $0x10,%rsp
    39ae:	5d                   	pop    %rbp
    39af:	c3                   	ret

00000000000039b0 <pdsp_2p2z_c2d>:
    39b0:	55                   	push   %rbp
    39b1:	48 89 e5             	mov    %rsp,%rbp
    39b4:	48 83 ec 10          	sub    $0x10,%rsp
    39b8:	48 89 4d 10          	mov    %rcx,0x10(%rbp)
    39bc:	48 89 55 18          	mov    %rdx,0x18(%rbp)
    39c0:	f3 0f 11 55 20       	movss  %xmm2,0x20(%rbp)
    39c5:	f3 0f 10 05 64 00 00 	movss  0x64(%rip),%xmm0        # 3a31 <pdsp_2p2z_c2d+0x81>
    39cc:	00 
    39cd:	f3 0f 5e 45 20       	divss  0x20(%rbp),%xmm0
    39d2:	f3 0f 11 45 fc       	movss  %xmm0,-0x4(%rbp)
    39d7:	f3 0f 10 45 fc       	movss  -0x4(%rbp),%xmm0
    39dc:	f3 0f 59 c0          	mulss  %xmm0,%xmm0
    39e0:	f3 0f 11 45 f8       	movss  %xmm0,-0x8(%rbp)
    39e5:	48 8b 45 10          	mov    0x10(%rbp),%rax
    39e9:	f3 0f 10 40 14       	movss  0x14(%rax),%xmm0
    39ee:	0f 28 c8             	movaps %xmm0,%xmm1
    39f1:	f3 0f 59 4d f8       	mulss  -0x8(%rbp),%xmm1
    39f6:	48 8b 45 10          	mov    0x10(%rbp),%rax
    39fa:	f3 0f 10 40 10       	movss  0x10(%rax),%xmm0
    39ff:	f3 0f 59 45 fc       	mulss  -0x4(%rbp),%xmm0
    3a04:	f3 0f 58 c8          	addss  %xmm0,%xmm1
    3a08:	48 8b 45 10          	mov    0x10(%rbp),%rax
    3a0c:	f3 0f 10 40 0c       	movss  0xc(%rax),%xmm0
    3a11:	f3 0f 58 c8          	addss  %xmm0,%xmm1
    3a15:	f3 0f 10 05 44 00 00 	movss  0x44(%rip),%xmm0        # 3a61 <pdsp_2p2z_c2d+0xb1>
    3a1c:	00 
    3a1d:	f3 0f 5e c1          	divss  %xmm1,%xmm0
    3a21:	f3 0f 11 45 f4       	movss  %xmm0,-0xc(%rbp)
    3a26:	48 8b 45 10          	mov    0x10(%rbp),%rax
    3a2a:	f3 0f 10 40 08       	movss  0x8(%rax),%xmm0
    3a2f:	0f 28 c8             	movaps %xmm0,%xmm1
    3a32:	f3 0f 59 4d f8       	mulss  -0x8(%rbp),%xmm1
    3a37:	48 8b 45 10          	mov    0x10(%rbp),%rax
    3a3b:	f3 0f 10 40 04       	movss  0x4(%rax),%xmm0
    3a40:	f3 0f 59 45 fc       	mulss  -0x4(%rbp),%xmm0
    3a45:	f3 0f 58 c8          	addss  %xmm0,%xmm1
    3a49:	48 8b 45 10          	mov    0x10(%rbp),%rax
    3a4d:	f3 0f 10 00          	movss  (%rax),%xmm0
    3a51:	f3 0f 58 c1          	addss  %xmm1,%xmm0
    3a55:	f3 0f 59 45 f4       	mulss  -0xc(%rbp),%xmm0
    3a5a:	48 8b 45 18          	mov    0x18(%rbp),%rax
    3a5e:	f3 0f 11 00          	movss  %xmm0,(%rax)
    3a62:	48 8b 45 10          	mov    0x10(%rbp),%rax
    3a66:	f3 0f 10 00          	movss  (%rax),%xmm0
    3a6a:	f3 0f 58 c0          	addss  %xmm0,%xmm0
    3a6e:	48 8b 45 10          	mov    0x10(%rbp),%rax
    3a72:	f3 0f 10 48 04       	movss  0x4(%rax),%xmm1
    3a77:	0f 28 d1             	movaps %xmm1,%xmm2
    3a7a:	f3 0f 59 55 fc       	mulss  -0x4(%rbp),%xmm2
    3a7f:	0f 28 c8             	movaps %xmm0,%xmm1
    3a82:	f3 0f 5c ca          	subss  %xmm2,%xmm1
    3a86:	48 8b 45 10          	mov    0x10(%rbp),%rax
    3a8a:	f3 0f 10 40 08       	movss  0x8(%rax),%xmm0
    3a8f:	f3 0f 58 c0          	addss  %xmm0,%xmm0
    3a93:	0f 28 d0             	movaps %xmm0,%xmm2
    3a96:	f3 0f 59 55 f8       	mulss  -0x8(%rbp),%xmm2
    3a9b:	f3 0f 5c ca          	subss  %xmm2,%xmm1
    3a9f:	0f 28 c1             	movaps %xmm1,%xmm0
    3aa2:	f3 0f 59 45 f4       	mulss  -0xc(%rbp),%xmm0
    3aa7:	48 8b 45 18          	mov    0x18(%rbp),%rax
    3aab:	f3 0f 11 40 04       	movss  %xmm0,0x4(%rax)
    3ab0:	48 8b 45 10          	mov    0x10(%rbp),%rax
    3ab4:	f3 0f 10 40 08       	movss  0x8(%rax),%xmm0
    3ab9:	f3 0f 59 45 f8       	mulss  -0x8(%rbp),%xmm0
    3abe:	48 8b 45 10          	mov    0x10(%rbp),%rax
    3ac2:	f3 0f 10 48 04       	movss  0x4(%rax),%xmm1
    3ac7:	0f 28 d1             	movaps %xmm1,%xmm2
    3aca:	f3 0f 59 55 fc       	mulss  -0x4(%rbp),%xmm2
    3acf:	0f 28 c8             	movaps %xmm0,%xmm1
    3ad2:	f3 0f 5c ca          	subss  %xmm2,%xmm1
    3ad6:	48 8b 45 10          	mov    0x10(%rbp),%rax
    3ada:	f3 0f 10 00          	movss  (%rax),%xmm0
    3ade:	f3 0f 58 c1          	addss  %xmm1,%xmm0
    3ae2:	f3 0f 59 45 f4       	mulss  -0xc(%rbp),%xmm0
    3ae7:	48 8b 45 18          	mov    0x18(%rbp),%rax
    3aeb:	f3 0f 11 40 08       	movss  %xmm0,0x8(%rax)
    3af0:	48 8b 45 10          	mov    0x10(%rbp),%rax
    3af4:	f3 0f 10 40 0c       	movss  0xc(%rax),%xmm0
    3af9:	f3 0f 58 c0          	addss  %xmm0,%xmm0
    3afd:	48 8b 45 10          	mov    0x10(%rbp),%rax
    3b01:	f3 0f 10 48 10       	movss  0x10(%rax),%xmm1
    3b06:	0f 28 d1             	movaps %xmm1,%xmm2
    3b09:	f3 0f 59 55 fc       	mulss  -0x4(%rbp),%xmm2
    3b0e:	0f 28 c8             	movaps %xmm0,%xmm1
    3b11:	f3 0f 5c ca          	subss  %xmm2,%xmm1
    3b15:	48 8b 45 10          	mov    0x10(%rbp),%rax
    3b19:	f3 0f 10 40 14       	movss  0x14(%rax),%xmm0
    3b1e:	f3 0f 58 c0          	addss  %xmm0,%xmm0
    3b22:	0f 28 d0             	movaps %xmm0,%xmm2
    3b25:	f3 0f 59 55 f8       	mulss  -0x8(%rbp),%xmm2
    3b2a:	f3 0f 5c ca          	subss  %xmm2,%xmm1
    3b2e:	0f 28 c1             	movaps %xmm1,%xmm0
    3b31:	f3 0f 59 45 f4       	mulss  -0xc(%rbp),%xmm0
    3b36:	48 8b 45 18          	mov    0x18(%rbp),%rax
    3b3a:	f3 0f 11 40 0c       	movss  %xmm0,0xc(%rax)
    3b3f:	48 8b 45 10          	mov    0x10(%rbp),%rax
    3b43:	f3 0f 10 40 14       	movss  0x14(%rax),%xmm0
    3b48:	0f 28 c8             	movaps %xmm0,%xmm1
    3b4b:	f3 0f 59 4d f8       	mulss  -0x8(%rbp),%xmm1
    3b50:	48 8b 45 10          	mov    0x10(%rbp),%rax
    3b54:	f3 0f 10 40 10       	movss  0x10(%rax),%xmm0
    3b59:	f3 0f 59 45 fc       	mulss  -0x4(%rbp),%xmm0
    3b5e:	f3 0f 58 c8          	addss  %xmm0,%xmm1
    3b62:	48 8b 45 10          	mov    0x10(%rbp),%rax
    3b66:	f3 0f 10 40 0c       	movss  0xc(%rax),%xmm0
    3b6b:	f3 0f 58 c1          	addss  %xmm1,%xmm0
    3b6f:	f3 0f 59 45 f4       	mulss  -0xc(%rbp),%xmm0
    3b74:	48 8b 45 18          	mov    0x18(%rbp),%rax
    3b78:	f3 0f 11 40 10       	movss  %xmm0,0x10(%rax)
    3b7d:	90                   	nop
    3b7e:	48 83 c4 10          	add    $0x10,%rsp
    3b82:	5d                   	pop    %rbp
    3b83:	c3                   	ret

0000000000003b84 <pdsp_3p3z_c2d>:
    3b84:	55                   	push   %rbp
    3b85:	48 89 e5             	mov    %rsp,%rbp
    3b88:	48 83 ec 10          	sub    $0x10,%rsp
    3b8c:	48 89 4d 10          	mov    %rcx,0x10(%rbp)
    3b90:	48 89 55 18          	mov    %rdx,0x18(%rbp)
    3b94:	f3 0f 11 55 20       	movss  %xmm2,0x20(%rbp)
    3b99:	f3 0f 10 05 64 00 00 	movss  0x64(%rip),%xmm0        # 3c05 <pdsp_3p3z_c2d+0x81>
    3ba0:	00 
    3ba1:	f3 0f 5e 45 20       	divss  0x20(%rbp),%xmm0
    3ba6:	f3 0f 11 45 fc       	movss  %xmm0,-0x4(%rbp)
    3bab:	f3 0f 10 45 fc       	movss  -0x4(%rbp),%xmm0
    3bb0:	f3 0f 59 c0          	mulss  %xmm0,%xmm0
    3bb4:	f3 0f 11 45 f8       	movss  %xmm0,-0x8(%rbp)
    3bb9:	f3 0f 10 45 fc       	movss  -0x4(%rbp),%xmm0
    3bbe:	f3 0f 59 c0          	mulss  %xmm0,%xmm0
    3bc2:	f3 0f 10 4d fc       	movss  -0x4(%rbp),%xmm1
    3bc7:	f3 0f 59 c1          	mulss  %xmm1,%xmm0
    3bcb:	f3 0f 11 45 f4       	movss  %xmm0,-0xc(%rbp)
    3bd0:	48 8b 45 10          	mov    0x10(%rbp),%rax
    3bd4:	f3 0f 10 40 1c       	movss  0x1c(%rax),%xmm0
    3bd9:	0f 28 c8             	movaps %xmm0,%xmm1
    3bdc:	f3 0f 59 4d f4       	mulss  -0xc(%rbp),%xmm1
    3be1:	48 8b 45 10          	mov    0x10(%rbp),%rax
    3be5:	f3 0f 10 40 18       	movss  0x18(%rax),%xmm0
    3bea:	f3 0f 59 45 f8       	mulss  -0x8(%rbp),%xmm0
    3bef:	f3 0f 58 c8          	addss  %xmm0,%xmm1
    3bf3:	48 8b 45 10          	mov    0x10(%rbp),%rax
    3bf7:	f3 0f 10 40 14       	movss  0x14(%rax),%xmm0
    3bfc:	f3 0f 59 45 fc       	mulss  -0x4(%rbp),%xmm0
    3c01:	f3 0f 58 c8          	addss  %xmm0,%xmm1
    3c05:	48 8b 45 10          	mov    0x10(%rbp),%rax
    3c09:	f3 0f 10 40 10       	movss  0x10(%rax),%xmm0
    3c0e:	f3 0f 58 c8          	addss  %xmm0,%xmm1
    3c12:	f3 0f 10 05 44 00 00 	movss  0x44(%rip),%xmm0        # 3c5e <pdsp_3p3z_c2d+0xda>
    3c19:	00 
    3c1a:	f3 0f 5e c1          	divss  %xmm1,%xmm0
    3c1e:	f3 0f 11 45 f0       	movss  %xmm0,-0x10(%rbp)
    3c23:	48 8b 45 10          	mov    0x10(%rbp),%rax
    3c27:	f3 0f 10 40 0c       	movss  0xc(%rax),%xmm0
    3c2c:	0f 28 c8             	movaps %xmm0,%xmm1
    3c2f:	f3 0f 59 4d f4       	mulss  -0xc(%rbp),%xmm1
    3c34:	48 8b 45 10          	mov    0x10(%rbp),%rax
    3c38:	f3 0f 10 40 08       	movss  0x8(%rax),%xmm0
    3c3d:	f3 0f 59 45 f8       	mulss  -0x8(%rbp),%xmm0
    3c42:	f3 0f 58 c8          	addss  %xmm0,%xmm1
    3c46:	48 8b 45 10          	mov    0x10(%rbp),%rax
    3c4a:	f3 0f 10 40 04       	movss  0x4(%rax),%xmm0
    3c4f:	f3 0f 59 45 fc       	mulss  -0x4(%rbp),%xmm0
    3c54:	f3 0f 58 c8          	addss  %xmm0,%xmm1
    3c58:	48 8b 45 10          	mov    0x10(%rbp),%rax
    3c5c:	f3 0f 10 00          	movss  (%rax),%xmm0
    3c60:	f3 0f 58 c1          	addss  %xmm1,%xmm0
    3c64:	f3 0f 59 45 f0       	mulss  -0x10(%rbp),%xmm0
    3c69:	48 8b 45 18          	mov    0x18(%rbp),%rax
    3c6d:	f3 0f 11 00          	movss  %xmm0,(%rax)
    3c71:	48 8b 45 10          	mov    0x10(%rbp),%rax
    3c75:	f3 0f 10 48 0c       	movss  0xc(%rax),%xmm1
    3c7a:	f3 0f 10 05 68 00 00 	movss  0x68(%rip),%xmm0        # 3cea <pdsp_3p3z_c2d+0x166>
    3c81:	00 
    3c82:	f3 0f 59 c1          	mulss  %xmm1,%xmm0
    3c86:	f3 0f 59 45 f4       	mulss  -0xc(%rbp),%xmm0
    3c8b:	48 8b 45 10          	mov    0x10(%rbp),%rax
    3c8f:	f3 0f 10 48 08       	movss  0x8(%rax),%xmm1
    3c94:	0f 28 d1             	movaps %xmm1,%xmm2
    3c97:	f3 0f 59 55 f8       	mulss  -0x8(%rbp),%xmm2
    3c9c:	0f 28 c8             	movaps %xmm0,%xmm1
    3c9f:	f3 0f 5c ca          	subss  %xmm2,%xmm1
    3ca3:	48 8b 45 10          	mov    0x10(%rbp),%rax
    3ca7:	f3 0f 10 40 04       	movss  0x4(%rax),%xmm0
    3cac:	f3 0f 59 45 fc       	mulss  -0x4(%rbp),%xmm0
    3cb1:	f3 0f 58 c8          	addss  %xmm0,%xmm1
    3cb5:	48 8b 45 10          	mov    0x10(%rbp),%rax
    3cb9:	f3 0f 10 10          	movss  (%rax),%xmm2
    3cbd:	f3 0f 10 05 60 00 00 	movss  0x60(%rip),%xmm0        # 3d25 <pdsp_3p3z_c2d+0x1a1>
    3cc4:	00 
    3cc5:	f3 0f 59 c2          	mulss  %xmm2,%xmm0
    3cc9:	f3 0f 58 c1          	addss  %xmm1,%xmm0
    3ccd:	f3 0f 59 45 f0       	mulss  -0x10(%rbp),%xmm0
    3cd2:	48 8b 45 18          	mov    0x18(%rbp),%rax
    3cd6:	f3 0f 11 40 04       	movss  %xmm0,0x4(%rax)
    3cdb:	48 8b 45 10          	mov    0x10(%rbp),%rax
    3cdf:	f3 0f 10 48 0c       	movss  0xc(%rax),%xmm1
    3ce4:	f3 0f 10 05 60 00 00 	movss  0x60(%rip),%xmm0        # 3d4c <pdsp_3p3z_c2d+0x1c8>
    3ceb:	00 
    3cec:	f3 0f 59 c1          	mulss  %xmm1,%xmm0
    3cf0:	f3 0f 59 45 f4       	mulss  -0xc(%rbp),%xmm0
    3cf5:	48 8b 45 10          	mov    0x10(%rbp),%rax
    3cf9:	f3 0f 10 48 08       	movss  0x8(%rax),%xmm1
    3cfe:	f3 0f 59 4d f8       	mulss  -0x8(%rbp),%xmm1
    3d03:	f3 0f 5c c1          	subss  %xmm1,%xmm0
    3d07:	48 8b 45 10          	mov    0x10(%rbp),%rax
    3d0b:	f3 0f 10 48 04       	movss  0x4(%rax),%xmm1
    3d10:	0f 28 d1             	movaps %xmm1,%xmm2
    3d13:	f3 0f 59 55 fc       	mulss  -0x4(%rbp),%xmm2
    3d18:	0f 28 c8             	movaps %xmm0,%xmm1
    3d1b:	f3 0f 5c ca          	subss  %xmm2,%xmm1
    3d1f:	48 8b 45 10          	mov    0x10(%rbp),%rax
    3d23:	f3 0f 10 10          	movss  (%rax),%xmm2
    3d27:	f3 0f 10 05 60 00 00 	movss  0x60(%rip),%xmm0        # 3d8f <pdsp_3p3z_c2d+0x20b>
    3d2e:	00 
    3d2f:	f3 0f 59 c2          	mulss  %xmm2,%xmm0
    3d33:	f3 0f 58 c1          	addss  %xmm1,%xmm0
    3d37:	f3 0f 59 45 f0       	mulss  -0x10(%rbp),%xmm0
    3d3c:	48 8b 45 18          	mov    0x18(%rbp),%rax
    3d40:	f3 0f 11 40 08       	movss  %xmm0,0x8(%rax)
    3d45:	48 8b 45 10          	mov    0x10(%rbp),%rax
    3d49:	f3 0f 10 40 0c       	movss  0xc(%rax),%xmm0
    3d4e:	0f 28 c8             	movaps %xmm0,%xmm1
    3d51:	f3 0f 59 4d f4       	mulss  -0xc(%rbp),%xmm1
    3d56:	48 8b 45 10          	mov    0x10(%rbp),%rax
    3d5a:	f3 0f 10 40 08       	movss  0x8(%rax),%xmm0
    3d5f:	f3 0f 59 45 f8       	mulss  -0x8(%rbp),%xmm0
    3d64:	f3 0f 58 c1          	addss  %xmm1,%xmm0
    3d68:	48 8b 45 10          	mov    0x10(%rbp),%rax
    3d6c:	f3 0f 10 48 04       	movss  0x4(%rax),%xmm1
    3d71:	0f 28 d1             	movaps %xmm1,%xmm2
    3d74:	f3 0f 59 55 fc       	mulss  -0x4(%rbp),%xmm2
    3d79:	0f 28 c8             	movaps %xmm0,%xmm1
    3d7c:	f3 0f 5c ca          	subss  %xmm2,%xmm1
    3d80:	48 8b 45 10          	mov    0x10(%rbp),%rax
    3d84:	f3 0f 10 00          	movss  (%rax),%xmm0
    3d88:	f3 0f 58 c1          	addss  %xmm1,%xmm0
    3d8c:	f3 0f 59 45 f0       	mulss  -0x10(%rbp),%xmm0
    3d91:	48 8b 45 18          	mov    0x18(%rbp),%rax
    3d95:	f3 0f 11 40 0c       	movss  %xmm0,0xc(%rax)
    3d9a:	48 8b 45 10          	mov    0x10(%rbp),%rax
    3d9e:	f3 0f 10 48 1c       	movss  0x1c(%rax),%xmm1
    3da3:	f3 0f 10 05 68 00 00 	movss  0x68(%rip),%xmm0        # 3e13 <pdsp_3p3z_c2d+0x28f>
    3daa:	00 
    3dab:	f3 0f 59 c1          	mulss  %xmm1,%xmm0
    3daf:	f3 0f 59 45 f4       	mulss  -0xc(%rbp),%xmm0
    3db4:	48 8b 45 10          	mov    0x10(%rbp),%rax
    3db8:	f3 0f 10 48 18       	movss  0x18(%rax),%xmm1
    3dbd:	0f 28 d1             	movaps %xmm1,%xmm2
    3dc0:	f3 0f 59 55 f8       	mulss  -0x8(%rbp),%xmm2
    3dc5:	0f 28 c8             	movaps %xmm0,%xmm1
    3dc8:	f3 0f 5c ca          	subss  %xmm2,%xmm1
    3dcc:	48 8b 45 10          	mov    0x10(%rbp),%rax
    3dd0:	f3 0f 10 40 14       	movss  0x14(%rax),%xmm0
    3dd5:	f3 0f 59 45 fc       	mulss  -0x4(%rbp),%xmm0
    3dda:	f3 0f 58 c8          	addss  %xmm0,%xmm1
    3dde:	48 8b 45 10          	mov    0x10(%rbp),%rax
    3de2:	f3 0f 10 50 10       	movss  0x10(%rax),%xmm2
    3de7:	f3 0f 10 05 60 00 00 	movss  0x60(%rip),%xmm0        # 3e4f <pdsp_3p3z_c2d+0x2cb>
    3dee:	00 
    3def:	f3 0f 59 c2          	mulss  %xmm2,%xmm0
    3df3:	f3 0f 58 c1          	addss  %xmm1,%xmm0
    3df7:	f3 0f 59 45 f0       	mulss  -0x10(%rbp),%xmm0
    3dfc:	48 8b 45 18          	mov    0x18(%rbp),%rax
    3e00:	f3 0f 11 40 10       	movss  %xmm0,0x10(%rax)
    3e05:	48 8b 45 10          	mov    0x10(%rbp),%rax
    3e09:	f3 0f 10 48 1c       	movss  0x1c(%rax),%xmm1
    3e0e:	f3 0f 10 05 60 00 00 	movss  0x60(%rip),%xmm0        # 3e76 <pdsp_3p3z_c2d+0x2f2>
    3e15:	00 
    3e16:	f3 0f 59 c1          	mulss  %xmm1,%xmm0
    3e1a:	f3 0f 59 45 f4       	mulss  -0xc(%rbp),%xmm0
    3e1f:	48 8b 45 10          	mov    0x10(%rbp),%rax
    3e23:	f3 0f 10 48 18       	movss  0x18(%rax),%xmm1
    3e28:	f3 0f 59 4d f8       	mulss  -0x8(%rbp),%xmm1
    3e2d:	f3 0f 5c c1          	subss  %xmm1,%xmm0
    3e31:	48 8b 45 10          	mov    0x10(%rbp),%rax
    3e35:	f3 0f 10 48 14       	movss  0x14(%rax),%xmm1
    3e3a:	0f 28 d1             	movaps %xmm1,%xmm2
    3e3d:	f3 0f 59 55 fc       	mulss  -0x4(%rbp),%xmm2
    3e42:	0f 28 c8             	movaps %xmm0,%xmm1
    3e45:	f3 0f 5c ca          	subss  %xmm2,%xmm1
    3e49:	48 8b 45 10          	mov    0x10(%rbp),%rax
    3e4d:	f3 0f 10 50 10       	movss  0x10(%rax),%xmm2
    3e52:	f3 0f 10 05 60 00 00 	movss  0x60(%rip),%xmm0        # 3eba <pdsp_3p3z_c2d+0x336>
    3e59:	00 
    3e5a:	f3 0f 59 c2          	mulss  %xmm2,%xmm0
    3e5e:	f3 0f 58 c1          	addss  %xmm1,%xmm0
    3e62:	f3 0f 59 45 f0       	mulss  -0x10(%rbp),%xmm0
    3e67:	48 8b 45 18          	mov    0x18(%rbp),%rax
    3e6b:	f3 0f 11 40 14       	movss  %xmm0,0x14(%rax)
    3e70:	48 8b 45 10          	mov    0x10(%rbp),%rax
    3e74:	f3 0f 10 40 1c       	movss  0x1c(%rax),%xmm0
    3e79:	0f 28 c8             	movaps %xmm0,%xmm1
    3e7c:	f3 0f 59 4d f4       	mulss  -0xc(%rbp),%xmm1
    3e81:	48 8b 45 10          	mov    0x10(%rbp),%rax
    3e85:	f3 0f 10 40 18       	movss  0x18(%rax),%xmm0
    3e8a:	f3 0f 59 45 f8       	mulss  -0x8(%rbp),%xmm0
    3e8f:	f3 0f 58 c1          	addss  %xmm1,%xmm0
    3e93:	48 8b 45 10          	mov    0x10(%rbp),%rax
    3e97:	f3 0f 10 48 14       	movss  0x14(%rax),%xmm1
    3e9c:	0f 28 d1             	movaps %xmm1,%xmm2
    3e9f:	f3 0f 59 55 fc       	mulss  -0x4(%rbp),%xmm2
    3ea4:	0f 28 c8             	movaps %xmm0,%xmm1
    3ea7:	f3 0f 5c ca          	subss  %xmm2,%xmm1
    3eab:	48 8b 45 10          	mov    0x10(%rbp),%rax
    3eaf:	f3 0f 10 40 10       	movss  0x10(%rax),%xmm0
    3eb4:	f3 0f 58 c1          	addss  %xmm1,%xmm0
    3eb8:	f3 0f 59 45 f0       	mulss  -0x10(%rbp),%xmm0
    3ebd:	48 8b 45 18          	mov    0x18(%rbp),%rax
    3ec1:	f3 0f 11 40 18       	movss  %xmm0,0x18(%rax)
    3ec6:	90                   	nop
    3ec7:	48 83 c4 10          	add    $0x10,%rsp
    3ecb:	5d                   	pop    %rbp
    3ecc:	c3                   	ret

0000000000003ecd <pdsp_df21_clear>:
    3ecd:	55                   	push   %rbp
    3ece:	48 89 e5             	mov    %rsp,%rbp
    3ed1:	48 83 ec 20          	sub    $0x20,%rsp
    3ed5:	48 89 4d 10          	mov    %rcx,0x10(%rbp)
    3ed9:	48 83 7d 10 00       	cmpq   $0x0,0x10(%rbp)
    3ede:	75 1f                	jne    3eff <pdsp_df21_clear+0x32>
    3ee0:	41 b8 d4 05 00 00    	mov    $0x5d4,%r8d
    3ee6:	48 8d 05 20 00 00 00 	lea    0x20(%rip),%rax        # 3f0d <pdsp_df21_clear+0x40>
    3eed:	48 89 c2             	mov    %rax,%rdx
    3ef0:	48 8d 05 27 00 00 00 	lea    0x27(%rip),%rax        # 3f1e <pdsp_df21+0xc>
    3ef7:	48 89 c1             	mov    %rax,%rcx
    3efa:	e8 01 c1 ff ff       	call   0 <printf>
    3eff:	48 8b 45 10          	mov    0x10(%rbp),%rax
    3f03:	66 0f ef c0          	pxor   %xmm0,%xmm0
    3f07:	f3 0f 11 00          	movss  %xmm0,(%rax)
    3f0b:	90                   	nop
    3f0c:	48 83 c4 20          	add    $0x20,%rsp
    3f10:	5d                   	pop    %rbp
    3f11:	c3                   	ret

0000000000003f12 <pdsp_df21>:
    3f12:	55                   	push   %rbp
    3f13:	48 89 e5             	mov    %rsp,%rbp
    3f16:	48 83 ec 20          	sub    $0x20,%rsp
    3f1a:	48 89 4d 10          	mov    %rcx,0x10(%rbp)
    3f1e:	48 89 55 18          	mov    %rdx,0x18(%rbp)
    3f22:	f3 0f 11 55 20       	movss  %xmm2,0x20(%rbp)
    3f27:	48 83 7d 10 00       	cmpq   $0x0,0x10(%rbp)
    3f2c:	74 07                	je     3f35 <pdsp_df21+0x23>
    3f2e:	48 83 7d 18 00       	cmpq   $0x0,0x18(%rbp)
    3f33:	75 1f                	jne    3f54 <pdsp_df21+0x42>
    3f35:	41 b8 db 05 00 00    	mov    $0x5db,%r8d
    3f3b:	48 8d 05 20 00 00 00 	lea    0x20(%rip),%rax        # 3f62 <pdsp_df21+0x50>
    3f42:	48 89 c2             	mov    %rax,%rdx
    3f45:	48 8d 05 27 00 00 00 	lea    0x27(%rip),%rax        # 3f73 <pdsp_df21+0x61>
    3f4c:	48 89 c1             	mov    %rax,%rcx
    3f4f:	e8 ac c0 ff ff       	call   0 <printf>
    3f54:	48 8b 45 10          	mov    0x10(%rbp),%rax
    3f58:	f3 0f 10 00          	movss  (%rax),%xmm0
    3f5c:	0f 28 c8             	movaps %xmm0,%xmm1
    3f5f:	f3 0f 59 4d 20       	mulss  0x20(%rbp),%xmm1
    3f64:	48 8b 45 18          	mov    0x18(%rbp),%rax
    3f68:	f3 0f 10 00          	movss  (%rax),%xmm0
    3f6c:	f3 0f 58 c1          	addss  %xmm1,%xmm0
    3f70:	48 8b 45 18          	mov    0x18(%rbp),%rax
    3f74:	f3 0f 11 40 04       	movss  %xmm0,0x4(%rax)
    3f79:	48 8b 45 10          	mov    0x10(%rbp),%rax
    3f7d:	f3 0f 10 40 04       	movss  0x4(%rax),%xmm0
    3f82:	0f 28 c8             	movaps %xmm0,%xmm1
    3f85:	f3 0f 59 4d 20       	mulss  0x20(%rbp),%xmm1
    3f8a:	48 8b 45 18          	mov    0x18(%rbp),%rax
    3f8e:	f3 0f 10 50 04       	movss  0x4(%rax),%xmm2
    3f93:	48 8b 45 10          	mov    0x10(%rbp),%rax
    3f97:	f3 0f 10 40 08       	movss  0x8(%rax),%xmm0
    3f9c:	f3 0f 59 c2          	mulss  %xmm2,%xmm0
    3fa0:	f3 0f 58 c1          	addss  %xmm1,%xmm0
    3fa4:	48 8b 45 18          	mov    0x18(%rbp),%rax
    3fa8:	f3 0f 11 00          	movss  %xmm0,(%rax)
    3fac:	48 8b 45 18          	mov    0x18(%rbp),%rax
    3fb0:	f3 0f 10 40 04       	movss  0x4(%rax),%xmm0
    3fb5:	48 83 c4 20          	add    $0x20,%rsp
    3fb9:	5d                   	pop    %rbp
    3fba:	c3                   	ret

0000000000003fbb <pdsp_df21_pre>:
    3fbb:	55                   	push   %rbp
    3fbc:	48 89 e5             	mov    %rsp,%rbp
    3fbf:	48 83 ec 20          	sub    $0x20,%rsp
    3fc3:	48 89 4d 10          	mov    %rcx,0x10(%rbp)
    3fc7:	48 89 55 18          	mov    %rdx,0x18(%rbp)
    3fcb:	f3 0f 11 55 20       	movss  %xmm2,0x20(%rbp)
    3fd0:	48 83 7d 10 00       	cmpq   $0x0,0x10(%rbp)
    3fd5:	74 07                	je     3fde <pdsp_df21_pre+0x23>
    3fd7:	48 83 7d 18 00       	cmpq   $0x0,0x18(%rbp)
    3fdc:	75 1f                	jne    3ffd <pdsp_df21_pre+0x42>
    3fde:	41 b8 e5 05 00 00    	mov    $0x5e5,%r8d
    3fe4:	48 8d 05 20 00 00 00 	lea    0x20(%rip),%rax        # 400b <pdsp_df21_pre+0x50>
    3feb:	48 89 c2             	mov    %rax,%rdx
    3fee:	48 8d 05 27 00 00 00 	lea    0x27(%rip),%rax        # 401c <pdsp_df21_pre+0x61>
    3ff5:	48 89 c1             	mov    %rax,%rcx
    3ff8:	e8 03 c0 ff ff       	call   0 <printf>
    3ffd:	48 8b 45 10          	mov    0x10(%rbp),%rax
    4001:	f3 0f 10 00          	movss  (%rax),%xmm0
    4005:	0f 28 c8             	movaps %xmm0,%xmm1
    4008:	f3 0f 59 4d 20       	mulss  0x20(%rbp),%xmm1
    400d:	48 8b 45 18          	mov    0x18(%rbp),%rax
    4011:	f3 0f 10 00          	movss  (%rax),%xmm0
    4015:	f3 0f 58 c1          	addss  %xmm1,%xmm0
    4019:	48 8b 45 18          	mov    0x18(%rbp),%rax
    401d:	f3 0f 11 40 04       	movss  %xmm0,0x4(%rax)
    4022:	48 8b 45 18          	mov    0x18(%rbp),%rax
    4026:	f3 0f 10 40 04       	movss  0x4(%rax),%xmm0
    402b:	48 83 c4 20          	add    $0x20,%rsp
    402f:	5d                   	pop    %rbp
    4030:	c3                   	ret

0000000000004031 <pdsp_df21_post>:
    4031:	55                   	push   %rbp
    4032:	48 89 e5             	mov    %rsp,%rbp
    4035:	48 83 ec 20          	sub    $0x20,%rsp
    4039:	48 89 4d 10          	mov    %rcx,0x10(%rbp)
    403d:	48 89 55 18          	mov    %rdx,0x18(%rbp)
    4041:	f3 0f 11 55 20       	movss  %xmm2,0x20(%rbp)
    4046:	48 83 7d 10 00       	cmpq   $0x0,0x10(%rbp)
    404b:	74 07                	je     4054 <pdsp_df21_post+0x23>
    404d:	48 83 7d 18 00       	cmpq   $0x0,0x18(%rbp)
    4052:	75 1f                	jne    4073 <pdsp_df21_post+0x42>
    4054:	41 b8 ed 05 00 00    	mov    $0x5ed,%r8d
    405a:	48 8d 05 20 00 00 00 	lea    0x20(%rip),%rax        # 4081 <pdsp_df21_post+0x50>
    4061:	48 89 c2             	mov    %rax,%rdx
    4064:	48 8d 05 27 00 00 00 	lea    0x27(%rip),%rax        # 4092 <pdsp_df21_post+0x61>
    406b:	48 89 c1             	mov    %rax,%rcx
    406e:	e8 8d bf ff ff       	call   0 <printf>
    4073:	48 8b 45 10          	mov    0x10(%rbp),%rax
    4077:	f3 0f 10 40 04       	movss  0x4(%rax),%xmm0
    407c:	0f 28 c8             	movaps %xmm0,%xmm1
    407f:	f3 0f 59 4d 20       	mulss  0x20(%rbp),%xmm1
    4084:	48 8b 45 18          	mov    0x18(%rbp),%rax
    4088:	f3 0f 10 50 04       	movss  0x4(%rax),%xmm2
    408d:	48 8b 45 10          	mov    0x10(%rbp),%rax
    4091:	f3 0f 10 40 08       	movss  0x8(%rax),%xmm0
    4096:	f3 0f 59 c2          	mulss  %xmm2,%xmm0
    409a:	f3 0f 58 c1          	addss  %xmm1,%xmm0
    409e:	48 8b 45 18          	mov    0x18(%rbp),%rax
    40a2:	f3 0f 11 00          	movss  %xmm0,(%rax)
    40a6:	90                   	nop
    40a7:	48 83 c4 20          	add    $0x20,%rsp
    40ab:	5d                   	pop    %rbp
    40ac:	c3                   	ret

