
./build/pdsp_test.o:     file format pe-x86-64


Disassembly of section .text:

0000000000000000 <fprintf>:
       0:	55                   	push   %rbp
       1:	48 89 e5             	mov    %rsp,%rbp
       4:	48 83 ec 30          	sub    $0x30,%rsp
       8:	48 89 4d 10          	mov    %rcx,0x10(%rbp)
       c:	48 89 55 18          	mov    %rdx,0x18(%rbp)
      10:	4c 89 45 20          	mov    %r8,0x20(%rbp)
      14:	4c 89 4d 28          	mov    %r9,0x28(%rbp)
      18:	48 8d 45 20          	lea    0x20(%rbp),%rax
      1c:	48 89 45 f0          	mov    %rax,-0x10(%rbp)
      20:	48 8b 4d f0          	mov    -0x10(%rbp),%rcx
      24:	48 8b 55 18          	mov    0x18(%rbp),%rdx
      28:	48 8b 45 10          	mov    0x10(%rbp),%rax
      2c:	49 89 c8             	mov    %rcx,%r8
      2f:	48 89 c1             	mov    %rax,%rcx
      32:	e8 00 00 00 00       	call   37 <fprintf+0x37>
      37:	89 45 fc             	mov    %eax,-0x4(%rbp)
      3a:	8b 45 fc             	mov    -0x4(%rbp),%eax
      3d:	48 83 c4 30          	add    $0x30,%rsp
      41:	5d                   	pop    %rbp
      42:	c3                   	ret

0000000000000043 <printf>:
      43:	55                   	push   %rbp
      44:	53                   	push   %rbx
      45:	48 83 ec 38          	sub    $0x38,%rsp
      49:	48 8d 6c 24 30       	lea    0x30(%rsp),%rbp
      4e:	48 89 4d 20          	mov    %rcx,0x20(%rbp)
      52:	48 89 55 28          	mov    %rdx,0x28(%rbp)
      56:	4c 89 45 30          	mov    %r8,0x30(%rbp)
      5a:	4c 89 4d 38          	mov    %r9,0x38(%rbp)
      5e:	48 8d 45 28          	lea    0x28(%rbp),%rax
      62:	48 89 45 f0          	mov    %rax,-0x10(%rbp)
      66:	48 8b 5d f0          	mov    -0x10(%rbp),%rbx
      6a:	b9 01 00 00 00       	mov    $0x1,%ecx
      6f:	48 8b 05 00 00 00 00 	mov    0x0(%rip),%rax        # 76 <printf+0x33>
      76:	ff d0                	call   *%rax
      78:	48 89 c1             	mov    %rax,%rcx
      7b:	48 8b 45 20          	mov    0x20(%rbp),%rax
      7f:	49 89 d8             	mov    %rbx,%r8
      82:	48 89 c2             	mov    %rax,%rdx
      85:	e8 00 00 00 00       	call   8a <printf+0x47>
      8a:	89 45 fc             	mov    %eax,-0x4(%rbp)
      8d:	8b 45 fc             	mov    -0x4(%rbp),%eax
      90:	48 83 c4 38          	add    $0x38,%rsp
      94:	5b                   	pop    %rbx
      95:	5d                   	pop    %rbp
      96:	c3                   	ret

0000000000000097 <test_assert_true>:
      97:	55                   	push   %rbp
      98:	48 89 e5             	mov    %rsp,%rbp
      9b:	48 83 ec 20          	sub    $0x20,%rsp
      9f:	48 8d 05 00 00 00 00 	lea    0x0(%rip),%rax        # a6 <test_assert_true+0xf>
      a6:	48 89 c1             	mov    %rax,%rcx
      a9:	e8 95 ff ff ff       	call   43 <printf>
      ae:	90                   	nop
      af:	48 83 c4 20          	add    $0x20,%rsp
      b3:	5d                   	pop    %rbp
      b4:	c3                   	ret

00000000000000b5 <test_stopwatch>:
      b5:	55                   	push   %rbp
      b6:	48 89 e5             	mov    %rsp,%rbp
      b9:	48 83 ec 50          	sub    $0x50,%rsp
      bd:	48 8d 05 28 00 00 00 	lea    0x28(%rip),%rax        # ec <test_stopwatch+0x37>
      c4:	48 89 c1             	mov    %rax,%rcx
      c7:	e8 77 ff ff ff       	call   43 <printf>
      cc:	c7 45 f8 00 00 00 00 	movl   $0x0,-0x8(%rbp)
      d3:	48 8d 45 f8          	lea    -0x8(%rbp),%rax
      d7:	48 89 45 e0          	mov    %rax,-0x20(%rbp)
      db:	c7 45 e8 e8 03 00 00 	movl   $0x3e8,-0x18(%rbp)
      e2:	48 8d 45 e0          	lea    -0x20(%rbp),%rax
      e6:	ba 00 00 00 00       	mov    $0x0,%edx
      eb:	48 89 c1             	mov    %rax,%rcx
      ee:	e8 00 00 00 00       	call   f3 <test_stopwatch+0x3e>
      f3:	48 8d 45 e0          	lea    -0x20(%rbp),%rax
      f7:	ba 2b 02 00 00       	mov    $0x22b,%edx
      fc:	48 89 c1             	mov    %rax,%rcx
      ff:	e8 00 00 00 00       	call   104 <test_stopwatch+0x4f>
     104:	89 45 fc             	mov    %eax,-0x4(%rbp)
     107:	81 7d fc 2b 02 00 00 	cmpl   $0x22b,-0x4(%rbp)
     10e:	74 1f                	je     12f <test_stopwatch+0x7a>
     110:	41 b8 3f 00 00 00    	mov    $0x3f,%r8d
     116:	48 8d 05 49 00 00 00 	lea    0x49(%rip),%rax        # 166 <test_stopwatch+0xb1>
     11d:	48 89 c2             	mov    %rax,%rdx
     120:	48 8d 05 5a 00 00 00 	lea    0x5a(%rip),%rax        # 181 <test_stopwatch+0xcc>
     127:	48 89 c1             	mov    %rax,%rcx
     12a:	e8 14 ff ff ff       	call   43 <printf>
     12f:	48 8d 45 e0          	lea    -0x20(%rbp),%rax
     133:	ba 79 03 00 00       	mov    $0x379,%edx
     138:	48 89 c1             	mov    %rax,%rcx
     13b:	e8 00 00 00 00       	call   140 <test_stopwatch+0x8b>
     140:	48 8d 45 e0          	lea    -0x20(%rbp),%rax
     144:	ba bc 01 00 00       	mov    $0x1bc,%edx
     149:	48 89 c1             	mov    %rax,%rcx
     14c:	e8 00 00 00 00       	call   151 <test_stopwatch+0x9c>
     151:	89 45 fc             	mov    %eax,-0x4(%rbp)
     154:	81 7d fc 2b 02 00 00 	cmpl   $0x22b,-0x4(%rbp)
     15b:	74 1f                	je     17c <test_stopwatch+0xc7>
     15d:	41 b8 42 00 00 00    	mov    $0x42,%r8d
     163:	48 8d 05 49 00 00 00 	lea    0x49(%rip),%rax        # 1b3 <test_stopwatch+0xfe>
     16a:	48 89 c2             	mov    %rax,%rdx
     16d:	48 8d 05 5a 00 00 00 	lea    0x5a(%rip),%rax        # 1ce <test_stopwatch+0x119>
     174:	48 89 c1             	mov    %rax,%rcx
     177:	e8 c7 fe ff ff       	call   43 <printf>
     17c:	c7 45 d8 00 00 00 00 	movl   $0x0,-0x28(%rbp)
     183:	c7 45 dc e8 03 00 00 	movl   $0x3e8,-0x24(%rbp)
     18a:	c7 45 d8 00 00 00 00 	movl   $0x0,-0x28(%rbp)
     191:	8b 45 d8             	mov    -0x28(%rbp),%eax
     194:	3d 2a 02 00 00       	cmp    $0x22a,%eax
     199:	77 0c                	ja     1a7 <test_stopwatch+0xf2>
     19b:	8b 55 d8             	mov    -0x28(%rbp),%edx
     19e:	b8 2b 02 00 00       	mov    $0x22b,%eax
     1a3:	29 d0                	sub    %edx,%eax
     1a5:	eb 0e                	jmp    1b5 <test_stopwatch+0x100>
     1a7:	8b 55 dc             	mov    -0x24(%rbp),%edx
     1aa:	8b 45 d8             	mov    -0x28(%rbp),%eax
     1ad:	29 c2                	sub    %eax,%edx
     1af:	8d 82 2b 02 00 00    	lea    0x22b(%rdx),%eax
     1b5:	89 45 fc             	mov    %eax,-0x4(%rbp)
     1b8:	81 7d fc 2b 02 00 00 	cmpl   $0x22b,-0x4(%rbp)
     1bf:	74 1f                	je     1e0 <test_stopwatch+0x12b>
     1c1:	41 b8 47 00 00 00    	mov    $0x47,%r8d
     1c7:	48 8d 05 49 00 00 00 	lea    0x49(%rip),%rax        # 217 <test_stopwatch+0x162>
     1ce:	48 89 c2             	mov    %rax,%rdx
     1d1:	48 8d 05 5a 00 00 00 	lea    0x5a(%rip),%rax        # 232 <test_stopwatch+0x17d>
     1d8:	48 89 c1             	mov    %rax,%rcx
     1db:	e8 63 fe ff ff       	call   43 <printf>
     1e0:	c7 45 d8 79 03 00 00 	movl   $0x379,-0x28(%rbp)
     1e7:	8b 45 d8             	mov    -0x28(%rbp),%eax
     1ea:	3d bb 01 00 00       	cmp    $0x1bb,%eax
     1ef:	77 0c                	ja     1fd <test_stopwatch+0x148>
     1f1:	8b 55 d8             	mov    -0x28(%rbp),%edx
     1f4:	b8 bc 01 00 00       	mov    $0x1bc,%eax
     1f9:	29 d0                	sub    %edx,%eax
     1fb:	eb 0e                	jmp    20b <test_stopwatch+0x156>
     1fd:	8b 55 dc             	mov    -0x24(%rbp),%edx
     200:	8b 45 d8             	mov    -0x28(%rbp),%eax
     203:	29 c2                	sub    %eax,%edx
     205:	8d 82 bc 01 00 00    	lea    0x1bc(%rdx),%eax
     20b:	89 45 fc             	mov    %eax,-0x4(%rbp)
     20e:	81 7d fc 2b 02 00 00 	cmpl   $0x22b,-0x4(%rbp)
     215:	74 1f                	je     236 <test_stopwatch+0x181>
     217:	41 b8 4a 00 00 00    	mov    $0x4a,%r8d
     21d:	48 8d 05 49 00 00 00 	lea    0x49(%rip),%rax        # 26d <test_call_i16_func+0xf>
     224:	48 89 c2             	mov    %rax,%rdx
     227:	48 8d 05 5a 00 00 00 	lea    0x5a(%rip),%rax        # 288 <test_call_i16_func+0x2a>
     22e:	48 89 c1             	mov    %rax,%rcx
     231:	e8 0d fe ff ff       	call   43 <printf>
     236:	90                   	nop
     237:	48 83 c4 50          	add    $0x50,%rsp
     23b:	5d                   	pop    %rbp
     23c:	c3                   	ret

000000000000023d <func_nop>:
     23d:	55                   	push   %rbp
     23e:	48 89 e5             	mov    %rsp,%rbp
     241:	b8 00 00 00 00       	mov    $0x0,%eax
     246:	5d                   	pop    %rbp
     247:	c3                   	ret

0000000000000248 <func_start_converter>:
     248:	55                   	push   %rbp
     249:	48 89 e5             	mov    %rsp,%rbp
     24c:	b8 01 00 00 00       	mov    $0x1,%eax
     251:	5d                   	pop    %rbp
     252:	c3                   	ret

0000000000000253 <func_stop_converter>:
     253:	55                   	push   %rbp
     254:	48 89 e5             	mov    %rsp,%rbp
     257:	b8 02 00 00 00       	mov    $0x2,%eax
     25c:	5d                   	pop    %rbp
     25d:	c3                   	ret

000000000000025e <test_call_i16_func>:
     25e:	55                   	push   %rbp
     25f:	48 89 e5             	mov    %rsp,%rbp
     262:	48 83 ec 50          	sub    $0x50,%rsp
     266:	48 8d 05 70 00 00 00 	lea    0x70(%rip),%rax        # 2dd <test_call_i16_func+0x7f>
     26d:	48 89 c1             	mov    %rax,%rcx
     270:	e8 ce fd ff ff       	call   43 <printf>
     275:	48 8d 05 c1 ff ff ff 	lea    -0x3f(%rip),%rax        # 23d <func_nop>
     27c:	48 89 45 e0          	mov    %rax,-0x20(%rbp)
     280:	48 8d 05 c1 ff ff ff 	lea    -0x3f(%rip),%rax        # 248 <func_start_converter>
     287:	48 89 45 e8          	mov    %rax,-0x18(%rbp)
     28b:	48 8d 05 c1 ff ff ff 	lea    -0x3f(%rip),%rax        # 253 <func_stop_converter>
     292:	48 89 45 f0          	mov    %rax,-0x10(%rbp)
     296:	48 8d 55 de          	lea    -0x22(%rbp),%rdx
     29a:	48 8d 45 e0          	lea    -0x20(%rbp),%rax
     29e:	49 89 d1             	mov    %rdx,%r9
     2a1:	41 b8 01 00 00 00    	mov    $0x1,%r8d
     2a7:	ba 03 00 00 00       	mov    $0x3,%edx
     2ac:	48 89 c1             	mov    %rax,%rcx
     2af:	e8 00 00 00 00       	call   2b4 <test_call_i16_func+0x56>
     2b4:	0f b7 45 de          	movzwl -0x22(%rbp),%eax
     2b8:	66 83 f8 01          	cmp    $0x1,%ax
     2bc:	74 1f                	je     2dd <test_call_i16_func+0x7f>
     2be:	41 b8 5f 00 00 00    	mov    $0x5f,%r8d
     2c4:	48 8d 05 49 00 00 00 	lea    0x49(%rip),%rax        # 314 <test_call_i16_func+0xb6>
     2cb:	48 89 c2             	mov    %rax,%rdx
     2ce:	48 8d 05 5a 00 00 00 	lea    0x5a(%rip),%rax        # 32f <test_i16_to_string+0x4>
     2d5:	48 89 c1             	mov    %rax,%rcx
     2d8:	e8 66 fd ff ff       	call   43 <printf>
     2dd:	48 8d 55 de          	lea    -0x22(%rbp),%rdx
     2e1:	48 8d 45 e0          	lea    -0x20(%rbp),%rax
     2e5:	49 89 d1             	mov    %rdx,%r9
     2e8:	41 b8 02 00 00 00    	mov    $0x2,%r8d
     2ee:	ba 03 00 00 00       	mov    $0x3,%edx
     2f3:	48 89 c1             	mov    %rax,%rcx
     2f6:	e8 00 00 00 00       	call   2fb <test_call_i16_func+0x9d>
     2fb:	0f b7 45 de          	movzwl -0x22(%rbp),%eax
     2ff:	66 83 f8 02          	cmp    $0x2,%ax
     303:	74 1f                	je     324 <test_call_i16_func+0xc6>
     305:	41 b8 61 00 00 00    	mov    $0x61,%r8d
     30b:	48 8d 05 49 00 00 00 	lea    0x49(%rip),%rax        # 35b <test_i16_to_string+0x30>
     312:	48 89 c2             	mov    %rax,%rdx
     315:	48 8d 05 5a 00 00 00 	lea    0x5a(%rip),%rax        # 376 <test_i16_to_string+0x4b>
     31c:	48 89 c1             	mov    %rax,%rcx
     31f:	e8 1f fd ff ff       	call   43 <printf>
     324:	90                   	nop
     325:	48 83 c4 50          	add    $0x50,%rsp
     329:	5d                   	pop    %rbp
     32a:	c3                   	ret

000000000000032b <test_i16_to_string>:
     32b:	55                   	push   %rbp
     32c:	48 89 e5             	mov    %rsp,%rbp
     32f:	48 83 ec 40          	sub    $0x40,%rsp
     333:	48 8d 05 98 00 00 00 	lea    0x98(%rip),%rax        # 3d2 <test_i16_to_string+0xa7>
     33a:	48 89 c1             	mov    %rax,%rcx
     33d:	e8 01 fd ff ff       	call   43 <printf>
     342:	48 c7 45 e0 00 00 00 	movq   $0x0,-0x20(%rbp)
     349:	00 
     34a:	48 c7 45 e8 00 00 00 	movq   $0x0,-0x18(%rbp)
     351:	00 
     352:	48 8d 45 e0          	lea    -0x20(%rbp),%rax
     356:	48 89 45 f8          	mov    %rax,-0x8(%rbp)
     35a:	48 8b 45 f8          	mov    -0x8(%rbp),%rax
     35e:	48 8d 50 01          	lea    0x1(%rax),%rdx
     362:	48 89 55 f8          	mov    %rdx,-0x8(%rbp)
     366:	c6 00 3a             	movb   $0x3a,(%rax)
     369:	48 8b 45 f8          	mov    -0x8(%rbp),%rax
     36d:	48 89 c2             	mov    %rax,%rdx
     370:	b9 0a 1a 00 00       	mov    $0x1a0a,%ecx
     375:	e8 00 00 00 00       	call   37a <test_i16_to_string+0x4f>
     37a:	48 89 45 f8          	mov    %rax,-0x8(%rbp)
     37e:	48 8b 45 f8          	mov    -0x8(%rbp),%rax
     382:	48 8d 50 01          	lea    0x1(%rax),%rdx
     386:	48 89 55 f8          	mov    %rdx,-0x8(%rbp)
     38a:	c6 00 2c             	movb   $0x2c,(%rax)
     38d:	48 8b 45 f8          	mov    -0x8(%rbp),%rax
     391:	48 89 c2             	mov    %rax,%rdx
     394:	b9 a9 fb ff ff       	mov    $0xfffffba9,%ecx
     399:	e8 00 00 00 00       	call   39e <test_i16_to_string+0x73>
     39e:	48 89 45 f8          	mov    %rax,-0x8(%rbp)
     3a2:	48 8b 45 f8          	mov    -0x8(%rbp),%rax
     3a6:	48 8d 50 01          	lea    0x1(%rax),%rdx
     3aa:	48 89 55 f8          	mov    %rdx,-0x8(%rbp)
     3ae:	c6 00 3a             	movb   $0x3a,(%rax)
     3b1:	48 8d 45 e0          	lea    -0x20(%rbp),%rax
     3b5:	48 8d 15 bd 00 00 00 	lea    0xbd(%rip),%rdx        # 479 <test_u16_to_base16+0x8b>
     3bc:	48 89 c1             	mov    %rax,%rcx
     3bf:	e8 00 00 00 00       	call   3c4 <test_i16_to_string+0x99>
     3c4:	85 c0                	test   %eax,%eax
     3c6:	74 1f                	je     3e7 <test_i16_to_string+0xbc>
     3c8:	41 b8 6e 00 00 00    	mov    $0x6e,%r8d
     3ce:	48 8d 05 49 00 00 00 	lea    0x49(%rip),%rax        # 41e <test_u16_to_base16+0x30>
     3d5:	48 89 c2             	mov    %rax,%rdx
     3d8:	48 8d 05 5a 00 00 00 	lea    0x5a(%rip),%rax        # 439 <test_u16_to_base16+0x4b>
     3df:	48 89 c1             	mov    %rax,%rcx
     3e2:	e8 5c fc ff ff       	call   43 <printf>
     3e7:	90                   	nop
     3e8:	48 83 c4 40          	add    $0x40,%rsp
     3ec:	5d                   	pop    %rbp
     3ed:	c3                   	ret

00000000000003ee <test_u16_to_base16>:
     3ee:	55                   	push   %rbp
     3ef:	48 89 e5             	mov    %rsp,%rbp
     3f2:	48 83 ec 70          	sub    $0x70,%rsp
     3f6:	48 8d 05 d0 00 00 00 	lea    0xd0(%rip),%rax        # 4cd <test_u16_to_base16+0xdf>
     3fd:	48 89 c1             	mov    %rax,%rcx
     400:	e8 3e fc ff ff       	call   43 <printf>
     405:	48 c7 45 b0 00 00 00 	movq   $0x0,-0x50(%rbp)
     40c:	00 
     40d:	48 c7 45 b8 00 00 00 	movq   $0x0,-0x48(%rbp)
     414:	00 
     415:	48 c7 45 c0 00 00 00 	movq   $0x0,-0x40(%rbp)
     41c:	00 
     41d:	48 c7 45 c8 00 00 00 	movq   $0x0,-0x38(%rbp)
     424:	00 
     425:	48 c7 45 d0 00 00 00 	movq   $0x0,-0x30(%rbp)
     42c:	00 
     42d:	48 c7 45 d8 00 00 00 	movq   $0x0,-0x28(%rbp)
     434:	00 
     435:	48 c7 45 e0 00 00 00 	movq   $0x0,-0x20(%rbp)
     43c:	00 
     43d:	48 c7 45 e8 00 00 00 	movq   $0x0,-0x18(%rbp)
     444:	00 
     445:	48 8d 45 b0          	lea    -0x50(%rbp),%rax
     449:	48 89 45 f8          	mov    %rax,-0x8(%rbp)
     44d:	48 8b 45 f8          	mov    -0x8(%rbp),%rax
     451:	48 8d 50 01          	lea    0x1(%rax),%rdx
     455:	48 89 55 f8          	mov    %rdx,-0x8(%rbp)
     459:	c6 00 3a             	movb   $0x3a,(%rax)
     45c:	48 8b 45 f8          	mov    -0x8(%rbp),%rax
     460:	41 b8 00 00 00 00    	mov    $0x0,%r8d
     466:	48 89 c2             	mov    %rax,%rdx
     469:	b9 37 13 00 00       	mov    $0x1337,%ecx
     46e:	e8 00 00 00 00       	call   473 <test_u16_to_base16+0x85>
     473:	48 89 45 f8          	mov    %rax,-0x8(%rbp)
     477:	48 8b 45 f8          	mov    -0x8(%rbp),%rax
     47b:	48 8d 50 01          	lea    0x1(%rax),%rdx
     47f:	48 89 55 f8          	mov    %rdx,-0x8(%rbp)
     483:	c6 00 2c             	movb   $0x2c,(%rax)
     486:	48 8b 45 f8          	mov    -0x8(%rbp),%rax
     48a:	41 b8 00 00 00 00    	mov    $0x0,%r8d
     490:	48 89 c2             	mov    %rax,%rdx
     493:	b9 0b b0 00 00       	mov    $0xb00b,%ecx
     498:	e8 00 00 00 00       	call   49d <test_u16_to_base16+0xaf>
     49d:	48 89 45 f8          	mov    %rax,-0x8(%rbp)
     4a1:	48 8b 45 f8          	mov    -0x8(%rbp),%rax
     4a5:	48 8d 50 01          	lea    0x1(%rax),%rdx
     4a9:	48 89 55 f8          	mov    %rdx,-0x8(%rbp)
     4ad:	c6 00 2c             	movb   $0x2c,(%rax)
     4b0:	48 8b 45 f8          	mov    -0x8(%rbp),%rax
     4b4:	41 b8 00 00 00 00    	mov    $0x0,%r8d
     4ba:	48 89 c2             	mov    %rax,%rdx
     4bd:	b9 0b 00 00 00       	mov    $0xb,%ecx
     4c2:	e8 00 00 00 00       	call   4c7 <test_u16_to_base16+0xd9>
     4c7:	48 89 45 f8          	mov    %rax,-0x8(%rbp)
     4cb:	48 8b 45 f8          	mov    -0x8(%rbp),%rax
     4cf:	48 8d 50 01          	lea    0x1(%rax),%rdx
     4d3:	48 89 55 f8          	mov    %rdx,-0x8(%rbp)
     4d7:	c6 00 2c             	movb   $0x2c,(%rax)
     4da:	48 8b 45 f8          	mov    -0x8(%rbp),%rax
     4de:	41 b8 00 00 00 00    	mov    $0x0,%r8d
     4e4:	48 89 c2             	mov    %rax,%rdx
     4e7:	b9 bb 00 00 00       	mov    $0xbb,%ecx
     4ec:	e8 00 00 00 00       	call   4f1 <test_u16_to_base16+0x103>
     4f1:	48 89 45 f8          	mov    %rax,-0x8(%rbp)
     4f5:	48 8b 45 f8          	mov    -0x8(%rbp),%rax
     4f9:	48 8d 50 01          	lea    0x1(%rax),%rdx
     4fd:	48 89 55 f8          	mov    %rdx,-0x8(%rbp)
     501:	c6 00 2c             	movb   $0x2c,(%rax)
     504:	48 8b 45 f8          	mov    -0x8(%rbp),%rax
     508:	41 b8 00 00 00 00    	mov    $0x0,%r8d
     50e:	48 89 c2             	mov    %rax,%rdx
     511:	b9 0b 0b 00 00       	mov    $0xb0b,%ecx
     516:	e8 00 00 00 00       	call   51b <test_u16_to_base16+0x12d>
     51b:	48 89 45 f8          	mov    %rax,-0x8(%rbp)
     51f:	48 8b 45 f8          	mov    -0x8(%rbp),%rax
     523:	48 8d 50 01          	lea    0x1(%rax),%rdx
     527:	48 89 55 f8          	mov    %rdx,-0x8(%rbp)
     52b:	c6 00 3a             	movb   $0x3a,(%rax)
     52e:	48 8b 45 f8          	mov    -0x8(%rbp),%rax
     532:	48 8d 50 01          	lea    0x1(%rax),%rdx
     536:	48 89 55 f8          	mov    %rdx,-0x8(%rbp)
     53a:	c6 00 00             	movb   $0x0,(%rax)
     53d:	48 8d 45 b0          	lea    -0x50(%rbp),%rax
     541:	48 8d 15 f5 00 00 00 	lea    0xf5(%rip),%rdx        # 63d <test_u16_to_base16+0x24f>
     548:	48 89 c1             	mov    %rax,%rcx
     54b:	e8 00 00 00 00       	call   550 <test_u16_to_base16+0x162>
     550:	85 c0                	test   %eax,%eax
     552:	74 1f                	je     573 <test_u16_to_base16+0x185>
     554:	41 b8 82 00 00 00    	mov    $0x82,%r8d
     55a:	48 8d 05 49 00 00 00 	lea    0x49(%rip),%rax        # 5aa <test_u16_to_base16+0x1bc>
     561:	48 89 c2             	mov    %rax,%rdx
     564:	48 8d 05 5a 00 00 00 	lea    0x5a(%rip),%rax        # 5c5 <test_u16_to_base16+0x1d7>
     56b:	48 89 c1             	mov    %rax,%rcx
     56e:	e8 d0 fa ff ff       	call   43 <printf>
     573:	48 8d 45 b0          	lea    -0x50(%rbp),%rax
     577:	48 89 45 f8          	mov    %rax,-0x8(%rbp)
     57b:	48 8b 45 f8          	mov    -0x8(%rbp),%rax
     57f:	48 8d 50 01          	lea    0x1(%rax),%rdx
     583:	48 89 55 f8          	mov    %rdx,-0x8(%rbp)
     587:	c6 00 3a             	movb   $0x3a,(%rax)
     58a:	48 8b 45 f8          	mov    -0x8(%rbp),%rax
     58e:	ba 37 13 00 00       	mov    $0x1337,%edx
     593:	48 89 c1             	mov    %rax,%rcx
     596:	e8 00 00 00 00       	call   59b <test_u16_to_base16+0x1ad>
     59b:	48 89 45 f8          	mov    %rax,-0x8(%rbp)
     59f:	48 8b 45 f8          	mov    -0x8(%rbp),%rax
     5a3:	48 8d 50 01          	lea    0x1(%rax),%rdx
     5a7:	48 89 55 f8          	mov    %rdx,-0x8(%rbp)
     5ab:	c6 00 2c             	movb   $0x2c,(%rax)
     5ae:	48 8b 45 f8          	mov    -0x8(%rbp),%rax
     5b2:	ba 0b b0 00 00       	mov    $0xb00b,%edx
     5b7:	48 89 c1             	mov    %rax,%rcx
     5ba:	e8 00 00 00 00       	call   5bf <test_u16_to_base16+0x1d1>
     5bf:	48 89 45 f8          	mov    %rax,-0x8(%rbp)
     5c3:	48 8b 45 f8          	mov    -0x8(%rbp),%rax
     5c7:	48 8d 50 01          	lea    0x1(%rax),%rdx
     5cb:	48 89 55 f8          	mov    %rdx,-0x8(%rbp)
     5cf:	c6 00 2c             	movb   $0x2c,(%rax)
     5d2:	48 8b 45 f8          	mov    -0x8(%rbp),%rax
     5d6:	ba 0b 00 00 00       	mov    $0xb,%edx
     5db:	48 89 c1             	mov    %rax,%rcx
     5de:	e8 00 00 00 00       	call   5e3 <test_u16_to_base16+0x1f5>
     5e3:	48 89 45 f8          	mov    %rax,-0x8(%rbp)
     5e7:	48 8b 45 f8          	mov    -0x8(%rbp),%rax
     5eb:	48 8d 50 01          	lea    0x1(%rax),%rdx
     5ef:	48 89 55 f8          	mov    %rdx,-0x8(%rbp)
     5f3:	c6 00 2c             	movb   $0x2c,(%rax)
     5f6:	48 8b 45 f8          	mov    -0x8(%rbp),%rax
     5fa:	ba bb 00 00 00       	mov    $0xbb,%edx
     5ff:	48 89 c1             	mov    %rax,%rcx
     602:	e8 00 00 00 00       	call   607 <test_u16_to_base16+0x219>
     607:	48 89 45 f8          	mov    %rax,-0x8(%rbp)
     60b:	48 8b 45 f8          	mov    -0x8(%rbp),%rax
     60f:	48 8d 50 01          	lea    0x1(%rax),%rdx
     613:	48 89 55 f8          	mov    %rdx,-0x8(%rbp)
     617:	c6 00 2c             	movb   $0x2c,(%rax)
     61a:	48 8b 45 f8          	mov    -0x8(%rbp),%rax
     61e:	ba 0b 0b 00 00       	mov    $0xb0b,%edx
     623:	48 89 c1             	mov    %rax,%rcx
     626:	e8 00 00 00 00       	call   62b <test_u16_to_base16+0x23d>
     62b:	48 89 45 f8          	mov    %rax,-0x8(%rbp)
     62f:	48 8b 45 f8          	mov    -0x8(%rbp),%rax
     633:	48 8d 50 01          	lea    0x1(%rax),%rdx
     637:	48 89 55 f8          	mov    %rdx,-0x8(%rbp)
     63b:	c6 00 3a             	movb   $0x3a,(%rax)
     63e:	48 8b 45 f8          	mov    -0x8(%rbp),%rax
     642:	48 8d 50 01          	lea    0x1(%rax),%rdx
     646:	48 89 55 f8          	mov    %rdx,-0x8(%rbp)
     64a:	c6 00 00             	movb   $0x0,(%rax)
     64d:	48 8d 45 b0          	lea    -0x50(%rbp),%rax
     651:	48 8d 15 0a 01 00 00 	lea    0x10a(%rip),%rdx        # 762 <test_u32_to_base16+0xd8>
     658:	48 89 c1             	mov    %rax,%rcx
     65b:	e8 00 00 00 00       	call   660 <test_u16_to_base16+0x272>
     660:	85 c0                	test   %eax,%eax
     662:	74 1f                	je     683 <test_u16_to_base16+0x295>
     664:	41 b8 90 00 00 00    	mov    $0x90,%r8d
     66a:	48 8d 05 49 00 00 00 	lea    0x49(%rip),%rax        # 6ba <test_u32_to_base16+0x30>
     671:	48 89 c2             	mov    %rax,%rdx
     674:	48 8d 05 5a 00 00 00 	lea    0x5a(%rip),%rax        # 6d5 <test_u32_to_base16+0x4b>
     67b:	48 89 c1             	mov    %rax,%rcx
     67e:	e8 c0 f9 ff ff       	call   43 <printf>
     683:	90                   	nop
     684:	48 83 c4 70          	add    $0x70,%rsp
     688:	5d                   	pop    %rbp
     689:	c3                   	ret

000000000000068a <test_u32_to_base16>:
     68a:	55                   	push   %rbp
     68b:	48 89 e5             	mov    %rsp,%rbp
     68e:	48 83 ec 70          	sub    $0x70,%rsp
     692:	48 8d 05 28 01 00 00 	lea    0x128(%rip),%rax        # 7c1 <test_u32_to_base16+0x137>
     699:	48 89 c1             	mov    %rax,%rcx
     69c:	e8 a2 f9 ff ff       	call   43 <printf>
     6a1:	48 c7 45 b0 00 00 00 	movq   $0x0,-0x50(%rbp)
     6a8:	00 
     6a9:	48 c7 45 b8 00 00 00 	movq   $0x0,-0x48(%rbp)
     6b0:	00 
     6b1:	48 c7 45 c0 00 00 00 	movq   $0x0,-0x40(%rbp)
     6b8:	00 
     6b9:	48 c7 45 c8 00 00 00 	movq   $0x0,-0x38(%rbp)
     6c0:	00 
     6c1:	48 c7 45 d0 00 00 00 	movq   $0x0,-0x30(%rbp)
     6c8:	00 
     6c9:	48 c7 45 d8 00 00 00 	movq   $0x0,-0x28(%rbp)
     6d0:	00 
     6d1:	48 c7 45 e0 00 00 00 	movq   $0x0,-0x20(%rbp)
     6d8:	00 
     6d9:	48 c7 45 e8 00 00 00 	movq   $0x0,-0x18(%rbp)
     6e0:	00 
     6e1:	48 8d 45 b0          	lea    -0x50(%rbp),%rax
     6e5:	48 89 45 f8          	mov    %rax,-0x8(%rbp)
     6e9:	48 8b 45 f8          	mov    -0x8(%rbp),%rax
     6ed:	48 8d 50 01          	lea    0x1(%rax),%rdx
     6f1:	48 89 55 f8          	mov    %rdx,-0x8(%rbp)
     6f5:	c6 00 3a             	movb   $0x3a,(%rax)
     6f8:	48 8b 45 f8          	mov    -0x8(%rbp),%rax
     6fc:	ba 37 13 37 13       	mov    $0x13371337,%edx
     701:	48 89 c1             	mov    %rax,%rcx
     704:	e8 00 00 00 00       	call   709 <test_u32_to_base16+0x7f>
     709:	48 89 45 f8          	mov    %rax,-0x8(%rbp)
     70d:	48 8b 45 f8          	mov    -0x8(%rbp),%rax
     711:	48 8d 50 01          	lea    0x1(%rax),%rdx
     715:	48 89 55 f8          	mov    %rdx,-0x8(%rbp)
     719:	c6 00 2c             	movb   $0x2c,(%rax)
     71c:	48 8b 45 f8          	mov    -0x8(%rbp),%rax
     720:	ba 0b b0 00 00       	mov    $0xb00b,%edx
     725:	48 89 c1             	mov    %rax,%rcx
     728:	e8 00 00 00 00       	call   72d <test_u32_to_base16+0xa3>
     72d:	48 89 45 f8          	mov    %rax,-0x8(%rbp)
     731:	48 8b 45 f8          	mov    -0x8(%rbp),%rax
     735:	48 8d 50 01          	lea    0x1(%rax),%rdx
     739:	48 89 55 f8          	mov    %rdx,-0x8(%rbp)
     73d:	c6 00 2c             	movb   $0x2c,(%rax)
     740:	48 8b 45 f8          	mov    -0x8(%rbp),%rax
     744:	ba 0b 00 00 00       	mov    $0xb,%edx
     749:	48 89 c1             	mov    %rax,%rcx
     74c:	e8 00 00 00 00       	call   751 <test_u32_to_base16+0xc7>
     751:	48 89 45 f8          	mov    %rax,-0x8(%rbp)
     755:	48 8b 45 f8          	mov    -0x8(%rbp),%rax
     759:	48 8d 50 01          	lea    0x1(%rax),%rdx
     75d:	48 89 55 f8          	mov    %rdx,-0x8(%rbp)
     761:	c6 00 2c             	movb   $0x2c,(%rax)
     764:	48 8b 45 f8          	mov    -0x8(%rbp),%rax
     768:	ba bb 00 00 00       	mov    $0xbb,%edx
     76d:	48 89 c1             	mov    %rax,%rcx
     770:	e8 00 00 00 00       	call   775 <test_u32_to_base16+0xeb>
     775:	48 89 45 f8          	mov    %rax,-0x8(%rbp)
     779:	48 8b 45 f8          	mov    -0x8(%rbp),%rax
     77d:	48 8d 50 01          	lea    0x1(%rax),%rdx
     781:	48 89 55 f8          	mov    %rdx,-0x8(%rbp)
     785:	c6 00 2c             	movb   $0x2c,(%rax)
     788:	48 8b 45 f8          	mov    -0x8(%rbp),%rax
     78c:	ba 0b 0b 00 00       	mov    $0xb0b,%edx
     791:	48 89 c1             	mov    %rax,%rcx
     794:	e8 00 00 00 00       	call   799 <test_u32_to_base16+0x10f>
     799:	48 89 45 f8          	mov    %rax,-0x8(%rbp)
     79d:	48 8b 45 f8          	mov    -0x8(%rbp),%rax
     7a1:	48 8d 50 01          	lea    0x1(%rax),%rdx
     7a5:	48 89 55 f8          	mov    %rdx,-0x8(%rbp)
     7a9:	c6 00 3a             	movb   $0x3a,(%rax)
     7ac:	48 8b 45 f8          	mov    -0x8(%rbp),%rax
     7b0:	48 8d 50 01          	lea    0x1(%rax),%rdx
     7b4:	48 89 55 f8          	mov    %rdx,-0x8(%rbp)
     7b8:	c6 00 00             	movb   $0x0,(%rax)
     7bb:	48 8d 45 b0          	lea    -0x50(%rbp),%rax
     7bf:	48 8d 15 50 01 00 00 	lea    0x150(%rip),%rdx        # 916 <test_u64_to_base16+0x11e>
     7c6:	48 89 c1             	mov    %rax,%rcx
     7c9:	e8 00 00 00 00       	call   7ce <test_u32_to_base16+0x144>
     7ce:	85 c0                	test   %eax,%eax
     7d0:	74 1f                	je     7f1 <test_u32_to_base16+0x167>
     7d2:	41 b8 a4 00 00 00    	mov    $0xa4,%r8d
     7d8:	48 8d 05 49 00 00 00 	lea    0x49(%rip),%rax        # 828 <test_u64_to_base16+0x30>
     7df:	48 89 c2             	mov    %rax,%rdx
     7e2:	48 8d 05 5a 00 00 00 	lea    0x5a(%rip),%rax        # 843 <test_u64_to_base16+0x4b>
     7e9:	48 89 c1             	mov    %rax,%rcx
     7ec:	e8 52 f8 ff ff       	call   43 <printf>
     7f1:	90                   	nop
     7f2:	48 83 c4 70          	add    $0x70,%rsp
     7f6:	5d                   	pop    %rbp
     7f7:	c3                   	ret

00000000000007f8 <test_u64_to_base16>:
     7f8:	55                   	push   %rbp
     7f9:	48 89 e5             	mov    %rsp,%rbp
     7fc:	48 83 c4 80          	add    $0xffffffffffffff80,%rsp
     800:	48 8d 05 80 01 00 00 	lea    0x180(%rip),%rax        # 987 <test_u64_to_base16+0x18f>
     807:	48 89 c1             	mov    %rax,%rcx
     80a:	e8 34 f8 ff ff       	call   43 <printf>
     80f:	48 c7 45 b0 00 00 00 	movq   $0x0,-0x50(%rbp)
     816:	00 
     817:	48 c7 45 b8 00 00 00 	movq   $0x0,-0x48(%rbp)
     81e:	00 
     81f:	48 c7 45 c0 00 00 00 	movq   $0x0,-0x40(%rbp)
     826:	00 
     827:	48 c7 45 c8 00 00 00 	movq   $0x0,-0x38(%rbp)
     82e:	00 
     82f:	48 c7 45 d0 00 00 00 	movq   $0x0,-0x30(%rbp)
     836:	00 
     837:	48 c7 45 d8 00 00 00 	movq   $0x0,-0x28(%rbp)
     83e:	00 
     83f:	48 c7 45 e0 00 00 00 	movq   $0x0,-0x20(%rbp)
     846:	00 
     847:	48 c7 45 e8 00 00 00 	movq   $0x0,-0x18(%rbp)
     84e:	00 
     84f:	48 8d 45 b0          	lea    -0x50(%rbp),%rax
     853:	48 89 45 f8          	mov    %rax,-0x8(%rbp)
     857:	48 8b 45 f8          	mov    -0x8(%rbp),%rax
     85b:	48 8d 50 01          	lea    0x1(%rax),%rdx
     85f:	48 89 55 f8          	mov    %rdx,-0x8(%rbp)
     863:	c6 00 3a             	movb   $0x3a,(%rax)
     866:	48 8b 45 f8          	mov    -0x8(%rbp),%rax
     86a:	48 89 c2             	mov    %rax,%rdx
     86d:	48 b8 ef cd ab 89 67 	movabs $0x123456789abcdef,%rax
     874:	45 23 01 
     877:	48 89 c1             	mov    %rax,%rcx
     87a:	e8 00 00 00 00       	call   87f <test_u64_to_base16+0x87>
     87f:	48 89 45 f8          	mov    %rax,-0x8(%rbp)
     883:	48 8b 45 f8          	mov    -0x8(%rbp),%rax
     887:	48 8d 50 01          	lea    0x1(%rax),%rdx
     88b:	48 89 55 f8          	mov    %rdx,-0x8(%rbp)
     88f:	c6 00 2c             	movb   $0x2c,(%rax)
     892:	48 8b 45 f8          	mov    -0x8(%rbp),%rax
     896:	48 89 c2             	mov    %rax,%rdx
     899:	48 b8 fa af ff fa af 	movabs $0xaffaffaffaffaffa,%rax
     8a0:	ff fa af 
     8a3:	48 89 c1             	mov    %rax,%rcx
     8a6:	e8 00 00 00 00       	call   8ab <test_u64_to_base16+0xb3>
     8ab:	48 89 45 f8          	mov    %rax,-0x8(%rbp)
     8af:	48 8b 45 f8          	mov    -0x8(%rbp),%rax
     8b3:	48 8d 50 01          	lea    0x1(%rax),%rdx
     8b7:	48 89 55 f8          	mov    %rdx,-0x8(%rbp)
     8bb:	c6 00 3a             	movb   $0x3a,(%rax)
     8be:	48 8b 45 f8          	mov    -0x8(%rbp),%rax
     8c2:	48 8d 50 01          	lea    0x1(%rax),%rdx
     8c6:	48 89 55 f8          	mov    %rdx,-0x8(%rbp)
     8ca:	c6 00 00             	movb   $0x0,(%rax)
     8cd:	48 8d 45 b0          	lea    -0x50(%rbp),%rax
     8d1:	48 8d 15 a8 01 00 00 	lea    0x1a8(%rip),%rdx        # a80 <test_u64_to_base16+0x288>
     8d8:	48 89 c1             	mov    %rax,%rcx
     8db:	e8 00 00 00 00       	call   8e0 <test_u64_to_base16+0xe8>
     8e0:	85 c0                	test   %eax,%eax
     8e2:	74 1f                	je     903 <test_u64_to_base16+0x10b>
     8e4:	41 b8 b3 00 00 00    	mov    $0xb3,%r8d
     8ea:	48 8d 05 49 00 00 00 	lea    0x49(%rip),%rax        # 93a <test_u64_to_base16+0x142>
     8f1:	48 89 c2             	mov    %rax,%rdx
     8f4:	48 8d 05 5a 00 00 00 	lea    0x5a(%rip),%rax        # 955 <test_u64_to_base16+0x15d>
     8fb:	48 89 c1             	mov    %rax,%rcx
     8fe:	e8 40 f7 ff ff       	call   43 <printf>
     903:	48 8d 45 b0          	lea    -0x50(%rbp),%rax
     907:	48 89 45 f8          	mov    %rax,-0x8(%rbp)
     90b:	48 8b 45 f8          	mov    -0x8(%rbp),%rax
     90f:	48 8d 50 01          	lea    0x1(%rax),%rdx
     913:	48 89 55 f8          	mov    %rdx,-0x8(%rbp)
     917:	c6 00 3a             	movb   $0x3a,(%rax)
     91a:	48 8b 45 f8          	mov    -0x8(%rbp),%rax
     91e:	48 ba ef cd ab 89 67 	movabs $0x123456789abcdef,%rdx
     925:	45 23 01 
     928:	48 89 c1             	mov    %rax,%rcx
     92b:	e8 00 00 00 00       	call   930 <test_u64_to_base16+0x138>
     930:	48 89 45 f8          	mov    %rax,-0x8(%rbp)
     934:	48 8b 45 f8          	mov    -0x8(%rbp),%rax
     938:	48 8d 50 01          	lea    0x1(%rax),%rdx
     93c:	48 89 55 f8          	mov    %rdx,-0x8(%rbp)
     940:	c6 00 2c             	movb   $0x2c,(%rax)
     943:	48 8b 45 f8          	mov    -0x8(%rbp),%rax
     947:	48 ba fa af ff fa af 	movabs $0xaffaffaffaffaffa,%rdx
     94e:	ff fa af 
     951:	48 89 c1             	mov    %rax,%rcx
     954:	e8 00 00 00 00       	call   959 <test_u64_to_base16+0x161>
     959:	48 89 45 f8          	mov    %rax,-0x8(%rbp)
     95d:	48 8b 45 f8          	mov    -0x8(%rbp),%rax
     961:	48 8d 50 01          	lea    0x1(%rax),%rdx
     965:	48 89 55 f8          	mov    %rdx,-0x8(%rbp)
     969:	c6 00 3a             	movb   $0x3a,(%rax)
     96c:	48 8b 45 f8          	mov    -0x8(%rbp),%rax
     970:	48 8d 50 01          	lea    0x1(%rax),%rdx
     974:	48 89 55 f8          	mov    %rdx,-0x8(%rbp)
     978:	c6 00 00             	movb   $0x0,(%rax)
     97b:	48 8d 45 b0          	lea    -0x50(%rbp),%rax
     97f:	48 8d 15 a8 01 00 00 	lea    0x1a8(%rip),%rdx        # b2e <test_u16_to_base64+0xa8>
     986:	48 89 c1             	mov    %rax,%rcx
     989:	e8 00 00 00 00       	call   98e <test_u64_to_base16+0x196>
     98e:	85 c0                	test   %eax,%eax
     990:	74 1f                	je     9b1 <test_u64_to_base16+0x1b9>
     992:	41 b8 bb 00 00 00    	mov    $0xbb,%r8d
     998:	48 8d 05 49 00 00 00 	lea    0x49(%rip),%rax        # 9e8 <test_u64_to_base16+0x1f0>
     99f:	48 89 c2             	mov    %rax,%rdx
     9a2:	48 8d 05 5a 00 00 00 	lea    0x5a(%rip),%rax        # a03 <test_u64_to_base16+0x20b>
     9a9:	48 89 c1             	mov    %rax,%rcx
     9ac:	e8 92 f6 ff ff       	call   43 <printf>
     9b1:	48 b8 ef cd ab 89 67 	movabs $0x123456789abcdef,%rax
     9b8:	45 23 01 
     9bb:	48 89 45 a0          	mov    %rax,-0x60(%rbp)
     9bf:	48 b8 fa af ff fa af 	movabs $0xaffaffaffaffaffa,%rax
     9c6:	ff fa af 
     9c9:	48 89 45 a8          	mov    %rax,-0x58(%rbp)
     9cd:	48 8d 45 b0          	lea    -0x50(%rbp),%rax
     9d1:	48 89 45 f8          	mov    %rax,-0x8(%rbp)
     9d5:	48 8b 45 f8          	mov    -0x8(%rbp),%rax
     9d9:	48 8d 50 01          	lea    0x1(%rax),%rdx
     9dd:	48 89 55 f8          	mov    %rdx,-0x8(%rbp)
     9e1:	c6 00 3a             	movb   $0x3a,(%rax)
     9e4:	48 8d 55 a0          	lea    -0x60(%rbp),%rdx
     9e8:	48 8b 45 f8          	mov    -0x8(%rbp),%rax
     9ec:	41 b8 08 00 00 00    	mov    $0x8,%r8d
     9f2:	48 89 c1             	mov    %rax,%rcx
     9f5:	e8 00 00 00 00       	call   9fa <test_u64_to_base16+0x202>
     9fa:	48 89 45 f8          	mov    %rax,-0x8(%rbp)
     9fe:	48 8b 45 f8          	mov    -0x8(%rbp),%rax
     a02:	48 8d 50 01          	lea    0x1(%rax),%rdx
     a06:	48 89 55 f8          	mov    %rdx,-0x8(%rbp)
     a0a:	c6 00 2c             	movb   $0x2c,(%rax)
     a0d:	48 8d 45 a0          	lea    -0x60(%rbp),%rax
     a11:	48 8d 50 08          	lea    0x8(%rax),%rdx
     a15:	48 8b 45 f8          	mov    -0x8(%rbp),%rax
     a19:	41 b8 08 00 00 00    	mov    $0x8,%r8d
     a1f:	48 89 c1             	mov    %rax,%rcx
     a22:	e8 00 00 00 00       	call   a27 <test_u64_to_base16+0x22f>
     a27:	48 89 45 f8          	mov    %rax,-0x8(%rbp)
     a2b:	48 8b 45 f8          	mov    -0x8(%rbp),%rax
     a2f:	48 8d 50 01          	lea    0x1(%rax),%rdx
     a33:	48 89 55 f8          	mov    %rdx,-0x8(%rbp)
     a37:	c6 00 3a             	movb   $0x3a,(%rax)
     a3a:	48 8b 45 f8          	mov    -0x8(%rbp),%rax
     a3e:	48 8d 50 01          	lea    0x1(%rax),%rdx
     a42:	48 89 55 f8          	mov    %rdx,-0x8(%rbp)
     a46:	c6 00 00             	movb   $0x0,(%rax)
     a49:	48 8d 45 b0          	lea    -0x50(%rbp),%rax
     a4d:	48 8d 15 d0 01 00 00 	lea    0x1d0(%rip),%rdx        # c24 <test_u32_to_base64+0x30>
     a54:	48 89 c1             	mov    %rax,%rcx
     a57:	e8 00 00 00 00       	call   a5c <test_u64_to_base16+0x264>
     a5c:	85 c0                	test   %eax,%eax
     a5e:	74 1f                	je     a7f <test_u64_to_base16+0x287>
     a60:	41 b8 c4 00 00 00    	mov    $0xc4,%r8d
     a66:	48 8d 05 49 00 00 00 	lea    0x49(%rip),%rax        # ab6 <test_u16_to_base64+0x30>
     a6d:	48 89 c2             	mov    %rax,%rdx
     a70:	48 8d 05 5a 00 00 00 	lea    0x5a(%rip),%rax        # ad1 <test_u16_to_base64+0x4b>
     a77:	48 89 c1             	mov    %rax,%rcx
     a7a:	e8 c4 f5 ff ff       	call   43 <printf>
     a7f:	90                   	nop
     a80:	48 83 ec 80          	sub    $0xffffffffffffff80,%rsp
     a84:	5d                   	pop    %rbp
     a85:	c3                   	ret

0000000000000a86 <test_u16_to_base64>:
     a86:	55                   	push   %rbp
     a87:	48 89 e5             	mov    %rsp,%rbp
     a8a:	48 83 ec 70          	sub    $0x70,%rsp
     a8e:	48 8d 05 f8 01 00 00 	lea    0x1f8(%rip),%rax        # c8d <test_u32_to_base64+0x99>
     a95:	48 89 c1             	mov    %rax,%rcx
     a98:	e8 a6 f5 ff ff       	call   43 <printf>
     a9d:	48 c7 45 b0 00 00 00 	movq   $0x0,-0x50(%rbp)
     aa4:	00 
     aa5:	48 c7 45 b8 00 00 00 	movq   $0x0,-0x48(%rbp)
     aac:	00 
     aad:	48 c7 45 c0 00 00 00 	movq   $0x0,-0x40(%rbp)
     ab4:	00 
     ab5:	48 c7 45 c8 00 00 00 	movq   $0x0,-0x38(%rbp)
     abc:	00 
     abd:	48 c7 45 d0 00 00 00 	movq   $0x0,-0x30(%rbp)
     ac4:	00 
     ac5:	48 c7 45 d8 00 00 00 	movq   $0x0,-0x28(%rbp)
     acc:	00 
     acd:	48 c7 45 e0 00 00 00 	movq   $0x0,-0x20(%rbp)
     ad4:	00 
     ad5:	48 c7 45 e8 00 00 00 	movq   $0x0,-0x18(%rbp)
     adc:	00 
     add:	48 8d 45 b0          	lea    -0x50(%rbp),%rax
     ae1:	48 89 45 f8          	mov    %rax,-0x8(%rbp)
     ae5:	48 8b 45 f8          	mov    -0x8(%rbp),%rax
     ae9:	48 8d 50 01          	lea    0x1(%rax),%rdx
     aed:	48 89 55 f8          	mov    %rdx,-0x8(%rbp)
     af1:	c6 00 3a             	movb   $0x3a,(%rax)
     af4:	48 8b 45 f8          	mov    -0x8(%rbp),%rax
     af8:	ba 37 13 00 00       	mov    $0x1337,%edx
     afd:	48 89 c1             	mov    %rax,%rcx
     b00:	e8 00 00 00 00       	call   b05 <test_u16_to_base64+0x7f>
     b05:	48 89 45 f8          	mov    %rax,-0x8(%rbp)
     b09:	48 8b 45 f8          	mov    -0x8(%rbp),%rax
     b0d:	48 8d 50 01          	lea    0x1(%rax),%rdx
     b11:	48 89 55 f8          	mov    %rdx,-0x8(%rbp)
     b15:	c6 00 2c             	movb   $0x2c,(%rax)
     b18:	48 8b 45 f8          	mov    -0x8(%rbp),%rax
     b1c:	ba 0b b0 00 00       	mov    $0xb00b,%edx
     b21:	48 89 c1             	mov    %rax,%rcx
     b24:	e8 00 00 00 00       	call   b29 <test_u16_to_base64+0xa3>
     b29:	48 89 45 f8          	mov    %rax,-0x8(%rbp)
     b2d:	48 8b 45 f8          	mov    -0x8(%rbp),%rax
     b31:	48 8d 50 01          	lea    0x1(%rax),%rdx
     b35:	48 89 55 f8          	mov    %rdx,-0x8(%rbp)
     b39:	c6 00 2c             	movb   $0x2c,(%rax)
     b3c:	48 8b 45 f8          	mov    -0x8(%rbp),%rax
     b40:	ba 0b 00 00 00       	mov    $0xb,%edx
     b45:	48 89 c1             	mov    %rax,%rcx
     b48:	e8 00 00 00 00       	call   b4d <test_u16_to_base64+0xc7>
     b4d:	48 89 45 f8          	mov    %rax,-0x8(%rbp)
     b51:	48 8b 45 f8          	mov    -0x8(%rbp),%rax
     b55:	48 8d 50 01          	lea    0x1(%rax),%rdx
     b59:	48 89 55 f8          	mov    %rdx,-0x8(%rbp)
     b5d:	c6 00 2c             	movb   $0x2c,(%rax)
     b60:	48 8b 45 f8          	mov    -0x8(%rbp),%rax
     b64:	ba bb 00 00 00       	mov    $0xbb,%edx
     b69:	48 89 c1             	mov    %rax,%rcx
     b6c:	e8 00 00 00 00       	call   b71 <test_u16_to_base64+0xeb>
     b71:	48 89 45 f8          	mov    %rax,-0x8(%rbp)
     b75:	48 8b 45 f8          	mov    -0x8(%rbp),%rax
     b79:	48 8d 50 01          	lea    0x1(%rax),%rdx
     b7d:	48 89 55 f8          	mov    %rdx,-0x8(%rbp)
     b81:	c6 00 2c             	movb   $0x2c,(%rax)
     b84:	48 8b 45 f8          	mov    -0x8(%rbp),%rax
     b88:	ba 0b 0b 00 00       	mov    $0xb0b,%edx
     b8d:	48 89 c1             	mov    %rax,%rcx
     b90:	e8 00 00 00 00       	call   b95 <test_u16_to_base64+0x10f>
     b95:	48 89 45 f8          	mov    %rax,-0x8(%rbp)
     b99:	48 8b 45 f8          	mov    -0x8(%rbp),%rax
     b9d:	48 8d 50 01          	lea    0x1(%rax),%rdx
     ba1:	48 89 55 f8          	mov    %rdx,-0x8(%rbp)
     ba5:	c6 00 3a             	movb   $0x3a,(%rax)
     ba8:	48 8b 45 f8          	mov    -0x8(%rbp),%rax
     bac:	48 8d 50 01          	lea    0x1(%rax),%rdx
     bb0:	48 89 55 f8          	mov    %rdx,-0x8(%rbp)
     bb4:	c6 00 00             	movb   $0x0,(%rax)
     bb7:	48 8d 45 b0          	lea    -0x50(%rbp),%rax
     bbb:	48 8d 15 1d 02 00 00 	lea    0x21d(%rip),%rdx        # ddf <test_u64_to_base64+0x7d>
     bc2:	48 89 c1             	mov    %rax,%rcx
     bc5:	e8 00 00 00 00       	call   bca <test_u16_to_base64+0x144>
     bca:	85 c0                	test   %eax,%eax
     bcc:	74 1f                	je     bed <test_u16_to_base64+0x167>
     bce:	41 b8 d8 00 00 00    	mov    $0xd8,%r8d
     bd4:	48 8d 05 49 00 00 00 	lea    0x49(%rip),%rax        # c24 <test_u32_to_base64+0x30>
     bdb:	48 89 c2             	mov    %rax,%rdx
     bde:	48 8d 05 5a 00 00 00 	lea    0x5a(%rip),%rax        # c3f <test_u32_to_base64+0x4b>
     be5:	48 89 c1             	mov    %rax,%rcx
     be8:	e8 56 f4 ff ff       	call   43 <printf>
     bed:	90                   	nop
     bee:	48 83 c4 70          	add    $0x70,%rsp
     bf2:	5d                   	pop    %rbp
     bf3:	c3                   	ret

0000000000000bf4 <test_u32_to_base64>:
     bf4:	55                   	push   %rbp
     bf5:	48 89 e5             	mov    %rsp,%rbp
     bf8:	48 83 ec 70          	sub    $0x70,%rsp
     bfc:	48 8d 05 38 02 00 00 	lea    0x238(%rip),%rax        # e3b <test_u64_to_base64+0xd9>
     c03:	48 89 c1             	mov    %rax,%rcx
     c06:	e8 38 f4 ff ff       	call   43 <printf>
     c0b:	48 c7 45 b0 00 00 00 	movq   $0x0,-0x50(%rbp)
     c12:	00 
     c13:	48 c7 45 b8 00 00 00 	movq   $0x0,-0x48(%rbp)
     c1a:	00 
     c1b:	48 c7 45 c0 00 00 00 	movq   $0x0,-0x40(%rbp)
     c22:	00 
     c23:	48 c7 45 c8 00 00 00 	movq   $0x0,-0x38(%rbp)
     c2a:	00 
     c2b:	48 c7 45 d0 00 00 00 	movq   $0x0,-0x30(%rbp)
     c32:	00 
     c33:	48 c7 45 d8 00 00 00 	movq   $0x0,-0x28(%rbp)
     c3a:	00 
     c3b:	48 c7 45 e0 00 00 00 	movq   $0x0,-0x20(%rbp)
     c42:	00 
     c43:	48 c7 45 e8 00 00 00 	movq   $0x0,-0x18(%rbp)
     c4a:	00 
     c4b:	48 8d 45 b0          	lea    -0x50(%rbp),%rax
     c4f:	48 89 45 f8          	mov    %rax,-0x8(%rbp)
     c53:	48 8b 45 f8          	mov    -0x8(%rbp),%rax
     c57:	48 8d 50 01          	lea    0x1(%rax),%rdx
     c5b:	48 89 55 f8          	mov    %rdx,-0x8(%rbp)
     c5f:	c6 00 3a             	movb   $0x3a,(%rax)
     c62:	48 8b 45 f8          	mov    -0x8(%rbp),%rax
     c66:	ba 37 13 37 13       	mov    $0x13371337,%edx
     c6b:	48 89 c1             	mov    %rax,%rcx
     c6e:	e8 00 00 00 00       	call   c73 <test_u32_to_base64+0x7f>
     c73:	48 89 45 f8          	mov    %rax,-0x8(%rbp)
     c77:	48 8b 45 f8          	mov    -0x8(%rbp),%rax
     c7b:	48 8d 50 01          	lea    0x1(%rax),%rdx
     c7f:	48 89 55 f8          	mov    %rdx,-0x8(%rbp)
     c83:	c6 00 2c             	movb   $0x2c,(%rax)
     c86:	48 8b 45 f8          	mov    -0x8(%rbp),%rax
     c8a:	ba 0b b0 00 00       	mov    $0xb00b,%edx
     c8f:	48 89 c1             	mov    %rax,%rcx
     c92:	e8 00 00 00 00       	call   c97 <test_u32_to_base64+0xa3>
     c97:	48 89 45 f8          	mov    %rax,-0x8(%rbp)
     c9b:	48 8b 45 f8          	mov    -0x8(%rbp),%rax
     c9f:	48 8d 50 01          	lea    0x1(%rax),%rdx
     ca3:	48 89 55 f8          	mov    %rdx,-0x8(%rbp)
     ca7:	c6 00 2c             	movb   $0x2c,(%rax)
     caa:	48 8b 45 f8          	mov    -0x8(%rbp),%rax
     cae:	ba 0b 00 00 00       	mov    $0xb,%edx
     cb3:	48 89 c1             	mov    %rax,%rcx
     cb6:	e8 00 00 00 00       	call   cbb <test_u32_to_base64+0xc7>
     cbb:	48 89 45 f8          	mov    %rax,-0x8(%rbp)
     cbf:	48 8b 45 f8          	mov    -0x8(%rbp),%rax
     cc3:	48 8d 50 01          	lea    0x1(%rax),%rdx
     cc7:	48 89 55 f8          	mov    %rdx,-0x8(%rbp)
     ccb:	c6 00 2c             	movb   $0x2c,(%rax)
     cce:	48 8b 45 f8          	mov    -0x8(%rbp),%rax
     cd2:	ba bb 00 00 00       	mov    $0xbb,%edx
     cd7:	48 89 c1             	mov    %rax,%rcx
     cda:	e8 00 00 00 00       	call   cdf <test_u32_to_base64+0xeb>
     cdf:	48 89 45 f8          	mov    %rax,-0x8(%rbp)
     ce3:	48 8b 45 f8          	mov    -0x8(%rbp),%rax
     ce7:	48 8d 50 01          	lea    0x1(%rax),%rdx
     ceb:	48 89 55 f8          	mov    %rdx,-0x8(%rbp)
     cef:	c6 00 2c             	movb   $0x2c,(%rax)
     cf2:	48 8b 45 f8          	mov    -0x8(%rbp),%rax
     cf6:	ba 0b 0b 00 00       	mov    $0xb0b,%edx
     cfb:	48 89 c1             	mov    %rax,%rcx
     cfe:	e8 00 00 00 00       	call   d03 <test_u32_to_base64+0x10f>
     d03:	48 89 45 f8          	mov    %rax,-0x8(%rbp)
     d07:	48 8b 45 f8          	mov    -0x8(%rbp),%rax
     d0b:	48 8d 50 01          	lea    0x1(%rax),%rdx
     d0f:	48 89 55 f8          	mov    %rdx,-0x8(%rbp)
     d13:	c6 00 3a             	movb   $0x3a,(%rax)
     d16:	48 8b 45 f8          	mov    -0x8(%rbp),%rax
     d1a:	48 8d 50 01          	lea    0x1(%rax),%rdx
     d1e:	48 89 55 f8          	mov    %rdx,-0x8(%rbp)
     d22:	c6 00 00             	movb   $0x0,(%rax)
     d25:	48 8d 45 b0          	lea    -0x50(%rbp),%rax
     d29:	48 8d 15 60 02 00 00 	lea    0x260(%rip),%rdx        # f90 <test_map+0x122>
     d30:	48 89 c1             	mov    %rax,%rcx
     d33:	e8 00 00 00 00       	call   d38 <test_u32_to_base64+0x144>
     d38:	85 c0                	test   %eax,%eax
     d3a:	74 1f                	je     d5b <test_u32_to_base64+0x167>
     d3c:	41 b8 ec 00 00 00    	mov    $0xec,%r8d
     d42:	48 8d 05 49 00 00 00 	lea    0x49(%rip),%rax        # d92 <test_u64_to_base64+0x30>
     d49:	48 89 c2             	mov    %rax,%rdx
     d4c:	48 8d 05 5a 00 00 00 	lea    0x5a(%rip),%rax        # dad <test_u64_to_base64+0x4b>
     d53:	48 89 c1             	mov    %rax,%rcx
     d56:	e8 e8 f2 ff ff       	call   43 <printf>
     d5b:	90                   	nop
     d5c:	48 83 c4 70          	add    $0x70,%rsp
     d60:	5d                   	pop    %rbp
     d61:	c3                   	ret

0000000000000d62 <test_u64_to_base64>:
     d62:	55                   	push   %rbp
     d63:	48 89 e5             	mov    %rsp,%rbp
     d66:	48 83 ec 70          	sub    $0x70,%rsp
     d6a:	48 8d 05 88 02 00 00 	lea    0x288(%rip),%rax        # ff9 <test_map+0x18b>
     d71:	48 89 c1             	mov    %rax,%rcx
     d74:	e8 ca f2 ff ff       	call   43 <printf>
     d79:	48 c7 45 b0 00 00 00 	movq   $0x0,-0x50(%rbp)
     d80:	00 
     d81:	48 c7 45 b8 00 00 00 	movq   $0x0,-0x48(%rbp)
     d88:	00 
     d89:	48 c7 45 c0 00 00 00 	movq   $0x0,-0x40(%rbp)
     d90:	00 
     d91:	48 c7 45 c8 00 00 00 	movq   $0x0,-0x38(%rbp)
     d98:	00 
     d99:	48 c7 45 d0 00 00 00 	movq   $0x0,-0x30(%rbp)
     da0:	00 
     da1:	48 c7 45 d8 00 00 00 	movq   $0x0,-0x28(%rbp)
     da8:	00 
     da9:	48 c7 45 e0 00 00 00 	movq   $0x0,-0x20(%rbp)
     db0:	00 
     db1:	48 c7 45 e8 00 00 00 	movq   $0x0,-0x18(%rbp)
     db8:	00 
     db9:	48 8d 45 b0          	lea    -0x50(%rbp),%rax
     dbd:	48 89 45 f8          	mov    %rax,-0x8(%rbp)
     dc1:	48 8b 45 f8          	mov    -0x8(%rbp),%rax
     dc5:	48 8d 50 01          	lea    0x1(%rax),%rdx
     dc9:	48 89 55 f8          	mov    %rdx,-0x8(%rbp)
     dcd:	c6 00 3a             	movb   $0x3a,(%rax)
     dd0:	48 8b 45 f8          	mov    -0x8(%rbp),%rax
     dd4:	48 ba ef cd ab 89 67 	movabs $0x123456789abcdef,%rdx
     ddb:	45 23 01 
     dde:	48 89 c1             	mov    %rax,%rcx
     de1:	e8 00 00 00 00       	call   de6 <test_u64_to_base64+0x84>
     de6:	48 89 45 f8          	mov    %rax,-0x8(%rbp)
     dea:	48 8b 45 f8          	mov    -0x8(%rbp),%rax
     dee:	48 8d 50 01          	lea    0x1(%rax),%rdx
     df2:	48 89 55 f8          	mov    %rdx,-0x8(%rbp)
     df6:	c6 00 2c             	movb   $0x2c,(%rax)
     df9:	48 8b 45 f8          	mov    -0x8(%rbp),%rax
     dfd:	48 ba fa af ff fa af 	movabs $0xaffaffaffaffaffa,%rdx
     e04:	ff fa af 
     e07:	48 89 c1             	mov    %rax,%rcx
     e0a:	e8 00 00 00 00       	call   e0f <test_u64_to_base64+0xad>
     e0f:	48 89 45 f8          	mov    %rax,-0x8(%rbp)
     e13:	48 8b 45 f8          	mov    -0x8(%rbp),%rax
     e17:	48 8d 50 01          	lea    0x1(%rax),%rdx
     e1b:	48 89 55 f8          	mov    %rdx,-0x8(%rbp)
     e1f:	c6 00 3a             	movb   $0x3a,(%rax)
     e22:	48 8b 45 f8          	mov    -0x8(%rbp),%rax
     e26:	48 8d 50 01          	lea    0x1(%rax),%rdx
     e2a:	48 89 55 f8          	mov    %rdx,-0x8(%rbp)
     e2e:	c6 00 00             	movb   $0x0,(%rax)
     e31:	48 8d 45 b0          	lea    -0x50(%rbp),%rax
     e35:	48 8d 15 ad 02 00 00 	lea    0x2ad(%rip),%rdx        # 10e9 <test_map_idx+0x8d>
     e3c:	48 89 c1             	mov    %rax,%rcx
     e3f:	e8 00 00 00 00       	call   e44 <test_u64_to_base64+0xe2>
     e44:	85 c0                	test   %eax,%eax
     e46:	74 1f                	je     e67 <test_u64_to_base64+0x105>
     e48:	41 b8 fa 00 00 00    	mov    $0xfa,%r8d
     e4e:	48 8d 05 49 00 00 00 	lea    0x49(%rip),%rax        # e9e <test_map+0x30>
     e55:	48 89 c2             	mov    %rax,%rdx
     e58:	48 8d 05 5a 00 00 00 	lea    0x5a(%rip),%rax        # eb9 <test_map+0x4b>
     e5f:	48 89 c1             	mov    %rax,%rcx
     e62:	e8 dc f1 ff ff       	call   43 <printf>
     e67:	90                   	nop
     e68:	48 83 c4 70          	add    $0x70,%rsp
     e6c:	5d                   	pop    %rbp
     e6d:	c3                   	ret

0000000000000e6e <test_map>:
     e6e:	55                   	push   %rbp
     e6f:	48 89 e5             	mov    %rsp,%rbp
     e72:	48 83 ec 30          	sub    $0x30,%rsp
     e76:	48 8d 05 c7 02 00 00 	lea    0x2c7(%rip),%rax        # 1144 <test_map_idx+0xe8>
     e7d:	48 89 c1             	mov    %rax,%rcx
     e80:	e8 be f1 ff ff       	call   43 <printf>
     e85:	f3 0f 10 05 9c 07 00 	movss  0x79c(%rip),%xmm0        # 1629 <test_interpolate_2d+0x4cc>
     e8c:	00 
     e8d:	f3 0f 11 44 24 20    	movss  %xmm0,0x20(%rsp)
     e93:	f3 0f 10 1d a0 07 00 	movss  0x7a0(%rip),%xmm3        # 163b <test_interpolate_2d+0x4de>
     e9a:	00 
     e9b:	f3 0f 10 15 9c 07 00 	movss  0x79c(%rip),%xmm2        # 163f <test_interpolate_2d+0x4e2>
     ea2:	00 
     ea3:	f3 0f 10 0d a0 07 00 	movss  0x7a0(%rip),%xmm1        # 164b <test_interpolate_2d+0x4ee>
     eaa:	00 
     eab:	8b 05 a4 07 00 00    	mov    0x7a4(%rip),%eax        # 1655 <test_interpolate_2d+0x4f8>
     eb1:	66 0f 6e c0          	movd   %eax,%xmm0
     eb5:	e8 00 00 00 00       	call   eba <test_map+0x4c>
     eba:	66 0f 7e c0          	movd   %xmm0,%eax
     ebe:	66 0f 6e e0          	movd   %eax,%xmm4
     ec2:	0f 2e 25 a4 07 00 00 	ucomiss 0x7a4(%rip),%xmm4        # 166d <test_interpolate_2d+0x510>
     ec9:	7a 0d                	jp     ed8 <test_map+0x6a>
     ecb:	66 0f 6e e8          	movd   %eax,%xmm5
     ecf:	0f 2e 2d a4 07 00 00 	ucomiss 0x7a4(%rip),%xmm5        # 167a <test_array_set+0x4>
     ed6:	74 1f                	je     ef7 <test_map+0x89>
     ed8:	41 b8 00 01 00 00    	mov    $0x100,%r8d
     ede:	48 8d 05 49 00 00 00 	lea    0x49(%rip),%rax        # f2e <test_map+0xc0>
     ee5:	48 89 c2             	mov    %rax,%rdx
     ee8:	48 8d 05 5a 00 00 00 	lea    0x5a(%rip),%rax        # f49 <test_map+0xdb>
     eef:	48 89 c1             	mov    %rax,%rcx
     ef2:	e8 4c f1 ff ff       	call   43 <printf>
     ef7:	f3 0f 10 05 9c 07 00 	movss  0x79c(%rip),%xmm0        # 169b <test_array_set+0x25>
     efe:	00 
     eff:	f3 0f 11 44 24 20    	movss  %xmm0,0x20(%rsp)
     f05:	f3 0f 10 1d a0 07 00 	movss  0x7a0(%rip),%xmm3        # 16ad <test_array_set+0x37>
     f0c:	00 
     f0d:	f3 0f 10 15 a0 07 00 	movss  0x7a0(%rip),%xmm2        # 16b5 <test_array_set+0x3f>
     f14:	00 
     f15:	f3 0f 10 0d a0 07 00 	movss  0x7a0(%rip),%xmm1        # 16bd <test_array_set+0x47>
     f1c:	00 
     f1d:	8b 05 a4 07 00 00    	mov    0x7a4(%rip),%eax        # 16c7 <test_array_set+0x51>
     f23:	66 0f 6e c0          	movd   %eax,%xmm0
     f27:	e8 00 00 00 00       	call   f2c <test_map+0xbe>
     f2c:	66 0f 7e c0          	movd   %xmm0,%eax
     f30:	66 0f 6e e0          	movd   %eax,%xmm4
     f34:	0f 2e 25 a4 07 00 00 	ucomiss 0x7a4(%rip),%xmm4        # 16df <test_array_set+0x69>
     f3b:	7a 0d                	jp     f4a <test_map+0xdc>
     f3d:	66 0f 6e e8          	movd   %eax,%xmm5
     f41:	0f 2e 2d a4 07 00 00 	ucomiss 0x7a4(%rip),%xmm5        # 16ec <test_array_set+0x76>
     f48:	74 1f                	je     f69 <test_map+0xfb>
     f4a:	41 b8 01 01 00 00    	mov    $0x101,%r8d
     f50:	48 8d 05 49 00 00 00 	lea    0x49(%rip),%rax        # fa0 <test_map+0x132>
     f57:	48 89 c2             	mov    %rax,%rdx
     f5a:	48 8d 05 5a 00 00 00 	lea    0x5a(%rip),%rax        # fbb <test_map+0x14d>
     f61:	48 89 c1             	mov    %rax,%rcx
     f64:	e8 da f0 ff ff       	call   43 <printf>
     f69:	f3 0f 10 05 a0 07 00 	movss  0x7a0(%rip),%xmm0        # 1711 <test_array_set+0x9b>
     f70:	00 
     f71:	f3 0f 11 44 24 20    	movss  %xmm0,0x20(%rsp)
     f77:	f3 0f 10 1d a0 07 00 	movss  0x7a0(%rip),%xmm3        # 171f <test_array_set+0xa9>
     f7e:	00 
     f7f:	f3 0f 10 15 9c 07 00 	movss  0x79c(%rip),%xmm2        # 1723 <test_array_set+0xad>
     f86:	00 
     f87:	f3 0f 10 0d a0 07 00 	movss  0x7a0(%rip),%xmm1        # 172f <test_array_set+0xb9>
     f8e:	00 
     f8f:	8b 05 a4 07 00 00    	mov    0x7a4(%rip),%eax        # 1739 <test_array_set+0xc3>
     f95:	66 0f 6e c0          	movd   %eax,%xmm0
     f99:	e8 00 00 00 00       	call   f9e <test_map+0x130>
     f9e:	66 0f 7e c0          	movd   %xmm0,%eax
     fa2:	f3 0f 10 05 a0 07 00 	movss  0x7a0(%rip),%xmm0        # 174a <test_array_set+0xd4>
     fa9:	00 
     faa:	66 0f 6e c8          	movd   %eax,%xmm1
     fae:	0f 2e c8             	ucomiss %xmm0,%xmm1
     fb1:	7a 11                	jp     fc4 <test_map+0x156>
     fb3:	f3 0f 10 05 a0 07 00 	movss  0x7a0(%rip),%xmm0        # 175b <test_array_set+0xe5>
     fba:	00 
     fbb:	66 0f 6e d0          	movd   %eax,%xmm2
     fbf:	0f 2e d0             	ucomiss %xmm0,%xmm2
     fc2:	74 1f                	je     fe3 <test_map+0x175>
     fc4:	41 b8 02 01 00 00    	mov    $0x102,%r8d
     fca:	48 8d 05 49 00 00 00 	lea    0x49(%rip),%rax        # 101a <test_map+0x1ac>
     fd1:	48 89 c2             	mov    %rax,%rdx
     fd4:	48 8d 05 5a 00 00 00 	lea    0x5a(%rip),%rax        # 1035 <test_map+0x1c7>
     fdb:	48 89 c1             	mov    %rax,%rcx
     fde:	e8 60 f0 ff ff       	call   43 <printf>
     fe3:	f3 0f 10 05 a0 07 00 	movss  0x7a0(%rip),%xmm0        # 178b <test_array_set+0x115>
     fea:	00 
     feb:	f3 0f 11 44 24 20    	movss  %xmm0,0x20(%rsp)
     ff1:	66 0f ef db          	pxor   %xmm3,%xmm3
     ff5:	f3 0f 10 15 a0 07 00 	movss  0x7a0(%rip),%xmm2        # 179d <test_array_set+0x127>
     ffc:	00 
     ffd:	66 0f ef c9          	pxor   %xmm1,%xmm1
    1001:	8b 05 a8 07 00 00    	mov    0x7a8(%rip),%eax        # 17af <test_array_set+0x139>
    1007:	66 0f 6e c0          	movd   %eax,%xmm0
    100b:	e8 00 00 00 00       	call   1010 <test_map+0x1a2>
    1010:	66 0f 7e c0          	movd   %xmm0,%eax
    1014:	f3 0f 10 05 a8 07 00 	movss  0x7a8(%rip),%xmm0        # 17c4 <test_array_set+0x14e>
    101b:	00 
    101c:	66 0f 6e d8          	movd   %eax,%xmm3
    1020:	0f 2e d8             	ucomiss %xmm0,%xmm3
    1023:	7a 11                	jp     1036 <test_map+0x1c8>
    1025:	f3 0f 10 05 a8 07 00 	movss  0x7a8(%rip),%xmm0        # 17d5 <test_array_set+0x15f>
    102c:	00 
    102d:	66 0f 6e e0          	movd   %eax,%xmm4
    1031:	0f 2e e0             	ucomiss %xmm0,%xmm4
    1034:	74 1f                	je     1055 <test_map+0x1e7>
    1036:	41 b8 03 01 00 00    	mov    $0x103,%r8d
    103c:	48 8d 05 49 00 00 00 	lea    0x49(%rip),%rax        # 108c <test_map_idx+0x30>
    1043:	48 89 c2             	mov    %rax,%rdx
    1046:	48 8d 05 5a 00 00 00 	lea    0x5a(%rip),%rax        # 10a7 <test_map_idx+0x4b>
    104d:	48 89 c1             	mov    %rax,%rcx
    1050:	e8 ee ef ff ff       	call   43 <printf>
    1055:	90                   	nop
    1056:	48 83 c4 30          	add    $0x30,%rsp
    105a:	5d                   	pop    %rbp
    105b:	c3                   	ret

000000000000105c <test_map_idx>:
    105c:	55                   	push   %rbp
    105d:	48 89 e5             	mov    %rsp,%rbp
    1060:	48 83 ec 20          	sub    $0x20,%rsp
    1064:	48 8d 05 e8 02 00 00 	lea    0x2e8(%rip),%rax        # 1353 <test_interpolate_2d+0x1f6>
    106b:	48 89 c1             	mov    %rax,%rcx
    106e:	e8 d0 ef ff ff       	call   43 <printf>
    1073:	f3 0f 10 1d ac 07 00 	movss  0x7ac(%rip),%xmm3        # 1827 <test_array_set+0x1b1>
    107a:	00 
    107b:	f3 0f 10 15 9c 07 00 	movss  0x79c(%rip),%xmm2        # 181f <test_array_set+0x1a9>
    1082:	00 
    1083:	f3 0f 10 0d a0 07 00 	movss  0x7a0(%rip),%xmm1        # 182b <test_array_set+0x1b5>
    108a:	00 
    108b:	8b 05 a4 07 00 00    	mov    0x7a4(%rip),%eax        # 1835 <test_array_set+0x1bf>
    1091:	66 0f 6e c0          	movd   %eax,%xmm0
    1095:	e8 00 00 00 00       	call   109a <test_map_idx+0x3e>
    109a:	66 83 f8 05          	cmp    $0x5,%ax
    109e:	74 1f                	je     10bf <test_map_idx+0x63>
    10a0:	41 b8 11 01 00 00    	mov    $0x111,%r8d
    10a6:	48 8d 05 49 00 00 00 	lea    0x49(%rip),%rax        # 10f6 <test_map_idx+0x9a>
    10ad:	48 89 c2             	mov    %rax,%rdx
    10b0:	48 8d 05 5a 00 00 00 	lea    0x5a(%rip),%rax        # 1111 <test_map_idx+0xb5>
    10b7:	48 89 c1             	mov    %rax,%rcx
    10ba:	e8 84 ef ff ff       	call   43 <printf>
    10bf:	f3 0f 10 1d ac 07 00 	movss  0x7ac(%rip),%xmm3        # 1873 <test_array_set+0x1fd>
    10c6:	00 
    10c7:	f3 0f 10 15 9c 07 00 	movss  0x79c(%rip),%xmm2        # 186b <test_array_set+0x1f5>
    10ce:	00 
    10cf:	f3 0f 10 0d a0 07 00 	movss  0x7a0(%rip),%xmm1        # 1877 <test_array_set+0x201>
    10d6:	00 
    10d7:	8b 05 b0 07 00 00    	mov    0x7b0(%rip),%eax        # 188d <test_array_set+0x217>
    10dd:	66 0f 6e c0          	movd   %eax,%xmm0
    10e1:	e8 00 00 00 00       	call   10e6 <test_map_idx+0x8a>
    10e6:	66 85 c0             	test   %ax,%ax
    10e9:	74 1f                	je     110a <test_map_idx+0xae>
    10eb:	41 b8 12 01 00 00    	mov    $0x112,%r8d
    10f1:	48 8d 05 49 00 00 00 	lea    0x49(%rip),%rax        # 1141 <test_map_idx+0xe5>
    10f8:	48 89 c2             	mov    %rax,%rdx
    10fb:	48 8d 05 5a 00 00 00 	lea    0x5a(%rip),%rax        # 115c <test_map_idx+0x100>
    1102:	48 89 c1             	mov    %rax,%rcx
    1105:	e8 39 ef ff ff       	call   43 <printf>
    110a:	f3 0f 10 1d ac 07 00 	movss  0x7ac(%rip),%xmm3        # 18be <test_array_set+0x248>
    1111:	00 
    1112:	f3 0f 10 15 9c 07 00 	movss  0x79c(%rip),%xmm2        # 18b6 <test_array_set+0x240>
    1119:	00 
    111a:	f3 0f 10 0d a0 07 00 	movss  0x7a0(%rip),%xmm1        # 18c2 <test_array_set+0x24c>
    1121:	00 
    1122:	8b 05 b4 07 00 00    	mov    0x7b4(%rip),%eax        # 18dc <test_array_set+0x266>
    1128:	66 0f 6e c0          	movd   %eax,%xmm0
    112c:	e8 00 00 00 00       	call   1131 <test_map_idx+0xd5>
    1131:	66 83 f8 0a          	cmp    $0xa,%ax
    1135:	74 1f                	je     1156 <test_map_idx+0xfa>
    1137:	41 b8 13 01 00 00    	mov    $0x113,%r8d
    113d:	48 8d 05 49 00 00 00 	lea    0x49(%rip),%rax        # 118d <test_interpolate_2d+0x30>
    1144:	48 89 c2             	mov    %rax,%rdx
    1147:	48 8d 05 5a 00 00 00 	lea    0x5a(%rip),%rax        # 11a8 <test_interpolate_2d+0x4b>
    114e:	48 89 c1             	mov    %rax,%rcx
    1151:	e8 ed ee ff ff       	call   43 <printf>
    1156:	90                   	nop
    1157:	48 83 c4 20          	add    $0x20,%rsp
    115b:	5d                   	pop    %rbp
    115c:	c3                   	ret

000000000000115d <test_interpolate_2d>:
    115d:	55                   	push   %rbp
    115e:	48 89 e5             	mov    %rsp,%rbp
    1161:	48 83 c4 80          	add    $0xffffffffffffff80,%rsp
    1165:	48 8d 05 08 03 00 00 	lea    0x308(%rip),%rax        # 1474 <test_interpolate_2d+0x317>
    116c:	48 89 c1             	mov    %rax,%rcx
    116f:	e8 cf ee ff ff       	call   43 <printf>
    1174:	66 0f ef c0          	pxor   %xmm0,%xmm0
    1178:	f3 0f 11 45 e0       	movss  %xmm0,-0x20(%rbp)
    117d:	f3 0f 10 05 a0 07 00 	movss  0x7a0(%rip),%xmm0        # 1925 <test_array_set+0x2af>
    1184:	00 
    1185:	f3 0f 11 45 e4       	movss  %xmm0,-0x1c(%rbp)
    118a:	f3 0f 10 05 9c 07 00 	movss  0x79c(%rip),%xmm0        # 192e <test_array_set+0x2b8>
    1191:	00 
    1192:	f3 0f 11 45 e8       	movss  %xmm0,-0x18(%rbp)
    1197:	f3 0f 10 05 b4 07 00 	movss  0x7b4(%rip),%xmm0        # 1953 <test_array_set+0x2dd>
    119e:	00 
    119f:	f3 0f 11 45 ec       	movss  %xmm0,-0x14(%rbp)
    11a4:	f3 0f 10 05 b8 07 00 	movss  0x7b8(%rip),%xmm0        # 1964 <test_array_set+0x2ee>
    11ab:	00 
    11ac:	f3 0f 11 45 f0       	movss  %xmm0,-0x10(%rbp)
    11b1:	66 0f ef c0          	pxor   %xmm0,%xmm0
    11b5:	f3 0f 11 45 c0       	movss  %xmm0,-0x40(%rbp)
    11ba:	f3 0f 10 05 a0 07 00 	movss  0x7a0(%rip),%xmm0        # 1962 <test_array_set+0x2ec>
    11c1:	00 
    11c2:	f3 0f 11 45 c4       	movss  %xmm0,-0x3c(%rbp)
    11c7:	f3 0f 10 05 9c 07 00 	movss  0x79c(%rip),%xmm0        # 196b <test_array_set+0x2f5>
    11ce:	00 
    11cf:	f3 0f 11 45 c8       	movss  %xmm0,-0x38(%rbp)
    11d4:	f3 0f 10 05 b4 07 00 	movss  0x7b4(%rip),%xmm0        # 1990 <test_array_set+0x31a>
    11db:	00 
    11dc:	f3 0f 11 45 cc       	movss  %xmm0,-0x34(%rbp)
    11e1:	f3 0f 10 05 b8 07 00 	movss  0x7b8(%rip),%xmm0        # 19a1 <test_array_set+0x32b>
    11e8:	00 
    11e9:	f3 0f 11 45 d0       	movss  %xmm0,-0x30(%rbp)
    11ee:	66 0f ef c0          	pxor   %xmm0,%xmm0
    11f2:	f3 0f 11 45 a0       	movss  %xmm0,-0x60(%rbp)
    11f7:	f3 0f 10 05 a8 07 00 	movss  0x7a8(%rip),%xmm0        # 19a7 <test_array_set+0x331>
    11fe:	00 
    11ff:	f3 0f 11 45 a4       	movss  %xmm0,-0x5c(%rbp)
    1204:	f3 0f 10 05 bc 07 00 	movss  0x7bc(%rip),%xmm0        # 19c8 <test_array_set+0x352>
    120b:	00 
    120c:	f3 0f 11 45 a8       	movss  %xmm0,-0x58(%rbp)
    1211:	f3 0f 10 05 c0 07 00 	movss  0x7c0(%rip),%xmm0        # 19d9 <test_array_set+0x363>
    1218:	00 
    1219:	f3 0f 11 45 ac       	movss  %xmm0,-0x54(%rbp)
    121e:	f3 0f 10 05 c4 07 00 	movss  0x7c4(%rip),%xmm0        # 19ea <test_array_set+0x374>
    1225:	00 
    1226:	f3 0f 11 45 b0       	movss  %xmm0,-0x50(%rbp)
    122b:	48 8d 55 c0          	lea    -0x40(%rbp),%rdx
    122f:	48 8d 45 e0          	lea    -0x20(%rbp),%rax
    1233:	f3 0f 10 1d c8 07 00 	movss  0x7c8(%rip),%xmm3        # 1a03 <test_array_set+0x38d>
    123a:	00 
    123b:	41 b8 05 00 00 00    	mov    $0x5,%r8d
    1241:	48 89 c1             	mov    %rax,%rcx
    1244:	e8 00 00 00 00       	call   1249 <test_interpolate_2d+0xec>
    1249:	66 0f 7e c0          	movd   %xmm0,%eax
    124d:	66 0f 6e c8          	movd   %eax,%xmm1
    1251:	0f 2e 0d c8 07 00 00 	ucomiss 0x7c8(%rip),%xmm1        # 1a20 <test_array_set+0x3aa>
    1258:	7a 0d                	jp     1267 <test_interpolate_2d+0x10a>
    125a:	66 0f 6e d0          	movd   %eax,%xmm2
    125e:	0f 2e 15 c8 07 00 00 	ucomiss 0x7c8(%rip),%xmm2        # 1a2d <test_array_set+0x3b7>
    1265:	74 1f                	je     1286 <test_interpolate_2d+0x129>
    1267:	41 b8 1c 01 00 00    	mov    $0x11c,%r8d
    126d:	48 8d 05 49 00 00 00 	lea    0x49(%rip),%rax        # 12bd <test_interpolate_2d+0x160>
    1274:	48 89 c2             	mov    %rax,%rdx
    1277:	48 8d 05 5a 00 00 00 	lea    0x5a(%rip),%rax        # 12d8 <test_interpolate_2d+0x17b>
    127e:	48 89 c1             	mov    %rax,%rcx
    1281:	e8 bd ed ff ff       	call   43 <printf>
    1286:	48 8d 55 c0          	lea    -0x40(%rbp),%rdx
    128a:	48 8d 45 e0          	lea    -0x20(%rbp),%rax
    128e:	f3 0f 10 1d cc 07 00 	movss  0x7cc(%rip),%xmm3        # 1a62 <test_array_set+0x3ec>
    1295:	00 
    1296:	41 b8 05 00 00 00    	mov    $0x5,%r8d
    129c:	48 89 c1             	mov    %rax,%rcx
    129f:	e8 00 00 00 00       	call   12a4 <test_interpolate_2d+0x147>
    12a4:	66 0f 7e c0          	movd   %xmm0,%eax
    12a8:	66 0f 6e e0          	movd   %eax,%xmm4
    12ac:	0f 2e 25 cc 07 00 00 	ucomiss 0x7cc(%rip),%xmm4        # 1a7f <test_array_set+0x409>
    12b3:	7a 0d                	jp     12c2 <test_interpolate_2d+0x165>
    12b5:	66 0f 6e e8          	movd   %eax,%xmm5
    12b9:	0f 2e 2d cc 07 00 00 	ucomiss 0x7cc(%rip),%xmm5        # 1a8c <test_array_set+0x416>
    12c0:	74 1f                	je     12e1 <test_interpolate_2d+0x184>
    12c2:	41 b8 1d 01 00 00    	mov    $0x11d,%r8d
    12c8:	48 8d 05 49 00 00 00 	lea    0x49(%rip),%rax        # 1318 <test_interpolate_2d+0x1bb>
    12cf:	48 89 c2             	mov    %rax,%rdx
    12d2:	48 8d 05 5a 00 00 00 	lea    0x5a(%rip),%rax        # 1333 <test_interpolate_2d+0x1d6>
    12d9:	48 89 c1             	mov    %rax,%rcx
    12dc:	e8 62 ed ff ff       	call   43 <printf>
    12e1:	48 8d 55 c0          	lea    -0x40(%rbp),%rdx
    12e5:	48 8d 45 e0          	lea    -0x20(%rbp),%rax
    12e9:	f3 0f 10 1d a4 07 00 	movss  0x7a4(%rip),%xmm3        # 1a95 <test_array_set+0x41f>
    12f0:	00 
    12f1:	41 b8 05 00 00 00    	mov    $0x5,%r8d
    12f7:	48 89 c1             	mov    %rax,%rcx
    12fa:	e8 00 00 00 00       	call   12ff <test_interpolate_2d+0x1a2>
    12ff:	66 0f 7e c0          	movd   %xmm0,%eax
    1303:	66 0f 6e c8          	movd   %eax,%xmm1
    1307:	0f 2e 0d a4 07 00 00 	ucomiss 0x7a4(%rip),%xmm1        # 1ab2 <test_array_set+0x43c>
    130e:	7a 0d                	jp     131d <test_interpolate_2d+0x1c0>
    1310:	66 0f 6e d0          	movd   %eax,%xmm2
    1314:	0f 2e 15 a4 07 00 00 	ucomiss 0x7a4(%rip),%xmm2        # 1abf <test_array_set+0x449>
    131b:	74 1f                	je     133c <test_interpolate_2d+0x1df>
    131d:	41 b8 1e 01 00 00    	mov    $0x11e,%r8d
    1323:	48 8d 05 49 00 00 00 	lea    0x49(%rip),%rax        # 1373 <test_interpolate_2d+0x216>
    132a:	48 89 c2             	mov    %rax,%rdx
    132d:	48 8d 05 5a 00 00 00 	lea    0x5a(%rip),%rax        # 138e <test_interpolate_2d+0x231>
    1334:	48 89 c1             	mov    %rax,%rcx
    1337:	e8 07 ed ff ff       	call   43 <printf>
    133c:	48 8d 55 c0          	lea    -0x40(%rbp),%rdx
    1340:	48 8d 45 e0          	lea    -0x20(%rbp),%rax
    1344:	f3 0f 10 1d d0 07 00 	movss  0x7d0(%rip),%xmm3        # 1b1c <test_array_set+0x4a6>
    134b:	00 
    134c:	41 b8 05 00 00 00    	mov    $0x5,%r8d
    1352:	48 89 c1             	mov    %rax,%rcx
    1355:	e8 00 00 00 00       	call   135a <test_interpolate_2d+0x1fd>
    135a:	66 0f 7e c0          	movd   %xmm0,%eax
    135e:	66 0f 6e e0          	movd   %eax,%xmm4
    1362:	0f 2e 25 d0 07 00 00 	ucomiss 0x7d0(%rip),%xmm4        # 1b39 <app_i16+0x4>
    1369:	7a 0d                	jp     1378 <test_interpolate_2d+0x21b>
    136b:	66 0f 6e e8          	movd   %eax,%xmm5
    136f:	0f 2e 2d d0 07 00 00 	ucomiss 0x7d0(%rip),%xmm5        # 1b46 <app_i16+0x11>
    1376:	74 1f                	je     1397 <test_interpolate_2d+0x23a>
    1378:	41 b8 1f 01 00 00    	mov    $0x11f,%r8d
    137e:	48 8d 05 49 00 00 00 	lea    0x49(%rip),%rax        # 13ce <test_interpolate_2d+0x271>
    1385:	48 89 c2             	mov    %rax,%rdx
    1388:	48 8d 05 5a 00 00 00 	lea    0x5a(%rip),%rax        # 13e9 <test_interpolate_2d+0x28c>
    138f:	48 89 c1             	mov    %rax,%rcx
    1392:	e8 ac ec ff ff       	call   43 <printf>
    1397:	48 8d 55 c0          	lea    -0x40(%rbp),%rdx
    139b:	48 8d 45 e0          	lea    -0x20(%rbp),%rax
    139f:	f3 0f 10 1d d4 07 00 	movss  0x7d4(%rip),%xmm3        # 1b7b <test_array_apply+0x34>
    13a6:	00 
    13a7:	41 b8 05 00 00 00    	mov    $0x5,%r8d
    13ad:	48 89 c1             	mov    %rax,%rcx
    13b0:	e8 00 00 00 00       	call   13b5 <test_interpolate_2d+0x258>
    13b5:	66 0f 7e c0          	movd   %xmm0,%eax
    13b9:	66 0f 6e c8          	movd   %eax,%xmm1
    13bd:	0f 2e 0d d4 07 00 00 	ucomiss 0x7d4(%rip),%xmm1        # 1b98 <test_array_apply+0x51>
    13c4:	7a 0d                	jp     13d3 <test_interpolate_2d+0x276>
    13c6:	66 0f 6e d0          	movd   %eax,%xmm2
    13ca:	0f 2e 15 d4 07 00 00 	ucomiss 0x7d4(%rip),%xmm2        # 1ba5 <test_array_apply+0x5e>
    13d1:	74 1f                	je     13f2 <test_interpolate_2d+0x295>
    13d3:	41 b8 20 01 00 00    	mov    $0x120,%r8d
    13d9:	48 8d 05 49 00 00 00 	lea    0x49(%rip),%rax        # 1429 <test_interpolate_2d+0x2cc>
    13e0:	48 89 c2             	mov    %rax,%rdx
    13e3:	48 8d 05 5a 00 00 00 	lea    0x5a(%rip),%rax        # 1444 <test_interpolate_2d+0x2e7>
    13ea:	48 89 c1             	mov    %rax,%rcx
    13ed:	e8 51 ec ff ff       	call   43 <printf>
    13f2:	48 8d 55 c0          	lea    -0x40(%rbp),%rdx
    13f6:	48 8d 45 e0          	lea    -0x20(%rbp),%rax
    13fa:	f3 0f 10 1d d8 07 00 	movss  0x7d8(%rip),%xmm3        # 1bda <test_array_apply+0x93>
    1401:	00 
    1402:	41 b8 05 00 00 00    	mov    $0x5,%r8d
    1408:	48 89 c1             	mov    %rax,%rcx
    140b:	e8 00 00 00 00       	call   1410 <test_interpolate_2d+0x2b3>
    1410:	66 0f 7e c0          	movd   %xmm0,%eax
    1414:	66 0f 6e e0          	movd   %eax,%xmm4
    1418:	0f 2e 25 d8 07 00 00 	ucomiss 0x7d8(%rip),%xmm4        # 1bf7 <test_array_apply+0xb0>
    141f:	7a 0d                	jp     142e <test_interpolate_2d+0x2d1>
    1421:	66 0f 6e e8          	movd   %eax,%xmm5
    1425:	0f 2e 2d d8 07 00 00 	ucomiss 0x7d8(%rip),%xmm5        # 1c04 <test_array_apply+0xbd>
    142c:	74 1f                	je     144d <test_interpolate_2d+0x2f0>
    142e:	41 b8 21 01 00 00    	mov    $0x121,%r8d
    1434:	48 8d 05 49 00 00 00 	lea    0x49(%rip),%rax        # 1484 <test_interpolate_2d+0x327>
    143b:	48 89 c2             	mov    %rax,%rdx
    143e:	48 8d 05 5a 00 00 00 	lea    0x5a(%rip),%rax        # 149f <test_interpolate_2d+0x342>
    1445:	48 89 c1             	mov    %rax,%rcx
    1448:	e8 f6 eb ff ff       	call   43 <printf>
    144d:	48 8d 55 a0          	lea    -0x60(%rbp),%rdx
    1451:	48 8d 45 e0          	lea    -0x20(%rbp),%rax
    1455:	f3 0f 10 1d c8 07 00 	movss  0x7c8(%rip),%xmm3        # 1c25 <test_array_apply+0xde>
    145c:	00 
    145d:	41 b8 05 00 00 00    	mov    $0x5,%r8d
    1463:	48 89 c1             	mov    %rax,%rcx
    1466:	e8 00 00 00 00       	call   146b <test_interpolate_2d+0x30e>
    146b:	66 0f 7e c0          	movd   %xmm0,%eax
    146f:	66 0f 6e c8          	movd   %eax,%xmm1
    1473:	0f 2e 0d cc 07 00 00 	ucomiss 0x7cc(%rip),%xmm1        # 1c46 <test_array_apply+0xff>
    147a:	7a 0d                	jp     1489 <test_interpolate_2d+0x32c>
    147c:	66 0f 6e d0          	movd   %eax,%xmm2
    1480:	0f 2e 15 cc 07 00 00 	ucomiss 0x7cc(%rip),%xmm2        # 1c53 <test_array_apply+0x10c>
    1487:	74 1f                	je     14a8 <test_interpolate_2d+0x34b>
    1489:	41 b8 22 01 00 00    	mov    $0x122,%r8d
    148f:	48 8d 05 49 00 00 00 	lea    0x49(%rip),%rax        # 14df <test_interpolate_2d+0x382>
    1496:	48 89 c2             	mov    %rax,%rdx
    1499:	48 8d 05 5a 00 00 00 	lea    0x5a(%rip),%rax        # 14fa <test_interpolate_2d+0x39d>
    14a0:	48 89 c1             	mov    %rax,%rcx
    14a3:	e8 9b eb ff ff       	call   43 <printf>
    14a8:	48 8d 55 a0          	lea    -0x60(%rbp),%rdx
    14ac:	48 8d 45 e0          	lea    -0x20(%rbp),%rax
    14b0:	f3 0f 10 1d cc 07 00 	movss  0x7cc(%rip),%xmm3        # 1c84 <test_array_apply+0x13d>
    14b7:	00 
    14b8:	41 b8 05 00 00 00    	mov    $0x5,%r8d
    14be:	48 89 c1             	mov    %rax,%rcx
    14c1:	e8 00 00 00 00       	call   14c6 <test_interpolate_2d+0x369>
    14c6:	66 0f 7e c0          	movd   %xmm0,%eax
    14ca:	66 0f 6e e0          	movd   %eax,%xmm4
    14ce:	0f 2e 25 c8 07 00 00 	ucomiss 0x7c8(%rip),%xmm4        # 1c9d <test_array_apply+0x156>
    14d5:	7a 0d                	jp     14e4 <test_interpolate_2d+0x387>
    14d7:	66 0f 6e e8          	movd   %eax,%xmm5
    14db:	0f 2e 2d c8 07 00 00 	ucomiss 0x7c8(%rip),%xmm5        # 1caa <test_array_apply+0x163>
    14e2:	74 1f                	je     1503 <test_interpolate_2d+0x3a6>
    14e4:	41 b8 23 01 00 00    	mov    $0x123,%r8d
    14ea:	48 8d 05 49 00 00 00 	lea    0x49(%rip),%rax        # 153a <test_interpolate_2d+0x3dd>
    14f1:	48 89 c2             	mov    %rax,%rdx
    14f4:	48 8d 05 5a 00 00 00 	lea    0x5a(%rip),%rax        # 1555 <test_interpolate_2d+0x3f8>
    14fb:	48 89 c1             	mov    %rax,%rcx
    14fe:	e8 40 eb ff ff       	call   43 <printf>
    1503:	48 8d 55 a0          	lea    -0x60(%rbp),%rdx
    1507:	48 8d 45 e0          	lea    -0x20(%rbp),%rax
    150b:	f3 0f 10 1d a4 07 00 	movss  0x7a4(%rip),%xmm3        # 1cb7 <test_array_apply+0x170>
    1512:	00 
    1513:	41 b8 05 00 00 00    	mov    $0x5,%r8d
    1519:	48 89 c1             	mov    %rax,%rcx
    151c:	e8 00 00 00 00       	call   1521 <test_interpolate_2d+0x3c4>
    1521:	66 0f 7e c0          	movd   %xmm0,%eax
    1525:	66 0f 6e c8          	movd   %eax,%xmm1
    1529:	0f 2e 0d b0 07 00 00 	ucomiss 0x7b0(%rip),%xmm1        # 1ce0 <test_array_apply+0x199>
    1530:	7a 0d                	jp     153f <test_interpolate_2d+0x3e2>
    1532:	66 0f 6e d0          	movd   %eax,%xmm2
    1536:	0f 2e 15 b0 07 00 00 	ucomiss 0x7b0(%rip),%xmm2        # 1ced <test_array_apply+0x1a6>
    153d:	74 1f                	je     155e <test_interpolate_2d+0x401>
    153f:	41 b8 24 01 00 00    	mov    $0x124,%r8d
    1545:	48 8d 05 49 00 00 00 	lea    0x49(%rip),%rax        # 1595 <test_interpolate_2d+0x438>
    154c:	48 89 c2             	mov    %rax,%rdx
    154f:	48 8d 05 5a 00 00 00 	lea    0x5a(%rip),%rax        # 15b0 <test_interpolate_2d+0x453>
    1556:	48 89 c1             	mov    %rax,%rcx
    1559:	e8 e5 ea ff ff       	call   43 <printf>
    155e:	48 8d 55 a0          	lea    -0x60(%rbp),%rdx
    1562:	48 8d 45 e0          	lea    -0x20(%rbp),%rax
    1566:	f3 0f 10 1d d0 07 00 	movss  0x7d0(%rip),%xmm3        # 1d3e <test_array_apply+0x1f7>
    156d:	00 
    156e:	41 b8 05 00 00 00    	mov    $0x5,%r8d
    1574:	48 89 c1             	mov    %rax,%rcx
    1577:	e8 00 00 00 00       	call   157c <test_interpolate_2d+0x41f>
    157c:	66 0f 7e c0          	movd   %xmm0,%eax
    1580:	66 0f 6e e0          	movd   %eax,%xmm4
    1584:	0f 2e 25 dc 07 00 00 	ucomiss 0x7dc(%rip),%xmm4        # 1d67 <test_array_apply+0x220>
    158b:	7a 0d                	jp     159a <test_interpolate_2d+0x43d>
    158d:	66 0f 6e e8          	movd   %eax,%xmm5
    1591:	0f 2e 2d dc 07 00 00 	ucomiss 0x7dc(%rip),%xmm5        # 1d74 <test_array_apply+0x22d>
    1598:	74 1f                	je     15b9 <test_interpolate_2d+0x45c>
    159a:	41 b8 25 01 00 00    	mov    $0x125,%r8d
    15a0:	48 8d 05 49 00 00 00 	lea    0x49(%rip),%rax        # 15f0 <test_interpolate_2d+0x493>
    15a7:	48 89 c2             	mov    %rax,%rdx
    15aa:	48 8d 05 5a 00 00 00 	lea    0x5a(%rip),%rax        # 160b <test_interpolate_2d+0x4ae>
    15b1:	48 89 c1             	mov    %rax,%rcx
    15b4:	e8 8a ea ff ff       	call   43 <printf>
    15b9:	48 8d 55 a0          	lea    -0x60(%rbp),%rdx
    15bd:	48 8d 45 e0          	lea    -0x20(%rbp),%rax
    15c1:	f3 0f 10 1d d4 07 00 	movss  0x7d4(%rip),%xmm3        # 1d9d <test_array_apply+0x256>
    15c8:	00 
    15c9:	41 b8 05 00 00 00    	mov    $0x5,%r8d
    15cf:	48 89 c1             	mov    %rax,%rcx
    15d2:	e8 00 00 00 00       	call   15d7 <test_interpolate_2d+0x47a>
    15d7:	66 0f 7e c0          	movd   %xmm0,%eax
    15db:	66 0f 6e c8          	movd   %eax,%xmm1
    15df:	0f 2e 0d e0 07 00 00 	ucomiss 0x7e0(%rip),%xmm1        # 1dc6 <test_array_apply+0x27f>
    15e6:	7a 0d                	jp     15f5 <test_interpolate_2d+0x498>
    15e8:	66 0f 6e d0          	movd   %eax,%xmm2
    15ec:	0f 2e 15 e0 07 00 00 	ucomiss 0x7e0(%rip),%xmm2        # 1dd3 <test_array_apply+0x28c>
    15f3:	74 1f                	je     1614 <test_interpolate_2d+0x4b7>
    15f5:	41 b8 26 01 00 00    	mov    $0x126,%r8d
    15fb:	48 8d 05 49 00 00 00 	lea    0x49(%rip),%rax        # 164b <test_interpolate_2d+0x4ee>
    1602:	48 89 c2             	mov    %rax,%rdx
    1605:	48 8d 05 5a 00 00 00 	lea    0x5a(%rip),%rax        # 1666 <test_interpolate_2d+0x509>
    160c:	48 89 c1             	mov    %rax,%rcx
    160f:	e8 2f ea ff ff       	call   43 <printf>
    1614:	48 8d 55 a0          	lea    -0x60(%rbp),%rdx
    1618:	48 8d 45 e0          	lea    -0x20(%rbp),%rax
    161c:	f3 0f 10 1d d8 07 00 	movss  0x7d8(%rip),%xmm3        # 1dfc <test_array_apply+0x2b5>
    1623:	00 
    1624:	41 b8 05 00 00 00    	mov    $0x5,%r8d
    162a:	48 89 c1             	mov    %rax,%rcx
    162d:	e8 00 00 00 00       	call   1632 <test_interpolate_2d+0x4d5>
    1632:	66 0f 7e c0          	movd   %xmm0,%eax
    1636:	66 0f 6e e0          	movd   %eax,%xmm4
    163a:	0f 2e 25 e4 07 00 00 	ucomiss 0x7e4(%rip),%xmm4        # 1e25 <test_array_apply+0x2de>
    1641:	7a 0d                	jp     1650 <test_interpolate_2d+0x4f3>
    1643:	66 0f 6e e8          	movd   %eax,%xmm5
    1647:	0f 2e 2d e4 07 00 00 	ucomiss 0x7e4(%rip),%xmm5        # 1e32 <test_array_apply+0x2eb>
    164e:	74 1f                	je     166f <test_interpolate_2d+0x512>
    1650:	41 b8 27 01 00 00    	mov    $0x127,%r8d
    1656:	48 8d 05 49 00 00 00 	lea    0x49(%rip),%rax        # 16a6 <test_array_set+0x30>
    165d:	48 89 c2             	mov    %rax,%rdx
    1660:	48 8d 05 5a 00 00 00 	lea    0x5a(%rip),%rax        # 16c1 <test_array_set+0x4b>
    1667:	48 89 c1             	mov    %rax,%rcx
    166a:	e8 d4 e9 ff ff       	call   43 <printf>
    166f:	90                   	nop
    1670:	48 83 ec 80          	sub    $0xffffffffffffff80,%rsp
    1674:	5d                   	pop    %rbp
    1675:	c3                   	ret

0000000000001676 <test_array_set>:
    1676:	55                   	push   %rbp
    1677:	48 89 e5             	mov    %rsp,%rbp
    167a:	48 83 ec 50          	sub    $0x50,%rsp
    167e:	48 8d 05 30 03 00 00 	lea    0x330(%rip),%rax        # 19b5 <test_array_set+0x33f>
    1685:	48 89 c1             	mov    %rax,%rcx
    1688:	e8 b6 e9 ff ff       	call   43 <printf>
    168d:	f3 0f 10 05 a0 07 00 	movss  0x7a0(%rip),%xmm0        # 1e35 <test_array_linlogspace>
    1694:	00 
    1695:	f3 0f 11 45 e0       	movss  %xmm0,-0x20(%rbp)
    169a:	f3 0f 10 05 9c 07 00 	movss  0x79c(%rip),%xmm0        # 1e3e <test_array_linlogspace+0x9>
    16a1:	00 
    16a2:	f3 0f 11 45 e4       	movss  %xmm0,-0x1c(%rbp)
    16a7:	f3 0f 10 05 b4 07 00 	movss  0x7b4(%rip),%xmm0        # 1e63 <test_array_linlogspace+0x2e>
    16ae:	00 
    16af:	f3 0f 11 45 e8       	movss  %xmm0,-0x18(%rbp)
    16b4:	f3 0f 10 05 b8 07 00 	movss  0x7b8(%rip),%xmm0        # 1e74 <test_array_linlogspace+0x3f>
    16bb:	00 
    16bc:	f3 0f 11 45 ec       	movss  %xmm0,-0x14(%rbp)
    16c1:	f3 0f 10 05 e8 07 00 	movss  0x7e8(%rip),%xmm0        # 1eb1 <test_array_linlogspace+0x7c>
    16c8:	00 
    16c9:	f3 0f 11 45 f0       	movss  %xmm0,-0x10(%rbp)
    16ce:	66 c7 45 d6 01 00    	movw   $0x1,-0x2a(%rbp)
    16d4:	66 c7 45 d8 02 00    	movw   $0x2,-0x28(%rbp)
    16da:	66 c7 45 da 03 00    	movw   $0x3,-0x26(%rbp)
    16e0:	66 c7 45 dc 04 00    	movw   $0x4,-0x24(%rbp)
    16e6:	66 c7 45 de 05 00    	movw   $0x5,-0x22(%rbp)
    16ec:	48 8d 45 e0          	lea    -0x20(%rbp),%rax
    16f0:	66 0f ef d2          	pxor   %xmm2,%xmm2
    16f4:	ba 04 00 00 00       	mov    $0x4,%edx
    16f9:	48 89 c1             	mov    %rax,%rcx
    16fc:	e8 00 00 00 00       	call   1701 <test_array_set+0x8b>
    1701:	48 8d 45 d6          	lea    -0x2a(%rbp),%rax
    1705:	41 b8 00 00 00 00    	mov    $0x0,%r8d
    170b:	ba 04 00 00 00       	mov    $0x4,%edx
    1710:	48 89 c1             	mov    %rax,%rcx
    1713:	e8 00 00 00 00       	call   1718 <test_array_set+0xa2>
    1718:	f3 0f 10 45 e0       	movss  -0x20(%rbp),%xmm0
    171d:	66 0f ef c9          	pxor   %xmm1,%xmm1
    1721:	0f 2e c1             	ucomiss %xmm1,%xmm0
    1724:	7a 09                	jp     172f <test_array_set+0xb9>
    1726:	66 0f ef c9          	pxor   %xmm1,%xmm1
    172a:	0f 2e c1             	ucomiss %xmm1,%xmm0
    172d:	74 1f                	je     174e <test_array_set+0xd8>
    172f:	41 b8 31 01 00 00    	mov    $0x131,%r8d
    1735:	48 8d 05 49 00 00 00 	lea    0x49(%rip),%rax        # 1785 <test_array_set+0x10f>
    173c:	48 89 c2             	mov    %rax,%rdx
    173f:	48 8d 05 5a 00 00 00 	lea    0x5a(%rip),%rax        # 17a0 <test_array_set+0x12a>
    1746:	48 89 c1             	mov    %rax,%rcx
    1749:	e8 f5 e8 ff ff       	call   43 <printf>
    174e:	f3 0f 10 45 e4       	movss  -0x1c(%rbp),%xmm0
    1753:	66 0f ef c9          	pxor   %xmm1,%xmm1
    1757:	0f 2e c1             	ucomiss %xmm1,%xmm0
    175a:	7a 09                	jp     1765 <test_array_set+0xef>
    175c:	66 0f ef c9          	pxor   %xmm1,%xmm1
    1760:	0f 2e c1             	ucomiss %xmm1,%xmm0
    1763:	74 1f                	je     1784 <test_array_set+0x10e>
    1765:	41 b8 32 01 00 00    	mov    $0x132,%r8d
    176b:	48 8d 05 49 00 00 00 	lea    0x49(%rip),%rax        # 17bb <test_array_set+0x145>
    1772:	48 89 c2             	mov    %rax,%rdx
    1775:	48 8d 05 5a 00 00 00 	lea    0x5a(%rip),%rax        # 17d6 <test_array_set+0x160>
    177c:	48 89 c1             	mov    %rax,%rcx
    177f:	e8 bf e8 ff ff       	call   43 <printf>
    1784:	f3 0f 10 45 e8       	movss  -0x18(%rbp),%xmm0
    1789:	66 0f ef c9          	pxor   %xmm1,%xmm1
    178d:	0f 2e c1             	ucomiss %xmm1,%xmm0
    1790:	7a 09                	jp     179b <test_array_set+0x125>
    1792:	66 0f ef c9          	pxor   %xmm1,%xmm1
    1796:	0f 2e c1             	ucomiss %xmm1,%xmm0
    1799:	74 1f                	je     17ba <test_array_set+0x144>
    179b:	41 b8 33 01 00 00    	mov    $0x133,%r8d
    17a1:	48 8d 05 49 00 00 00 	lea    0x49(%rip),%rax        # 17f1 <test_array_set+0x17b>
    17a8:	48 89 c2             	mov    %rax,%rdx
    17ab:	48 8d 05 5a 00 00 00 	lea    0x5a(%rip),%rax        # 180c <test_array_set+0x196>
    17b2:	48 89 c1             	mov    %rax,%rcx
    17b5:	e8 89 e8 ff ff       	call   43 <printf>
    17ba:	f3 0f 10 45 ec       	movss  -0x14(%rbp),%xmm0
    17bf:	66 0f ef c9          	pxor   %xmm1,%xmm1
    17c3:	0f 2e c1             	ucomiss %xmm1,%xmm0
    17c6:	7a 09                	jp     17d1 <test_array_set+0x15b>
    17c8:	66 0f ef c9          	pxor   %xmm1,%xmm1
    17cc:	0f 2e c1             	ucomiss %xmm1,%xmm0
    17cf:	74 1f                	je     17f0 <test_array_set+0x17a>
    17d1:	41 b8 34 01 00 00    	mov    $0x134,%r8d
    17d7:	48 8d 05 49 00 00 00 	lea    0x49(%rip),%rax        # 1827 <test_array_set+0x1b1>
    17de:	48 89 c2             	mov    %rax,%rdx
    17e1:	48 8d 05 5a 00 00 00 	lea    0x5a(%rip),%rax        # 1842 <test_array_set+0x1cc>
    17e8:	48 89 c1             	mov    %rax,%rcx
    17eb:	e8 53 e8 ff ff       	call   43 <printf>
    17f0:	f3 0f 10 45 f0       	movss  -0x10(%rbp),%xmm0
    17f5:	0f 2e 05 e8 07 00 00 	ucomiss 0x7e8(%rip),%xmm0        # 1fe4 <test_array_linlogspace+0x1af>
    17fc:	7a 09                	jp     1807 <test_array_set+0x191>
    17fe:	0f 2e 05 e8 07 00 00 	ucomiss 0x7e8(%rip),%xmm0        # 1fed <test_array_linlogspace+0x1b8>
    1805:	74 1f                	je     1826 <test_array_set+0x1b0>
    1807:	41 b8 35 01 00 00    	mov    $0x135,%r8d
    180d:	48 8d 05 49 00 00 00 	lea    0x49(%rip),%rax        # 185d <test_array_set+0x1e7>
    1814:	48 89 c2             	mov    %rax,%rdx
    1817:	48 8d 05 5a 00 00 00 	lea    0x5a(%rip),%rax        # 1878 <test_array_set+0x202>
    181e:	48 89 c1             	mov    %rax,%rcx
    1821:	e8 1d e8 ff ff       	call   43 <printf>
    1826:	0f b7 45 d6          	movzwl -0x2a(%rbp),%eax
    182a:	66 85 c0             	test   %ax,%ax
    182d:	74 1f                	je     184e <test_array_set+0x1d8>
    182f:	41 b8 36 01 00 00    	mov    $0x136,%r8d
    1835:	48 8d 05 49 00 00 00 	lea    0x49(%rip),%rax        # 1885 <test_array_set+0x20f>
    183c:	48 89 c2             	mov    %rax,%rdx
    183f:	48 8d 05 5a 00 00 00 	lea    0x5a(%rip),%rax        # 18a0 <test_array_set+0x22a>
    1846:	48 89 c1             	mov    %rax,%rcx
    1849:	e8 f5 e7 ff ff       	call   43 <printf>
    184e:	0f b7 45 d8          	movzwl -0x28(%rbp),%eax
    1852:	66 85 c0             	test   %ax,%ax
    1855:	74 1f                	je     1876 <test_array_set+0x200>
    1857:	41 b8 37 01 00 00    	mov    $0x137,%r8d
    185d:	48 8d 05 49 00 00 00 	lea    0x49(%rip),%rax        # 18ad <test_array_set+0x237>
    1864:	48 89 c2             	mov    %rax,%rdx
    1867:	48 8d 05 5a 00 00 00 	lea    0x5a(%rip),%rax        # 18c8 <test_array_set+0x252>
    186e:	48 89 c1             	mov    %rax,%rcx
    1871:	e8 cd e7 ff ff       	call   43 <printf>
    1876:	0f b7 45 da          	movzwl -0x26(%rbp),%eax
    187a:	66 85 c0             	test   %ax,%ax
    187d:	74 1f                	je     189e <test_array_set+0x228>
    187f:	41 b8 38 01 00 00    	mov    $0x138,%r8d
    1885:	48 8d 05 49 00 00 00 	lea    0x49(%rip),%rax        # 18d5 <test_array_set+0x25f>
    188c:	48 89 c2             	mov    %rax,%rdx
    188f:	48 8d 05 5a 00 00 00 	lea    0x5a(%rip),%rax        # 18f0 <test_array_set+0x27a>
    1896:	48 89 c1             	mov    %rax,%rcx
    1899:	e8 a5 e7 ff ff       	call   43 <printf>
    189e:	0f b7 45 dc          	movzwl -0x24(%rbp),%eax
    18a2:	66 85 c0             	test   %ax,%ax
    18a5:	74 1f                	je     18c6 <test_array_set+0x250>
    18a7:	41 b8 39 01 00 00    	mov    $0x139,%r8d
    18ad:	48 8d 05 49 00 00 00 	lea    0x49(%rip),%rax        # 18fd <test_array_set+0x287>
    18b4:	48 89 c2             	mov    %rax,%rdx
    18b7:	48 8d 05 5a 00 00 00 	lea    0x5a(%rip),%rax        # 1918 <test_array_set+0x2a2>
    18be:	48 89 c1             	mov    %rax,%rcx
    18c1:	e8 7d e7 ff ff       	call   43 <printf>
    18c6:	0f b7 45 de          	movzwl -0x22(%rbp),%eax
    18ca:	66 83 f8 05          	cmp    $0x5,%ax
    18ce:	74 1f                	je     18ef <test_array_set+0x279>
    18d0:	41 b8 3a 01 00 00    	mov    $0x13a,%r8d
    18d6:	48 8d 05 49 00 00 00 	lea    0x49(%rip),%rax        # 1926 <test_array_set+0x2b0>
    18dd:	48 89 c2             	mov    %rax,%rdx
    18e0:	48 8d 05 5a 00 00 00 	lea    0x5a(%rip),%rax        # 1941 <test_array_set+0x2cb>
    18e7:	48 89 c1             	mov    %rax,%rcx
    18ea:	e8 54 e7 ff ff       	call   43 <printf>
    18ef:	48 8d 45 e0          	lea    -0x20(%rbp),%rax
    18f3:	f3 0f 10 15 a0 07 00 	movss  0x7a0(%rip),%xmm2        # 209b <test_array_linlogspace+0x266>
    18fa:	00 
    18fb:	ba 04 00 00 00       	mov    $0x4,%edx
    1900:	48 89 c1             	mov    %rax,%rcx
    1903:	e8 00 00 00 00       	call   1908 <test_array_set+0x292>
    1908:	48 8d 45 d6          	lea    -0x2a(%rbp),%rax
    190c:	41 b8 01 00 00 00    	mov    $0x1,%r8d
    1912:	ba 04 00 00 00       	mov    $0x4,%edx
    1917:	48 89 c1             	mov    %rax,%rcx
    191a:	e8 00 00 00 00       	call   191f <test_array_set+0x2a9>
    191f:	f3 0f 10 45 e0       	movss  -0x20(%rbp),%xmm0
    1924:	f3 0f 10 0d a0 07 00 	movss  0x7a0(%rip),%xmm1        # 20cc <test_array_linlogspace+0x297>
    192b:	00 
    192c:	0f 2e c1             	ucomiss %xmm1,%xmm0
    192f:	7a 0d                	jp     193e <test_array_set+0x2c8>
    1931:	f3 0f 10 0d a0 07 00 	movss  0x7a0(%rip),%xmm1        # 20d9 <test_array_linlogspace+0x2a4>
    1938:	00 
    1939:	0f 2e c1             	ucomiss %xmm1,%xmm0
    193c:	74 1f                	je     195d <test_array_set+0x2e7>
    193e:	41 b8 3d 01 00 00    	mov    $0x13d,%r8d
    1944:	48 8d 05 49 00 00 00 	lea    0x49(%rip),%rax        # 1994 <test_array_set+0x31e>
    194b:	48 89 c2             	mov    %rax,%rdx
    194e:	48 8d 05 5a 00 00 00 	lea    0x5a(%rip),%rax        # 19af <test_array_set+0x339>
    1955:	48 89 c1             	mov    %rax,%rcx
    1958:	e8 e6 e6 ff ff       	call   43 <printf>
    195d:	f3 0f 10 45 e4       	movss  -0x1c(%rbp),%xmm0
    1962:	f3 0f 10 0d a0 07 00 	movss  0x7a0(%rip),%xmm1        # 210a <test_array_linlogspace+0x2d5>
    1969:	00 
    196a:	0f 2e c1             	ucomiss %xmm1,%xmm0
    196d:	7a 0d                	jp     197c <test_array_set+0x306>
    196f:	f3 0f 10 0d a0 07 00 	movss  0x7a0(%rip),%xmm1        # 2117 <test_array_linlogspace+0x2e2>
    1976:	00 
    1977:	0f 2e c1             	ucomiss %xmm1,%xmm0
    197a:	74 1f                	je     199b <test_array_set+0x325>
    197c:	41 b8 3e 01 00 00    	mov    $0x13e,%r8d
    1982:	48 8d 05 49 00 00 00 	lea    0x49(%rip),%rax        # 19d2 <test_array_set+0x35c>
    1989:	48 89 c2             	mov    %rax,%rdx
    198c:	48 8d 05 5a 00 00 00 	lea    0x5a(%rip),%rax        # 19ed <test_array_set+0x377>
    1993:	48 89 c1             	mov    %rax,%rcx
    1996:	e8 a8 e6 ff ff       	call   43 <printf>
    199b:	f3 0f 10 45 e8       	movss  -0x18(%rbp),%xmm0
    19a0:	f3 0f 10 0d a0 07 00 	movss  0x7a0(%rip),%xmm1        # 2148 <test_array_linlogspace+0x313>
    19a7:	00 
    19a8:	0f 2e c1             	ucomiss %xmm1,%xmm0
    19ab:	7a 0d                	jp     19ba <test_array_set+0x344>
    19ad:	f3 0f 10 0d a0 07 00 	movss  0x7a0(%rip),%xmm1        # 2155 <test_array_linlogspace+0x320>
    19b4:	00 
    19b5:	0f 2e c1             	ucomiss %xmm1,%xmm0
    19b8:	74 1f                	je     19d9 <test_array_set+0x363>
    19ba:	41 b8 3f 01 00 00    	mov    $0x13f,%r8d
    19c0:	48 8d 05 49 00 00 00 	lea    0x49(%rip),%rax        # 1a10 <test_array_set+0x39a>
    19c7:	48 89 c2             	mov    %rax,%rdx
    19ca:	48 8d 05 5a 00 00 00 	lea    0x5a(%rip),%rax        # 1a2b <test_array_set+0x3b5>
    19d1:	48 89 c1             	mov    %rax,%rcx
    19d4:	e8 6a e6 ff ff       	call   43 <printf>
    19d9:	f3 0f 10 45 ec       	movss  -0x14(%rbp),%xmm0
    19de:	f3 0f 10 0d a0 07 00 	movss  0x7a0(%rip),%xmm1        # 2186 <test_array_linlogspace+0x351>
    19e5:	00 
    19e6:	0f 2e c1             	ucomiss %xmm1,%xmm0
    19e9:	7a 0d                	jp     19f8 <test_array_set+0x382>
    19eb:	f3 0f 10 0d a0 07 00 	movss  0x7a0(%rip),%xmm1        # 2193 <test_array_linlogspace+0x35e>
    19f2:	00 
    19f3:	0f 2e c1             	ucomiss %xmm1,%xmm0
    19f6:	74 1f                	je     1a17 <test_array_set+0x3a1>
    19f8:	41 b8 40 01 00 00    	mov    $0x140,%r8d
    19fe:	48 8d 05 49 00 00 00 	lea    0x49(%rip),%rax        # 1a4e <test_array_set+0x3d8>
    1a05:	48 89 c2             	mov    %rax,%rdx
    1a08:	48 8d 05 5a 00 00 00 	lea    0x5a(%rip),%rax        # 1a69 <test_array_set+0x3f3>
    1a0f:	48 89 c1             	mov    %rax,%rcx
    1a12:	e8 2c e6 ff ff       	call   43 <printf>
    1a17:	f3 0f 10 45 f0       	movss  -0x10(%rbp),%xmm0
    1a1c:	0f 2e 05 e8 07 00 00 	ucomiss 0x7e8(%rip),%xmm0        # 220b <test_hysteresis_value+0x1e>
    1a23:	7a 09                	jp     1a2e <test_array_set+0x3b8>
    1a25:	0f 2e 05 e8 07 00 00 	ucomiss 0x7e8(%rip),%xmm0        # 2214 <test_hysteresis_value+0x27>
    1a2c:	74 1f                	je     1a4d <test_array_set+0x3d7>
    1a2e:	41 b8 41 01 00 00    	mov    $0x141,%r8d
    1a34:	48 8d 05 49 00 00 00 	lea    0x49(%rip),%rax        # 1a84 <test_array_set+0x40e>
    1a3b:	48 89 c2             	mov    %rax,%rdx
    1a3e:	48 8d 05 5a 00 00 00 	lea    0x5a(%rip),%rax        # 1a9f <test_array_set+0x429>
    1a45:	48 89 c1             	mov    %rax,%rcx
    1a48:	e8 f6 e5 ff ff       	call   43 <printf>
    1a4d:	0f b7 45 d6          	movzwl -0x2a(%rbp),%eax
    1a51:	66 83 f8 01          	cmp    $0x1,%ax
    1a55:	74 1f                	je     1a76 <test_array_set+0x400>
    1a57:	41 b8 42 01 00 00    	mov    $0x142,%r8d
    1a5d:	48 8d 05 49 00 00 00 	lea    0x49(%rip),%rax        # 1aad <test_array_set+0x437>
    1a64:	48 89 c2             	mov    %rax,%rdx
    1a67:	48 8d 05 5a 00 00 00 	lea    0x5a(%rip),%rax        # 1ac8 <test_array_set+0x452>
    1a6e:	48 89 c1             	mov    %rax,%rcx
    1a71:	e8 cd e5 ff ff       	call   43 <printf>
    1a76:	0f b7 45 d8          	movzwl -0x28(%rbp),%eax
    1a7a:	66 83 f8 01          	cmp    $0x1,%ax
    1a7e:	74 1f                	je     1a9f <test_array_set+0x429>
    1a80:	41 b8 43 01 00 00    	mov    $0x143,%r8d
    1a86:	48 8d 05 49 00 00 00 	lea    0x49(%rip),%rax        # 1ad6 <test_array_set+0x460>
    1a8d:	48 89 c2             	mov    %rax,%rdx
    1a90:	48 8d 05 5a 00 00 00 	lea    0x5a(%rip),%rax        # 1af1 <test_array_set+0x47b>
    1a97:	48 89 c1             	mov    %rax,%rcx
    1a9a:	e8 a4 e5 ff ff       	call   43 <printf>
    1a9f:	0f b7 45 da          	movzwl -0x26(%rbp),%eax
    1aa3:	66 83 f8 01          	cmp    $0x1,%ax
    1aa7:	74 1f                	je     1ac8 <test_array_set+0x452>
    1aa9:	41 b8 44 01 00 00    	mov    $0x144,%r8d
    1aaf:	48 8d 05 49 00 00 00 	lea    0x49(%rip),%rax        # 1aff <test_array_set+0x489>
    1ab6:	48 89 c2             	mov    %rax,%rdx
    1ab9:	48 8d 05 5a 00 00 00 	lea    0x5a(%rip),%rax        # 1b1a <test_array_set+0x4a4>
    1ac0:	48 89 c1             	mov    %rax,%rcx
    1ac3:	e8 7b e5 ff ff       	call   43 <printf>
    1ac8:	0f b7 45 dc          	movzwl -0x24(%rbp),%eax
    1acc:	66 83 f8 01          	cmp    $0x1,%ax
    1ad0:	74 1f                	je     1af1 <test_array_set+0x47b>
    1ad2:	41 b8 45 01 00 00    	mov    $0x145,%r8d
    1ad8:	48 8d 05 49 00 00 00 	lea    0x49(%rip),%rax        # 1b28 <app_f32+0x7>
    1adf:	48 89 c2             	mov    %rax,%rdx
    1ae2:	48 8d 05 5a 00 00 00 	lea    0x5a(%rip),%rax        # 1b43 <app_i16+0xe>
    1ae9:	48 89 c1             	mov    %rax,%rcx
    1aec:	e8 52 e5 ff ff       	call   43 <printf>
    1af1:	0f b7 45 de          	movzwl -0x22(%rbp),%eax
    1af5:	66 83 f8 05          	cmp    $0x5,%ax
    1af9:	74 1f                	je     1b1a <test_array_set+0x4a4>
    1afb:	41 b8 46 01 00 00    	mov    $0x146,%r8d
    1b01:	48 8d 05 49 00 00 00 	lea    0x49(%rip),%rax        # 1b51 <test_array_apply+0xa>
    1b08:	48 89 c2             	mov    %rax,%rdx
    1b0b:	48 8d 05 5a 00 00 00 	lea    0x5a(%rip),%rax        # 1b6c <test_array_apply+0x25>
    1b12:	48 89 c1             	mov    %rax,%rcx
    1b15:	e8 29 e5 ff ff       	call   43 <printf>
    1b1a:	90                   	nop
    1b1b:	48 83 c4 50          	add    $0x50,%rsp
    1b1f:	5d                   	pop    %rbp
    1b20:	c3                   	ret

0000000000001b21 <app_f32>:
    1b21:	55                   	push   %rbp
    1b22:	48 89 e5             	mov    %rsp,%rbp
    1b25:	f3 0f 11 45 10       	movss  %xmm0,0x10(%rbp)
    1b2a:	f3 0f 10 45 10       	movss  0x10(%rbp),%xmm0
    1b2f:	f3 0f 58 c0          	addss  %xmm0,%xmm0
    1b33:	5d                   	pop    %rbp
    1b34:	c3                   	ret

0000000000001b35 <app_i16>:
    1b35:	55                   	push   %rbp
    1b36:	48 89 e5             	mov    %rsp,%rbp
    1b39:	89 c8                	mov    %ecx,%eax
    1b3b:	66 89 45 10          	mov    %ax,0x10(%rbp)
    1b3f:	0f b7 45 10          	movzwl 0x10(%rbp),%eax
    1b43:	01 c0                	add    %eax,%eax
    1b45:	5d                   	pop    %rbp
    1b46:	c3                   	ret

0000000000001b47 <test_array_apply>:
    1b47:	55                   	push   %rbp
    1b48:	48 89 e5             	mov    %rsp,%rbp
    1b4b:	48 83 c4 80          	add    $0xffffffffffffff80,%rsp
    1b4f:	48 8d 05 58 03 00 00 	lea    0x358(%rip),%rax        # 1eae <test_array_linlogspace+0x79>
    1b56:	48 89 c1             	mov    %rax,%rcx
    1b59:	e8 e5 e4 ff ff       	call   43 <printf>
    1b5e:	f3 0f 10 05 a0 07 00 	movss  0x7a0(%rip),%xmm0        # 2306 <test_hysteresis_value+0x119>
    1b65:	00 
    1b66:	f3 0f 11 45 e0       	movss  %xmm0,-0x20(%rbp)
    1b6b:	f3 0f 10 05 9c 07 00 	movss  0x79c(%rip),%xmm0        # 230f <test_hysteresis_value+0x122>
    1b72:	00 
    1b73:	f3 0f 11 45 e4       	movss  %xmm0,-0x1c(%rbp)
    1b78:	f3 0f 10 05 b4 07 00 	movss  0x7b4(%rip),%xmm0        # 2334 <test_hysteresis_value+0x147>
    1b7f:	00 
    1b80:	f3 0f 11 45 e8       	movss  %xmm0,-0x18(%rbp)
    1b85:	f3 0f 10 05 b8 07 00 	movss  0x7b8(%rip),%xmm0        # 2345 <test_hysteresis_value+0x158>
    1b8c:	00 
    1b8d:	f3 0f 11 45 ec       	movss  %xmm0,-0x14(%rbp)
    1b92:	f3 0f 10 05 e8 07 00 	movss  0x7e8(%rip),%xmm0        # 2382 <test_hysteresis_value+0x195>
    1b99:	00 
    1b9a:	f3 0f 11 45 f0       	movss  %xmm0,-0x10(%rbp)
    1b9f:	66 0f ef c0          	pxor   %xmm0,%xmm0
    1ba3:	0f 11 45 c0          	movups %xmm0,-0x40(%rbp)
    1ba7:	66 0f 7e 45 d0       	movd   %xmm0,-0x30(%rbp)
    1bac:	66 c7 45 b6 01 00    	movw   $0x1,-0x4a(%rbp)
    1bb2:	66 c7 45 b8 02 00    	movw   $0x2,-0x48(%rbp)
    1bb8:	66 c7 45 ba 03 00    	movw   $0x3,-0x46(%rbp)
    1bbe:	66 c7 45 bc 04 00    	movw   $0x4,-0x44(%rbp)
    1bc4:	66 c7 45 be 05 00    	movw   $0x5,-0x42(%rbp)
    1bca:	48 c7 45 ac 00 00 00 	movq   $0x0,-0x54(%rbp)
    1bd1:	00 
    1bd2:	66 c7 45 b4 00 00    	movw   $0x0,-0x4c(%rbp)
    1bd8:	48 8d 55 c0          	lea    -0x40(%rbp),%rdx
    1bdc:	48 8d 45 e0          	lea    -0x20(%rbp),%rax
    1be0:	4c 8d 0d 3a ff ff ff 	lea    -0xc6(%rip),%r9        # 1b21 <app_f32>
    1be7:	41 b8 04 00 00 00    	mov    $0x4,%r8d
    1bed:	48 89 c1             	mov    %rax,%rcx
    1bf0:	e8 00 00 00 00       	call   1bf5 <test_array_apply+0xae>
    1bf5:	48 8d 55 ac          	lea    -0x54(%rbp),%rdx
    1bf9:	48 8d 45 b6          	lea    -0x4a(%rbp),%rax
    1bfd:	4c 8d 0d 31 ff ff ff 	lea    -0xcf(%rip),%r9        # 1b35 <app_i16>
    1c04:	41 b8 04 00 00 00    	mov    $0x4,%r8d
    1c0a:	48 89 c1             	mov    %rax,%rcx
    1c0d:	e8 00 00 00 00       	call   1c12 <test_array_apply+0xcb>
    1c12:	f3 0f 10 45 c0       	movss  -0x40(%rbp),%xmm0
    1c17:	0f 2e 05 9c 07 00 00 	ucomiss 0x79c(%rip),%xmm0        # 23ba <test_hysteresis_value+0x1cd>
    1c1e:	7a 09                	jp     1c29 <test_array_apply+0xe2>
    1c20:	0f 2e 05 9c 07 00 00 	ucomiss 0x79c(%rip),%xmm0        # 23c3 <test_hysteresis_value+0x1d6>
    1c27:	74 1f                	je     1c48 <test_array_apply+0x101>
    1c29:	41 b8 55 01 00 00    	mov    $0x155,%r8d
    1c2f:	48 8d 05 49 00 00 00 	lea    0x49(%rip),%rax        # 1c7f <test_array_apply+0x138>
    1c36:	48 89 c2             	mov    %rax,%rdx
    1c39:	48 8d 05 5a 00 00 00 	lea    0x5a(%rip),%rax        # 1c9a <test_array_apply+0x153>
    1c40:	48 89 c1             	mov    %rax,%rcx
    1c43:	e8 fb e3 ff ff       	call   43 <printf>
    1c48:	f3 0f 10 45 c4       	movss  -0x3c(%rbp),%xmm0
    1c4d:	0f 2e 05 b8 07 00 00 	ucomiss 0x7b8(%rip),%xmm0        # 240c <test_hysteresis_value+0x21f>
    1c54:	7a 09                	jp     1c5f <test_array_apply+0x118>
    1c56:	0f 2e 05 b8 07 00 00 	ucomiss 0x7b8(%rip),%xmm0        # 2415 <test_hysteresis_value+0x228>
    1c5d:	74 1f                	je     1c7e <test_array_apply+0x137>
    1c5f:	41 b8 56 01 00 00    	mov    $0x156,%r8d
    1c65:	48 8d 05 49 00 00 00 	lea    0x49(%rip),%rax        # 1cb5 <test_array_apply+0x16e>
    1c6c:	48 89 c2             	mov    %rax,%rdx
    1c6f:	48 8d 05 5a 00 00 00 	lea    0x5a(%rip),%rax        # 1cd0 <test_array_apply+0x189>
    1c76:	48 89 c1             	mov    %rax,%rcx
    1c79:	e8 c5 e3 ff ff       	call   43 <printf>
    1c7e:	f3 0f 10 45 c8       	movss  -0x38(%rbp),%xmm0
    1c83:	0f 2e 05 ec 07 00 00 	ucomiss 0x7ec(%rip),%xmm0        # 2476 <test_hysteresis_value+0x289>
    1c8a:	7a 09                	jp     1c95 <test_array_apply+0x14e>
    1c8c:	0f 2e 05 ec 07 00 00 	ucomiss 0x7ec(%rip),%xmm0        # 247f <test_hysteresis_value+0x292>
    1c93:	74 1f                	je     1cb4 <test_array_apply+0x16d>
    1c95:	41 b8 57 01 00 00    	mov    $0x157,%r8d
    1c9b:	48 8d 05 49 00 00 00 	lea    0x49(%rip),%rax        # 1ceb <test_array_apply+0x1a4>
    1ca2:	48 89 c2             	mov    %rax,%rdx
    1ca5:	48 8d 05 5a 00 00 00 	lea    0x5a(%rip),%rax        # 1d06 <test_array_apply+0x1bf>
    1cac:	48 89 c1             	mov    %rax,%rcx
    1caf:	e8 8f e3 ff ff       	call   43 <printf>
    1cb4:	f3 0f 10 45 cc       	movss  -0x34(%rbp),%xmm0
    1cb9:	0f 2e 05 f0 07 00 00 	ucomiss 0x7f0(%rip),%xmm0        # 24b0 <test_hysteresis_value+0x2c3>
    1cc0:	7a 09                	jp     1ccb <test_array_apply+0x184>
    1cc2:	0f 2e 05 f0 07 00 00 	ucomiss 0x7f0(%rip),%xmm0        # 24b9 <test_hysteresis_value+0x2cc>
    1cc9:	74 1f                	je     1cea <test_array_apply+0x1a3>
    1ccb:	41 b8 58 01 00 00    	mov    $0x158,%r8d
    1cd1:	48 8d 05 49 00 00 00 	lea    0x49(%rip),%rax        # 1d21 <test_array_apply+0x1da>
    1cd8:	48 89 c2             	mov    %rax,%rdx
    1cdb:	48 8d 05 5a 00 00 00 	lea    0x5a(%rip),%rax        # 1d3c <test_array_apply+0x1f5>
    1ce2:	48 89 c1             	mov    %rax,%rcx
    1ce5:	e8 59 e3 ff ff       	call   43 <printf>
    1cea:	f3 0f 10 45 d0       	movss  -0x30(%rbp),%xmm0
    1cef:	66 0f ef c9          	pxor   %xmm1,%xmm1
    1cf3:	0f 2e c1             	ucomiss %xmm1,%xmm0
    1cf6:	7a 09                	jp     1d01 <test_array_apply+0x1ba>
    1cf8:	66 0f ef c9          	pxor   %xmm1,%xmm1
    1cfc:	0f 2e c1             	ucomiss %xmm1,%xmm0
    1cff:	74 1f                	je     1d20 <test_array_apply+0x1d9>
    1d01:	41 b8 59 01 00 00    	mov    $0x159,%r8d
    1d07:	48 8d 05 49 00 00 00 	lea    0x49(%rip),%rax        # 1d57 <test_array_apply+0x210>
    1d0e:	48 89 c2             	mov    %rax,%rdx
    1d11:	48 8d 05 5a 00 00 00 	lea    0x5a(%rip),%rax        # 1d72 <test_array_apply+0x22b>
    1d18:	48 89 c1             	mov    %rax,%rcx
    1d1b:	e8 23 e3 ff ff       	call   43 <printf>
    1d20:	f3 0f 10 45 c0       	movss  -0x40(%rbp),%xmm0
    1d25:	0f 2e 05 9c 07 00 00 	ucomiss 0x79c(%rip),%xmm0        # 24c8 <test_hysteresis_value+0x2db>
    1d2c:	7a 09                	jp     1d37 <test_array_apply+0x1f0>
    1d2e:	0f 2e 05 9c 07 00 00 	ucomiss 0x79c(%rip),%xmm0        # 24d1 <test_hysteresis_value+0x2e4>
    1d35:	74 1f                	je     1d56 <test_array_apply+0x20f>
    1d37:	41 b8 5a 01 00 00    	mov    $0x15a,%r8d
    1d3d:	48 8d 05 49 00 00 00 	lea    0x49(%rip),%rax        # 1d8d <test_array_apply+0x246>
    1d44:	48 89 c2             	mov    %rax,%rdx
    1d47:	48 8d 05 5a 00 00 00 	lea    0x5a(%rip),%rax        # 1da8 <test_array_apply+0x261>
    1d4e:	48 89 c1             	mov    %rax,%rcx
    1d51:	e8 ed e2 ff ff       	call   43 <printf>
    1d56:	f3 0f 10 45 c4       	movss  -0x3c(%rbp),%xmm0
    1d5b:	0f 2e 05 b8 07 00 00 	ucomiss 0x7b8(%rip),%xmm0        # 251a <test_hysteresis_value+0x32d>
    1d62:	7a 09                	jp     1d6d <test_array_apply+0x226>
    1d64:	0f 2e 05 b8 07 00 00 	ucomiss 0x7b8(%rip),%xmm0        # 2523 <test_hysteresis_value+0x336>
    1d6b:	74 1f                	je     1d8c <test_array_apply+0x245>
    1d6d:	41 b8 5b 01 00 00    	mov    $0x15b,%r8d
    1d73:	48 8d 05 49 00 00 00 	lea    0x49(%rip),%rax        # 1dc3 <test_array_apply+0x27c>
    1d7a:	48 89 c2             	mov    %rax,%rdx
    1d7d:	48 8d 05 5a 00 00 00 	lea    0x5a(%rip),%rax        # 1dde <test_array_apply+0x297>
    1d84:	48 89 c1             	mov    %rax,%rcx
    1d87:	e8 b7 e2 ff ff       	call   43 <printf>
    1d8c:	f3 0f 10 45 c8       	movss  -0x38(%rbp),%xmm0
    1d91:	0f 2e 05 ec 07 00 00 	ucomiss 0x7ec(%rip),%xmm0        # 2584 <test_hysteresis_value+0x397>
    1d98:	7a 09                	jp     1da3 <test_array_apply+0x25c>
    1d9a:	0f 2e 05 ec 07 00 00 	ucomiss 0x7ec(%rip),%xmm0        # 258d <test_hysteresis_value+0x3a0>
    1da1:	74 1f                	je     1dc2 <test_array_apply+0x27b>
    1da3:	41 b8 5c 01 00 00    	mov    $0x15c,%r8d
    1da9:	48 8d 05 49 00 00 00 	lea    0x49(%rip),%rax        # 1df9 <test_array_apply+0x2b2>
    1db0:	48 89 c2             	mov    %rax,%rdx
    1db3:	48 8d 05 5a 00 00 00 	lea    0x5a(%rip),%rax        # 1e14 <test_array_apply+0x2cd>
    1dba:	48 89 c1             	mov    %rax,%rcx
    1dbd:	e8 81 e2 ff ff       	call   43 <printf>
    1dc2:	f3 0f 10 45 cc       	movss  -0x34(%rbp),%xmm0
    1dc7:	0f 2e 05 f0 07 00 00 	ucomiss 0x7f0(%rip),%xmm0        # 25be <test_hysteresis_value+0x3d1>
    1dce:	7a 09                	jp     1dd9 <test_array_apply+0x292>
    1dd0:	0f 2e 05 f0 07 00 00 	ucomiss 0x7f0(%rip),%xmm0        # 25c7 <test_hysteresis_value+0x3da>
    1dd7:	74 1f                	je     1df8 <test_array_apply+0x2b1>
    1dd9:	41 b8 5d 01 00 00    	mov    $0x15d,%r8d
    1ddf:	48 8d 05 49 00 00 00 	lea    0x49(%rip),%rax        # 1e2f <test_array_apply+0x2e8>
    1de6:	48 89 c2             	mov    %rax,%rdx
    1de9:	48 8d 05 5a 00 00 00 	lea    0x5a(%rip),%rax        # 1e4a <test_array_linlogspace+0x15>
    1df0:	48 89 c1             	mov    %rax,%rcx
    1df3:	e8 4b e2 ff ff       	call   43 <printf>
    1df8:	f3 0f 10 45 d0       	movss  -0x30(%rbp),%xmm0
    1dfd:	66 0f ef c9          	pxor   %xmm1,%xmm1
    1e01:	0f 2e c1             	ucomiss %xmm1,%xmm0
    1e04:	7a 09                	jp     1e0f <test_array_apply+0x2c8>
    1e06:	66 0f ef c9          	pxor   %xmm1,%xmm1
    1e0a:	0f 2e c1             	ucomiss %xmm1,%xmm0
    1e0d:	74 1f                	je     1e2e <test_array_apply+0x2e7>
    1e0f:	41 b8 5e 01 00 00    	mov    $0x15e,%r8d
    1e15:	48 8d 05 49 00 00 00 	lea    0x49(%rip),%rax        # 1e65 <test_array_linlogspace+0x30>
    1e1c:	48 89 c2             	mov    %rax,%rdx
    1e1f:	48 8d 05 5a 00 00 00 	lea    0x5a(%rip),%rax        # 1e80 <test_array_linlogspace+0x4b>
    1e26:	48 89 c1             	mov    %rax,%rcx
    1e29:	e8 15 e2 ff ff       	call   43 <printf>
    1e2e:	90                   	nop
    1e2f:	48 83 ec 80          	sub    $0xffffffffffffff80,%rsp
    1e33:	5d                   	pop    %rbp
    1e34:	c3                   	ret

0000000000001e35 <test_array_linlogspace>:
    1e35:	55                   	push   %rbp
    1e36:	48 89 e5             	mov    %rsp,%rbp
    1e39:	48 83 ec 40          	sub    $0x40,%rsp
    1e3d:	48 8d 05 80 03 00 00 	lea    0x380(%rip),%rax        # 21c4 <test_array_linlogspace+0x38f>
    1e44:	48 89 c1             	mov    %rax,%rcx
    1e47:	e8 f7 e1 ff ff       	call   43 <printf>
    1e4c:	66 0f ef c0          	pxor   %xmm0,%xmm0
    1e50:	0f 11 45 e0          	movups %xmm0,-0x20(%rbp)
    1e54:	66 0f 7e 45 f0       	movd   %xmm0,-0x10(%rbp)
    1e59:	48 8d 45 e0          	lea    -0x20(%rbp),%rax
    1e5d:	f3 0f 10 1d f4 07 00 	movss  0x7f4(%rip),%xmm3        # 2659 <test_hysteresis_value+0x46c>
    1e64:	00 
    1e65:	f3 0f 10 15 ac 07 00 	movss  0x7ac(%rip),%xmm2        # 2619 <test_hysteresis_value+0x42c>
    1e6c:	00 
    1e6d:	ba 04 00 00 00       	mov    $0x4,%edx
    1e72:	48 89 c1             	mov    %rax,%rcx
    1e75:	e8 00 00 00 00       	call   1e7a <test_array_linlogspace+0x45>
    1e7a:	f3 0f 10 45 e0       	movss  -0x20(%rbp),%xmm0
    1e7f:	0f 2e 05 ac 07 00 00 	ucomiss 0x7ac(%rip),%xmm0        # 2632 <test_hysteresis_value+0x445>
    1e86:	7a 09                	jp     1e91 <test_array_linlogspace+0x5c>
    1e88:	0f 2e 05 ac 07 00 00 	ucomiss 0x7ac(%rip),%xmm0        # 263b <test_hysteresis_value+0x44e>
    1e8f:	74 1f                	je     1eb0 <test_array_linlogspace+0x7b>
    1e91:	41 b8 66 01 00 00    	mov    $0x166,%r8d
    1e97:	48 8d 05 49 00 00 00 	lea    0x49(%rip),%rax        # 1ee7 <test_array_linlogspace+0xb2>
    1e9e:	48 89 c2             	mov    %rax,%rdx
    1ea1:	48 8d 05 5a 00 00 00 	lea    0x5a(%rip),%rax        # 1f02 <test_array_linlogspace+0xcd>
    1ea8:	48 89 c1             	mov    %rax,%rcx
    1eab:	e8 93 e1 ff ff       	call   43 <printf>
    1eb0:	f3 0f 10 45 e4       	movss  -0x1c(%rbp),%xmm0
    1eb5:	0f 2e 05 f8 07 00 00 	ucomiss 0x7f8(%rip),%xmm0        # 26b4 <test_hysteresis_value+0x4c7>
    1ebc:	7a 09                	jp     1ec7 <test_array_linlogspace+0x92>
    1ebe:	0f 2e 05 f8 07 00 00 	ucomiss 0x7f8(%rip),%xmm0        # 26bd <test_hysteresis_value+0x4d0>
    1ec5:	74 1f                	je     1ee6 <test_array_linlogspace+0xb1>
    1ec7:	41 b8 67 01 00 00    	mov    $0x167,%r8d
    1ecd:	48 8d 05 49 00 00 00 	lea    0x49(%rip),%rax        # 1f1d <test_array_linlogspace+0xe8>
    1ed4:	48 89 c2             	mov    %rax,%rdx
    1ed7:	48 8d 05 5a 00 00 00 	lea    0x5a(%rip),%rax        # 1f38 <test_array_linlogspace+0x103>
    1ede:	48 89 c1             	mov    %rax,%rcx
    1ee1:	e8 5d e1 ff ff       	call   43 <printf>
    1ee6:	f3 0f 10 45 e8       	movss  -0x18(%rbp),%xmm0
    1eeb:	0f 2e 05 fc 07 00 00 	ucomiss 0x7fc(%rip),%xmm0        # 26ee <test_hysteresis_value+0x501>
    1ef2:	7a 09                	jp     1efd <test_array_linlogspace+0xc8>
    1ef4:	0f 2e 05 fc 07 00 00 	ucomiss 0x7fc(%rip),%xmm0        # 26f7 <test_hysteresis_value+0x50a>
    1efb:	74 1f                	je     1f1c <test_array_linlogspace+0xe7>
    1efd:	41 b8 68 01 00 00    	mov    $0x168,%r8d
    1f03:	48 8d 05 49 00 00 00 	lea    0x49(%rip),%rax        # 1f53 <test_array_linlogspace+0x11e>
    1f0a:	48 89 c2             	mov    %rax,%rdx
    1f0d:	48 8d 05 5a 00 00 00 	lea    0x5a(%rip),%rax        # 1f6e <test_array_linlogspace+0x139>
    1f14:	48 89 c1             	mov    %rax,%rcx
    1f17:	e8 27 e1 ff ff       	call   43 <printf>
    1f1c:	f3 0f 10 45 ec       	movss  -0x14(%rbp),%xmm0
    1f21:	0f 2e 05 f4 07 00 00 	ucomiss 0x7f4(%rip),%xmm0        # 271c <test_hysteresis_value+0x52f>
    1f28:	7a 09                	jp     1f33 <test_array_linlogspace+0xfe>
    1f2a:	0f 2e 05 f4 07 00 00 	ucomiss 0x7f4(%rip),%xmm0        # 2725 <test_hysteresis_value+0x538>
    1f31:	74 1f                	je     1f52 <test_array_linlogspace+0x11d>
    1f33:	41 b8 69 01 00 00    	mov    $0x169,%r8d
    1f39:	48 8d 05 49 00 00 00 	lea    0x49(%rip),%rax        # 1f89 <test_array_linlogspace+0x154>
    1f40:	48 89 c2             	mov    %rax,%rdx
    1f43:	48 8d 05 5a 00 00 00 	lea    0x5a(%rip),%rax        # 1fa4 <test_array_linlogspace+0x16f>
    1f4a:	48 89 c1             	mov    %rax,%rcx
    1f4d:	e8 f1 e0 ff ff       	call   43 <printf>
    1f52:	f3 0f 10 45 f0       	movss  -0x10(%rbp),%xmm0
    1f57:	66 0f ef c9          	pxor   %xmm1,%xmm1
    1f5b:	0f 2e c1             	ucomiss %xmm1,%xmm0
    1f5e:	7a 09                	jp     1f69 <test_array_linlogspace+0x134>
    1f60:	66 0f ef c9          	pxor   %xmm1,%xmm1
    1f64:	0f 2e c1             	ucomiss %xmm1,%xmm0
    1f67:	74 1f                	je     1f88 <test_array_linlogspace+0x153>
    1f69:	41 b8 6a 01 00 00    	mov    $0x16a,%r8d
    1f6f:	48 8d 05 49 00 00 00 	lea    0x49(%rip),%rax        # 1fbf <test_array_linlogspace+0x18a>
    1f76:	48 89 c2             	mov    %rax,%rdx
    1f79:	48 8d 05 5a 00 00 00 	lea    0x5a(%rip),%rax        # 1fda <test_array_linlogspace+0x1a5>
    1f80:	48 89 c1             	mov    %rax,%rcx
    1f83:	e8 bb e0 ff ff       	call   43 <printf>
    1f88:	48 8d 45 e0          	lea    -0x20(%rbp),%rax
    1f8c:	f3 0f 10 1d 00 08 00 	movss  0x800(%rip),%xmm3        # 2794 <test_hysteresis_value+0x5a7>
    1f93:	00 
    1f94:	f3 0f 10 15 ac 07 00 	movss  0x7ac(%rip),%xmm2        # 2748 <test_hysteresis_value+0x55b>
    1f9b:	00 
    1f9c:	ba 05 00 00 00       	mov    $0x5,%edx
    1fa1:	48 89 c1             	mov    %rax,%rcx
    1fa4:	e8 00 00 00 00       	call   1fa9 <test_array_linlogspace+0x174>
    1fa9:	f3 0f 10 45 e0       	movss  -0x20(%rbp),%xmm0
    1fae:	0f 2e 05 ac 07 00 00 	ucomiss 0x7ac(%rip),%xmm0        # 2761 <test_hysteresis_value+0x574>
    1fb5:	7a 09                	jp     1fc0 <test_array_linlogspace+0x18b>
    1fb7:	0f 2e 05 ac 07 00 00 	ucomiss 0x7ac(%rip),%xmm0        # 276a <test_hysteresis_value+0x57d>
    1fbe:	74 1f                	je     1fdf <test_array_linlogspace+0x1aa>
    1fc0:	41 b8 6c 01 00 00    	mov    $0x16c,%r8d
    1fc6:	48 8d 05 49 00 00 00 	lea    0x49(%rip),%rax        # 2016 <test_array_linlogspace+0x1e1>
    1fcd:	48 89 c2             	mov    %rax,%rdx
    1fd0:	48 8d 05 5a 00 00 00 	lea    0x5a(%rip),%rax        # 2031 <test_array_linlogspace+0x1fc>
    1fd7:	48 89 c1             	mov    %rax,%rcx
    1fda:	e8 64 e0 ff ff       	call   43 <printf>
    1fdf:	f3 0f 10 45 e4       	movss  -0x1c(%rbp),%xmm0
    1fe4:	0f 2e 05 f8 07 00 00 	ucomiss 0x7f8(%rip),%xmm0        # 27e3 <test_hysteresis_value+0x5f6>
    1feb:	7a 09                	jp     1ff6 <test_array_linlogspace+0x1c1>
    1fed:	0f 2e 05 f8 07 00 00 	ucomiss 0x7f8(%rip),%xmm0        # 27ec <test_hysteresis_value+0x5ff>
    1ff4:	74 1f                	je     2015 <test_array_linlogspace+0x1e0>
    1ff6:	41 b8 6d 01 00 00    	mov    $0x16d,%r8d
    1ffc:	48 8d 05 49 00 00 00 	lea    0x49(%rip),%rax        # 204c <test_array_linlogspace+0x217>
    2003:	48 89 c2             	mov    %rax,%rdx
    2006:	48 8d 05 5a 00 00 00 	lea    0x5a(%rip),%rax        # 2067 <test_array_linlogspace+0x232>
    200d:	48 89 c1             	mov    %rax,%rcx
    2010:	e8 2e e0 ff ff       	call   43 <printf>
    2015:	f3 0f 10 45 e8       	movss  -0x18(%rbp),%xmm0
    201a:	0f 2e 05 fc 07 00 00 	ucomiss 0x7fc(%rip),%xmm0        # 281d <test_hysteresis_value+0x630>
    2021:	7a 09                	jp     202c <test_array_linlogspace+0x1f7>
    2023:	0f 2e 05 fc 07 00 00 	ucomiss 0x7fc(%rip),%xmm0        # 2826 <test_hysteresis_value+0x639>
    202a:	74 1f                	je     204b <test_array_linlogspace+0x216>
    202c:	41 b8 6e 01 00 00    	mov    $0x16e,%r8d
    2032:	48 8d 05 49 00 00 00 	lea    0x49(%rip),%rax        # 2082 <test_array_linlogspace+0x24d>
    2039:	48 89 c2             	mov    %rax,%rdx
    203c:	48 8d 05 5a 00 00 00 	lea    0x5a(%rip),%rax        # 209d <test_array_linlogspace+0x268>
    2043:	48 89 c1             	mov    %rax,%rcx
    2046:	e8 f8 df ff ff       	call   43 <printf>
    204b:	f3 0f 10 45 ec       	movss  -0x14(%rbp),%xmm0
    2050:	0f 2e 05 f4 07 00 00 	ucomiss 0x7f4(%rip),%xmm0        # 284b <test_hysteresis_value+0x65e>
    2057:	7a 09                	jp     2062 <test_array_linlogspace+0x22d>
    2059:	0f 2e 05 f4 07 00 00 	ucomiss 0x7f4(%rip),%xmm0        # 2854 <test_hysteresis_value+0x667>
    2060:	74 1f                	je     2081 <test_array_linlogspace+0x24c>
    2062:	41 b8 6f 01 00 00    	mov    $0x16f,%r8d
    2068:	48 8d 05 49 00 00 00 	lea    0x49(%rip),%rax        # 20b8 <test_array_linlogspace+0x283>
    206f:	48 89 c2             	mov    %rax,%rdx
    2072:	48 8d 05 5a 00 00 00 	lea    0x5a(%rip),%rax        # 20d3 <test_array_linlogspace+0x29e>
    2079:	48 89 c1             	mov    %rax,%rcx
    207c:	e8 c2 df ff ff       	call   43 <printf>
    2081:	f3 0f 10 45 f0       	movss  -0x10(%rbp),%xmm0
    2086:	0f 2e 05 00 08 00 00 	ucomiss 0x800(%rip),%xmm0        # 288d <test_hysteresis_value+0x6a0>
    208d:	7a 09                	jp     2098 <test_array_linlogspace+0x263>
    208f:	0f 2e 05 00 08 00 00 	ucomiss 0x800(%rip),%xmm0        # 2896 <test_hysteresis_value+0x6a9>
    2096:	74 1f                	je     20b7 <test_array_linlogspace+0x282>
    2098:	41 b8 70 01 00 00    	mov    $0x170,%r8d
    209e:	48 8d 05 49 00 00 00 	lea    0x49(%rip),%rax        # 20ee <test_array_linlogspace+0x2b9>
    20a5:	48 89 c2             	mov    %rax,%rdx
    20a8:	48 8d 05 5a 00 00 00 	lea    0x5a(%rip),%rax        # 2109 <test_array_linlogspace+0x2d4>
    20af:	48 89 c1             	mov    %rax,%rcx
    20b2:	e8 8c df ff ff       	call   43 <printf>
    20b7:	48 8d 45 e0          	lea    -0x20(%rbp),%rax
    20bb:	f3 0f 10 1d 9c 07 00 	movss  0x79c(%rip),%xmm3        # 285f <test_hysteresis_value+0x672>
    20c2:	00 
    20c3:	f3 0f 10 15 a0 07 00 	movss  0x7a0(%rip),%xmm2        # 286b <test_hysteresis_value+0x67e>
    20ca:	00 
    20cb:	ba 05 00 00 00       	mov    $0x5,%edx
    20d0:	48 89 c1             	mov    %rax,%rcx
    20d3:	e8 00 00 00 00       	call   20d8 <test_array_linlogspace+0x2a3>
    20d8:	f3 0f 10 45 e0       	movss  -0x20(%rbp),%xmm0
    20dd:	0f 2e 05 ac 07 00 00 	ucomiss 0x7ac(%rip),%xmm0        # 2890 <test_hysteresis_value+0x6a3>
    20e4:	7a 09                	jp     20ef <test_array_linlogspace+0x2ba>
    20e6:	0f 2e 05 ac 07 00 00 	ucomiss 0x7ac(%rip),%xmm0        # 2899 <test_hysteresis_value+0x6ac>
    20ed:	74 1f                	je     210e <test_array_linlogspace+0x2d9>
    20ef:	41 b8 72 01 00 00    	mov    $0x172,%r8d
    20f5:	48 8d 05 49 00 00 00 	lea    0x49(%rip),%rax        # 2145 <test_array_linlogspace+0x310>
    20fc:	48 89 c2             	mov    %rax,%rdx
    20ff:	48 8d 05 5a 00 00 00 	lea    0x5a(%rip),%rax        # 2160 <test_array_linlogspace+0x32b>
    2106:	48 89 c1             	mov    %rax,%rcx
    2109:	e8 35 df ff ff       	call   43 <printf>
    210e:	f3 0f 10 45 e4       	movss  -0x1c(%rbp),%xmm0
    2113:	0f 2e 05 04 08 00 00 	ucomiss 0x804(%rip),%xmm0        # 291e <test_hysteresis_list+0x4d>
    211a:	7a 09                	jp     2125 <test_array_linlogspace+0x2f0>
    211c:	0f 2e 05 04 08 00 00 	ucomiss 0x804(%rip),%xmm0        # 2927 <test_hysteresis_list+0x56>
    2123:	74 1f                	je     2144 <test_array_linlogspace+0x30f>
    2125:	41 b8 73 01 00 00    	mov    $0x173,%r8d
    212b:	48 8d 05 49 00 00 00 	lea    0x49(%rip),%rax        # 217b <test_array_linlogspace+0x346>
    2132:	48 89 c2             	mov    %rax,%rdx
    2135:	48 8d 05 5a 00 00 00 	lea    0x5a(%rip),%rax        # 2196 <test_array_linlogspace+0x361>
    213c:	48 89 c1             	mov    %rax,%rcx
    213f:	e8 ff de ff ff       	call   43 <printf>
    2144:	f3 0f 10 45 e8       	movss  -0x18(%rbp),%xmm0
    2149:	0f 2e 05 08 08 00 00 	ucomiss 0x808(%rip),%xmm0        # 2958 <test_hysteresis_list+0x87>
    2150:	7a 09                	jp     215b <test_array_linlogspace+0x326>
    2152:	0f 2e 05 08 08 00 00 	ucomiss 0x808(%rip),%xmm0        # 2961 <test_hysteresis_list+0x90>
    2159:	74 1f                	je     217a <test_array_linlogspace+0x345>
    215b:	41 b8 74 01 00 00    	mov    $0x174,%r8d
    2161:	48 8d 05 49 00 00 00 	lea    0x49(%rip),%rax        # 21b1 <test_array_linlogspace+0x37c>
    2168:	48 89 c2             	mov    %rax,%rdx
    216b:	48 8d 05 5a 00 00 00 	lea    0x5a(%rip),%rax        # 21cc <test_array_linlogspace+0x397>
    2172:	48 89 c1             	mov    %rax,%rcx
    2175:	e8 c9 de ff ff       	call   43 <printf>
    217a:	f3 0f 10 45 ec       	movss  -0x14(%rbp),%xmm0
    217f:	0f 2e 05 0c 08 00 00 	ucomiss 0x80c(%rip),%xmm0        # 2992 <test_hysteresis_list+0xc1>
    2186:	7a 09                	jp     2191 <test_array_linlogspace+0x35c>
    2188:	0f 2e 05 0c 08 00 00 	ucomiss 0x80c(%rip),%xmm0        # 299b <test_hysteresis_list+0xca>
    218f:	74 1f                	je     21b0 <test_array_linlogspace+0x37b>
    2191:	41 b8 75 01 00 00    	mov    $0x175,%r8d
    2197:	48 8d 05 49 00 00 00 	lea    0x49(%rip),%rax        # 21e7 <test_array_linlogspace+0x3b2>
    219e:	48 89 c2             	mov    %rax,%rdx
    21a1:	48 8d 05 5a 00 00 00 	lea    0x5a(%rip),%rax        # 2202 <test_hysteresis_value+0x15>
    21a8:	48 89 c1             	mov    %rax,%rcx
    21ab:	e8 93 de ff ff       	call   43 <printf>
    21b0:	f3 0f 10 45 f0       	movss  -0x10(%rbp),%xmm0
    21b5:	0f 2e 05 10 08 00 00 	ucomiss 0x810(%rip),%xmm0        # 29cc <test_hysteresis_list+0xfb>
    21bc:	7a 09                	jp     21c7 <test_array_linlogspace+0x392>
    21be:	0f 2e 05 10 08 00 00 	ucomiss 0x810(%rip),%xmm0        # 29d5 <test_hysteresis_list+0x104>
    21c5:	74 1f                	je     21e6 <test_array_linlogspace+0x3b1>
    21c7:	41 b8 76 01 00 00    	mov    $0x176,%r8d
    21cd:	48 8d 05 49 00 00 00 	lea    0x49(%rip),%rax        # 221d <test_hysteresis_value+0x30>
    21d4:	48 89 c2             	mov    %rax,%rdx
    21d7:	48 8d 05 5a 00 00 00 	lea    0x5a(%rip),%rax        # 2238 <test_hysteresis_value+0x4b>
    21de:	48 89 c1             	mov    %rax,%rcx
    21e1:	e8 5d de ff ff       	call   43 <printf>
    21e6:	90                   	nop
    21e7:	48 83 c4 40          	add    $0x40,%rsp
    21eb:	5d                   	pop    %rbp
    21ec:	c3                   	ret

00000000000021ed <test_hysteresis_value>:
    21ed:	55                   	push   %rbp
    21ee:	48 89 e5             	mov    %rsp,%rbp
    21f1:	48 83 ec 40          	sub    $0x40,%rsp
    21f5:	48 8d 05 b0 03 00 00 	lea    0x3b0(%rip),%rax        # 25ac <test_hysteresis_value+0x3bf>
    21fc:	48 89 c1             	mov    %rax,%rcx
    21ff:	e8 3f de ff ff       	call   43 <printf>
    2204:	c6 45 f4 00          	movb   $0x0,-0xc(%rbp)
    2208:	f3 0f 10 05 a8 07 00 	movss  0x7a8(%rip),%xmm0        # 29b8 <test_hysteresis_list+0xe7>
    220f:	00 
    2210:	f3 0f 11 45 f8       	movss  %xmm0,-0x8(%rbp)
    2215:	f3 0f 10 05 a0 07 00 	movss  0x7a0(%rip),%xmm0        # 29bd <test_hysteresis_list+0xec>
    221c:	00 
    221d:	f3 0f 11 45 fc       	movss  %xmm0,-0x4(%rbp)
    2222:	48 8d 45 f4          	lea    -0xc(%rbp),%rax
    2226:	48 89 c1             	mov    %rax,%rcx
    2229:	e8 00 00 00 00       	call   222e <test_hysteresis_value+0x41>
    222e:	48 8d 45 f4          	lea    -0xc(%rbp),%rax
    2232:	f3 0f 10 0d bc 07 00 	movss  0x7bc(%rip),%xmm1        # 29f6 <test_hysteresis_list+0x125>
    2239:	00 
    223a:	48 89 c1             	mov    %rax,%rcx
    223d:	e8 00 00 00 00       	call   2242 <test_hysteresis_value+0x55>
    2242:	84 c0                	test   %al,%al
    2244:	74 1f                	je     2265 <test_hysteresis_value+0x78>
    2246:	41 b8 7e 01 00 00    	mov    $0x17e,%r8d
    224c:	48 8d 05 49 00 00 00 	lea    0x49(%rip),%rax        # 229c <test_hysteresis_value+0xaf>
    2253:	48 89 c2             	mov    %rax,%rdx
    2256:	48 8d 05 5a 00 00 00 	lea    0x5a(%rip),%rax        # 22b7 <test_hysteresis_value+0xca>
    225d:	48 89 c1             	mov    %rax,%rcx
    2260:	e8 de dd ff ff       	call   43 <printf>
    2265:	48 8d 45 f4          	lea    -0xc(%rbp),%rax
    2269:	f3 0f 10 0d bc 07 00 	movss  0x7bc(%rip),%xmm1        # 2a2d <test_hysteresis_list+0x15c>
    2270:	00 
    2271:	48 89 c1             	mov    %rax,%rcx
    2274:	e8 00 00 00 00       	call   2279 <test_hysteresis_value+0x8c>
    2279:	84 c0                	test   %al,%al
    227b:	74 1f                	je     229c <test_hysteresis_value+0xaf>
    227d:	41 b8 7f 01 00 00    	mov    $0x17f,%r8d
    2283:	48 8d 05 49 00 00 00 	lea    0x49(%rip),%rax        # 22d3 <test_hysteresis_value+0xe6>
    228a:	48 89 c2             	mov    %rax,%rdx
    228d:	48 8d 05 5a 00 00 00 	lea    0x5a(%rip),%rax        # 22ee <test_hysteresis_value+0x101>
    2294:	48 89 c1             	mov    %rax,%rcx
    2297:	e8 a7 dd ff ff       	call   43 <printf>
    229c:	48 8d 45 f4          	lea    -0xc(%rbp),%rax
    22a0:	f3 0f 10 0d a8 07 00 	movss  0x7a8(%rip),%xmm1        # 2a50 <test_hysteresis_list+0x17f>
    22a7:	00 
    22a8:	48 89 c1             	mov    %rax,%rcx
    22ab:	e8 00 00 00 00       	call   22b0 <test_hysteresis_value+0xc3>
    22b0:	84 c0                	test   %al,%al
    22b2:	74 1f                	je     22d3 <test_hysteresis_value+0xe6>
    22b4:	41 b8 80 01 00 00    	mov    $0x180,%r8d
    22ba:	48 8d 05 49 00 00 00 	lea    0x49(%rip),%rax        # 230a <test_hysteresis_value+0x11d>
    22c1:	48 89 c2             	mov    %rax,%rdx
    22c4:	48 8d 05 5a 00 00 00 	lea    0x5a(%rip),%rax        # 2325 <test_hysteresis_value+0x138>
    22cb:	48 89 c1             	mov    %rax,%rcx
    22ce:	e8 70 dd ff ff       	call   43 <printf>
    22d3:	48 8d 45 f4          	lea    -0xc(%rbp),%rax
    22d7:	66 0f ef c9          	pxor   %xmm1,%xmm1
    22db:	48 89 c1             	mov    %rax,%rcx
    22de:	e8 00 00 00 00       	call   22e3 <test_hysteresis_value+0xf6>
    22e3:	84 c0                	test   %al,%al
    22e5:	74 1f                	je     2306 <test_hysteresis_value+0x119>
    22e7:	41 b8 81 01 00 00    	mov    $0x181,%r8d
    22ed:	48 8d 05 49 00 00 00 	lea    0x49(%rip),%rax        # 233d <test_hysteresis_value+0x150>
    22f4:	48 89 c2             	mov    %rax,%rdx
    22f7:	48 8d 05 5a 00 00 00 	lea    0x5a(%rip),%rax        # 2358 <test_hysteresis_value+0x16b>
    22fe:	48 89 c1             	mov    %rax,%rcx
    2301:	e8 3d dd ff ff       	call   43 <printf>
    2306:	48 8d 45 f4          	lea    -0xc(%rbp),%rax
    230a:	f3 0f 10 0d a0 07 00 	movss  0x7a0(%rip),%xmm1        # 2ab2 <test_hysteresis_list+0x1e1>
    2311:	00 
    2312:	48 89 c1             	mov    %rax,%rcx
    2315:	e8 00 00 00 00       	call   231a <test_hysteresis_value+0x12d>
    231a:	84 c0                	test   %al,%al
    231c:	74 1f                	je     233d <test_hysteresis_value+0x150>
    231e:	41 b8 82 01 00 00    	mov    $0x182,%r8d
    2324:	48 8d 05 49 00 00 00 	lea    0x49(%rip),%rax        # 2374 <test_hysteresis_value+0x187>
    232b:	48 89 c2             	mov    %rax,%rdx
    232e:	48 8d 05 5a 00 00 00 	lea    0x5a(%rip),%rax        # 238f <test_hysteresis_value+0x1a2>
    2335:	48 89 c1             	mov    %rax,%rcx
    2338:	e8 06 dd ff ff       	call   43 <printf>
    233d:	48 8d 45 f4          	lea    -0xc(%rbp),%rax
    2341:	f3 0f 10 0d 9c 07 00 	movss  0x79c(%rip),%xmm1        # 2ae5 <test_hysteresis_list+0x214>
    2348:	00 
    2349:	48 89 c1             	mov    %rax,%rcx
    234c:	e8 00 00 00 00       	call   2351 <test_hysteresis_value+0x164>
    2351:	83 f0 01             	xor    $0x1,%eax
    2354:	84 c0                	test   %al,%al
    2356:	74 1f                	je     2377 <test_hysteresis_value+0x18a>
    2358:	41 b8 83 01 00 00    	mov    $0x183,%r8d
    235e:	48 8d 05 49 00 00 00 	lea    0x49(%rip),%rax        # 23ae <test_hysteresis_value+0x1c1>
    2365:	48 89 c2             	mov    %rax,%rdx
    2368:	48 8d 05 5a 00 00 00 	lea    0x5a(%rip),%rax        # 23c9 <test_hysteresis_value+0x1dc>
    236f:	48 89 c1             	mov    %rax,%rcx
    2372:	e8 cc dc ff ff       	call   43 <printf>
    2377:	48 8d 45 f4          	lea    -0xc(%rbp),%rax
    237b:	f3 0f 10 0d 9c 07 00 	movss  0x79c(%rip),%xmm1        # 2b1f <test_hysteresis_list+0x24e>
    2382:	00 
    2383:	48 89 c1             	mov    %rax,%rcx
    2386:	e8 00 00 00 00       	call   238b <test_hysteresis_value+0x19e>
    238b:	83 f0 01             	xor    $0x1,%eax
    238e:	84 c0                	test   %al,%al
    2390:	74 1f                	je     23b1 <test_hysteresis_value+0x1c4>
    2392:	41 b8 84 01 00 00    	mov    $0x184,%r8d
    2398:	48 8d 05 49 00 00 00 	lea    0x49(%rip),%rax        # 23e8 <test_hysteresis_value+0x1fb>
    239f:	48 89 c2             	mov    %rax,%rdx
    23a2:	48 8d 05 5a 00 00 00 	lea    0x5a(%rip),%rax        # 2403 <test_hysteresis_value+0x216>
    23a9:	48 89 c1             	mov    %rax,%rcx
    23ac:	e8 92 dc ff ff       	call   43 <printf>
    23b1:	48 8d 45 f4          	lea    -0xc(%rbp),%rax
    23b5:	f3 0f 10 0d a0 07 00 	movss  0x7a0(%rip),%xmm1        # 2b5d <test_hysteresis_list+0x28c>
    23bc:	00 
    23bd:	48 89 c1             	mov    %rax,%rcx
    23c0:	e8 00 00 00 00       	call   23c5 <test_hysteresis_value+0x1d8>
    23c5:	83 f0 01             	xor    $0x1,%eax
    23c8:	84 c0                	test   %al,%al
    23ca:	74 1f                	je     23eb <test_hysteresis_value+0x1fe>
    23cc:	41 b8 85 01 00 00    	mov    $0x185,%r8d
    23d2:	48 8d 05 49 00 00 00 	lea    0x49(%rip),%rax        # 2422 <test_hysteresis_value+0x235>
    23d9:	48 89 c2             	mov    %rax,%rdx
    23dc:	48 8d 05 5a 00 00 00 	lea    0x5a(%rip),%rax        # 243d <test_hysteresis_value+0x250>
    23e3:	48 89 c1             	mov    %rax,%rcx
    23e6:	e8 58 dc ff ff       	call   43 <printf>
    23eb:	48 8d 45 f4          	lea    -0xc(%rbp),%rax
    23ef:	66 0f ef c9          	pxor   %xmm1,%xmm1
    23f3:	48 89 c1             	mov    %rax,%rcx
    23f6:	e8 00 00 00 00       	call   23fb <test_hysteresis_value+0x20e>
    23fb:	83 f0 01             	xor    $0x1,%eax
    23fe:	84 c0                	test   %al,%al
    2400:	74 1f                	je     2421 <test_hysteresis_value+0x234>
    2402:	41 b8 86 01 00 00    	mov    $0x186,%r8d
    2408:	48 8d 05 49 00 00 00 	lea    0x49(%rip),%rax        # 2458 <test_hysteresis_value+0x26b>
    240f:	48 89 c2             	mov    %rax,%rdx
    2412:	48 8d 05 5a 00 00 00 	lea    0x5a(%rip),%rax        # 2473 <test_hysteresis_value+0x286>
    2419:	48 89 c1             	mov    %rax,%rcx
    241c:	e8 22 dc ff ff       	call   43 <printf>
    2421:	48 8d 45 f4          	lea    -0xc(%rbp),%rax
    2425:	f3 0f 10 0d a8 07 00 	movss  0x7a8(%rip),%xmm1        # 2bd5 <test_hysteresis_list+0x304>
    242c:	00 
    242d:	48 89 c1             	mov    %rax,%rcx
    2430:	e8 00 00 00 00       	call   2435 <test_hysteresis_value+0x248>
    2435:	83 f0 01             	xor    $0x1,%eax
    2438:	84 c0                	test   %al,%al
    243a:	74 1f                	je     245b <test_hysteresis_value+0x26e>
    243c:	41 b8 87 01 00 00    	mov    $0x187,%r8d
    2442:	48 8d 05 49 00 00 00 	lea    0x49(%rip),%rax        # 2492 <test_hysteresis_value+0x2a5>
    2449:	48 89 c2             	mov    %rax,%rdx
    244c:	48 8d 05 5a 00 00 00 	lea    0x5a(%rip),%rax        # 24ad <test_hysteresis_value+0x2c0>
    2453:	48 89 c1             	mov    %rax,%rcx
    2456:	e8 e8 db ff ff       	call   43 <printf>
    245b:	48 8d 45 f4          	lea    -0xc(%rbp),%rax
    245f:	f3 0f 10 0d bc 07 00 	movss  0x7bc(%rip),%xmm1        # 2c23 <test_hysteresis_list+0x352>
    2466:	00 
    2467:	48 89 c1             	mov    %rax,%rcx
    246a:	e8 00 00 00 00       	call   246f <test_hysteresis_value+0x282>
    246f:	84 c0                	test   %al,%al
    2471:	74 1f                	je     2492 <test_hysteresis_value+0x2a5>
    2473:	41 b8 88 01 00 00    	mov    $0x188,%r8d
    2479:	48 8d 05 49 00 00 00 	lea    0x49(%rip),%rax        # 24c9 <test_hysteresis_value+0x2dc>
    2480:	48 89 c2             	mov    %rax,%rdx
    2483:	48 8d 05 5a 00 00 00 	lea    0x5a(%rip),%rax        # 24e4 <test_hysteresis_value+0x2f7>
    248a:	48 89 c1             	mov    %rax,%rcx
    248d:	e8 b1 db ff ff       	call   43 <printf>
    2492:	48 8d 45 f4          	lea    -0xc(%rbp),%rax
    2496:	f3 0f 10 0d bc 07 00 	movss  0x7bc(%rip),%xmm1        # 2c5a <test_hysteresis_list+0x389>
    249d:	00 
    249e:	48 89 c1             	mov    %rax,%rcx
    24a1:	e8 00 00 00 00       	call   24a6 <test_hysteresis_value+0x2b9>
    24a6:	84 c0                	test   %al,%al
    24a8:	74 1f                	je     24c9 <test_hysteresis_value+0x2dc>
    24aa:	41 b8 89 01 00 00    	mov    $0x189,%r8d
    24b0:	48 8d 05 49 00 00 00 	lea    0x49(%rip),%rax        # 2500 <test_hysteresis_value+0x313>
    24b7:	48 89 c2             	mov    %rax,%rdx
    24ba:	48 8d 05 5a 00 00 00 	lea    0x5a(%rip),%rax        # 251b <test_hysteresis_value+0x32e>
    24c1:	48 89 c1             	mov    %rax,%rcx
    24c4:	e8 7a db ff ff       	call   43 <printf>
    24c9:	c6 45 e8 00          	movb   $0x0,-0x18(%rbp)
    24cd:	f3 0f 10 05 a8 07 00 	movss  0x7a8(%rip),%xmm0        # 2c7d <test_hysteresis_list+0x3ac>
    24d4:	00 
    24d5:	f3 0f 11 45 ec       	movss  %xmm0,-0x14(%rbp)
    24da:	f3 0f 10 05 a0 07 00 	movss  0x7a0(%rip),%xmm0        # 2c82 <test_hysteresis_list+0x3b1>
    24e1:	00 
    24e2:	f3 0f 11 45 f0       	movss  %xmm0,-0x10(%rbp)
    24e7:	f3 0f 10 4d f0       	movss  -0x10(%rbp),%xmm1
    24ec:	f3 0f 10 05 bc 07 00 	movss  0x7bc(%rip),%xmm0        # 2cb0 <test_hysteresis_list+0x3df>
    24f3:	00 
    24f4:	0f 2f c1             	comiss %xmm1,%xmm0
    24f7:	76 06                	jbe    24ff <test_hysteresis_value+0x312>
    24f9:	c6 45 e8 01          	movb   $0x1,-0x18(%rbp)
    24fd:	eb 12                	jmp    2511 <test_hysteresis_value+0x324>
    24ff:	f3 0f 10 45 ec       	movss  -0x14(%rbp),%xmm0
    2504:	0f 2f 05 bc 07 00 00 	comiss 0x7bc(%rip),%xmm0        # 2cc7 <test_debounce+0x5>
    250b:	76 04                	jbe    2511 <test_hysteresis_value+0x324>
    250d:	c6 45 e8 00          	movb   $0x0,-0x18(%rbp)
    2511:	0f b6 45 e8          	movzbl -0x18(%rbp),%eax
    2515:	84 c0                	test   %al,%al
    2517:	74 1f                	je     2538 <test_hysteresis_value+0x34b>
    2519:	41 b8 8e 01 00 00    	mov    $0x18e,%r8d
    251f:	48 8d 05 49 00 00 00 	lea    0x49(%rip),%rax        # 256f <test_hysteresis_value+0x382>
    2526:	48 89 c2             	mov    %rax,%rdx
    2529:	48 8d 05 5a 00 00 00 	lea    0x5a(%rip),%rax        # 258a <test_hysteresis_value+0x39d>
    2530:	48 89 c1             	mov    %rax,%rcx
    2533:	e8 0b db ff ff       	call   43 <printf>
    2538:	f3 0f 10 4d f0       	movss  -0x10(%rbp),%xmm1
    253d:	f3 0f 10 05 bc 07 00 	movss  0x7bc(%rip),%xmm0        # 2d01 <test_debounce+0x3f>
    2544:	00 
    2545:	0f 2f c1             	comiss %xmm1,%xmm0
    2548:	76 06                	jbe    2550 <test_hysteresis_value+0x363>
    254a:	c6 45 e8 01          	movb   $0x1,-0x18(%rbp)
    254e:	eb 12                	jmp    2562 <test_hysteresis_value+0x375>
    2550:	f3 0f 10 45 ec       	movss  -0x14(%rbp),%xmm0
    2555:	0f 2f 05 bc 07 00 00 	comiss 0x7bc(%rip),%xmm0        # 2d18 <test_debounce+0x56>
    255c:	76 04                	jbe    2562 <test_hysteresis_value+0x375>
    255e:	c6 45 e8 00          	movb   $0x0,-0x18(%rbp)
    2562:	0f b6 45 e8          	movzbl -0x18(%rbp),%eax
    2566:	84 c0                	test   %al,%al
    2568:	74 1f                	je     2589 <test_hysteresis_value+0x39c>
    256a:	41 b8 90 01 00 00    	mov    $0x190,%r8d
    2570:	48 8d 05 49 00 00 00 	lea    0x49(%rip),%rax        # 25c0 <test_hysteresis_value+0x3d3>
    2577:	48 89 c2             	mov    %rax,%rdx
    257a:	48 8d 05 5a 00 00 00 	lea    0x5a(%rip),%rax        # 25db <test_hysteresis_value+0x3ee>
    2581:	48 89 c1             	mov    %rax,%rcx
    2584:	e8 ba da ff ff       	call   43 <printf>
    2589:	f3 0f 10 4d f0       	movss  -0x10(%rbp),%xmm1
    258e:	f3 0f 10 05 a8 07 00 	movss  0x7a8(%rip),%xmm0        # 2d3e <test_debounce+0x7c>
    2595:	00 
    2596:	0f 2f c1             	comiss %xmm1,%xmm0
    2599:	76 06                	jbe    25a1 <test_hysteresis_value+0x3b4>
    259b:	c6 45 e8 01          	movb   $0x1,-0x18(%rbp)
    259f:	eb 16                	jmp    25b7 <test_hysteresis_value+0x3ca>
    25a1:	f3 0f 10 45 ec       	movss  -0x14(%rbp),%xmm0
    25a6:	f3 0f 10 0d a8 07 00 	movss  0x7a8(%rip),%xmm1        # 2d56 <test_debounce+0x94>
    25ad:	00 
    25ae:	0f 2f c1             	comiss %xmm1,%xmm0
    25b1:	76 04                	jbe    25b7 <test_hysteresis_value+0x3ca>
    25b3:	c6 45 e8 00          	movb   $0x0,-0x18(%rbp)
    25b7:	0f b6 45 e8          	movzbl -0x18(%rbp),%eax
    25bb:	84 c0                	test   %al,%al
    25bd:	74 1f                	je     25de <test_hysteresis_value+0x3f1>
    25bf:	41 b8 92 01 00 00    	mov    $0x192,%r8d
    25c5:	48 8d 05 49 00 00 00 	lea    0x49(%rip),%rax        # 2615 <test_hysteresis_value+0x428>
    25cc:	48 89 c2             	mov    %rax,%rdx
    25cf:	48 8d 05 5a 00 00 00 	lea    0x5a(%rip),%rax        # 2630 <test_hysteresis_value+0x443>
    25d6:	48 89 c1             	mov    %rax,%rcx
    25d9:	e8 65 da ff ff       	call   43 <printf>
    25de:	f3 0f 10 4d f0       	movss  -0x10(%rbp),%xmm1
    25e3:	66 0f ef c0          	pxor   %xmm0,%xmm0
    25e7:	0f 2f c1             	comiss %xmm1,%xmm0
    25ea:	76 06                	jbe    25f2 <test_hysteresis_value+0x405>
    25ec:	c6 45 e8 01          	movb   $0x1,-0x18(%rbp)
    25f0:	eb 12                	jmp    2604 <test_hysteresis_value+0x417>
    25f2:	f3 0f 10 45 ec       	movss  -0x14(%rbp),%xmm0
    25f7:	66 0f ef c9          	pxor   %xmm1,%xmm1
    25fb:	0f 2f c1             	comiss %xmm1,%xmm0
    25fe:	76 04                	jbe    2604 <test_hysteresis_value+0x417>
    2600:	c6 45 e8 00          	movb   $0x0,-0x18(%rbp)
    2604:	0f b6 45 e8          	movzbl -0x18(%rbp),%eax
    2608:	84 c0                	test   %al,%al
    260a:	74 1f                	je     262b <test_hysteresis_value+0x43e>
    260c:	41 b8 94 01 00 00    	mov    $0x194,%r8d
    2612:	48 8d 05 49 00 00 00 	lea    0x49(%rip),%rax        # 2662 <test_hysteresis_value+0x475>
    2619:	48 89 c2             	mov    %rax,%rdx
    261c:	48 8d 05 5a 00 00 00 	lea    0x5a(%rip),%rax        # 267d <test_hysteresis_value+0x490>
    2623:	48 89 c1             	mov    %rax,%rcx
    2626:	e8 18 da ff ff       	call   43 <printf>
    262b:	f3 0f 10 4d f0       	movss  -0x10(%rbp),%xmm1
    2630:	f3 0f 10 05 a0 07 00 	movss  0x7a0(%rip),%xmm0        # 2dd8 <test_debounce+0x116>
    2637:	00 
    2638:	0f 2f c1             	comiss %xmm1,%xmm0
    263b:	76 06                	jbe    2643 <test_hysteresis_value+0x456>
    263d:	c6 45 e8 01          	movb   $0x1,-0x18(%rbp)
    2641:	eb 16                	jmp    2659 <test_hysteresis_value+0x46c>
    2643:	f3 0f 10 45 ec       	movss  -0x14(%rbp),%xmm0
    2648:	f3 0f 10 0d a0 07 00 	movss  0x7a0(%rip),%xmm1        # 2df0 <test_debounce+0x12e>
    264f:	00 
    2650:	0f 2f c1             	comiss %xmm1,%xmm0
    2653:	76 04                	jbe    2659 <test_hysteresis_value+0x46c>
    2655:	c6 45 e8 00          	movb   $0x0,-0x18(%rbp)
    2659:	0f b6 45 e8          	movzbl -0x18(%rbp),%eax
    265d:	84 c0                	test   %al,%al
    265f:	74 1f                	je     2680 <test_hysteresis_value+0x493>
    2661:	41 b8 96 01 00 00    	mov    $0x196,%r8d
    2667:	48 8d 05 49 00 00 00 	lea    0x49(%rip),%rax        # 26b7 <test_hysteresis_value+0x4ca>
    266e:	48 89 c2             	mov    %rax,%rdx
    2671:	48 8d 05 5a 00 00 00 	lea    0x5a(%rip),%rax        # 26d2 <test_hysteresis_value+0x4e5>
    2678:	48 89 c1             	mov    %rax,%rcx
    267b:	e8 c3 d9 ff ff       	call   43 <printf>
    2680:	f3 0f 10 4d f0       	movss  -0x10(%rbp),%xmm1
    2685:	f3 0f 10 05 9c 07 00 	movss  0x79c(%rip),%xmm0        # 2e29 <test_debounce+0x167>
    268c:	00 
    268d:	0f 2f c1             	comiss %xmm1,%xmm0
    2690:	76 06                	jbe    2698 <test_hysteresis_value+0x4ab>
    2692:	c6 45 e8 01          	movb   $0x1,-0x18(%rbp)
    2696:	eb 12                	jmp    26aa <test_hysteresis_value+0x4bd>
    2698:	f3 0f 10 45 ec       	movss  -0x14(%rbp),%xmm0
    269d:	0f 2f 05 9c 07 00 00 	comiss 0x79c(%rip),%xmm0        # 2e40 <test_debounce+0x17e>
    26a4:	76 04                	jbe    26aa <test_hysteresis_value+0x4bd>
    26a6:	c6 45 e8 00          	movb   $0x0,-0x18(%rbp)
    26aa:	0f b6 45 e8          	movzbl -0x18(%rbp),%eax
    26ae:	83 f0 01             	xor    $0x1,%eax
    26b1:	84 c0                	test   %al,%al
    26b3:	74 1f                	je     26d4 <test_hysteresis_value+0x4e7>
    26b5:	41 b8 98 01 00 00    	mov    $0x198,%r8d
    26bb:	48 8d 05 49 00 00 00 	lea    0x49(%rip),%rax        # 270b <test_hysteresis_value+0x51e>
    26c2:	48 89 c2             	mov    %rax,%rdx
    26c5:	48 8d 05 5a 00 00 00 	lea    0x5a(%rip),%rax        # 2726 <test_hysteresis_value+0x539>
    26cc:	48 89 c1             	mov    %rax,%rcx
    26cf:	e8 6f d9 ff ff       	call   43 <printf>
    26d4:	f3 0f 10 4d f0       	movss  -0x10(%rbp),%xmm1
    26d9:	f3 0f 10 05 9c 07 00 	movss  0x79c(%rip),%xmm0        # 2e7d <test_debounce+0x1bb>
    26e0:	00 
    26e1:	0f 2f c1             	comiss %xmm1,%xmm0
    26e4:	76 06                	jbe    26ec <test_hysteresis_value+0x4ff>
    26e6:	c6 45 e8 01          	movb   $0x1,-0x18(%rbp)
    26ea:	eb 12                	jmp    26fe <test_hysteresis_value+0x511>
    26ec:	f3 0f 10 45 ec       	movss  -0x14(%rbp),%xmm0
    26f1:	0f 2f 05 9c 07 00 00 	comiss 0x79c(%rip),%xmm0        # 2e94 <test_debounce+0x1d2>
    26f8:	76 04                	jbe    26fe <test_hysteresis_value+0x511>
    26fa:	c6 45 e8 00          	movb   $0x0,-0x18(%rbp)
    26fe:	0f b6 45 e8          	movzbl -0x18(%rbp),%eax
    2702:	83 f0 01             	xor    $0x1,%eax
    2705:	84 c0                	test   %al,%al
    2707:	74 1f                	je     2728 <test_hysteresis_value+0x53b>
    2709:	41 b8 9a 01 00 00    	mov    $0x19a,%r8d
    270f:	48 8d 05 49 00 00 00 	lea    0x49(%rip),%rax        # 275f <test_hysteresis_value+0x572>
    2716:	48 89 c2             	mov    %rax,%rdx
    2719:	48 8d 05 5a 00 00 00 	lea    0x5a(%rip),%rax        # 277a <test_hysteresis_value+0x58d>
    2720:	48 89 c1             	mov    %rax,%rcx
    2723:	e8 1b d9 ff ff       	call   43 <printf>
    2728:	f3 0f 10 4d f0       	movss  -0x10(%rbp),%xmm1
    272d:	f3 0f 10 05 a0 07 00 	movss  0x7a0(%rip),%xmm0        # 2ed5 <test_debounce+0x213>
    2734:	00 
    2735:	0f 2f c1             	comiss %xmm1,%xmm0
    2738:	76 06                	jbe    2740 <test_hysteresis_value+0x553>
    273a:	c6 45 e8 01          	movb   $0x1,-0x18(%rbp)
    273e:	eb 16                	jmp    2756 <test_hysteresis_value+0x569>
    2740:	f3 0f 10 45 ec       	movss  -0x14(%rbp),%xmm0
    2745:	f3 0f 10 0d a0 07 00 	movss  0x7a0(%rip),%xmm1        # 2eed <test_debounce+0x22b>
    274c:	00 
    274d:	0f 2f c1             	comiss %xmm1,%xmm0
    2750:	76 04                	jbe    2756 <test_hysteresis_value+0x569>
    2752:	c6 45 e8 00          	movb   $0x0,-0x18(%rbp)
    2756:	0f b6 45 e8          	movzbl -0x18(%rbp),%eax
    275a:	83 f0 01             	xor    $0x1,%eax
    275d:	84 c0                	test   %al,%al
    275f:	74 1f                	je     2780 <test_hysteresis_value+0x593>
    2761:	41 b8 9c 01 00 00    	mov    $0x19c,%r8d
    2767:	48 8d 05 49 00 00 00 	lea    0x49(%rip),%rax        # 27b7 <test_hysteresis_value+0x5ca>
    276e:	48 89 c2             	mov    %rax,%rdx
    2771:	48 8d 05 5a 00 00 00 	lea    0x5a(%rip),%rax        # 27d2 <test_hysteresis_value+0x5e5>
    2778:	48 89 c1             	mov    %rax,%rcx
    277b:	e8 c3 d8 ff ff       	call   43 <printf>
    2780:	f3 0f 10 4d f0       	movss  -0x10(%rbp),%xmm1
    2785:	66 0f ef c0          	pxor   %xmm0,%xmm0
    2789:	0f 2f c1             	comiss %xmm1,%xmm0
    278c:	76 06                	jbe    2794 <test_hysteresis_value+0x5a7>
    278e:	c6 45 e8 01          	movb   $0x1,-0x18(%rbp)
    2792:	eb 12                	jmp    27a6 <test_hysteresis_value+0x5b9>
    2794:	f3 0f 10 45 ec       	movss  -0x14(%rbp),%xmm0
    2799:	66 0f ef c9          	pxor   %xmm1,%xmm1
    279d:	0f 2f c1             	comiss %xmm1,%xmm0
    27a0:	76 04                	jbe    27a6 <test_hysteresis_value+0x5b9>
    27a2:	c6 45 e8 00          	movb   $0x0,-0x18(%rbp)
    27a6:	0f b6 45 e8          	movzbl -0x18(%rbp),%eax
    27aa:	83 f0 01             	xor    $0x1,%eax
    27ad:	84 c0                	test   %al,%al
    27af:	74 1f                	je     27d0 <test_hysteresis_value+0x5e3>
    27b1:	41 b8 9e 01 00 00    	mov    $0x19e,%r8d
    27b7:	48 8d 05 49 00 00 00 	lea    0x49(%rip),%rax        # 2807 <test_hysteresis_value+0x61a>
    27be:	48 89 c2             	mov    %rax,%rdx
    27c1:	48 8d 05 5a 00 00 00 	lea    0x5a(%rip),%rax        # 2822 <test_hysteresis_value+0x635>
    27c8:	48 89 c1             	mov    %rax,%rcx
    27cb:	e8 73 d8 ff ff       	call   43 <printf>
    27d0:	f3 0f 10 4d f0       	movss  -0x10(%rbp),%xmm1
    27d5:	f3 0f 10 05 a8 07 00 	movss  0x7a8(%rip),%xmm0        # 2f85 <test_debounce+0x2c3>
    27dc:	00 
    27dd:	0f 2f c1             	comiss %xmm1,%xmm0
    27e0:	76 06                	jbe    27e8 <test_hysteresis_value+0x5fb>
    27e2:	c6 45 e8 01          	movb   $0x1,-0x18(%rbp)
    27e6:	eb 16                	jmp    27fe <test_hysteresis_value+0x611>
    27e8:	f3 0f 10 45 ec       	movss  -0x14(%rbp),%xmm0
    27ed:	f3 0f 10 0d a8 07 00 	movss  0x7a8(%rip),%xmm1        # 2f9d <test_debounce+0x2db>
    27f4:	00 
    27f5:	0f 2f c1             	comiss %xmm1,%xmm0
    27f8:	76 04                	jbe    27fe <test_hysteresis_value+0x611>
    27fa:	c6 45 e8 00          	movb   $0x0,-0x18(%rbp)
    27fe:	0f b6 45 e8          	movzbl -0x18(%rbp),%eax
    2802:	83 f0 01             	xor    $0x1,%eax
    2805:	84 c0                	test   %al,%al
    2807:	74 1f                	je     2828 <test_hysteresis_value+0x63b>
    2809:	41 b8 a0 01 00 00    	mov    $0x1a0,%r8d
    280f:	48 8d 05 49 00 00 00 	lea    0x49(%rip),%rax        # 285f <test_hysteresis_value+0x672>
    2816:	48 89 c2             	mov    %rax,%rdx
    2819:	48 8d 05 5a 00 00 00 	lea    0x5a(%rip),%rax        # 287a <test_hysteresis_value+0x68d>
    2820:	48 89 c1             	mov    %rax,%rcx
    2823:	e8 1b d8 ff ff       	call   43 <printf>
    2828:	f3 0f 10 4d f0       	movss  -0x10(%rbp),%xmm1
    282d:	f3 0f 10 05 bc 07 00 	movss  0x7bc(%rip),%xmm0        # 2ff1 <test_debounce+0x32f>
    2834:	00 
    2835:	0f 2f c1             	comiss %xmm1,%xmm0
    2838:	76 06                	jbe    2840 <test_hysteresis_value+0x653>
    283a:	c6 45 e8 01          	movb   $0x1,-0x18(%rbp)
    283e:	eb 12                	jmp    2852 <test_hysteresis_value+0x665>
    2840:	f3 0f 10 45 ec       	movss  -0x14(%rbp),%xmm0
    2845:	0f 2f 05 bc 07 00 00 	comiss 0x7bc(%rip),%xmm0        # 3008 <test_debounce+0x346>
    284c:	76 04                	jbe    2852 <test_hysteresis_value+0x665>
    284e:	c6 45 e8 00          	movb   $0x0,-0x18(%rbp)
    2852:	0f b6 45 e8          	movzbl -0x18(%rbp),%eax
    2856:	84 c0                	test   %al,%al
    2858:	74 1f                	je     2879 <test_hysteresis_value+0x68c>
    285a:	41 b8 a2 01 00 00    	mov    $0x1a2,%r8d
    2860:	48 8d 05 49 00 00 00 	lea    0x49(%rip),%rax        # 28b0 <test_hysteresis_value+0x6c3>
    2867:	48 89 c2             	mov    %rax,%rdx
    286a:	48 8d 05 5a 00 00 00 	lea    0x5a(%rip),%rax        # 28cb <test_hysteresis_value+0x6de>
    2871:	48 89 c1             	mov    %rax,%rcx
    2874:	e8 ca d7 ff ff       	call   43 <printf>
    2879:	f3 0f 10 4d f0       	movss  -0x10(%rbp),%xmm1
    287e:	f3 0f 10 05 bc 07 00 	movss  0x7bc(%rip),%xmm0        # 3042 <test_debounce+0x380>
    2885:	00 
    2886:	0f 2f c1             	comiss %xmm1,%xmm0
    2889:	76 06                	jbe    2891 <test_hysteresis_value+0x6a4>
    288b:	c6 45 e8 01          	movb   $0x1,-0x18(%rbp)
    288f:	eb 12                	jmp    28a3 <test_hysteresis_value+0x6b6>
    2891:	f3 0f 10 45 ec       	movss  -0x14(%rbp),%xmm0
    2896:	0f 2f 05 bc 07 00 00 	comiss 0x7bc(%rip),%xmm0        # 3059 <test_debounce+0x397>
    289d:	76 04                	jbe    28a3 <test_hysteresis_value+0x6b6>
    289f:	c6 45 e8 00          	movb   $0x0,-0x18(%rbp)
    28a3:	0f b6 45 e8          	movzbl -0x18(%rbp),%eax
    28a7:	84 c0                	test   %al,%al
    28a9:	74 1f                	je     28ca <test_hysteresis_value+0x6dd>
    28ab:	41 b8 a4 01 00 00    	mov    $0x1a4,%r8d
    28b1:	48 8d 05 49 00 00 00 	lea    0x49(%rip),%rax        # 2901 <test_hysteresis_list+0x30>
    28b8:	48 89 c2             	mov    %rax,%rdx
    28bb:	48 8d 05 5a 00 00 00 	lea    0x5a(%rip),%rax        # 291c <test_hysteresis_list+0x4b>
    28c2:	48 89 c1             	mov    %rax,%rcx
    28c5:	e8 79 d7 ff ff       	call   43 <printf>
    28ca:	90                   	nop
    28cb:	48 83 c4 40          	add    $0x40,%rsp
    28cf:	5d                   	pop    %rbp
    28d0:	c3                   	ret

00000000000028d1 <test_hysteresis_list>:
    28d1:	55                   	push   %rbp
    28d2:	48 89 e5             	mov    %rsp,%rbp
    28d5:	48 83 ec 60          	sub    $0x60,%rsp
    28d9:	48 8d 05 d8 03 00 00 	lea    0x3d8(%rip),%rax        # 2cb8 <test_hysteresis_list+0x3e7>
    28e0:	48 89 c1             	mov    %rax,%rcx
    28e3:	e8 5b d7 ff ff       	call   43 <printf>
    28e8:	66 0f ef c0          	pxor   %xmm0,%xmm0
    28ec:	f3 0f 11 45 f0       	movss  %xmm0,-0x10(%rbp)
    28f1:	f3 0f 10 05 14 08 00 	movss  0x814(%rip),%xmm0        # 310d <test_debounce+0x44b>
    28f8:	00 
    28f9:	f3 0f 11 45 f4       	movss  %xmm0,-0xc(%rbp)
    28fe:	f3 0f 10 05 18 08 00 	movss  0x818(%rip),%xmm0        # 311e <test_debounce+0x45c>
    2905:	00 
    2906:	f3 0f 11 45 f8       	movss  %xmm0,-0x8(%rbp)
    290b:	f3 0f 10 05 1c 08 00 	movss  0x81c(%rip),%xmm0        # 312f <test_debounce+0x46d>
    2912:	00 
    2913:	f3 0f 11 45 fc       	movss  %xmm0,-0x4(%rbp)
    2918:	f3 0f 10 05 20 08 00 	movss  0x820(%rip),%xmm0        # 3140 <test_debounce+0x47e>
    291f:	00 
    2920:	f3 0f 11 45 e0       	movss  %xmm0,-0x20(%rbp)
    2925:	f3 0f 10 05 24 08 00 	movss  0x824(%rip),%xmm0        # 3151 <test_debounce+0x48f>
    292c:	00 
    292d:	f3 0f 11 45 e4       	movss  %xmm0,-0x1c(%rbp)
    2932:	f3 0f 10 05 28 08 00 	movss  0x828(%rip),%xmm0        # 3162 <test_debounce+0x4a0>
    2939:	00 
    293a:	f3 0f 11 45 e8       	movss  %xmm0,-0x18(%rbp)
    293f:	f3 0f 10 05 b8 07 00 	movss  0x7b8(%rip),%xmm0        # 30ff <test_debounce+0x43d>
    2946:	00 
    2947:	f3 0f 11 45 ec       	movss  %xmm0,-0x14(%rbp)
    294c:	66 c7 45 c0 00 00    	movw   $0x0,-0x40(%rbp)
    2952:	48 8d 45 e0          	lea    -0x20(%rbp),%rax
    2956:	48 89 45 c8          	mov    %rax,-0x38(%rbp)
    295a:	48 8d 45 f0          	lea    -0x10(%rbp),%rax
    295e:	48 89 45 d0          	mov    %rax,-0x30(%rbp)
    2962:	66 c7 45 d8 04 00    	movw   $0x4,-0x28(%rbp)
    2968:	48 8d 45 c0          	lea    -0x40(%rbp),%rax
    296c:	48 89 c1             	mov    %rax,%rcx
    296f:	e8 00 00 00 00       	call   2974 <test_hysteresis_list+0xa3>
    2974:	48 8d 45 c0          	lea    -0x40(%rbp),%rax
    2978:	66 0f ef c9          	pxor   %xmm1,%xmm1
    297c:	48 89 c1             	mov    %rax,%rcx
    297f:	e8 00 00 00 00       	call   2984 <test_hysteresis_list+0xb3>
    2984:	66 85 c0             	test   %ax,%ax
    2987:	74 1f                	je     29a8 <test_hysteresis_list+0xd7>
    2989:	41 b8 b1 01 00 00    	mov    $0x1b1,%r8d
    298f:	48 8d 05 49 00 00 00 	lea    0x49(%rip),%rax        # 29df <test_hysteresis_list+0x10e>
    2996:	48 89 c2             	mov    %rax,%rdx
    2999:	48 8d 05 5a 00 00 00 	lea    0x5a(%rip),%rax        # 29fa <test_hysteresis_list+0x129>
    29a0:	48 89 c1             	mov    %rax,%rcx
    29a3:	e8 9b d6 ff ff       	call   43 <printf>
    29a8:	48 8d 45 c0          	lea    -0x40(%rbp),%rax
    29ac:	f3 0f 10 0d a0 07 00 	movss  0x7a0(%rip),%xmm1        # 3154 <test_debounce+0x492>
    29b3:	00 
    29b4:	48 89 c1             	mov    %rax,%rcx
    29b7:	e8 00 00 00 00       	call   29bc <test_hysteresis_list+0xeb>
    29bc:	66 85 c0             	test   %ax,%ax
    29bf:	74 1f                	je     29e0 <test_hysteresis_list+0x10f>
    29c1:	41 b8 b2 01 00 00    	mov    $0x1b2,%r8d
    29c7:	48 8d 05 49 00 00 00 	lea    0x49(%rip),%rax        # 2a17 <test_hysteresis_list+0x146>
    29ce:	48 89 c2             	mov    %rax,%rdx
    29d1:	48 8d 05 5a 00 00 00 	lea    0x5a(%rip),%rax        # 2a32 <test_hysteresis_list+0x161>
    29d8:	48 89 c1             	mov    %rax,%rcx
    29db:	e8 63 d6 ff ff       	call   43 <printf>
    29e0:	48 8d 45 c0          	lea    -0x40(%rbp),%rax
    29e4:	f3 0f 10 0d 2c 08 00 	movss  0x82c(%rip),%xmm1        # 3218 <test_debounce+0x556>
    29eb:	00 
    29ec:	48 89 c1             	mov    %rax,%rcx
    29ef:	e8 00 00 00 00       	call   29f4 <test_hysteresis_list+0x123>
    29f4:	66 83 f8 01          	cmp    $0x1,%ax
    29f8:	74 1f                	je     2a19 <test_hysteresis_list+0x148>
    29fa:	41 b8 b3 01 00 00    	mov    $0x1b3,%r8d
    2a00:	48 8d 05 49 00 00 00 	lea    0x49(%rip),%rax        # 2a50 <test_hysteresis_list+0x17f>
    2a07:	48 89 c2             	mov    %rax,%rdx
    2a0a:	48 8d 05 5a 00 00 00 	lea    0x5a(%rip),%rax        # 2a6b <test_hysteresis_list+0x19a>
    2a11:	48 89 c1             	mov    %rax,%rcx
    2a14:	e8 2a d6 ff ff       	call   43 <printf>
    2a19:	48 8d 45 c0          	lea    -0x40(%rbp),%rax
    2a1d:	f3 0f 10 0d a0 07 00 	movss  0x7a0(%rip),%xmm1        # 31c5 <test_debounce+0x503>
    2a24:	00 
    2a25:	48 89 c1             	mov    %rax,%rcx
    2a28:	e8 00 00 00 00       	call   2a2d <test_hysteresis_list+0x15c>
    2a2d:	66 83 f8 01          	cmp    $0x1,%ax
    2a31:	74 1f                	je     2a52 <test_hysteresis_list+0x181>
    2a33:	41 b8 b4 01 00 00    	mov    $0x1b4,%r8d
    2a39:	48 8d 05 49 00 00 00 	lea    0x49(%rip),%rax        # 2a89 <test_hysteresis_list+0x1b8>
    2a40:	48 89 c2             	mov    %rax,%rdx
    2a43:	48 8d 05 5a 00 00 00 	lea    0x5a(%rip),%rax        # 2aa4 <test_hysteresis_list+0x1d3>
    2a4a:	48 89 c1             	mov    %rax,%rcx
    2a4d:	e8 f1 d5 ff ff       	call   43 <printf>
    2a52:	48 8d 45 c0          	lea    -0x40(%rbp),%rax
    2a56:	f3 0f 10 0d 9c 07 00 	movss  0x79c(%rip),%xmm1        # 31fa <test_debounce+0x538>
    2a5d:	00 
    2a5e:	48 89 c1             	mov    %rax,%rcx
    2a61:	e8 00 00 00 00       	call   2a66 <test_hysteresis_list+0x195>
    2a66:	66 83 f8 01          	cmp    $0x1,%ax
    2a6a:	74 1f                	je     2a8b <test_hysteresis_list+0x1ba>
    2a6c:	41 b8 b5 01 00 00    	mov    $0x1b5,%r8d
    2a72:	48 8d 05 49 00 00 00 	lea    0x49(%rip),%rax        # 2ac2 <test_hysteresis_list+0x1f1>
    2a79:	48 89 c2             	mov    %rax,%rdx
    2a7c:	48 8d 05 5a 00 00 00 	lea    0x5a(%rip),%rax        # 2add <test_hysteresis_list+0x20c>
    2a83:	48 89 c1             	mov    %rax,%rcx
    2a86:	e8 b8 d5 ff ff       	call   43 <printf>
    2a8b:	48 8d 45 c0          	lea    -0x40(%rbp),%rax
    2a8f:	f3 0f 10 0d 30 08 00 	movss  0x830(%rip),%xmm1        # 32c7 <test_debounce+0x605>
    2a96:	00 
    2a97:	48 89 c1             	mov    %rax,%rcx
    2a9a:	e8 00 00 00 00       	call   2a9f <test_hysteresis_list+0x1ce>
    2a9f:	66 83 f8 02          	cmp    $0x2,%ax
    2aa3:	74 1f                	je     2ac4 <test_hysteresis_list+0x1f3>
    2aa5:	41 b8 b6 01 00 00    	mov    $0x1b6,%r8d
    2aab:	48 8d 05 49 00 00 00 	lea    0x49(%rip),%rax        # 2afb <test_hysteresis_list+0x22a>
    2ab2:	48 89 c2             	mov    %rax,%rdx
    2ab5:	48 8d 05 5a 00 00 00 	lea    0x5a(%rip),%rax        # 2b16 <test_hysteresis_list+0x245>
    2abc:	48 89 c1             	mov    %rax,%rcx
    2abf:	e8 7f d5 ff ff       	call   43 <printf>
    2ac4:	48 8d 45 c0          	lea    -0x40(%rbp),%rax
    2ac8:	f3 0f 10 0d b8 07 00 	movss  0x7b8(%rip),%xmm1        # 3288 <test_debounce+0x5c6>
    2acf:	00 
    2ad0:	48 89 c1             	mov    %rax,%rcx
    2ad3:	e8 00 00 00 00       	call   2ad8 <test_hysteresis_list+0x207>
    2ad8:	66 83 f8 02          	cmp    $0x2,%ax
    2adc:	74 1f                	je     2afd <test_hysteresis_list+0x22c>
    2ade:	41 b8 b7 01 00 00    	mov    $0x1b7,%r8d
    2ae4:	48 8d 05 49 00 00 00 	lea    0x49(%rip),%rax        # 2b34 <test_hysteresis_list+0x263>
    2aeb:	48 89 c2             	mov    %rax,%rdx
    2aee:	48 8d 05 5a 00 00 00 	lea    0x5a(%rip),%rax        # 2b4f <test_hysteresis_list+0x27e>
    2af5:	48 89 c1             	mov    %rax,%rcx
    2af8:	e8 46 d5 ff ff       	call   43 <printf>
    2afd:	48 8d 45 c0          	lea    -0x40(%rbp),%rax
    2b01:	66 0f ef c9          	pxor   %xmm1,%xmm1
    2b05:	48 89 c1             	mov    %rax,%rcx
    2b08:	e8 00 00 00 00       	call   2b0d <test_hysteresis_list+0x23c>
    2b0d:	66 83 f8 01          	cmp    $0x1,%ax
    2b11:	74 1f                	je     2b32 <test_hysteresis_list+0x261>
    2b13:	41 b8 b8 01 00 00    	mov    $0x1b8,%r8d
    2b19:	48 8d 05 49 00 00 00 	lea    0x49(%rip),%rax        # 2b69 <test_hysteresis_list+0x298>
    2b20:	48 89 c2             	mov    %rax,%rdx
    2b23:	48 8d 05 5a 00 00 00 	lea    0x5a(%rip),%rax        # 2b84 <test_hysteresis_list+0x2b3>
    2b2a:	48 89 c1             	mov    %rax,%rcx
    2b2d:	e8 11 d5 ff ff       	call   43 <printf>
    2b32:	48 8d 45 c0          	lea    -0x40(%rbp),%rax
    2b36:	66 0f ef c9          	pxor   %xmm1,%xmm1
    2b3a:	48 89 c1             	mov    %rax,%rcx
    2b3d:	e8 00 00 00 00       	call   2b42 <test_hysteresis_list+0x271>
    2b42:	66 85 c0             	test   %ax,%ax
    2b45:	74 1f                	je     2b66 <test_hysteresis_list+0x295>
    2b47:	41 b8 b9 01 00 00    	mov    $0x1b9,%r8d
    2b4d:	48 8d 05 49 00 00 00 	lea    0x49(%rip),%rax        # 2b9d <test_hysteresis_list+0x2cc>
    2b54:	48 89 c2             	mov    %rax,%rdx
    2b57:	48 8d 05 5a 00 00 00 	lea    0x5a(%rip),%rax        # 2bb8 <test_hysteresis_list+0x2e7>
    2b5e:	48 89 c1             	mov    %rax,%rcx
    2b61:	e8 dd d4 ff ff       	call   43 <printf>
    2b66:	48 8d 45 c0          	lea    -0x40(%rbp),%rax
    2b6a:	f3 0f 10 0d 2c 08 00 	movss  0x82c(%rip),%xmm1        # 339e <test_debounce+0x6dc>
    2b71:	00 
    2b72:	48 89 c1             	mov    %rax,%rcx
    2b75:	e8 00 00 00 00       	call   2b7a <test_hysteresis_list+0x2a9>
    2b7a:	66 83 f8 01          	cmp    $0x1,%ax
    2b7e:	74 1f                	je     2b9f <test_hysteresis_list+0x2ce>
    2b80:	41 b8 ba 01 00 00    	mov    $0x1ba,%r8d
    2b86:	48 8d 05 49 00 00 00 	lea    0x49(%rip),%rax        # 2bd6 <test_hysteresis_list+0x305>
    2b8d:	48 89 c2             	mov    %rax,%rdx
    2b90:	48 8d 05 5a 00 00 00 	lea    0x5a(%rip),%rax        # 2bf1 <test_hysteresis_list+0x320>
    2b97:	48 89 c1             	mov    %rax,%rcx
    2b9a:	e8 a4 d4 ff ff       	call   43 <printf>
    2b9f:	48 8d 45 c0          	lea    -0x40(%rbp),%rax
    2ba3:	f3 0f 10 0d 34 08 00 	movss  0x834(%rip),%xmm1        # 33df <test_debounce+0x71d>
    2baa:	00 
    2bab:	48 89 c1             	mov    %rax,%rcx
    2bae:	e8 00 00 00 00       	call   2bb3 <test_hysteresis_list+0x2e2>
    2bb3:	66 85 c0             	test   %ax,%ax
    2bb6:	74 1f                	je     2bd7 <test_hysteresis_list+0x306>
    2bb8:	41 b8 bb 01 00 00    	mov    $0x1bb,%r8d
    2bbe:	48 8d 05 49 00 00 00 	lea    0x49(%rip),%rax        # 2c0e <test_hysteresis_list+0x33d>
    2bc5:	48 89 c2             	mov    %rax,%rdx
    2bc8:	48 8d 05 5a 00 00 00 	lea    0x5a(%rip),%rax        # 2c29 <test_hysteresis_list+0x358>
    2bcf:	48 89 c1             	mov    %rax,%rcx
    2bd2:	e8 6c d4 ff ff       	call   43 <printf>
    2bd7:	48 8d 45 c0          	lea    -0x40(%rbp),%rax
    2bdb:	f3 0f 10 0d ac 07 00 	movss  0x7ac(%rip),%xmm1        # 338f <test_debounce+0x6cd>
    2be2:	00 
    2be3:	48 89 c1             	mov    %rax,%rcx
    2be6:	e8 00 00 00 00       	call   2beb <test_hysteresis_list+0x31a>
    2beb:	66 83 f8 01          	cmp    $0x1,%ax
    2bef:	74 1f                	je     2c10 <test_hysteresis_list+0x33f>
    2bf1:	41 b8 bc 01 00 00    	mov    $0x1bc,%r8d
    2bf7:	48 8d 05 49 00 00 00 	lea    0x49(%rip),%rax        # 2c47 <test_hysteresis_list+0x376>
    2bfe:	48 89 c2             	mov    %rax,%rdx
    2c01:	48 8d 05 5a 00 00 00 	lea    0x5a(%rip),%rax        # 2c62 <test_hysteresis_list+0x391>
    2c08:	48 89 c1             	mov    %rax,%rcx
    2c0b:	e8 33 d4 ff ff       	call   43 <printf>
    2c10:	48 8d 45 c0          	lea    -0x40(%rbp),%rax
    2c14:	f3 0f 10 0d ac 07 00 	movss  0x7ac(%rip),%xmm1        # 33c8 <test_debounce+0x706>
    2c1b:	00 
    2c1c:	48 89 c1             	mov    %rax,%rcx
    2c1f:	e8 00 00 00 00       	call   2c24 <test_hysteresis_list+0x353>
    2c24:	66 83 f8 02          	cmp    $0x2,%ax
    2c28:	74 1f                	je     2c49 <test_hysteresis_list+0x378>
    2c2a:	41 b8 bd 01 00 00    	mov    $0x1bd,%r8d
    2c30:	48 8d 05 49 00 00 00 	lea    0x49(%rip),%rax        # 2c80 <test_hysteresis_list+0x3af>
    2c37:	48 89 c2             	mov    %rax,%rdx
    2c3a:	48 8d 05 5a 00 00 00 	lea    0x5a(%rip),%rax        # 2c9b <test_hysteresis_list+0x3ca>
    2c41:	48 89 c1             	mov    %rax,%rcx
    2c44:	e8 fa d3 ff ff       	call   43 <printf>
    2c49:	48 8d 45 c0          	lea    -0x40(%rbp),%rax
    2c4d:	f3 0f 10 0d ac 07 00 	movss  0x7ac(%rip),%xmm1        # 3401 <test_debounce+0x73f>
    2c54:	00 
    2c55:	48 89 c1             	mov    %rax,%rcx
    2c58:	e8 00 00 00 00       	call   2c5d <test_hysteresis_list+0x38c>
    2c5d:	66 83 f8 02          	cmp    $0x2,%ax
    2c61:	74 1f                	je     2c82 <test_hysteresis_list+0x3b1>
    2c63:	41 b8 be 01 00 00    	mov    $0x1be,%r8d
    2c69:	48 8d 05 49 00 00 00 	lea    0x49(%rip),%rax        # 2cb9 <test_hysteresis_list+0x3e8>
    2c70:	48 89 c2             	mov    %rax,%rdx
    2c73:	48 8d 05 5a 00 00 00 	lea    0x5a(%rip),%rax        # 2cd4 <test_debounce+0x12>
    2c7a:	48 89 c1             	mov    %rax,%rcx
    2c7d:	e8 c1 d3 ff ff       	call   43 <printf>
    2c82:	48 8d 45 c0          	lea    -0x40(%rbp),%rax
    2c86:	f3 0f 10 0d 38 08 00 	movss  0x838(%rip),%xmm1        # 34c6 <test_debounce+0x804>
    2c8d:	00 
    2c8e:	48 89 c1             	mov    %rax,%rcx
    2c91:	e8 00 00 00 00       	call   2c96 <test_hysteresis_list+0x3c5>
    2c96:	66 83 f8 01          	cmp    $0x1,%ax
    2c9a:	74 1f                	je     2cbb <test_hysteresis_list+0x3ea>
    2c9c:	41 b8 bf 01 00 00    	mov    $0x1bf,%r8d
    2ca2:	48 8d 05 49 00 00 00 	lea    0x49(%rip),%rax        # 2cf2 <test_debounce+0x30>
    2ca9:	48 89 c2             	mov    %rax,%rdx
    2cac:	48 8d 05 5a 00 00 00 	lea    0x5a(%rip),%rax        # 2d0d <test_debounce+0x4b>
    2cb3:	48 89 c1             	mov    %rax,%rcx
    2cb6:	e8 88 d3 ff ff       	call   43 <printf>
    2cbb:	90                   	nop
    2cbc:	48 83 c4 60          	add    $0x60,%rsp
    2cc0:	5d                   	pop    %rbp
    2cc1:	c3                   	ret

0000000000002cc2 <test_debounce>:
    2cc2:	55                   	push   %rbp
    2cc3:	48 89 e5             	mov    %rsp,%rbp
    2cc6:	48 83 ec 50          	sub    $0x50,%rsp
    2cca:	48 8d 05 00 04 00 00 	lea    0x400(%rip),%rax        # 30d1 <test_debounce+0x40f>
    2cd1:	48 89 c1             	mov    %rax,%rcx
    2cd4:	e8 6a d3 ff ff       	call   43 <printf>
    2cd9:	c6 45 e0 00          	movb   $0x0,-0x20(%rbp)
    2cdd:	66 0f ef c0          	pxor   %xmm0,%xmm0
    2ce1:	f3 0f 11 45 e4       	movss  %xmm0,-0x1c(%rbp)
    2ce6:	f3 0f 10 05 a0 07 00 	movss  0x7a0(%rip),%xmm0        # 348e <test_debounce+0x7cc>
    2ced:	00 
    2cee:	f3 0f 11 45 e8       	movss  %xmm0,-0x18(%rbp)
    2cf3:	f3 0f 10 05 9c 07 00 	movss  0x79c(%rip),%xmm0        # 3497 <test_debounce+0x7d5>
    2cfa:	00 
    2cfb:	f3 0f 11 45 ec       	movss  %xmm0,-0x14(%rbp)
    2d00:	f3 0f 10 05 9c 07 00 	movss  0x79c(%rip),%xmm0        # 34a4 <test_debounce+0x7e2>
    2d07:	00 
    2d08:	f3 0f 11 45 f0       	movss  %xmm0,-0x10(%rbp)
    2d0d:	48 8d 45 e0          	lea    -0x20(%rbp),%rax
    2d11:	48 89 c1             	mov    %rax,%rcx
    2d14:	e8 00 00 00 00       	call   2d19 <test_debounce+0x57>
    2d19:	48 8d 45 e0          	lea    -0x20(%rbp),%rax
    2d1d:	ba 00 00 00 00       	mov    $0x0,%edx
    2d22:	48 89 c1             	mov    %rax,%rcx
    2d25:	e8 00 00 00 00       	call   2d2a <test_debounce+0x68>
    2d2a:	84 c0                	test   %al,%al
    2d2c:	74 1f                	je     2d4d <test_debounce+0x8b>
    2d2e:	41 b8 cb 01 00 00    	mov    $0x1cb,%r8d
    2d34:	48 8d 05 49 00 00 00 	lea    0x49(%rip),%rax        # 2d84 <test_debounce+0xc2>
    2d3b:	48 89 c2             	mov    %rax,%rdx
    2d3e:	48 8d 05 5a 00 00 00 	lea    0x5a(%rip),%rax        # 2d9f <test_debounce+0xdd>
    2d45:	48 89 c1             	mov    %rax,%rcx
    2d48:	e8 f6 d2 ff ff       	call   43 <printf>
    2d4d:	48 8d 45 e0          	lea    -0x20(%rbp),%rax
    2d51:	ba 00 00 00 00       	mov    $0x0,%edx
    2d56:	48 89 c1             	mov    %rax,%rcx
    2d59:	e8 00 00 00 00       	call   2d5e <test_debounce+0x9c>
    2d5e:	84 c0                	test   %al,%al
    2d60:	74 1f                	je     2d81 <test_debounce+0xbf>
    2d62:	41 b8 cc 01 00 00    	mov    $0x1cc,%r8d
    2d68:	48 8d 05 49 00 00 00 	lea    0x49(%rip),%rax        # 2db8 <test_debounce+0xf6>
    2d6f:	48 89 c2             	mov    %rax,%rdx
    2d72:	48 8d 05 5a 00 00 00 	lea    0x5a(%rip),%rax        # 2dd3 <test_debounce+0x111>
    2d79:	48 89 c1             	mov    %rax,%rcx
    2d7c:	e8 c2 d2 ff ff       	call   43 <printf>
    2d81:	48 8d 45 e0          	lea    -0x20(%rbp),%rax
    2d85:	ba 01 00 00 00       	mov    $0x1,%edx
    2d8a:	48 89 c1             	mov    %rax,%rcx
    2d8d:	e8 00 00 00 00       	call   2d92 <test_debounce+0xd0>
    2d92:	84 c0                	test   %al,%al
    2d94:	74 1f                	je     2db5 <test_debounce+0xf3>
    2d96:	41 b8 cd 01 00 00    	mov    $0x1cd,%r8d
    2d9c:	48 8d 05 49 00 00 00 	lea    0x49(%rip),%rax        # 2dec <test_debounce+0x12a>
    2da3:	48 89 c2             	mov    %rax,%rdx
    2da6:	48 8d 05 5a 00 00 00 	lea    0x5a(%rip),%rax        # 2e07 <test_debounce+0x145>
    2dad:	48 89 c1             	mov    %rax,%rcx
    2db0:	e8 8e d2 ff ff       	call   43 <printf>
    2db5:	48 8d 45 e0          	lea    -0x20(%rbp),%rax
    2db9:	ba 01 00 00 00       	mov    $0x1,%edx
    2dbe:	48 89 c1             	mov    %rax,%rcx
    2dc1:	e8 00 00 00 00       	call   2dc6 <test_debounce+0x104>
    2dc6:	84 c0                	test   %al,%al
    2dc8:	74 1f                	je     2de9 <test_debounce+0x127>
    2dca:	41 b8 ce 01 00 00    	mov    $0x1ce,%r8d
    2dd0:	48 8d 05 49 00 00 00 	lea    0x49(%rip),%rax        # 2e20 <test_debounce+0x15e>
    2dd7:	48 89 c2             	mov    %rax,%rdx
    2dda:	48 8d 05 5a 00 00 00 	lea    0x5a(%rip),%rax        # 2e3b <test_debounce+0x179>
    2de1:	48 89 c1             	mov    %rax,%rcx
    2de4:	e8 5a d2 ff ff       	call   43 <printf>
    2de9:	48 8d 45 e0          	lea    -0x20(%rbp),%rax
    2ded:	ba 01 00 00 00       	mov    $0x1,%edx
    2df2:	48 89 c1             	mov    %rax,%rcx
    2df5:	e8 00 00 00 00       	call   2dfa <test_debounce+0x138>
    2dfa:	83 f0 01             	xor    $0x1,%eax
    2dfd:	84 c0                	test   %al,%al
    2dff:	74 1f                	je     2e20 <test_debounce+0x15e>
    2e01:	41 b8 cf 01 00 00    	mov    $0x1cf,%r8d
    2e07:	48 8d 05 49 00 00 00 	lea    0x49(%rip),%rax        # 2e57 <test_debounce+0x195>
    2e0e:	48 89 c2             	mov    %rax,%rdx
    2e11:	48 8d 05 5a 00 00 00 	lea    0x5a(%rip),%rax        # 2e72 <test_debounce+0x1b0>
    2e18:	48 89 c1             	mov    %rax,%rcx
    2e1b:	e8 23 d2 ff ff       	call   43 <printf>
    2e20:	48 8d 45 e0          	lea    -0x20(%rbp),%rax
    2e24:	ba 01 00 00 00       	mov    $0x1,%edx
    2e29:	48 89 c1             	mov    %rax,%rcx
    2e2c:	e8 00 00 00 00       	call   2e31 <test_debounce+0x16f>
    2e31:	83 f0 01             	xor    $0x1,%eax
    2e34:	84 c0                	test   %al,%al
    2e36:	74 1f                	je     2e57 <test_debounce+0x195>
    2e38:	41 b8 d0 01 00 00    	mov    $0x1d0,%r8d
    2e3e:	48 8d 05 49 00 00 00 	lea    0x49(%rip),%rax        # 2e8e <test_debounce+0x1cc>
    2e45:	48 89 c2             	mov    %rax,%rdx
    2e48:	48 8d 05 5a 00 00 00 	lea    0x5a(%rip),%rax        # 2ea9 <test_debounce+0x1e7>
    2e4f:	48 89 c1             	mov    %rax,%rcx
    2e52:	e8 ec d1 ff ff       	call   43 <printf>
    2e57:	48 8d 45 e0          	lea    -0x20(%rbp),%rax
    2e5b:	ba 00 00 00 00       	mov    $0x0,%edx
    2e60:	48 89 c1             	mov    %rax,%rcx
    2e63:	e8 00 00 00 00       	call   2e68 <test_debounce+0x1a6>
    2e68:	83 f0 01             	xor    $0x1,%eax
    2e6b:	84 c0                	test   %al,%al
    2e6d:	74 1f                	je     2e8e <test_debounce+0x1cc>
    2e6f:	41 b8 d1 01 00 00    	mov    $0x1d1,%r8d
    2e75:	48 8d 05 49 00 00 00 	lea    0x49(%rip),%rax        # 2ec5 <test_debounce+0x203>
    2e7c:	48 89 c2             	mov    %rax,%rdx
    2e7f:	48 8d 05 5a 00 00 00 	lea    0x5a(%rip),%rax        # 2ee0 <test_debounce+0x21e>
    2e86:	48 89 c1             	mov    %rax,%rcx
    2e89:	e8 b5 d1 ff ff       	call   43 <printf>
    2e8e:	48 8d 45 e0          	lea    -0x20(%rbp),%rax
    2e92:	ba 00 00 00 00       	mov    $0x0,%edx
    2e97:	48 89 c1             	mov    %rax,%rcx
    2e9a:	e8 00 00 00 00       	call   2e9f <test_debounce+0x1dd>
    2e9f:	83 f0 01             	xor    $0x1,%eax
    2ea2:	84 c0                	test   %al,%al
    2ea4:	74 1f                	je     2ec5 <test_debounce+0x203>
    2ea6:	41 b8 d2 01 00 00    	mov    $0x1d2,%r8d
    2eac:	48 8d 05 49 00 00 00 	lea    0x49(%rip),%rax        # 2efc <test_debounce+0x23a>
    2eb3:	48 89 c2             	mov    %rax,%rdx
    2eb6:	48 8d 05 5a 00 00 00 	lea    0x5a(%rip),%rax        # 2f17 <test_debounce+0x255>
    2ebd:	48 89 c1             	mov    %rax,%rcx
    2ec0:	e8 7e d1 ff ff       	call   43 <printf>
    2ec5:	48 8d 45 e0          	lea    -0x20(%rbp),%rax
    2ec9:	ba 00 00 00 00       	mov    $0x0,%edx
    2ece:	48 89 c1             	mov    %rax,%rcx
    2ed1:	e8 00 00 00 00       	call   2ed6 <test_debounce+0x214>
    2ed6:	84 c0                	test   %al,%al
    2ed8:	74 1f                	je     2ef9 <test_debounce+0x237>
    2eda:	41 b8 d3 01 00 00    	mov    $0x1d3,%r8d
    2ee0:	48 8d 05 49 00 00 00 	lea    0x49(%rip),%rax        # 2f30 <test_debounce+0x26e>
    2ee7:	48 89 c2             	mov    %rax,%rdx
    2eea:	48 8d 05 5a 00 00 00 	lea    0x5a(%rip),%rax        # 2f4b <test_debounce+0x289>
    2ef1:	48 89 c1             	mov    %rax,%rcx
    2ef4:	e8 4a d1 ff ff       	call   43 <printf>
    2ef9:	48 8d 45 e0          	lea    -0x20(%rbp),%rax
    2efd:	ba 00 00 00 00       	mov    $0x0,%edx
    2f02:	48 89 c1             	mov    %rax,%rcx
    2f05:	e8 00 00 00 00       	call   2f0a <test_debounce+0x248>
    2f0a:	84 c0                	test   %al,%al
    2f0c:	74 1f                	je     2f2d <test_debounce+0x26b>
    2f0e:	41 b8 d4 01 00 00    	mov    $0x1d4,%r8d
    2f14:	48 8d 05 49 00 00 00 	lea    0x49(%rip),%rax        # 2f64 <test_debounce+0x2a2>
    2f1b:	48 89 c2             	mov    %rax,%rdx
    2f1e:	48 8d 05 5a 00 00 00 	lea    0x5a(%rip),%rax        # 2f7f <test_debounce+0x2bd>
    2f25:	48 89 c1             	mov    %rax,%rcx
    2f28:	e8 16 d1 ff ff       	call   43 <printf>
    2f2d:	48 8d 45 e0          	lea    -0x20(%rbp),%rax
    2f31:	ba 01 00 00 00       	mov    $0x1,%edx
    2f36:	48 89 c1             	mov    %rax,%rcx
    2f39:	e8 00 00 00 00       	call   2f3e <test_debounce+0x27c>
    2f3e:	84 c0                	test   %al,%al
    2f40:	74 1f                	je     2f61 <test_debounce+0x29f>
    2f42:	41 b8 d5 01 00 00    	mov    $0x1d5,%r8d
    2f48:	48 8d 05 49 00 00 00 	lea    0x49(%rip),%rax        # 2f98 <test_debounce+0x2d6>
    2f4f:	48 89 c2             	mov    %rax,%rdx
    2f52:	48 8d 05 5a 00 00 00 	lea    0x5a(%rip),%rax        # 2fb3 <test_debounce+0x2f1>
    2f59:	48 89 c1             	mov    %rax,%rcx
    2f5c:	e8 e2 d0 ff ff       	call   43 <printf>
    2f61:	48 8d 45 e0          	lea    -0x20(%rbp),%rax
    2f65:	ba 01 00 00 00       	mov    $0x1,%edx
    2f6a:	48 89 c1             	mov    %rax,%rcx
    2f6d:	e8 00 00 00 00       	call   2f72 <test_debounce+0x2b0>
    2f72:	84 c0                	test   %al,%al
    2f74:	74 1f                	je     2f95 <test_debounce+0x2d3>
    2f76:	41 b8 d6 01 00 00    	mov    $0x1d6,%r8d
    2f7c:	48 8d 05 49 00 00 00 	lea    0x49(%rip),%rax        # 2fcc <test_debounce+0x30a>
    2f83:	48 89 c2             	mov    %rax,%rdx
    2f86:	48 8d 05 5a 00 00 00 	lea    0x5a(%rip),%rax        # 2fe7 <test_debounce+0x325>
    2f8d:	48 89 c1             	mov    %rax,%rcx
    2f90:	e8 ae d0 ff ff       	call   43 <printf>
    2f95:	48 8d 45 e0          	lea    -0x20(%rbp),%rax
    2f99:	ba 01 00 00 00       	mov    $0x1,%edx
    2f9e:	48 89 c1             	mov    %rax,%rcx
    2fa1:	e8 00 00 00 00       	call   2fa6 <test_debounce+0x2e4>
    2fa6:	83 f0 01             	xor    $0x1,%eax
    2fa9:	84 c0                	test   %al,%al
    2fab:	74 1f                	je     2fcc <test_debounce+0x30a>
    2fad:	41 b8 d7 01 00 00    	mov    $0x1d7,%r8d
    2fb3:	48 8d 05 49 00 00 00 	lea    0x49(%rip),%rax        # 3003 <test_debounce+0x341>
    2fba:	48 89 c2             	mov    %rax,%rdx
    2fbd:	48 8d 05 5a 00 00 00 	lea    0x5a(%rip),%rax        # 301e <test_debounce+0x35c>
    2fc4:	48 89 c1             	mov    %rax,%rcx
    2fc7:	e8 77 d0 ff ff       	call   43 <printf>
    2fcc:	c6 45 d8 00          	movb   $0x0,-0x28(%rbp)
    2fd0:	66 c7 45 da 00 00    	movw   $0x0,-0x26(%rbp)
    2fd6:	66 c7 45 dc 02 00    	movw   $0x2,-0x24(%rbp)
    2fdc:	66 c7 45 de 02 00    	movw   $0x2,-0x22(%rbp)
    2fe2:	48 8d 45 d8          	lea    -0x28(%rbp),%rax
    2fe6:	48 89 c1             	mov    %rax,%rcx
    2fe9:	e8 00 00 00 00       	call   2fee <test_debounce+0x32c>
    2fee:	48 8d 45 d8          	lea    -0x28(%rbp),%rax
    2ff2:	ba 00 00 00 00       	mov    $0x0,%edx
    2ff7:	48 89 c1             	mov    %rax,%rcx
    2ffa:	e8 00 00 00 00       	call   2fff <test_debounce+0x33d>
    2fff:	84 c0                	test   %al,%al
    3001:	74 1f                	je     3022 <test_debounce+0x360>
    3003:	41 b8 dc 01 00 00    	mov    $0x1dc,%r8d
    3009:	48 8d 05 49 00 00 00 	lea    0x49(%rip),%rax        # 3059 <test_debounce+0x397>
    3010:	48 89 c2             	mov    %rax,%rdx
    3013:	48 8d 05 5a 00 00 00 	lea    0x5a(%rip),%rax        # 3074 <test_debounce+0x3b2>
    301a:	48 89 c1             	mov    %rax,%rcx
    301d:	e8 21 d0 ff ff       	call   43 <printf>
    3022:	48 8d 45 d8          	lea    -0x28(%rbp),%rax
    3026:	ba 00 00 00 00       	mov    $0x0,%edx
    302b:	48 89 c1             	mov    %rax,%rcx
    302e:	e8 00 00 00 00       	call   3033 <test_debounce+0x371>
    3033:	84 c0                	test   %al,%al
    3035:	74 1f                	je     3056 <test_debounce+0x394>
    3037:	41 b8 dd 01 00 00    	mov    $0x1dd,%r8d
    303d:	48 8d 05 49 00 00 00 	lea    0x49(%rip),%rax        # 308d <test_debounce+0x3cb>
    3044:	48 89 c2             	mov    %rax,%rdx
    3047:	48 8d 05 5a 00 00 00 	lea    0x5a(%rip),%rax        # 30a8 <test_debounce+0x3e6>
    304e:	48 89 c1             	mov    %rax,%rcx
    3051:	e8 ed cf ff ff       	call   43 <printf>
    3056:	48 8d 45 d8          	lea    -0x28(%rbp),%rax
    305a:	ba 01 00 00 00       	mov    $0x1,%edx
    305f:	48 89 c1             	mov    %rax,%rcx
    3062:	e8 00 00 00 00       	call   3067 <test_debounce+0x3a5>
    3067:	84 c0                	test   %al,%al
    3069:	74 1f                	je     308a <test_debounce+0x3c8>
    306b:	41 b8 de 01 00 00    	mov    $0x1de,%r8d
    3071:	48 8d 05 49 00 00 00 	lea    0x49(%rip),%rax        # 30c1 <test_debounce+0x3ff>
    3078:	48 89 c2             	mov    %rax,%rdx
    307b:	48 8d 05 5a 00 00 00 	lea    0x5a(%rip),%rax        # 30dc <test_debounce+0x41a>
    3082:	48 89 c1             	mov    %rax,%rcx
    3085:	e8 b9 cf ff ff       	call   43 <printf>
    308a:	48 8d 45 d8          	lea    -0x28(%rbp),%rax
    308e:	ba 01 00 00 00       	mov    $0x1,%edx
    3093:	48 89 c1             	mov    %rax,%rcx
    3096:	e8 00 00 00 00       	call   309b <test_debounce+0x3d9>
    309b:	84 c0                	test   %al,%al
    309d:	74 1f                	je     30be <test_debounce+0x3fc>
    309f:	41 b8 df 01 00 00    	mov    $0x1df,%r8d
    30a5:	48 8d 05 49 00 00 00 	lea    0x49(%rip),%rax        # 30f5 <test_debounce+0x433>
    30ac:	48 89 c2             	mov    %rax,%rdx
    30af:	48 8d 05 5a 00 00 00 	lea    0x5a(%rip),%rax        # 3110 <test_debounce+0x44e>
    30b6:	48 89 c1             	mov    %rax,%rcx
    30b9:	e8 85 cf ff ff       	call   43 <printf>
    30be:	48 8d 45 d8          	lea    -0x28(%rbp),%rax
    30c2:	ba 01 00 00 00       	mov    $0x1,%edx
    30c7:	48 89 c1             	mov    %rax,%rcx
    30ca:	e8 00 00 00 00       	call   30cf <test_debounce+0x40d>
    30cf:	83 f0 01             	xor    $0x1,%eax
    30d2:	84 c0                	test   %al,%al
    30d4:	74 1f                	je     30f5 <test_debounce+0x433>
    30d6:	41 b8 e0 01 00 00    	mov    $0x1e0,%r8d
    30dc:	48 8d 05 49 00 00 00 	lea    0x49(%rip),%rax        # 312c <test_debounce+0x46a>
    30e3:	48 89 c2             	mov    %rax,%rdx
    30e6:	48 8d 05 5a 00 00 00 	lea    0x5a(%rip),%rax        # 3147 <test_debounce+0x485>
    30ed:	48 89 c1             	mov    %rax,%rcx
    30f0:	e8 4e cf ff ff       	call   43 <printf>
    30f5:	48 8d 45 d8          	lea    -0x28(%rbp),%rax
    30f9:	ba 01 00 00 00       	mov    $0x1,%edx
    30fe:	48 89 c1             	mov    %rax,%rcx
    3101:	e8 00 00 00 00       	call   3106 <test_debounce+0x444>
    3106:	83 f0 01             	xor    $0x1,%eax
    3109:	84 c0                	test   %al,%al
    310b:	74 1f                	je     312c <test_debounce+0x46a>
    310d:	41 b8 e1 01 00 00    	mov    $0x1e1,%r8d
    3113:	48 8d 05 49 00 00 00 	lea    0x49(%rip),%rax        # 3163 <test_debounce+0x4a1>
    311a:	48 89 c2             	mov    %rax,%rdx
    311d:	48 8d 05 5a 00 00 00 	lea    0x5a(%rip),%rax        # 317e <test_debounce+0x4bc>
    3124:	48 89 c1             	mov    %rax,%rcx
    3127:	e8 17 cf ff ff       	call   43 <printf>
    312c:	48 8d 45 d8          	lea    -0x28(%rbp),%rax
    3130:	ba 00 00 00 00       	mov    $0x0,%edx
    3135:	48 89 c1             	mov    %rax,%rcx
    3138:	e8 00 00 00 00       	call   313d <test_debounce+0x47b>
    313d:	83 f0 01             	xor    $0x1,%eax
    3140:	84 c0                	test   %al,%al
    3142:	74 1f                	je     3163 <test_debounce+0x4a1>
    3144:	41 b8 e2 01 00 00    	mov    $0x1e2,%r8d
    314a:	48 8d 05 49 00 00 00 	lea    0x49(%rip),%rax        # 319a <test_debounce+0x4d8>
    3151:	48 89 c2             	mov    %rax,%rdx
    3154:	48 8d 05 5a 00 00 00 	lea    0x5a(%rip),%rax        # 31b5 <test_debounce+0x4f3>
    315b:	48 89 c1             	mov    %rax,%rcx
    315e:	e8 e0 ce ff ff       	call   43 <printf>
    3163:	48 8d 45 d8          	lea    -0x28(%rbp),%rax
    3167:	ba 00 00 00 00       	mov    $0x0,%edx
    316c:	48 89 c1             	mov    %rax,%rcx
    316f:	e8 00 00 00 00       	call   3174 <test_debounce+0x4b2>
    3174:	83 f0 01             	xor    $0x1,%eax
    3177:	84 c0                	test   %al,%al
    3179:	74 1f                	je     319a <test_debounce+0x4d8>
    317b:	41 b8 e3 01 00 00    	mov    $0x1e3,%r8d
    3181:	48 8d 05 49 00 00 00 	lea    0x49(%rip),%rax        # 31d1 <test_debounce+0x50f>
    3188:	48 89 c2             	mov    %rax,%rdx
    318b:	48 8d 05 5a 00 00 00 	lea    0x5a(%rip),%rax        # 31ec <test_debounce+0x52a>
    3192:	48 89 c1             	mov    %rax,%rcx
    3195:	e8 a9 ce ff ff       	call   43 <printf>
    319a:	48 8d 45 d8          	lea    -0x28(%rbp),%rax
    319e:	ba 00 00 00 00       	mov    $0x0,%edx
    31a3:	48 89 c1             	mov    %rax,%rcx
    31a6:	e8 00 00 00 00       	call   31ab <test_debounce+0x4e9>
    31ab:	84 c0                	test   %al,%al
    31ad:	74 1f                	je     31ce <test_debounce+0x50c>
    31af:	41 b8 e4 01 00 00    	mov    $0x1e4,%r8d
    31b5:	48 8d 05 49 00 00 00 	lea    0x49(%rip),%rax        # 3205 <test_debounce+0x543>
    31bc:	48 89 c2             	mov    %rax,%rdx
    31bf:	48 8d 05 5a 00 00 00 	lea    0x5a(%rip),%rax        # 3220 <test_debounce+0x55e>
    31c6:	48 89 c1             	mov    %rax,%rcx
    31c9:	e8 75 ce ff ff       	call   43 <printf>
    31ce:	48 8d 45 d8          	lea    -0x28(%rbp),%rax
    31d2:	ba 00 00 00 00       	mov    $0x0,%edx
    31d7:	48 89 c1             	mov    %rax,%rcx
    31da:	e8 00 00 00 00       	call   31df <test_debounce+0x51d>
    31df:	84 c0                	test   %al,%al
    31e1:	74 1f                	je     3202 <test_debounce+0x540>
    31e3:	41 b8 e5 01 00 00    	mov    $0x1e5,%r8d
    31e9:	48 8d 05 49 00 00 00 	lea    0x49(%rip),%rax        # 3239 <test_debounce+0x577>
    31f0:	48 89 c2             	mov    %rax,%rdx
    31f3:	48 8d 05 5a 00 00 00 	lea    0x5a(%rip),%rax        # 3254 <test_debounce+0x592>
    31fa:	48 89 c1             	mov    %rax,%rcx
    31fd:	e8 41 ce ff ff       	call   43 <printf>
    3202:	48 8d 45 d8          	lea    -0x28(%rbp),%rax
    3206:	ba 01 00 00 00       	mov    $0x1,%edx
    320b:	48 89 c1             	mov    %rax,%rcx
    320e:	e8 00 00 00 00       	call   3213 <test_debounce+0x551>
    3213:	84 c0                	test   %al,%al
    3215:	74 1f                	je     3236 <test_debounce+0x574>
    3217:	41 b8 e6 01 00 00    	mov    $0x1e6,%r8d
    321d:	48 8d 05 49 00 00 00 	lea    0x49(%rip),%rax        # 326d <test_debounce+0x5ab>
    3224:	48 89 c2             	mov    %rax,%rdx
    3227:	48 8d 05 5a 00 00 00 	lea    0x5a(%rip),%rax        # 3288 <test_debounce+0x5c6>
    322e:	48 89 c1             	mov    %rax,%rcx
    3231:	e8 0d ce ff ff       	call   43 <printf>
    3236:	48 8d 45 d8          	lea    -0x28(%rbp),%rax
    323a:	ba 01 00 00 00       	mov    $0x1,%edx
    323f:	48 89 c1             	mov    %rax,%rcx
    3242:	e8 00 00 00 00       	call   3247 <test_debounce+0x585>
    3247:	84 c0                	test   %al,%al
    3249:	74 1f                	je     326a <test_debounce+0x5a8>
    324b:	41 b8 e7 01 00 00    	mov    $0x1e7,%r8d
    3251:	48 8d 05 49 00 00 00 	lea    0x49(%rip),%rax        # 32a1 <test_debounce+0x5df>
    3258:	48 89 c2             	mov    %rax,%rdx
    325b:	48 8d 05 5a 00 00 00 	lea    0x5a(%rip),%rax        # 32bc <test_debounce+0x5fa>
    3262:	48 89 c1             	mov    %rax,%rcx
    3265:	e8 d9 cd ff ff       	call   43 <printf>
    326a:	48 8d 45 d8          	lea    -0x28(%rbp),%rax
    326e:	ba 01 00 00 00       	mov    $0x1,%edx
    3273:	48 89 c1             	mov    %rax,%rcx
    3276:	e8 00 00 00 00       	call   327b <test_debounce+0x5b9>
    327b:	83 f0 01             	xor    $0x1,%eax
    327e:	84 c0                	test   %al,%al
    3280:	74 1f                	je     32a1 <test_debounce+0x5df>
    3282:	41 b8 e8 01 00 00    	mov    $0x1e8,%r8d
    3288:	48 8d 05 49 00 00 00 	lea    0x49(%rip),%rax        # 32d8 <test_debounce+0x616>
    328f:	48 89 c2             	mov    %rax,%rdx
    3292:	48 8d 05 5a 00 00 00 	lea    0x5a(%rip),%rax        # 32f3 <test_debounce+0x631>
    3299:	48 89 c1             	mov    %rax,%rcx
    329c:	e8 a2 cd ff ff       	call   43 <printf>
    32a1:	c6 45 d0 00          	movb   $0x0,-0x30(%rbp)
    32a5:	66 c7 45 d2 00 00    	movw   $0x0,-0x2e(%rbp)
    32ab:	66 c7 45 d4 02 00    	movw   $0x2,-0x2c(%rbp)
    32b1:	66 c7 45 d6 02 00    	movw   $0x2,-0x2a(%rbp)
    32b7:	c6 45 d0 00          	movb   $0x0,-0x30(%rbp)
    32bb:	66 c7 45 d2 00 00    	movw   $0x0,-0x2e(%rbp)
    32c1:	0f b6 45 d0          	movzbl -0x30(%rbp),%eax
    32c5:	84 c0                	test   %al,%al
    32c7:	74 24                	je     32ed <test_debounce+0x62b>
    32c9:	0f b7 45 d2          	movzwl -0x2e(%rbp),%eax
    32cd:	83 c0 01             	add    $0x1,%eax
    32d0:	66 89 45 d2          	mov    %ax,-0x2e(%rbp)
    32d4:	0f b7 45 d2          	movzwl -0x2e(%rbp),%eax
    32d8:	0f b7 55 d6          	movzwl -0x2a(%rbp),%edx
    32dc:	66 39 c2             	cmp    %ax,%dx
    32df:	73 12                	jae    32f3 <test_debounce+0x631>
    32e1:	c6 45 d0 00          	movb   $0x0,-0x30(%rbp)
    32e5:	66 c7 45 d2 00 00    	movw   $0x0,-0x2e(%rbp)
    32eb:	eb 06                	jmp    32f3 <test_debounce+0x631>
    32ed:	66 c7 45 d2 00 00    	movw   $0x0,-0x2e(%rbp)
    32f3:	0f b6 45 d0          	movzbl -0x30(%rbp),%eax
    32f7:	84 c0                	test   %al,%al
    32f9:	74 1f                	je     331a <test_debounce+0x658>
    32fb:	41 b8 ee 01 00 00    	mov    $0x1ee,%r8d
    3301:	48 8d 05 49 00 00 00 	lea    0x49(%rip),%rax        # 3351 <test_debounce+0x68f>
    3308:	48 89 c2             	mov    %rax,%rdx
    330b:	48 8d 05 5a 00 00 00 	lea    0x5a(%rip),%rax        # 336c <test_debounce+0x6aa>
    3312:	48 89 c1             	mov    %rax,%rcx
    3315:	e8 29 cd ff ff       	call   43 <printf>
    331a:	0f b6 45 d0          	movzbl -0x30(%rbp),%eax
    331e:	84 c0                	test   %al,%al
    3320:	74 24                	je     3346 <test_debounce+0x684>
    3322:	0f b7 45 d2          	movzwl -0x2e(%rbp),%eax
    3326:	83 c0 01             	add    $0x1,%eax
    3329:	66 89 45 d2          	mov    %ax,-0x2e(%rbp)
    332d:	0f b7 45 d2          	movzwl -0x2e(%rbp),%eax
    3331:	0f b7 55 d6          	movzwl -0x2a(%rbp),%edx
    3335:	66 39 c2             	cmp    %ax,%dx
    3338:	73 12                	jae    334c <test_debounce+0x68a>
    333a:	c6 45 d0 00          	movb   $0x0,-0x30(%rbp)
    333e:	66 c7 45 d2 00 00    	movw   $0x0,-0x2e(%rbp)
    3344:	eb 06                	jmp    334c <test_debounce+0x68a>
    3346:	66 c7 45 d2 00 00    	movw   $0x0,-0x2e(%rbp)
    334c:	0f b6 45 d0          	movzbl -0x30(%rbp),%eax
    3350:	84 c0                	test   %al,%al
    3352:	74 1f                	je     3373 <test_debounce+0x6b1>
    3354:	41 b8 f0 01 00 00    	mov    $0x1f0,%r8d
    335a:	48 8d 05 49 00 00 00 	lea    0x49(%rip),%rax        # 33aa <test_debounce+0x6e8>
    3361:	48 89 c2             	mov    %rax,%rdx
    3364:	48 8d 05 5a 00 00 00 	lea    0x5a(%rip),%rax        # 33c5 <test_debounce+0x703>
    336b:	48 89 c1             	mov    %rax,%rcx
    336e:	e8 d0 cc ff ff       	call   43 <printf>
    3373:	0f b6 45 d0          	movzbl -0x30(%rbp),%eax
    3377:	83 f0 01             	xor    $0x1,%eax
    337a:	84 c0                	test   %al,%al
    337c:	74 24                	je     33a2 <test_debounce+0x6e0>
    337e:	0f b7 45 d2          	movzwl -0x2e(%rbp),%eax
    3382:	83 c0 01             	add    $0x1,%eax
    3385:	66 89 45 d2          	mov    %ax,-0x2e(%rbp)
    3389:	0f b7 45 d2          	movzwl -0x2e(%rbp),%eax
    338d:	0f b7 55 d4          	movzwl -0x2c(%rbp),%edx
    3391:	66 39 c2             	cmp    %ax,%dx
    3394:	73 12                	jae    33a8 <test_debounce+0x6e6>
    3396:	c6 45 d0 01          	movb   $0x1,-0x30(%rbp)
    339a:	66 c7 45 d2 00 00    	movw   $0x0,-0x2e(%rbp)
    33a0:	eb 06                	jmp    33a8 <test_debounce+0x6e6>
    33a2:	66 c7 45 d2 00 00    	movw   $0x0,-0x2e(%rbp)
    33a8:	0f b6 45 d0          	movzbl -0x30(%rbp),%eax
    33ac:	84 c0                	test   %al,%al
    33ae:	74 1f                	je     33cf <test_debounce+0x70d>
    33b0:	41 b8 f2 01 00 00    	mov    $0x1f2,%r8d
    33b6:	48 8d 05 49 00 00 00 	lea    0x49(%rip),%rax        # 3406 <test_debounce+0x744>
    33bd:	48 89 c2             	mov    %rax,%rdx
    33c0:	48 8d 05 5a 00 00 00 	lea    0x5a(%rip),%rax        # 3421 <test_debounce+0x75f>
    33c7:	48 89 c1             	mov    %rax,%rcx
    33ca:	e8 74 cc ff ff       	call   43 <printf>
    33cf:	0f b6 45 d0          	movzbl -0x30(%rbp),%eax
    33d3:	83 f0 01             	xor    $0x1,%eax
    33d6:	84 c0                	test   %al,%al
    33d8:	74 24                	je     33fe <test_debounce+0x73c>
    33da:	0f b7 45 d2          	movzwl -0x2e(%rbp),%eax
    33de:	83 c0 01             	add    $0x1,%eax
    33e1:	66 89 45 d2          	mov    %ax,-0x2e(%rbp)
    33e5:	0f b7 45 d2          	movzwl -0x2e(%rbp),%eax
    33e9:	0f b7 55 d4          	movzwl -0x2c(%rbp),%edx
    33ed:	66 39 c2             	cmp    %ax,%dx
    33f0:	73 12                	jae    3404 <test_debounce+0x742>
    33f2:	c6 45 d0 01          	movb   $0x1,-0x30(%rbp)
    33f6:	66 c7 45 d2 00 00    	movw   $0x0,-0x2e(%rbp)
    33fc:	eb 06                	jmp    3404 <test_debounce+0x742>
    33fe:	66 c7 45 d2 00 00    	movw   $0x0,-0x2e(%rbp)
    3404:	0f b6 45 d0          	movzbl -0x30(%rbp),%eax
    3408:	84 c0                	test   %al,%al
    340a:	74 1f                	je     342b <test_debounce+0x769>
    340c:	41 b8 f4 01 00 00    	mov    $0x1f4,%r8d
    3412:	48 8d 05 49 00 00 00 	lea    0x49(%rip),%rax        # 3462 <test_debounce+0x7a0>
    3419:	48 89 c2             	mov    %rax,%rdx
    341c:	48 8d 05 5a 00 00 00 	lea    0x5a(%rip),%rax        # 347d <test_debounce+0x7bb>
    3423:	48 89 c1             	mov    %rax,%rcx
    3426:	e8 18 cc ff ff       	call   43 <printf>
    342b:	0f b6 45 d0          	movzbl -0x30(%rbp),%eax
    342f:	83 f0 01             	xor    $0x1,%eax
    3432:	84 c0                	test   %al,%al
    3434:	74 24                	je     345a <test_debounce+0x798>
    3436:	0f b7 45 d2          	movzwl -0x2e(%rbp),%eax
    343a:	83 c0 01             	add    $0x1,%eax
    343d:	66 89 45 d2          	mov    %ax,-0x2e(%rbp)
    3441:	0f b7 45 d2          	movzwl -0x2e(%rbp),%eax
    3445:	0f b7 55 d4          	movzwl -0x2c(%rbp),%edx
    3449:	66 39 c2             	cmp    %ax,%dx
    344c:	73 12                	jae    3460 <test_debounce+0x79e>
    344e:	c6 45 d0 01          	movb   $0x1,-0x30(%rbp)
    3452:	66 c7 45 d2 00 00    	movw   $0x0,-0x2e(%rbp)
    3458:	eb 06                	jmp    3460 <test_debounce+0x79e>
    345a:	66 c7 45 d2 00 00    	movw   $0x0,-0x2e(%rbp)
    3460:	0f b6 45 d0          	movzbl -0x30(%rbp),%eax
    3464:	83 f0 01             	xor    $0x1,%eax
    3467:	84 c0                	test   %al,%al
    3469:	74 1f                	je     348a <test_debounce+0x7c8>
    346b:	41 b8 f6 01 00 00    	mov    $0x1f6,%r8d
    3471:	48 8d 05 49 00 00 00 	lea    0x49(%rip),%rax        # 34c1 <test_debounce+0x7ff>
    3478:	48 89 c2             	mov    %rax,%rdx
    347b:	48 8d 05 5a 00 00 00 	lea    0x5a(%rip),%rax        # 34dc <test_debounce+0x81a>
    3482:	48 89 c1             	mov    %rax,%rcx
    3485:	e8 b9 cb ff ff       	call   43 <printf>
    348a:	0f b6 45 d0          	movzbl -0x30(%rbp),%eax
    348e:	83 f0 01             	xor    $0x1,%eax
    3491:	84 c0                	test   %al,%al
    3493:	74 24                	je     34b9 <test_debounce+0x7f7>
    3495:	0f b7 45 d2          	movzwl -0x2e(%rbp),%eax
    3499:	83 c0 01             	add    $0x1,%eax
    349c:	66 89 45 d2          	mov    %ax,-0x2e(%rbp)
    34a0:	0f b7 45 d2          	movzwl -0x2e(%rbp),%eax
    34a4:	0f b7 55 d4          	movzwl -0x2c(%rbp),%edx
    34a8:	66 39 c2             	cmp    %ax,%dx
    34ab:	73 12                	jae    34bf <test_debounce+0x7fd>
    34ad:	c6 45 d0 01          	movb   $0x1,-0x30(%rbp)
    34b1:	66 c7 45 d2 00 00    	movw   $0x0,-0x2e(%rbp)
    34b7:	eb 06                	jmp    34bf <test_debounce+0x7fd>
    34b9:	66 c7 45 d2 00 00    	movw   $0x0,-0x2e(%rbp)
    34bf:	0f b6 45 d0          	movzbl -0x30(%rbp),%eax
    34c3:	83 f0 01             	xor    $0x1,%eax
    34c6:	84 c0                	test   %al,%al
    34c8:	74 1f                	je     34e9 <test_debounce+0x827>
    34ca:	41 b8 f8 01 00 00    	mov    $0x1f8,%r8d
    34d0:	48 8d 05 49 00 00 00 	lea    0x49(%rip),%rax        # 3520 <test_debounce+0x85e>
    34d7:	48 89 c2             	mov    %rax,%rdx
    34da:	48 8d 05 5a 00 00 00 	lea    0x5a(%rip),%rax        # 353b <test_debounce+0x879>
    34e1:	48 89 c1             	mov    %rax,%rcx
    34e4:	e8 5a cb ff ff       	call   43 <printf>
    34e9:	0f b6 45 d0          	movzbl -0x30(%rbp),%eax
    34ed:	84 c0                	test   %al,%al
    34ef:	74 24                	je     3515 <test_debounce+0x853>
    34f1:	0f b7 45 d2          	movzwl -0x2e(%rbp),%eax
    34f5:	83 c0 01             	add    $0x1,%eax
    34f8:	66 89 45 d2          	mov    %ax,-0x2e(%rbp)
    34fc:	0f b7 45 d2          	movzwl -0x2e(%rbp),%eax
    3500:	0f b7 55 d6          	movzwl -0x2a(%rbp),%edx
    3504:	66 39 c2             	cmp    %ax,%dx
    3507:	73 12                	jae    351b <test_debounce+0x859>
    3509:	c6 45 d0 00          	movb   $0x0,-0x30(%rbp)
    350d:	66 c7 45 d2 00 00    	movw   $0x0,-0x2e(%rbp)
    3513:	eb 06                	jmp    351b <test_debounce+0x859>
    3515:	66 c7 45 d2 00 00    	movw   $0x0,-0x2e(%rbp)
    351b:	0f b6 45 d0          	movzbl -0x30(%rbp),%eax
    351f:	83 f0 01             	xor    $0x1,%eax
    3522:	84 c0                	test   %al,%al
    3524:	74 1f                	je     3545 <test_debounce+0x883>
    3526:	41 b8 fa 01 00 00    	mov    $0x1fa,%r8d
    352c:	48 8d 05 49 00 00 00 	lea    0x49(%rip),%rax        # 357c <test_debounce+0x8ba>
    3533:	48 89 c2             	mov    %rax,%rdx
    3536:	48 8d 05 5a 00 00 00 	lea    0x5a(%rip),%rax        # 3597 <test_debounce+0x8d5>
    353d:	48 89 c1             	mov    %rax,%rcx
    3540:	e8 fe ca ff ff       	call   43 <printf>
    3545:	0f b6 45 d0          	movzbl -0x30(%rbp),%eax
    3549:	84 c0                	test   %al,%al
    354b:	74 24                	je     3571 <test_debounce+0x8af>
    354d:	0f b7 45 d2          	movzwl -0x2e(%rbp),%eax
    3551:	83 c0 01             	add    $0x1,%eax
    3554:	66 89 45 d2          	mov    %ax,-0x2e(%rbp)
    3558:	0f b7 45 d2          	movzwl -0x2e(%rbp),%eax
    355c:	0f b7 55 d6          	movzwl -0x2a(%rbp),%edx
    3560:	66 39 c2             	cmp    %ax,%dx
    3563:	73 12                	jae    3577 <test_debounce+0x8b5>
    3565:	c6 45 d0 00          	movb   $0x0,-0x30(%rbp)
    3569:	66 c7 45 d2 00 00    	movw   $0x0,-0x2e(%rbp)
    356f:	eb 06                	jmp    3577 <test_debounce+0x8b5>
    3571:	66 c7 45 d2 00 00    	movw   $0x0,-0x2e(%rbp)
    3577:	0f b6 45 d0          	movzbl -0x30(%rbp),%eax
    357b:	83 f0 01             	xor    $0x1,%eax
    357e:	84 c0                	test   %al,%al
    3580:	74 1f                	je     35a1 <test_debounce+0x8df>
    3582:	41 b8 fc 01 00 00    	mov    $0x1fc,%r8d
    3588:	48 8d 05 49 00 00 00 	lea    0x49(%rip),%rax        # 35d8 <test_debounce+0x916>
    358f:	48 89 c2             	mov    %rax,%rdx
    3592:	48 8d 05 5a 00 00 00 	lea    0x5a(%rip),%rax        # 35f3 <test_debounce+0x931>
    3599:	48 89 c1             	mov    %rax,%rcx
    359c:	e8 a2 ca ff ff       	call   43 <printf>
    35a1:	0f b6 45 d0          	movzbl -0x30(%rbp),%eax
    35a5:	84 c0                	test   %al,%al
    35a7:	74 24                	je     35cd <test_debounce+0x90b>
    35a9:	0f b7 45 d2          	movzwl -0x2e(%rbp),%eax
    35ad:	83 c0 01             	add    $0x1,%eax
    35b0:	66 89 45 d2          	mov    %ax,-0x2e(%rbp)
    35b4:	0f b7 45 d2          	movzwl -0x2e(%rbp),%eax
    35b8:	0f b7 55 d6          	movzwl -0x2a(%rbp),%edx
    35bc:	66 39 c2             	cmp    %ax,%dx
    35bf:	73 12                	jae    35d3 <test_debounce+0x911>
    35c1:	c6 45 d0 00          	movb   $0x0,-0x30(%rbp)
    35c5:	66 c7 45 d2 00 00    	movw   $0x0,-0x2e(%rbp)
    35cb:	eb 06                	jmp    35d3 <test_debounce+0x911>
    35cd:	66 c7 45 d2 00 00    	movw   $0x0,-0x2e(%rbp)
    35d3:	0f b6 45 d0          	movzbl -0x30(%rbp),%eax
    35d7:	84 c0                	test   %al,%al
    35d9:	74 1f                	je     35fa <test_debounce+0x938>
    35db:	41 b8 fe 01 00 00    	mov    $0x1fe,%r8d
    35e1:	48 8d 05 49 00 00 00 	lea    0x49(%rip),%rax        # 3631 <test_debounce+0x96f>
    35e8:	48 89 c2             	mov    %rax,%rdx
    35eb:	48 8d 05 5a 00 00 00 	lea    0x5a(%rip),%rax        # 364c <test_debounce+0x98a>
    35f2:	48 89 c1             	mov    %rax,%rcx
    35f5:	e8 49 ca ff ff       	call   43 <printf>
    35fa:	0f b6 45 d0          	movzbl -0x30(%rbp),%eax
    35fe:	84 c0                	test   %al,%al
    3600:	74 24                	je     3626 <test_debounce+0x964>
    3602:	0f b7 45 d2          	movzwl -0x2e(%rbp),%eax
    3606:	83 c0 01             	add    $0x1,%eax
    3609:	66 89 45 d2          	mov    %ax,-0x2e(%rbp)
    360d:	0f b7 45 d2          	movzwl -0x2e(%rbp),%eax
    3611:	0f b7 55 d6          	movzwl -0x2a(%rbp),%edx
    3615:	66 39 c2             	cmp    %ax,%dx
    3618:	73 12                	jae    362c <test_debounce+0x96a>
    361a:	c6 45 d0 00          	movb   $0x0,-0x30(%rbp)
    361e:	66 c7 45 d2 00 00    	movw   $0x0,-0x2e(%rbp)
    3624:	eb 06                	jmp    362c <test_debounce+0x96a>
    3626:	66 c7 45 d2 00 00    	movw   $0x0,-0x2e(%rbp)
    362c:	0f b6 45 d0          	movzbl -0x30(%rbp),%eax
    3630:	84 c0                	test   %al,%al
    3632:	74 1f                	je     3653 <test_debounce+0x991>
    3634:	41 b8 00 02 00 00    	mov    $0x200,%r8d
    363a:	48 8d 05 49 00 00 00 	lea    0x49(%rip),%rax        # 368a <test_debounce+0x9c8>
    3641:	48 89 c2             	mov    %rax,%rdx
    3644:	48 8d 05 5a 00 00 00 	lea    0x5a(%rip),%rax        # 36a5 <test_debounce+0x9e3>
    364b:	48 89 c1             	mov    %rax,%rcx
    364e:	e8 f0 c9 ff ff       	call   43 <printf>
    3653:	0f b6 45 d0          	movzbl -0x30(%rbp),%eax
    3657:	83 f0 01             	xor    $0x1,%eax
    365a:	84 c0                	test   %al,%al
    365c:	74 24                	je     3682 <test_debounce+0x9c0>
    365e:	0f b7 45 d2          	movzwl -0x2e(%rbp),%eax
    3662:	83 c0 01             	add    $0x1,%eax
    3665:	66 89 45 d2          	mov    %ax,-0x2e(%rbp)
    3669:	0f b7 45 d2          	movzwl -0x2e(%rbp),%eax
    366d:	0f b7 55 d4          	movzwl -0x2c(%rbp),%edx
    3671:	66 39 c2             	cmp    %ax,%dx
    3674:	73 12                	jae    3688 <test_debounce+0x9c6>
    3676:	c6 45 d0 01          	movb   $0x1,-0x30(%rbp)
    367a:	66 c7 45 d2 00 00    	movw   $0x0,-0x2e(%rbp)
    3680:	eb 06                	jmp    3688 <test_debounce+0x9c6>
    3682:	66 c7 45 d2 00 00    	movw   $0x0,-0x2e(%rbp)
    3688:	0f b6 45 d0          	movzbl -0x30(%rbp),%eax
    368c:	84 c0                	test   %al,%al
    368e:	74 1f                	je     36af <test_debounce+0x9ed>
    3690:	41 b8 02 02 00 00    	mov    $0x202,%r8d
    3696:	48 8d 05 49 00 00 00 	lea    0x49(%rip),%rax        # 36e6 <test_debounce+0xa24>
    369d:	48 89 c2             	mov    %rax,%rdx
    36a0:	48 8d 05 5a 00 00 00 	lea    0x5a(%rip),%rax        # 3701 <test_debounce+0xa3f>
    36a7:	48 89 c1             	mov    %rax,%rcx
    36aa:	e8 94 c9 ff ff       	call   43 <printf>
    36af:	0f b6 45 d0          	movzbl -0x30(%rbp),%eax
    36b3:	83 f0 01             	xor    $0x1,%eax
    36b6:	84 c0                	test   %al,%al
    36b8:	74 24                	je     36de <test_debounce+0xa1c>
    36ba:	0f b7 45 d2          	movzwl -0x2e(%rbp),%eax
    36be:	83 c0 01             	add    $0x1,%eax
    36c1:	66 89 45 d2          	mov    %ax,-0x2e(%rbp)
    36c5:	0f b7 45 d2          	movzwl -0x2e(%rbp),%eax
    36c9:	0f b7 55 d4          	movzwl -0x2c(%rbp),%edx
    36cd:	66 39 c2             	cmp    %ax,%dx
    36d0:	73 12                	jae    36e4 <test_debounce+0xa22>
    36d2:	c6 45 d0 01          	movb   $0x1,-0x30(%rbp)
    36d6:	66 c7 45 d2 00 00    	movw   $0x0,-0x2e(%rbp)
    36dc:	eb 06                	jmp    36e4 <test_debounce+0xa22>
    36de:	66 c7 45 d2 00 00    	movw   $0x0,-0x2e(%rbp)
    36e4:	0f b6 45 d0          	movzbl -0x30(%rbp),%eax
    36e8:	84 c0                	test   %al,%al
    36ea:	74 1f                	je     370b <test_debounce+0xa49>
    36ec:	41 b8 04 02 00 00    	mov    $0x204,%r8d
    36f2:	48 8d 05 49 00 00 00 	lea    0x49(%rip),%rax        # 3742 <test_debounce+0xa80>
    36f9:	48 89 c2             	mov    %rax,%rdx
    36fc:	48 8d 05 5a 00 00 00 	lea    0x5a(%rip),%rax        # 375d <test_debounce+0xa9b>
    3703:	48 89 c1             	mov    %rax,%rcx
    3706:	e8 38 c9 ff ff       	call   43 <printf>
    370b:	0f b6 45 d0          	movzbl -0x30(%rbp),%eax
    370f:	83 f0 01             	xor    $0x1,%eax
    3712:	84 c0                	test   %al,%al
    3714:	74 24                	je     373a <test_debounce+0xa78>
    3716:	0f b7 45 d2          	movzwl -0x2e(%rbp),%eax
    371a:	83 c0 01             	add    $0x1,%eax
    371d:	66 89 45 d2          	mov    %ax,-0x2e(%rbp)
    3721:	0f b7 45 d2          	movzwl -0x2e(%rbp),%eax
    3725:	0f b7 55 d4          	movzwl -0x2c(%rbp),%edx
    3729:	66 39 c2             	cmp    %ax,%dx
    372c:	73 12                	jae    3740 <test_debounce+0xa7e>
    372e:	c6 45 d0 01          	movb   $0x1,-0x30(%rbp)
    3732:	66 c7 45 d2 00 00    	movw   $0x0,-0x2e(%rbp)
    3738:	eb 06                	jmp    3740 <test_debounce+0xa7e>
    373a:	66 c7 45 d2 00 00    	movw   $0x0,-0x2e(%rbp)
    3740:	0f b6 45 d0          	movzbl -0x30(%rbp),%eax
    3744:	83 f0 01             	xor    $0x1,%eax
    3747:	84 c0                	test   %al,%al
    3749:	74 1f                	je     376a <test_debounce+0xaa8>
    374b:	41 b8 06 02 00 00    	mov    $0x206,%r8d
    3751:	48 8d 05 49 00 00 00 	lea    0x49(%rip),%rax        # 37a1 <test_robust+0x30>
    3758:	48 89 c2             	mov    %rax,%rdx
    375b:	48 8d 05 5a 00 00 00 	lea    0x5a(%rip),%rax        # 37bc <test_robust+0x4b>
    3762:	48 89 c1             	mov    %rax,%rcx
    3765:	e8 d9 c8 ff ff       	call   43 <printf>
    376a:	90                   	nop
    376b:	48 83 c4 50          	add    $0x50,%rsp
    376f:	5d                   	pop    %rbp
    3770:	c3                   	ret

0000000000003771 <test_robust>:
    3771:	55                   	push   %rbp
    3772:	48 89 e5             	mov    %rsp,%rbp
    3775:	48 81 ec a0 00 00 00 	sub    $0xa0,%rsp
    377c:	48 8d 05 20 04 00 00 	lea    0x420(%rip),%rax        # 3ba3 <test_robust+0x432>
    3783:	48 89 c1             	mov    %rax,%rcx
    3786:	e8 b8 c8 ff ff       	call   43 <printf>
    378b:	f3 0f 10 05 a0 07 00 	movss  0x7a0(%rip),%xmm0        # 3f33 <test_robust+0x7c2>
    3792:	00 
    3793:	f3 0f 11 45 f0       	movss  %xmm0,-0x10(%rbp)
    3798:	f3 0f 10 05 9c 07 00 	movss  0x79c(%rip),%xmm0        # 3f3c <test_robust+0x7cb>
    379f:	00 
    37a0:	f3 0f 11 45 f4       	movss  %xmm0,-0xc(%rbp)
    37a5:	f3 0f 10 05 d0 07 00 	movss  0x7d0(%rip),%xmm0        # 3f7d <test_robust+0x80c>
    37ac:	00 
    37ad:	f3 0f 11 45 f8       	movss  %xmm0,-0x8(%rbp)
    37b2:	f3 0f 10 05 b4 07 00 	movss  0x7b4(%rip),%xmm0        # 3f6e <test_robust+0x7fd>
    37b9:	00 
    37ba:	f3 0f 11 45 fc       	movss  %xmm0,-0x4(%rbp)
    37bf:	66 0f ef c0          	pxor   %xmm0,%xmm0
    37c3:	f3 0f 11 45 e0       	movss  %xmm0,-0x20(%rbp)
    37c8:	f3 0f 10 05 cc 07 00 	movss  0x7cc(%rip),%xmm0        # 3f9c <test_robust+0x82b>
    37cf:	00 
    37d0:	f3 0f 11 45 e4       	movss  %xmm0,-0x1c(%rbp)
    37d5:	f3 0f 10 05 a4 07 00 	movss  0x7a4(%rip),%xmm0        # 3f81 <test_robust+0x810>
    37dc:	00 
    37dd:	f3 0f 11 45 e8       	movss  %xmm0,-0x18(%rbp)
    37e2:	f3 0f 10 05 9c 07 00 	movss  0x79c(%rip),%xmm0        # 3f86 <test_robust+0x815>
    37e9:	00 
    37ea:	f3 0f 11 45 ec       	movss  %xmm0,-0x14(%rbp)
    37ef:	f3 0f 10 05 9c 07 00 	movss  0x79c(%rip),%xmm0        # 3f93 <test_robust+0x822>
    37f6:	00 
    37f7:	f3 0f 11 45 d0       	movss  %xmm0,-0x30(%rbp)
    37fc:	f3 0f 10 05 9c 07 00 	movss  0x79c(%rip),%xmm0        # 3fa0 <test_robust+0x82f>
    3803:	00 
    3804:	f3 0f 11 45 d4       	movss  %xmm0,-0x2c(%rbp)
    3809:	f3 0f 10 05 9c 07 00 	movss  0x79c(%rip),%xmm0        # 3fad <test_robust+0x83c>
    3810:	00 
    3811:	f3 0f 11 45 d8       	movss  %xmm0,-0x28(%rbp)
    3816:	f3 0f 10 05 9c 07 00 	movss  0x79c(%rip),%xmm0        # 3fba <test_robust+0x849>
    381d:	00 
    381e:	f3 0f 11 45 dc       	movss  %xmm0,-0x24(%rbp)
    3823:	f3 0f 10 05 9c 07 00 	movss  0x79c(%rip),%xmm0        # 3fc7 <test_robust+0x856>
    382a:	00 
    382b:	f3 0f 11 45 c0       	movss  %xmm0,-0x40(%rbp)
    3830:	f3 0f 10 05 9c 07 00 	movss  0x79c(%rip),%xmm0        # 3fd4 <test_robust+0x863>
    3837:	00 
    3838:	f3 0f 11 45 c4       	movss  %xmm0,-0x3c(%rbp)
    383d:	f3 0f 10 05 9c 07 00 	movss  0x79c(%rip),%xmm0        # 3fe1 <test_robust+0x870>
    3844:	00 
    3845:	f3 0f 11 45 c8       	movss  %xmm0,-0x38(%rbp)
    384a:	f3 0f 10 05 9c 07 00 	movss  0x79c(%rip),%xmm0        # 3fee <test_robust+0x87d>
    3851:	00 
    3852:	f3 0f 11 45 cc       	movss  %xmm0,-0x34(%rbp)
    3857:	66 c7 45 80 00 00    	movw   $0x0,-0x80(%rbp)
    385d:	66 0f ef c0          	pxor   %xmm0,%xmm0
    3861:	f3 0f 11 45 84       	movss  %xmm0,-0x7c(%rbp)
    3866:	f3 0f 10 05 a0 07 00 	movss  0x7a0(%rip),%xmm0        # 400e <test_robust+0x89d>
    386d:	00 
    386e:	f3 0f 11 45 88       	movss  %xmm0,-0x78(%rbp)
    3873:	48 8d 45 f0          	lea    -0x10(%rbp),%rax
    3877:	48 89 45 90          	mov    %rax,-0x70(%rbp)
    387b:	48 8d 45 e0          	lea    -0x20(%rbp),%rax
    387f:	48 89 45 98          	mov    %rax,-0x68(%rbp)
    3883:	48 8d 45 d0          	lea    -0x30(%rbp),%rax
    3887:	48 89 45 a0          	mov    %rax,-0x60(%rbp)
    388b:	48 8d 45 c0          	lea    -0x40(%rbp),%rax
    388f:	48 89 45 a8          	mov    %rax,-0x58(%rbp)
    3893:	66 c7 45 b0 04 00    	movw   $0x4,-0x50(%rbp)
    3899:	48 8d 45 80          	lea    -0x80(%rbp),%rax
    389d:	48 89 c1             	mov    %rax,%rcx
    38a0:	e8 00 00 00 00       	call   38a5 <test_robust+0x134>
    38a5:	48 8d 45 80          	lea    -0x80(%rbp),%rax
    38a9:	f3 0f 10 0d ac 07 00 	movss  0x7ac(%rip),%xmm1        # 405d <test_robust+0x8ec>
    38b0:	00 
    38b1:	48 89 c1             	mov    %rax,%rcx
    38b4:	e8 00 00 00 00       	call   38b9 <test_robust+0x148>
    38b9:	66 85 c0             	test   %ax,%ax
    38bc:	74 1f                	je     38dd <test_robust+0x16c>
    38be:	41 b8 19 02 00 00    	mov    $0x219,%r8d
    38c4:	48 8d 05 49 00 00 00 	lea    0x49(%rip),%rax        # 3914 <test_robust+0x1a3>
    38cb:	48 89 c2             	mov    %rax,%rdx
    38ce:	48 8d 05 5a 00 00 00 	lea    0x5a(%rip),%rax        # 392f <test_robust+0x1be>
    38d5:	48 89 c1             	mov    %rax,%rcx
    38d8:	e8 66 c7 ff ff       	call   43 <printf>
    38dd:	48 8d 45 80          	lea    -0x80(%rbp),%rax
    38e1:	f3 0f 10 0d ac 07 00 	movss  0x7ac(%rip),%xmm1        # 4095 <test_robust+0x924>
    38e8:	00 
    38e9:	48 89 c1             	mov    %rax,%rcx
    38ec:	e8 00 00 00 00       	call   38f1 <test_robust+0x180>
    38f1:	66 85 c0             	test   %ax,%ax
    38f4:	74 1f                	je     3915 <test_robust+0x1a4>
    38f6:	41 b8 1a 02 00 00    	mov    $0x21a,%r8d
    38fc:	48 8d 05 49 00 00 00 	lea    0x49(%rip),%rax        # 394c <test_robust+0x1db>
    3903:	48 89 c2             	mov    %rax,%rdx
    3906:	48 8d 05 5a 00 00 00 	lea    0x5a(%rip),%rax        # 3967 <test_robust+0x1f6>
    390d:	48 89 c1             	mov    %rax,%rcx
    3910:	e8 2e c7 ff ff       	call   43 <printf>
    3915:	48 8d 45 80          	lea    -0x80(%rbp),%rax
    3919:	f3 0f 10 0d ac 07 00 	movss  0x7ac(%rip),%xmm1        # 40cd <test_robust+0x95c>
    3920:	00 
    3921:	48 89 c1             	mov    %rax,%rcx
    3924:	e8 00 00 00 00       	call   3929 <test_robust+0x1b8>
    3929:	66 83 f8 01          	cmp    $0x1,%ax
    392d:	74 1f                	je     394e <test_robust+0x1dd>
    392f:	41 b8 1b 02 00 00    	mov    $0x21b,%r8d
    3935:	48 8d 05 49 00 00 00 	lea    0x49(%rip),%rax        # 3985 <test_robust+0x214>
    393c:	48 89 c2             	mov    %rax,%rdx
    393f:	48 8d 05 5a 00 00 00 	lea    0x5a(%rip),%rax        # 39a0 <test_robust+0x22f>
    3946:	48 89 c1             	mov    %rax,%rcx
    3949:	e8 f5 c6 ff ff       	call   43 <printf>
    394e:	48 8d 45 80          	lea    -0x80(%rbp),%rax
    3952:	f3 0f 10 0d ac 07 00 	movss  0x7ac(%rip),%xmm1        # 4106 <test_robust+0x995>
    3959:	00 
    395a:	48 89 c1             	mov    %rax,%rcx
    395d:	e8 00 00 00 00       	call   3962 <test_robust+0x1f1>
    3962:	66 83 f8 01          	cmp    $0x1,%ax
    3966:	74 1f                	je     3987 <test_robust+0x216>
    3968:	41 b8 1c 02 00 00    	mov    $0x21c,%r8d
    396e:	48 8d 05 49 00 00 00 	lea    0x49(%rip),%rax        # 39be <test_robust+0x24d>
    3975:	48 89 c2             	mov    %rax,%rdx
    3978:	48 8d 05 5a 00 00 00 	lea    0x5a(%rip),%rax        # 39d9 <test_robust+0x268>
    397f:	48 89 c1             	mov    %rax,%rcx
    3982:	e8 bc c6 ff ff       	call   43 <printf>
    3987:	48 8d 45 80          	lea    -0x80(%rbp),%rax
    398b:	f3 0f 10 0d ac 07 00 	movss  0x7ac(%rip),%xmm1        # 413f <test_robust+0x9ce>
    3992:	00 
    3993:	48 89 c1             	mov    %rax,%rcx
    3996:	e8 00 00 00 00       	call   399b <test_robust+0x22a>
    399b:	66 83 f8 01          	cmp    $0x1,%ax
    399f:	74 1f                	je     39c0 <test_robust+0x24f>
    39a1:	41 b8 1d 02 00 00    	mov    $0x21d,%r8d
    39a7:	48 8d 05 49 00 00 00 	lea    0x49(%rip),%rax        # 39f7 <test_robust+0x286>
    39ae:	48 89 c2             	mov    %rax,%rdx
    39b1:	48 8d 05 5a 00 00 00 	lea    0x5a(%rip),%rax        # 3a12 <test_robust+0x2a1>
    39b8:	48 89 c1             	mov    %rax,%rcx
    39bb:	e8 83 c6 ff ff       	call   43 <printf>
    39c0:	48 8d 45 80          	lea    -0x80(%rbp),%rax
    39c4:	f3 0f 10 0d ac 07 00 	movss  0x7ac(%rip),%xmm1        # 4178 <test_robust+0xa07>
    39cb:	00 
    39cc:	48 89 c1             	mov    %rax,%rcx
    39cf:	e8 00 00 00 00       	call   39d4 <test_robust+0x263>
    39d4:	66 83 f8 02          	cmp    $0x2,%ax
    39d8:	74 1f                	je     39f9 <test_robust+0x288>
    39da:	41 b8 1e 02 00 00    	mov    $0x21e,%r8d
    39e0:	48 8d 05 49 00 00 00 	lea    0x49(%rip),%rax        # 3a30 <test_robust+0x2bf>
    39e7:	48 89 c2             	mov    %rax,%rdx
    39ea:	48 8d 05 5a 00 00 00 	lea    0x5a(%rip),%rax        # 3a4b <test_robust+0x2da>
    39f1:	48 89 c1             	mov    %rax,%rcx
    39f4:	e8 4a c6 ff ff       	call   43 <printf>
    39f9:	48 8d 45 80          	lea    -0x80(%rbp),%rax
    39fd:	f3 0f 10 0d ac 07 00 	movss  0x7ac(%rip),%xmm1        # 41b1 <test_robust+0xa40>
    3a04:	00 
    3a05:	48 89 c1             	mov    %rax,%rcx
    3a08:	e8 00 00 00 00       	call   3a0d <test_robust+0x29c>
    3a0d:	66 83 f8 02          	cmp    $0x2,%ax
    3a11:	74 1f                	je     3a32 <test_robust+0x2c1>
    3a13:	41 b8 1f 02 00 00    	mov    $0x21f,%r8d
    3a19:	48 8d 05 49 00 00 00 	lea    0x49(%rip),%rax        # 3a69 <test_robust+0x2f8>
    3a20:	48 89 c2             	mov    %rax,%rdx
    3a23:	48 8d 05 5a 00 00 00 	lea    0x5a(%rip),%rax        # 3a84 <test_robust+0x313>
    3a2a:	48 89 c1             	mov    %rax,%rcx
    3a2d:	e8 11 c6 ff ff       	call   43 <printf>
    3a32:	48 8d 45 80          	lea    -0x80(%rbp),%rax
    3a36:	f3 0f 10 0d ac 07 00 	movss  0x7ac(%rip),%xmm1        # 41ea <test_robust+0xa79>
    3a3d:	00 
    3a3e:	48 89 c1             	mov    %rax,%rcx
    3a41:	e8 00 00 00 00       	call   3a46 <test_robust+0x2d5>
    3a46:	66 83 f8 02          	cmp    $0x2,%ax
    3a4a:	74 1f                	je     3a6b <test_robust+0x2fa>
    3a4c:	41 b8 20 02 00 00    	mov    $0x220,%r8d
    3a52:	48 8d 05 49 00 00 00 	lea    0x49(%rip),%rax        # 3aa2 <test_robust+0x331>
    3a59:	48 89 c2             	mov    %rax,%rdx
    3a5c:	48 8d 05 5a 00 00 00 	lea    0x5a(%rip),%rax        # 3abd <test_robust+0x34c>
    3a63:	48 89 c1             	mov    %rax,%rcx
    3a66:	e8 d8 c5 ff ff       	call   43 <printf>
    3a6b:	48 8d 45 80          	lea    -0x80(%rbp),%rax
    3a6f:	f3 0f 10 0d ac 07 00 	movss  0x7ac(%rip),%xmm1        # 4223 <test_robust+0xab2>
    3a76:	00 
    3a77:	48 89 c1             	mov    %rax,%rcx
    3a7a:	e8 00 00 00 00       	call   3a7f <test_robust+0x30e>
    3a7f:	66 83 f8 03          	cmp    $0x3,%ax
    3a83:	74 1f                	je     3aa4 <test_robust+0x333>
    3a85:	41 b8 21 02 00 00    	mov    $0x221,%r8d
    3a8b:	48 8d 05 49 00 00 00 	lea    0x49(%rip),%rax        # 3adb <test_robust+0x36a>
    3a92:	48 89 c2             	mov    %rax,%rdx
    3a95:	48 8d 05 5a 00 00 00 	lea    0x5a(%rip),%rax        # 3af6 <test_robust+0x385>
    3a9c:	48 89 c1             	mov    %rax,%rcx
    3a9f:	e8 9f c5 ff ff       	call   43 <printf>
    3aa4:	48 8d 45 80          	lea    -0x80(%rbp),%rax
    3aa8:	f3 0f 10 0d ac 07 00 	movss  0x7ac(%rip),%xmm1        # 425c <test_robust+0xaeb>
    3aaf:	00 
    3ab0:	48 89 c1             	mov    %rax,%rcx
    3ab3:	e8 00 00 00 00       	call   3ab8 <test_robust+0x347>
    3ab8:	66 83 f8 03          	cmp    $0x3,%ax
    3abc:	74 1f                	je     3add <test_robust+0x36c>
    3abe:	41 b8 22 02 00 00    	mov    $0x222,%r8d
    3ac4:	48 8d 05 49 00 00 00 	lea    0x49(%rip),%rax        # 3b14 <test_robust+0x3a3>
    3acb:	48 89 c2             	mov    %rax,%rdx
    3ace:	48 8d 05 5a 00 00 00 	lea    0x5a(%rip),%rax        # 3b2f <test_robust+0x3be>
    3ad5:	48 89 c1             	mov    %rax,%rcx
    3ad8:	e8 66 c5 ff ff       	call   43 <printf>
    3add:	48 8d 45 80          	lea    -0x80(%rbp),%rax
    3ae1:	f3 0f 10 0d ac 07 00 	movss  0x7ac(%rip),%xmm1        # 4295 <test_robust+0xb24>
    3ae8:	00 
    3ae9:	48 89 c1             	mov    %rax,%rcx
    3aec:	e8 00 00 00 00       	call   3af1 <test_robust+0x380>
    3af1:	66 83 f8 03          	cmp    $0x3,%ax
    3af5:	74 1f                	je     3b16 <test_robust+0x3a5>
    3af7:	41 b8 23 02 00 00    	mov    $0x223,%r8d
    3afd:	48 8d 05 49 00 00 00 	lea    0x49(%rip),%rax        # 3b4d <test_robust+0x3dc>
    3b04:	48 89 c2             	mov    %rax,%rdx
    3b07:	48 8d 05 5a 00 00 00 	lea    0x5a(%rip),%rax        # 3b68 <test_robust+0x3f7>
    3b0e:	48 89 c1             	mov    %rax,%rcx
    3b11:	e8 2d c5 ff ff       	call   43 <printf>
    3b16:	48 8d 45 80          	lea    -0x80(%rbp),%rax
    3b1a:	f3 0f 10 0d ac 07 00 	movss  0x7ac(%rip),%xmm1        # 42ce <test_robust+0xb5d>
    3b21:	00 
    3b22:	48 89 c1             	mov    %rax,%rcx
    3b25:	e8 00 00 00 00       	call   3b2a <test_robust+0x3b9>
    3b2a:	66 83 f8 03          	cmp    $0x3,%ax
    3b2e:	74 1f                	je     3b4f <test_robust+0x3de>
    3b30:	41 b8 24 02 00 00    	mov    $0x224,%r8d
    3b36:	48 8d 05 49 00 00 00 	lea    0x49(%rip),%rax        # 3b86 <test_robust+0x415>
    3b3d:	48 89 c2             	mov    %rax,%rdx
    3b40:	48 8d 05 5a 00 00 00 	lea    0x5a(%rip),%rax        # 3ba1 <test_robust+0x430>
    3b47:	48 89 c1             	mov    %rax,%rcx
    3b4a:	e8 f4 c4 ff ff       	call   43 <printf>
    3b4f:	48 8d 45 80          	lea    -0x80(%rbp),%rax
    3b53:	f3 0f 10 0d ac 07 00 	movss  0x7ac(%rip),%xmm1        # 4307 <test_robust+0xb96>
    3b5a:	00 
    3b5b:	48 89 c1             	mov    %rax,%rcx
    3b5e:	e8 00 00 00 00       	call   3b63 <test_robust+0x3f2>
    3b63:	66 83 f8 03          	cmp    $0x3,%ax
    3b67:	74 1f                	je     3b88 <test_robust+0x417>
    3b69:	41 b8 25 02 00 00    	mov    $0x225,%r8d
    3b6f:	48 8d 05 49 00 00 00 	lea    0x49(%rip),%rax        # 3bbf <test_robust+0x44e>
    3b76:	48 89 c2             	mov    %rax,%rdx
    3b79:	48 8d 05 5a 00 00 00 	lea    0x5a(%rip),%rax        # 3bda <test_robust+0x469>
    3b80:	48 89 c1             	mov    %rax,%rcx
    3b83:	e8 bb c4 ff ff       	call   43 <printf>
    3b88:	48 8d 45 80          	lea    -0x80(%rbp),%rax
    3b8c:	f3 0f 10 0d ac 07 00 	movss  0x7ac(%rip),%xmm1        # 4340 <test_robust+0xbcf>
    3b93:	00 
    3b94:	48 89 c1             	mov    %rax,%rcx
    3b97:	e8 00 00 00 00       	call   3b9c <test_robust+0x42b>
    3b9c:	66 83 f8 03          	cmp    $0x3,%ax
    3ba0:	74 1f                	je     3bc1 <test_robust+0x450>
    3ba2:	41 b8 26 02 00 00    	mov    $0x226,%r8d
    3ba8:	48 8d 05 49 00 00 00 	lea    0x49(%rip),%rax        # 3bf8 <test_robust+0x487>
    3baf:	48 89 c2             	mov    %rax,%rdx
    3bb2:	48 8d 05 5a 00 00 00 	lea    0x5a(%rip),%rax        # 3c13 <test_robust+0x4a2>
    3bb9:	48 89 c1             	mov    %rax,%rcx
    3bbc:	e8 82 c4 ff ff       	call   43 <printf>
    3bc1:	48 8d 45 80          	lea    -0x80(%rbp),%rax
    3bc5:	f3 0f 10 0d 3c 08 00 	movss  0x83c(%rip),%xmm1        # 4409 <test_robust+0xc98>
    3bcc:	00 
    3bcd:	48 89 c1             	mov    %rax,%rcx
    3bd0:	e8 00 00 00 00       	call   3bd5 <test_robust+0x464>
    3bd5:	66 83 f8 03          	cmp    $0x3,%ax
    3bd9:	74 1f                	je     3bfa <test_robust+0x489>
    3bdb:	41 b8 27 02 00 00    	mov    $0x227,%r8d
    3be1:	48 8d 05 49 00 00 00 	lea    0x49(%rip),%rax        # 3c31 <test_robust+0x4c0>
    3be8:	48 89 c2             	mov    %rax,%rdx
    3beb:	48 8d 05 5a 00 00 00 	lea    0x5a(%rip),%rax        # 3c4c <test_robust+0x4db>
    3bf2:	48 89 c1             	mov    %rax,%rcx
    3bf5:	e8 49 c4 ff ff       	call   43 <printf>
    3bfa:	48 8d 45 80          	lea    -0x80(%rbp),%rax
    3bfe:	f3 0f 10 0d 3c 08 00 	movss  0x83c(%rip),%xmm1        # 4442 <test_robust+0xcd1>
    3c05:	00 
    3c06:	48 89 c1             	mov    %rax,%rcx
    3c09:	e8 00 00 00 00       	call   3c0e <test_robust+0x49d>
    3c0e:	66 83 f8 03          	cmp    $0x3,%ax
    3c12:	74 1f                	je     3c33 <test_robust+0x4c2>
    3c14:	41 b8 28 02 00 00    	mov    $0x228,%r8d
    3c1a:	48 8d 05 49 00 00 00 	lea    0x49(%rip),%rax        # 3c6a <test_robust+0x4f9>
    3c21:	48 89 c2             	mov    %rax,%rdx
    3c24:	48 8d 05 5a 00 00 00 	lea    0x5a(%rip),%rax        # 3c85 <test_robust+0x514>
    3c2b:	48 89 c1             	mov    %rax,%rcx
    3c2e:	e8 10 c4 ff ff       	call   43 <printf>
    3c33:	48 8d 45 80          	lea    -0x80(%rbp),%rax
    3c37:	f3 0f 10 0d 3c 08 00 	movss  0x83c(%rip),%xmm1        # 447b <test_robust+0xd0a>
    3c3e:	00 
    3c3f:	48 89 c1             	mov    %rax,%rcx
    3c42:	e8 00 00 00 00       	call   3c47 <test_robust+0x4d6>
    3c47:	66 83 f8 02          	cmp    $0x2,%ax
    3c4b:	74 1f                	je     3c6c <test_robust+0x4fb>
    3c4d:	41 b8 29 02 00 00    	mov    $0x229,%r8d
    3c53:	48 8d 05 49 00 00 00 	lea    0x49(%rip),%rax        # 3ca3 <test_robust+0x532>
    3c5a:	48 89 c2             	mov    %rax,%rdx
    3c5d:	48 8d 05 5a 00 00 00 	lea    0x5a(%rip),%rax        # 3cbe <test_robust+0x54d>
    3c64:	48 89 c1             	mov    %rax,%rcx
    3c67:	e8 d7 c3 ff ff       	call   43 <printf>
    3c6c:	48 8d 45 80          	lea    -0x80(%rbp),%rax
    3c70:	f3 0f 10 0d 3c 08 00 	movss  0x83c(%rip),%xmm1        # 44b4 <test_robust+0xd43>
    3c77:	00 
    3c78:	48 89 c1             	mov    %rax,%rcx
    3c7b:	e8 00 00 00 00       	call   3c80 <test_robust+0x50f>
    3c80:	66 83 f8 02          	cmp    $0x2,%ax
    3c84:	74 1f                	je     3ca5 <test_robust+0x534>
    3c86:	41 b8 2a 02 00 00    	mov    $0x22a,%r8d
    3c8c:	48 8d 05 49 00 00 00 	lea    0x49(%rip),%rax        # 3cdc <test_robust+0x56b>
    3c93:	48 89 c2             	mov    %rax,%rdx
    3c96:	48 8d 05 5a 00 00 00 	lea    0x5a(%rip),%rax        # 3cf7 <test_robust+0x586>
    3c9d:	48 89 c1             	mov    %rax,%rcx
    3ca0:	e8 9e c3 ff ff       	call   43 <printf>
    3ca5:	48 8d 45 80          	lea    -0x80(%rbp),%rax
    3ca9:	f3 0f 10 0d 3c 08 00 	movss  0x83c(%rip),%xmm1        # 44ed <test_robust+0xd7c>
    3cb0:	00 
    3cb1:	48 89 c1             	mov    %rax,%rcx
    3cb4:	e8 00 00 00 00       	call   3cb9 <test_robust+0x548>
    3cb9:	66 83 f8 02          	cmp    $0x2,%ax
    3cbd:	74 1f                	je     3cde <test_robust+0x56d>
    3cbf:	41 b8 2b 02 00 00    	mov    $0x22b,%r8d
    3cc5:	48 8d 05 49 00 00 00 	lea    0x49(%rip),%rax        # 3d15 <test_robust+0x5a4>
    3ccc:	48 89 c2             	mov    %rax,%rdx
    3ccf:	48 8d 05 5a 00 00 00 	lea    0x5a(%rip),%rax        # 3d30 <test_robust+0x5bf>
    3cd6:	48 89 c1             	mov    %rax,%rcx
    3cd9:	e8 65 c3 ff ff       	call   43 <printf>
    3cde:	48 8d 45 80          	lea    -0x80(%rbp),%rax
    3ce2:	f3 0f 10 0d 3c 08 00 	movss  0x83c(%rip),%xmm1        # 4526 <test_robust+0xdb5>
    3ce9:	00 
    3cea:	48 89 c1             	mov    %rax,%rcx
    3ced:	e8 00 00 00 00       	call   3cf2 <test_robust+0x581>
    3cf2:	66 83 f8 01          	cmp    $0x1,%ax
    3cf6:	74 1f                	je     3d17 <test_robust+0x5a6>
    3cf8:	41 b8 2c 02 00 00    	mov    $0x22c,%r8d
    3cfe:	48 8d 05 49 00 00 00 	lea    0x49(%rip),%rax        # 3d4e <test_robust+0x5dd>
    3d05:	48 89 c2             	mov    %rax,%rdx
    3d08:	48 8d 05 5a 00 00 00 	lea    0x5a(%rip),%rax        # 3d69 <test_robust+0x5f8>
    3d0f:	48 89 c1             	mov    %rax,%rcx
    3d12:	e8 2c c3 ff ff       	call   43 <printf>
    3d17:	48 8d 45 80          	lea    -0x80(%rbp),%rax
    3d1b:	f3 0f 10 0d 3c 08 00 	movss  0x83c(%rip),%xmm1        # 455f <test_robust+0xdee>
    3d22:	00 
    3d23:	48 89 c1             	mov    %rax,%rcx
    3d26:	e8 00 00 00 00       	call   3d2b <test_robust+0x5ba>
    3d2b:	66 83 f8 01          	cmp    $0x1,%ax
    3d2f:	74 1f                	je     3d50 <test_robust+0x5df>
    3d31:	41 b8 2d 02 00 00    	mov    $0x22d,%r8d
    3d37:	48 8d 05 49 00 00 00 	lea    0x49(%rip),%rax        # 3d87 <test_robust+0x616>
    3d3e:	48 89 c2             	mov    %rax,%rdx
    3d41:	48 8d 05 5a 00 00 00 	lea    0x5a(%rip),%rax        # 3da2 <test_robust+0x631>
    3d48:	48 89 c1             	mov    %rax,%rcx
    3d4b:	e8 f3 c2 ff ff       	call   43 <printf>
    3d50:	48 8d 45 80          	lea    -0x80(%rbp),%rax
    3d54:	f3 0f 10 0d 3c 08 00 	movss  0x83c(%rip),%xmm1        # 4598 <test_robust+0xe27>
    3d5b:	00 
    3d5c:	48 89 c1             	mov    %rax,%rcx
    3d5f:	e8 00 00 00 00       	call   3d64 <test_robust+0x5f3>
    3d64:	66 83 f8 01          	cmp    $0x1,%ax
    3d68:	74 1f                	je     3d89 <test_robust+0x618>
    3d6a:	41 b8 2e 02 00 00    	mov    $0x22e,%r8d
    3d70:	48 8d 05 49 00 00 00 	lea    0x49(%rip),%rax        # 3dc0 <test_robust+0x64f>
    3d77:	48 89 c2             	mov    %rax,%rdx
    3d7a:	48 8d 05 5a 00 00 00 	lea    0x5a(%rip),%rax        # 3ddb <test_robust+0x66a>
    3d81:	48 89 c1             	mov    %rax,%rcx
    3d84:	e8 ba c2 ff ff       	call   43 <printf>
    3d89:	48 8d 45 80          	lea    -0x80(%rbp),%rax
    3d8d:	f3 0f 10 0d 3c 08 00 	movss  0x83c(%rip),%xmm1        # 45d1 <test_robust+0xe60>
    3d94:	00 
    3d95:	48 89 c1             	mov    %rax,%rcx
    3d98:	e8 00 00 00 00       	call   3d9d <test_robust+0x62c>
    3d9d:	66 85 c0             	test   %ax,%ax
    3da0:	74 1f                	je     3dc1 <test_robust+0x650>
    3da2:	41 b8 2f 02 00 00    	mov    $0x22f,%r8d
    3da8:	48 8d 05 49 00 00 00 	lea    0x49(%rip),%rax        # 3df8 <test_robust+0x687>
    3daf:	48 89 c2             	mov    %rax,%rdx
    3db2:	48 8d 05 5a 00 00 00 	lea    0x5a(%rip),%rax        # 3e13 <test_robust+0x6a2>
    3db9:	48 89 c1             	mov    %rax,%rcx
    3dbc:	e8 82 c2 ff ff       	call   43 <printf>
    3dc1:	48 8d 45 80          	lea    -0x80(%rbp),%rax
    3dc5:	f3 0f 10 0d 3c 08 00 	movss  0x83c(%rip),%xmm1        # 4609 <test_robust+0xe98>
    3dcc:	00 
    3dcd:	48 89 c1             	mov    %rax,%rcx
    3dd0:	e8 00 00 00 00       	call   3dd5 <test_robust+0x664>
    3dd5:	66 85 c0             	test   %ax,%ax
    3dd8:	74 1f                	je     3df9 <test_robust+0x688>
    3dda:	41 b8 30 02 00 00    	mov    $0x230,%r8d
    3de0:	48 8d 05 49 00 00 00 	lea    0x49(%rip),%rax        # 3e30 <test_robust+0x6bf>
    3de7:	48 89 c2             	mov    %rax,%rdx
    3dea:	48 8d 05 5a 00 00 00 	lea    0x5a(%rip),%rax        # 3e4b <test_robust+0x6da>
    3df1:	48 89 c1             	mov    %rax,%rcx
    3df4:	e8 4a c2 ff ff       	call   43 <printf>
    3df9:	48 8d 45 80          	lea    -0x80(%rbp),%rax
    3dfd:	f3 0f 10 0d 3c 08 00 	movss  0x83c(%rip),%xmm1        # 4641 <test_robust+0xed0>
    3e04:	00 
    3e05:	48 89 c1             	mov    %rax,%rcx
    3e08:	e8 00 00 00 00       	call   3e0d <test_robust+0x69c>
    3e0d:	66 85 c0             	test   %ax,%ax
    3e10:	74 1f                	je     3e31 <test_robust+0x6c0>
    3e12:	41 b8 31 02 00 00    	mov    $0x231,%r8d
    3e18:	48 8d 05 49 00 00 00 	lea    0x49(%rip),%rax        # 3e68 <test_robust+0x6f7>
    3e1f:	48 89 c2             	mov    %rax,%rdx
    3e22:	48 8d 05 5a 00 00 00 	lea    0x5a(%rip),%rax        # 3e83 <test_robust+0x712>
    3e29:	48 89 c1             	mov    %rax,%rcx
    3e2c:	e8 12 c2 ff ff       	call   43 <printf>
    3e31:	48 8d 45 80          	lea    -0x80(%rbp),%rax
    3e35:	f3 0f 10 0d 3c 08 00 	movss  0x83c(%rip),%xmm1        # 4679 <test_robust+0xf08>
    3e3c:	00 
    3e3d:	48 89 c1             	mov    %rax,%rcx
    3e40:	e8 00 00 00 00       	call   3e45 <test_robust+0x6d4>
    3e45:	66 85 c0             	test   %ax,%ax
    3e48:	74 1f                	je     3e69 <test_robust+0x6f8>
    3e4a:	41 b8 32 02 00 00    	mov    $0x232,%r8d
    3e50:	48 8d 05 49 00 00 00 	lea    0x49(%rip),%rax        # 3ea0 <test_robust+0x72f>
    3e57:	48 89 c2             	mov    %rax,%rdx
    3e5a:	48 8d 05 5a 00 00 00 	lea    0x5a(%rip),%rax        # 3ebb <test_robust+0x74a>
    3e61:	48 89 c1             	mov    %rax,%rcx
    3e64:	e8 da c1 ff ff       	call   43 <printf>
    3e69:	48 8d 45 80          	lea    -0x80(%rbp),%rax
    3e6d:	48 89 c1             	mov    %rax,%rcx
    3e70:	e8 00 00 00 00       	call   3e75 <test_robust+0x704>
    3e75:	48 8d 45 80          	lea    -0x80(%rbp),%rax
    3e79:	f3 0f 10 0d 40 08 00 	movss  0x840(%rip),%xmm1        # 46c1 <test_robust+0xf50>
    3e80:	00 
    3e81:	48 89 c1             	mov    %rax,%rcx
    3e84:	e8 00 00 00 00       	call   3e89 <test_robust+0x718>
    3e89:	66 85 c0             	test   %ax,%ax
    3e8c:	74 1f                	je     3ead <test_robust+0x73c>
    3e8e:	41 b8 34 02 00 00    	mov    $0x234,%r8d
    3e94:	48 8d 05 49 00 00 00 	lea    0x49(%rip),%rax        # 3ee4 <test_robust+0x773>
    3e9b:	48 89 c2             	mov    %rax,%rdx
    3e9e:	48 8d 05 5a 00 00 00 	lea    0x5a(%rip),%rax        # 3eff <test_robust+0x78e>
    3ea5:	48 89 c1             	mov    %rax,%rcx
    3ea8:	e8 96 c1 ff ff       	call   43 <printf>
    3ead:	48 8d 45 80          	lea    -0x80(%rbp),%rax
    3eb1:	f3 0f 10 0d 40 08 00 	movss  0x840(%rip),%xmm1        # 46f9 <test_robust+0xf88>
    3eb8:	00 
    3eb9:	48 89 c1             	mov    %rax,%rcx
    3ebc:	e8 00 00 00 00       	call   3ec1 <test_robust+0x750>
    3ec1:	66 85 c0             	test   %ax,%ax
    3ec4:	74 1f                	je     3ee5 <test_robust+0x774>
    3ec6:	41 b8 35 02 00 00    	mov    $0x235,%r8d
    3ecc:	48 8d 05 49 00 00 00 	lea    0x49(%rip),%rax        # 3f1c <test_robust+0x7ab>
    3ed3:	48 89 c2             	mov    %rax,%rdx
    3ed6:	48 8d 05 5a 00 00 00 	lea    0x5a(%rip),%rax        # 3f37 <test_robust+0x7c6>
    3edd:	48 89 c1             	mov    %rax,%rcx
    3ee0:	e8 5e c1 ff ff       	call   43 <printf>
    3ee5:	48 8d 45 80          	lea    -0x80(%rbp),%rax
    3ee9:	f3 0f 10 0d 40 08 00 	movss  0x840(%rip),%xmm1        # 4731 <test_robust+0xfc0>
    3ef0:	00 
    3ef1:	48 89 c1             	mov    %rax,%rcx
    3ef4:	e8 00 00 00 00       	call   3ef9 <test_robust+0x788>
    3ef9:	66 83 f8 01          	cmp    $0x1,%ax
    3efd:	74 1f                	je     3f1e <test_robust+0x7ad>
    3eff:	41 b8 36 02 00 00    	mov    $0x236,%r8d
    3f05:	48 8d 05 49 00 00 00 	lea    0x49(%rip),%rax        # 3f55 <test_robust+0x7e4>
    3f0c:	48 89 c2             	mov    %rax,%rdx
    3f0f:	48 8d 05 5a 00 00 00 	lea    0x5a(%rip),%rax        # 3f70 <test_robust+0x7ff>
    3f16:	48 89 c1             	mov    %rax,%rcx
    3f19:	e8 25 c1 ff ff       	call   43 <printf>
    3f1e:	48 8d 45 80          	lea    -0x80(%rbp),%rax
    3f22:	f3 0f 10 0d 40 08 00 	movss  0x840(%rip),%xmm1        # 476a <test_robust+0xff9>
    3f29:	00 
    3f2a:	48 89 c1             	mov    %rax,%rcx
    3f2d:	e8 00 00 00 00       	call   3f32 <test_robust+0x7c1>
    3f32:	66 83 f8 01          	cmp    $0x1,%ax
    3f36:	74 1f                	je     3f57 <test_robust+0x7e6>
    3f38:	41 b8 37 02 00 00    	mov    $0x237,%r8d
    3f3e:	48 8d 05 49 00 00 00 	lea    0x49(%rip),%rax        # 3f8e <test_robust+0x81d>
    3f45:	48 89 c2             	mov    %rax,%rdx
    3f48:	48 8d 05 5a 00 00 00 	lea    0x5a(%rip),%rax        # 3fa9 <test_robust+0x838>
    3f4f:	48 89 c1             	mov    %rax,%rcx
    3f52:	e8 ec c0 ff ff       	call   43 <printf>
    3f57:	48 8d 45 80          	lea    -0x80(%rbp),%rax
    3f5b:	f3 0f 10 0d 40 08 00 	movss  0x840(%rip),%xmm1        # 47a3 <test_robust+0x1032>
    3f62:	00 
    3f63:	48 89 c1             	mov    %rax,%rcx
    3f66:	e8 00 00 00 00       	call   3f6b <test_robust+0x7fa>
    3f6b:	66 83 f8 01          	cmp    $0x1,%ax
    3f6f:	74 1f                	je     3f90 <test_robust+0x81f>
    3f71:	41 b8 38 02 00 00    	mov    $0x238,%r8d
    3f77:	48 8d 05 49 00 00 00 	lea    0x49(%rip),%rax        # 3fc7 <test_robust+0x856>
    3f7e:	48 89 c2             	mov    %rax,%rdx
    3f81:	48 8d 05 5a 00 00 00 	lea    0x5a(%rip),%rax        # 3fe2 <test_robust+0x871>
    3f88:	48 89 c1             	mov    %rax,%rcx
    3f8b:	e8 b3 c0 ff ff       	call   43 <printf>
    3f90:	48 8d 45 80          	lea    -0x80(%rbp),%rax
    3f94:	f3 0f 10 0d 40 08 00 	movss  0x840(%rip),%xmm1        # 47dc <test_robust+0x106b>
    3f9b:	00 
    3f9c:	48 89 c1             	mov    %rax,%rcx
    3f9f:	e8 00 00 00 00       	call   3fa4 <test_robust+0x833>
    3fa4:	66 83 f8 02          	cmp    $0x2,%ax
    3fa8:	74 1f                	je     3fc9 <test_robust+0x858>
    3faa:	41 b8 39 02 00 00    	mov    $0x239,%r8d
    3fb0:	48 8d 05 49 00 00 00 	lea    0x49(%rip),%rax        # 4000 <test_robust+0x88f>
    3fb7:	48 89 c2             	mov    %rax,%rdx
    3fba:	48 8d 05 5a 00 00 00 	lea    0x5a(%rip),%rax        # 401b <test_robust+0x8aa>
    3fc1:	48 89 c1             	mov    %rax,%rcx
    3fc4:	e8 7a c0 ff ff       	call   43 <printf>
    3fc9:	48 8d 45 80          	lea    -0x80(%rbp),%rax
    3fcd:	f3 0f 10 0d 40 08 00 	movss  0x840(%rip),%xmm1        # 4815 <test_robust+0x10a4>
    3fd4:	00 
    3fd5:	48 89 c1             	mov    %rax,%rcx
    3fd8:	e8 00 00 00 00       	call   3fdd <test_robust+0x86c>
    3fdd:	66 83 f8 02          	cmp    $0x2,%ax
    3fe1:	74 1f                	je     4002 <test_robust+0x891>
    3fe3:	41 b8 3a 02 00 00    	mov    $0x23a,%r8d
    3fe9:	48 8d 05 49 00 00 00 	lea    0x49(%rip),%rax        # 4039 <test_robust+0x8c8>
    3ff0:	48 89 c2             	mov    %rax,%rdx
    3ff3:	48 8d 05 5a 00 00 00 	lea    0x5a(%rip),%rax        # 4054 <test_robust+0x8e3>
    3ffa:	48 89 c1             	mov    %rax,%rcx
    3ffd:	e8 41 c0 ff ff       	call   43 <printf>
    4002:	48 8d 45 80          	lea    -0x80(%rbp),%rax
    4006:	f3 0f 10 0d 40 08 00 	movss  0x840(%rip),%xmm1        # 484e <test_robust+0x10dd>
    400d:	00 
    400e:	48 89 c1             	mov    %rax,%rcx
    4011:	e8 00 00 00 00       	call   4016 <test_robust+0x8a5>
    4016:	66 83 f8 02          	cmp    $0x2,%ax
    401a:	74 1f                	je     403b <test_robust+0x8ca>
    401c:	41 b8 3b 02 00 00    	mov    $0x23b,%r8d
    4022:	48 8d 05 49 00 00 00 	lea    0x49(%rip),%rax        # 4072 <test_robust+0x901>
    4029:	48 89 c2             	mov    %rax,%rdx
    402c:	48 8d 05 5a 00 00 00 	lea    0x5a(%rip),%rax        # 408d <test_robust+0x91c>
    4033:	48 89 c1             	mov    %rax,%rcx
    4036:	e8 08 c0 ff ff       	call   43 <printf>
    403b:	48 8d 45 80          	lea    -0x80(%rbp),%rax
    403f:	f3 0f 10 0d 40 08 00 	movss  0x840(%rip),%xmm1        # 4887 <test_robust+0x1116>
    4046:	00 
    4047:	48 89 c1             	mov    %rax,%rcx
    404a:	e8 00 00 00 00       	call   404f <test_robust+0x8de>
    404f:	66 83 f8 02          	cmp    $0x2,%ax
    4053:	74 1f                	je     4074 <test_robust+0x903>
    4055:	41 b8 3c 02 00 00    	mov    $0x23c,%r8d
    405b:	48 8d 05 49 00 00 00 	lea    0x49(%rip),%rax        # 40ab <test_robust+0x93a>
    4062:	48 89 c2             	mov    %rax,%rdx
    4065:	48 8d 05 5a 00 00 00 	lea    0x5a(%rip),%rax        # 40c6 <test_robust+0x955>
    406c:	48 89 c1             	mov    %rax,%rcx
    406f:	e8 cf bf ff ff       	call   43 <printf>
    4074:	48 8d 45 80          	lea    -0x80(%rbp),%rax
    4078:	48 89 c1             	mov    %rax,%rcx
    407b:	e8 00 00 00 00       	call   4080 <test_robust+0x90f>
    4080:	48 8d 45 80          	lea    -0x80(%rbp),%rax
    4084:	f3 0f 10 0d ac 07 00 	movss  0x7ac(%rip),%xmm1        # 4838 <test_robust+0x10c7>
    408b:	00 
    408c:	48 89 c1             	mov    %rax,%rcx
    408f:	e8 00 00 00 00       	call   4094 <test_robust+0x923>
    4094:	66 85 c0             	test   %ax,%ax
    4097:	74 1f                	je     40b8 <test_robust+0x947>
    4099:	41 b8 3e 02 00 00    	mov    $0x23e,%r8d
    409f:	48 8d 05 49 00 00 00 	lea    0x49(%rip),%rax        # 40ef <test_robust+0x97e>
    40a6:	48 89 c2             	mov    %rax,%rdx
    40a9:	48 8d 05 5a 00 00 00 	lea    0x5a(%rip),%rax        # 410a <test_robust+0x999>
    40b0:	48 89 c1             	mov    %rax,%rcx
    40b3:	e8 8b bf ff ff       	call   43 <printf>
    40b8:	48 8d 45 80          	lea    -0x80(%rbp),%rax
    40bc:	f3 0f 10 0d ac 07 00 	movss  0x7ac(%rip),%xmm1        # 4870 <test_robust+0x10ff>
    40c3:	00 
    40c4:	48 89 c1             	mov    %rax,%rcx
    40c7:	e8 00 00 00 00       	call   40cc <test_robust+0x95b>
    40cc:	66 85 c0             	test   %ax,%ax
    40cf:	74 1f                	je     40f0 <test_robust+0x97f>
    40d1:	41 b8 3f 02 00 00    	mov    $0x23f,%r8d
    40d7:	48 8d 05 49 00 00 00 	lea    0x49(%rip),%rax        # 4127 <test_robust+0x9b6>
    40de:	48 89 c2             	mov    %rax,%rdx
    40e1:	48 8d 05 5a 00 00 00 	lea    0x5a(%rip),%rax        # 4142 <test_robust+0x9d1>
    40e8:	48 89 c1             	mov    %rax,%rcx
    40eb:	e8 53 bf ff ff       	call   43 <printf>
    40f0:	48 8d 45 80          	lea    -0x80(%rbp),%rax
    40f4:	66 0f ef c9          	pxor   %xmm1,%xmm1
    40f8:	48 89 c1             	mov    %rax,%rcx
    40fb:	e8 00 00 00 00       	call   4100 <test_robust+0x98f>
    4100:	66 85 c0             	test   %ax,%ax
    4103:	74 1f                	je     4124 <test_robust+0x9b3>
    4105:	41 b8 40 02 00 00    	mov    $0x240,%r8d
    410b:	48 8d 05 49 00 00 00 	lea    0x49(%rip),%rax        # 415b <test_robust+0x9ea>
    4112:	48 89 c2             	mov    %rax,%rdx
    4115:	48 8d 05 5a 00 00 00 	lea    0x5a(%rip),%rax        # 4176 <test_robust+0xa05>
    411c:	48 89 c1             	mov    %rax,%rcx
    411f:	e8 1f bf ff ff       	call   43 <printf>
    4124:	48 8d 45 80          	lea    -0x80(%rbp),%rax
    4128:	f3 0f 10 0d ac 07 00 	movss  0x7ac(%rip),%xmm1        # 48dc <test_robust+0x116b>
    412f:	00 
    4130:	48 89 c1             	mov    %rax,%rcx
    4133:	e8 00 00 00 00       	call   4138 <test_robust+0x9c7>
    4138:	66 85 c0             	test   %ax,%ax
    413b:	74 1f                	je     415c <test_robust+0x9eb>
    413d:	41 b8 41 02 00 00    	mov    $0x241,%r8d
    4143:	48 8d 05 49 00 00 00 	lea    0x49(%rip),%rax        # 4193 <test_robust+0xa22>
    414a:	48 89 c2             	mov    %rax,%rdx
    414d:	48 8d 05 5a 00 00 00 	lea    0x5a(%rip),%rax        # 41ae <test_robust+0xa3d>
    4154:	48 89 c1             	mov    %rax,%rcx
    4157:	e8 e7 be ff ff       	call   43 <printf>
    415c:	48 8d 45 80          	lea    -0x80(%rbp),%rax
    4160:	f3 0f 10 0d ac 07 00 	movss  0x7ac(%rip),%xmm1        # 4914 <test_robust+0x11a3>
    4167:	00 
    4168:	48 89 c1             	mov    %rax,%rcx
    416b:	e8 00 00 00 00       	call   4170 <test_robust+0x9ff>
    4170:	66 85 c0             	test   %ax,%ax
    4173:	74 1f                	je     4194 <test_robust+0xa23>
    4175:	41 b8 42 02 00 00    	mov    $0x242,%r8d
    417b:	48 8d 05 49 00 00 00 	lea    0x49(%rip),%rax        # 41cb <test_robust+0xa5a>
    4182:	48 89 c2             	mov    %rax,%rdx
    4185:	48 8d 05 5a 00 00 00 	lea    0x5a(%rip),%rax        # 41e6 <test_robust+0xa75>
    418c:	48 89 c1             	mov    %rax,%rcx
    418f:	e8 af be ff ff       	call   43 <printf>
    4194:	48 8d 45 80          	lea    -0x80(%rbp),%rax
    4198:	66 0f ef c9          	pxor   %xmm1,%xmm1
    419c:	48 89 c1             	mov    %rax,%rcx
    419f:	e8 00 00 00 00       	call   41a4 <test_robust+0xa33>
    41a4:	66 85 c0             	test   %ax,%ax
    41a7:	74 1f                	je     41c8 <test_robust+0xa57>
    41a9:	41 b8 43 02 00 00    	mov    $0x243,%r8d
    41af:	48 8d 05 49 00 00 00 	lea    0x49(%rip),%rax        # 41ff <test_robust+0xa8e>
    41b6:	48 89 c2             	mov    %rax,%rdx
    41b9:	48 8d 05 5a 00 00 00 	lea    0x5a(%rip),%rax        # 421a <test_robust+0xaa9>
    41c0:	48 89 c1             	mov    %rax,%rcx
    41c3:	e8 7b be ff ff       	call   43 <printf>
    41c8:	48 8d 45 80          	lea    -0x80(%rbp),%rax
    41cc:	f3 0f 10 0d 40 08 00 	movss  0x840(%rip),%xmm1        # 4a14 <test_robust+0x12a3>
    41d3:	00 
    41d4:	48 89 c1             	mov    %rax,%rcx
    41d7:	e8 00 00 00 00       	call   41dc <test_robust+0xa6b>
    41dc:	66 85 c0             	test   %ax,%ax
    41df:	74 1f                	je     4200 <test_robust+0xa8f>
    41e1:	41 b8 44 02 00 00    	mov    $0x244,%r8d
    41e7:	48 8d 05 49 00 00 00 	lea    0x49(%rip),%rax        # 4237 <test_robust+0xac6>
    41ee:	48 89 c2             	mov    %rax,%rdx
    41f1:	48 8d 05 5a 00 00 00 	lea    0x5a(%rip),%rax        # 4252 <test_robust+0xae1>
    41f8:	48 89 c1             	mov    %rax,%rcx
    41fb:	e8 43 be ff ff       	call   43 <printf>
    4200:	48 8d 45 80          	lea    -0x80(%rbp),%rax
    4204:	f3 0f 10 0d 40 08 00 	movss  0x840(%rip),%xmm1        # 4a4c <test_robust+0x12db>
    420b:	00 
    420c:	48 89 c1             	mov    %rax,%rcx
    420f:	e8 00 00 00 00       	call   4214 <test_robust+0xaa3>
    4214:	66 85 c0             	test   %ax,%ax
    4217:	74 1f                	je     4238 <test_robust+0xac7>
    4219:	41 b8 45 02 00 00    	mov    $0x245,%r8d
    421f:	48 8d 05 49 00 00 00 	lea    0x49(%rip),%rax        # 426f <test_robust+0xafe>
    4226:	48 89 c2             	mov    %rax,%rdx
    4229:	48 8d 05 5a 00 00 00 	lea    0x5a(%rip),%rax        # 428a <test_robust+0xb19>
    4230:	48 89 c1             	mov    %rax,%rcx
    4233:	e8 0b be ff ff       	call   43 <printf>
    4238:	48 8d 45 80          	lea    -0x80(%rbp),%rax
    423c:	f3 0f 10 0d 40 08 00 	movss  0x840(%rip),%xmm1        # 4a84 <test_robust+0x1313>
    4243:	00 
    4244:	48 89 c1             	mov    %rax,%rcx
    4247:	e8 00 00 00 00       	call   424c <test_robust+0xadb>
    424c:	66 83 f8 01          	cmp    $0x1,%ax
    4250:	74 1f                	je     4271 <test_robust+0xb00>
    4252:	41 b8 46 02 00 00    	mov    $0x246,%r8d
    4258:	48 8d 05 49 00 00 00 	lea    0x49(%rip),%rax        # 42a8 <test_robust+0xb37>
    425f:	48 89 c2             	mov    %rax,%rdx
    4262:	48 8d 05 5a 00 00 00 	lea    0x5a(%rip),%rax        # 42c3 <test_robust+0xb52>
    4269:	48 89 c1             	mov    %rax,%rcx
    426c:	e8 d2 bd ff ff       	call   43 <printf>
    4271:	48 8d 45 80          	lea    -0x80(%rbp),%rax
    4275:	f3 0f 10 0d 40 08 00 	movss  0x840(%rip),%xmm1        # 4abd <test_robust+0x134c>
    427c:	00 
    427d:	48 89 c1             	mov    %rax,%rcx
    4280:	e8 00 00 00 00       	call   4285 <test_robust+0xb14>
    4285:	66 83 f8 01          	cmp    $0x1,%ax
    4289:	74 1f                	je     42aa <test_robust+0xb39>
    428b:	41 b8 47 02 00 00    	mov    $0x247,%r8d
    4291:	48 8d 05 49 00 00 00 	lea    0x49(%rip),%rax        # 42e1 <test_robust+0xb70>
    4298:	48 89 c2             	mov    %rax,%rdx
    429b:	48 8d 05 5a 00 00 00 	lea    0x5a(%rip),%rax        # 42fc <test_robust+0xb8b>
    42a2:	48 89 c1             	mov    %rax,%rcx
    42a5:	e8 99 bd ff ff       	call   43 <printf>
    42aa:	48 8d 45 80          	lea    -0x80(%rbp),%rax
    42ae:	f3 0f 10 0d 40 08 00 	movss  0x840(%rip),%xmm1        # 4af6 <test_backlash+0x10>
    42b5:	00 
    42b6:	48 89 c1             	mov    %rax,%rcx
    42b9:	e8 00 00 00 00       	call   42be <test_robust+0xb4d>
    42be:	66 83 f8 01          	cmp    $0x1,%ax
    42c2:	74 1f                	je     42e3 <test_robust+0xb72>
    42c4:	41 b8 48 02 00 00    	mov    $0x248,%r8d
    42ca:	48 8d 05 49 00 00 00 	lea    0x49(%rip),%rax        # 431a <test_robust+0xba9>
    42d1:	48 89 c2             	mov    %rax,%rdx
    42d4:	48 8d 05 5a 00 00 00 	lea    0x5a(%rip),%rax        # 4335 <test_robust+0xbc4>
    42db:	48 89 c1             	mov    %rax,%rcx
    42de:	e8 60 bd ff ff       	call   43 <printf>
    42e3:	48 8d 45 80          	lea    -0x80(%rbp),%rax
    42e7:	f3 0f 10 0d 40 08 00 	movss  0x840(%rip),%xmm1        # 4b2f <test_backlash+0x49>
    42ee:	00 
    42ef:	48 89 c1             	mov    %rax,%rcx
    42f2:	e8 00 00 00 00       	call   42f7 <test_robust+0xb86>
    42f7:	66 83 f8 02          	cmp    $0x2,%ax
    42fb:	74 1f                	je     431c <test_robust+0xbab>
    42fd:	41 b8 49 02 00 00    	mov    $0x249,%r8d
    4303:	48 8d 05 49 00 00 00 	lea    0x49(%rip),%rax        # 4353 <test_robust+0xbe2>
    430a:	48 89 c2             	mov    %rax,%rdx
    430d:	48 8d 05 5a 00 00 00 	lea    0x5a(%rip),%rax        # 436e <test_robust+0xbfd>
    4314:	48 89 c1             	mov    %rax,%rcx
    4317:	e8 27 bd ff ff       	call   43 <printf>
    431c:	48 8d 45 80          	lea    -0x80(%rbp),%rax
    4320:	f3 0f 10 0d 40 08 00 	movss  0x840(%rip),%xmm1        # 4b68 <test_backlash+0x82>
    4327:	00 
    4328:	48 89 c1             	mov    %rax,%rcx
    432b:	e8 00 00 00 00       	call   4330 <test_robust+0xbbf>
    4330:	66 83 f8 02          	cmp    $0x2,%ax
    4334:	74 1f                	je     4355 <test_robust+0xbe4>
    4336:	41 b8 4a 02 00 00    	mov    $0x24a,%r8d
    433c:	48 8d 05 49 00 00 00 	lea    0x49(%rip),%rax        # 438c <test_robust+0xc1b>
    4343:	48 89 c2             	mov    %rax,%rdx
    4346:	48 8d 05 5a 00 00 00 	lea    0x5a(%rip),%rax        # 43a7 <test_robust+0xc36>
    434d:	48 89 c1             	mov    %rax,%rcx
    4350:	e8 ee bc ff ff       	call   43 <printf>
    4355:	48 8d 45 80          	lea    -0x80(%rbp),%rax
    4359:	f3 0f 10 0d 40 08 00 	movss  0x840(%rip),%xmm1        # 4ba1 <test_backlash+0xbb>
    4360:	00 
    4361:	48 89 c1             	mov    %rax,%rcx
    4364:	e8 00 00 00 00       	call   4369 <test_robust+0xbf8>
    4369:	66 83 f8 02          	cmp    $0x2,%ax
    436d:	74 1f                	je     438e <test_robust+0xc1d>
    436f:	41 b8 4b 02 00 00    	mov    $0x24b,%r8d
    4375:	48 8d 05 49 00 00 00 	lea    0x49(%rip),%rax        # 43c5 <test_robust+0xc54>
    437c:	48 89 c2             	mov    %rax,%rdx
    437f:	48 8d 05 5a 00 00 00 	lea    0x5a(%rip),%rax        # 43e0 <test_robust+0xc6f>
    4386:	48 89 c1             	mov    %rax,%rcx
    4389:	e8 b5 bc ff ff       	call   43 <printf>
    438e:	48 8d 45 80          	lea    -0x80(%rbp),%rax
    4392:	f3 0f 10 0d 40 08 00 	movss  0x840(%rip),%xmm1        # 4bda <test_backlash+0xf4>
    4399:	00 
    439a:	48 89 c1             	mov    %rax,%rcx
    439d:	e8 00 00 00 00       	call   43a2 <test_robust+0xc31>
    43a2:	66 83 f8 02          	cmp    $0x2,%ax
    43a6:	74 1f                	je     43c7 <test_robust+0xc56>
    43a8:	41 b8 4c 02 00 00    	mov    $0x24c,%r8d
    43ae:	48 8d 05 49 00 00 00 	lea    0x49(%rip),%rax        # 43fe <test_robust+0xc8d>
    43b5:	48 89 c2             	mov    %rax,%rdx
    43b8:	48 8d 05 5a 00 00 00 	lea    0x5a(%rip),%rax        # 4419 <test_robust+0xca8>
    43bf:	48 89 c1             	mov    %rax,%rcx
    43c2:	e8 7c bc ff ff       	call   43 <printf>
    43c7:	48 8d 45 80          	lea    -0x80(%rbp),%rax
    43cb:	f3 0f 10 0d 44 08 00 	movss  0x844(%rip),%xmm1        # 4c17 <test_backlash+0x131>
    43d2:	00 
    43d3:	48 89 c1             	mov    %rax,%rcx
    43d6:	e8 00 00 00 00       	call   43db <test_robust+0xc6a>
    43db:	66 83 f8 02          	cmp    $0x2,%ax
    43df:	74 1f                	je     4400 <test_robust+0xc8f>
    43e1:	41 b8 4d 02 00 00    	mov    $0x24d,%r8d
    43e7:	48 8d 05 49 00 00 00 	lea    0x49(%rip),%rax        # 4437 <test_robust+0xcc6>
    43ee:	48 89 c2             	mov    %rax,%rdx
    43f1:	48 8d 05 5a 00 00 00 	lea    0x5a(%rip),%rax        # 4452 <test_robust+0xce1>
    43f8:	48 89 c1             	mov    %rax,%rcx
    43fb:	e8 43 bc ff ff       	call   43 <printf>
    4400:	48 8d 45 80          	lea    -0x80(%rbp),%rax
    4404:	f3 0f 10 0d 44 08 00 	movss  0x844(%rip),%xmm1        # 4c50 <test_backlash+0x16a>
    440b:	00 
    440c:	48 89 c1             	mov    %rax,%rcx
    440f:	e8 00 00 00 00       	call   4414 <test_robust+0xca3>
    4414:	66 83 f8 02          	cmp    $0x2,%ax
    4418:	74 1f                	je     4439 <test_robust+0xcc8>
    441a:	41 b8 4e 02 00 00    	mov    $0x24e,%r8d
    4420:	48 8d 05 49 00 00 00 	lea    0x49(%rip),%rax        # 4470 <test_robust+0xcff>
    4427:	48 89 c2             	mov    %rax,%rdx
    442a:	48 8d 05 5a 00 00 00 	lea    0x5a(%rip),%rax        # 448b <test_robust+0xd1a>
    4431:	48 89 c1             	mov    %rax,%rcx
    4434:	e8 0a bc ff ff       	call   43 <printf>
    4439:	48 8d 45 80          	lea    -0x80(%rbp),%rax
    443d:	f3 0f 10 0d 44 08 00 	movss  0x844(%rip),%xmm1        # 4c89 <test_backlash+0x1a3>
    4444:	00 
    4445:	48 89 c1             	mov    %rax,%rcx
    4448:	e8 00 00 00 00       	call   444d <test_robust+0xcdc>
    444d:	66 83 f8 01          	cmp    $0x1,%ax
    4451:	74 1f                	je     4472 <test_robust+0xd01>
    4453:	41 b8 4f 02 00 00    	mov    $0x24f,%r8d
    4459:	48 8d 05 49 00 00 00 	lea    0x49(%rip),%rax        # 44a9 <test_robust+0xd38>
    4460:	48 89 c2             	mov    %rax,%rdx
    4463:	48 8d 05 5a 00 00 00 	lea    0x5a(%rip),%rax        # 44c4 <test_robust+0xd53>
    446a:	48 89 c1             	mov    %rax,%rcx
    446d:	e8 d1 bb ff ff       	call   43 <printf>
    4472:	48 8d 45 80          	lea    -0x80(%rbp),%rax
    4476:	f3 0f 10 0d 40 08 00 	movss  0x840(%rip),%xmm1        # 4cbe <test_backlash+0x1d8>
    447d:	00 
    447e:	48 89 c1             	mov    %rax,%rcx
    4481:	e8 00 00 00 00       	call   4486 <test_robust+0xd15>
    4486:	66 83 f8 01          	cmp    $0x1,%ax
    448a:	74 1f                	je     44ab <test_robust+0xd3a>
    448c:	41 b8 50 02 00 00    	mov    $0x250,%r8d
    4492:	48 8d 05 49 00 00 00 	lea    0x49(%rip),%rax        # 44e2 <test_robust+0xd71>
    4499:	48 89 c2             	mov    %rax,%rdx
    449c:	48 8d 05 5a 00 00 00 	lea    0x5a(%rip),%rax        # 44fd <test_robust+0xd8c>
    44a3:	48 89 c1             	mov    %rax,%rcx
    44a6:	e8 98 bb ff ff       	call   43 <printf>
    44ab:	48 8d 45 80          	lea    -0x80(%rbp),%rax
    44af:	f3 0f 10 0d 40 08 00 	movss  0x840(%rip),%xmm1        # 4cf7 <test_backlash+0x211>
    44b6:	00 
    44b7:	48 89 c1             	mov    %rax,%rcx
    44ba:	e8 00 00 00 00       	call   44bf <test_robust+0xd4e>
    44bf:	66 83 f8 01          	cmp    $0x1,%ax
    44c3:	74 1f                	je     44e4 <test_robust+0xd73>
    44c5:	41 b8 51 02 00 00    	mov    $0x251,%r8d
    44cb:	48 8d 05 49 00 00 00 	lea    0x49(%rip),%rax        # 451b <test_robust+0xdaa>
    44d2:	48 89 c2             	mov    %rax,%rdx
    44d5:	48 8d 05 5a 00 00 00 	lea    0x5a(%rip),%rax        # 4536 <test_robust+0xdc5>
    44dc:	48 89 c1             	mov    %rax,%rcx
    44df:	e8 5f bb ff ff       	call   43 <printf>
    44e4:	48 8d 45 80          	lea    -0x80(%rbp),%rax
    44e8:	f3 0f 10 0d 44 08 00 	movss  0x844(%rip),%xmm1        # 4d34 <test_backlash+0x24e>
    44ef:	00 
    44f0:	48 89 c1             	mov    %rax,%rcx
    44f3:	e8 00 00 00 00       	call   44f8 <test_robust+0xd87>
    44f8:	66 83 f8 01          	cmp    $0x1,%ax
    44fc:	74 1f                	je     451d <test_robust+0xdac>
    44fe:	41 b8 52 02 00 00    	mov    $0x252,%r8d
    4504:	48 8d 05 49 00 00 00 	lea    0x49(%rip),%rax        # 4554 <test_robust+0xde3>
    450b:	48 89 c2             	mov    %rax,%rdx
    450e:	48 8d 05 5a 00 00 00 	lea    0x5a(%rip),%rax        # 456f <test_robust+0xdfe>
    4515:	48 89 c1             	mov    %rax,%rcx
    4518:	e8 26 bb ff ff       	call   43 <printf>
    451d:	48 8d 45 80          	lea    -0x80(%rbp),%rax
    4521:	f3 0f 10 0d 44 08 00 	movss  0x844(%rip),%xmm1        # 4d6d <test_backlash+0x287>
    4528:	00 
    4529:	48 89 c1             	mov    %rax,%rcx
    452c:	e8 00 00 00 00       	call   4531 <test_robust+0xdc0>
    4531:	66 83 f8 01          	cmp    $0x1,%ax
    4535:	74 1f                	je     4556 <test_robust+0xde5>
    4537:	41 b8 53 02 00 00    	mov    $0x253,%r8d
    453d:	48 8d 05 49 00 00 00 	lea    0x49(%rip),%rax        # 458d <test_robust+0xe1c>
    4544:	48 89 c2             	mov    %rax,%rdx
    4547:	48 8d 05 5a 00 00 00 	lea    0x5a(%rip),%rax        # 45a8 <test_robust+0xe37>
    454e:	48 89 c1             	mov    %rax,%rcx
    4551:	e8 ed ba ff ff       	call   43 <printf>
    4556:	48 8d 45 80          	lea    -0x80(%rbp),%rax
    455a:	f3 0f 10 0d 44 08 00 	movss  0x844(%rip),%xmm1        # 4da6 <test_backlash+0x2c0>
    4561:	00 
    4562:	48 89 c1             	mov    %rax,%rcx
    4565:	e8 00 00 00 00       	call   456a <test_robust+0xdf9>
    456a:	66 83 f8 01          	cmp    $0x1,%ax
    456e:	74 1f                	je     458f <test_robust+0xe1e>
    4570:	41 b8 54 02 00 00    	mov    $0x254,%r8d
    4576:	48 8d 05 49 00 00 00 	lea    0x49(%rip),%rax        # 45c6 <test_robust+0xe55>
    457d:	48 89 c2             	mov    %rax,%rdx
