
./build/pdsp.o:     file format pe-x86-64


Disassembly of section .text:

0000000000000000 <printf>:
       0:	55                   	push   %rbp
       1:	53                   	push   %rbx
       2:	48 83 ec 38          	sub    $0x38,%rsp
       6:	48 8d 6c 24 30       	lea    0x30(%rsp),%rbp
       b:	48 89 4d 20          	mov    %rcx,0x20(%rbp)
       f:	48 89 55 28          	mov    %rdx,0x28(%rbp)
      13:	4c 89 45 30          	mov    %r8,0x30(%rbp)
      17:	4c 89 4d 38          	mov    %r9,0x38(%rbp)
      1b:	48 8d 45 28          	lea    0x28(%rbp),%rax
      1f:	48 89 45 f0          	mov    %rax,-0x10(%rbp)
      23:	48 8b 5d f0          	mov    -0x10(%rbp),%rbx
      27:	b9 01 00 00 00       	mov    $0x1,%ecx
      2c:	48 8b 05 00 00 00 00 	mov    0x0(%rip),%rax        # 33 <printf+0x33>
      33:	ff d0                	call   *%rax
      35:	48 89 c1             	mov    %rax,%rcx
      38:	48 8b 45 20          	mov    0x20(%rbp),%rax
      3c:	49 89 d8             	mov    %rbx,%r8
      3f:	48 89 c2             	mov    %rax,%rdx
      42:	e8 00 00 00 00       	call   47 <printf+0x47>
      47:	89 45 fc             	mov    %eax,-0x4(%rbp)
      4a:	8b 45 fc             	mov    -0x4(%rbp),%eax
      4d:	48 83 c4 38          	add    $0x38,%rsp
      51:	5b                   	pop    %rbx
      52:	5d                   	pop    %rbp
      53:	c3                   	ret

0000000000000054 <pdsp_stopwatch_start>:
      54:	55                   	push   %rbp
      55:	48 89 e5             	mov    %rsp,%rbp
      58:	48 83 ec 20          	sub    $0x20,%rsp
      5c:	48 89 4d 10          	mov    %rcx,0x10(%rbp)
      60:	89 55 18             	mov    %edx,0x18(%rbp)
      63:	48 83 7d 10 00       	cmpq   $0x0,0x10(%rbp)
      68:	75 1f                	jne    89 <pdsp_stopwatch_start+0x35>
      6a:	41 b8 55 00 00 00    	mov    $0x55,%r8d
      70:	48 8d 05 20 00 00 00 	lea    0x20(%rip),%rax        # 97 <pdsp_stopwatch_start+0x43>
      77:	48 89 c2             	mov    %rax,%rdx
      7a:	48 8d 05 27 00 00 00 	lea    0x27(%rip),%rax        # a8 <pdsp_stopwatch_stop+0xc>
      81:	48 89 c1             	mov    %rax,%rcx
      84:	e8 77 ff ff ff       	call   0 <printf>
      89:	48 8b 45 10          	mov    0x10(%rbp),%rax
      8d:	48 8b 00             	mov    (%rax),%rax
      90:	8b 55 18             	mov    0x18(%rbp),%edx
      93:	89 10                	mov    %edx,(%rax)
      95:	90                   	nop
      96:	48 83 c4 20          	add    $0x20,%rsp
      9a:	5d                   	pop    %rbp
      9b:	c3                   	ret

000000000000009c <pdsp_stopwatch_stop>:
      9c:	55                   	push   %rbp
      9d:	48 89 e5             	mov    %rsp,%rbp
      a0:	48 83 ec 20          	sub    $0x20,%rsp
      a4:	48 89 4d 10          	mov    %rcx,0x10(%rbp)
      a8:	89 55 18             	mov    %edx,0x18(%rbp)
      ab:	48 83 7d 10 00       	cmpq   $0x0,0x10(%rbp)
      b0:	74 0c                	je     be <pdsp_stopwatch_stop+0x22>
      b2:	48 8b 45 10          	mov    0x10(%rbp),%rax
      b6:	48 8b 00             	mov    (%rax),%rax
      b9:	48 85 c0             	test   %rax,%rax
      bc:	75 1f                	jne    dd <pdsp_stopwatch_stop+0x41>
      be:	41 b8 5c 00 00 00    	mov    $0x5c,%r8d
      c4:	48 8d 05 20 00 00 00 	lea    0x20(%rip),%rax        # eb <pdsp_stopwatch_stop+0x4f>
      cb:	48 89 c2             	mov    %rax,%rdx
      ce:	48 8d 05 27 00 00 00 	lea    0x27(%rip),%rax        # fc <pdsp_stopwatch_stop+0x60>
      d5:	48 89 c1             	mov    %rax,%rcx
      d8:	e8 23 ff ff ff       	call   0 <printf>
      dd:	48 8b 45 10          	mov    0x10(%rbp),%rax
      e1:	48 8b 00             	mov    (%rax),%rax
      e4:	8b 00                	mov    (%rax),%eax
      e6:	3b 45 18             	cmp    0x18(%rbp),%eax
      e9:	73 10                	jae    fb <pdsp_stopwatch_stop+0x5f>
      eb:	48 8b 45 10          	mov    0x10(%rbp),%rax
      ef:	48 8b 00             	mov    (%rax),%rax
      f2:	8b 10                	mov    (%rax),%edx
      f4:	8b 45 18             	mov    0x18(%rbp),%eax
      f7:	29 d0                	sub    %edx,%eax
      f9:	eb 17                	jmp    112 <pdsp_stopwatch_stop+0x76>
      fb:	48 8b 45 10          	mov    0x10(%rbp),%rax
      ff:	48 8b 00             	mov    (%rax),%rax
     102:	8b 00                	mov    (%rax),%eax
     104:	8b 55 18             	mov    0x18(%rbp),%edx
     107:	29 c2                	sub    %eax,%edx
     109:	48 8b 45 10          	mov    0x10(%rbp),%rax
     10d:	8b 40 08             	mov    0x8(%rax),%eax
     110:	01 d0                	add    %edx,%eax
     112:	48 83 c4 20          	add    $0x20,%rsp
     116:	5d                   	pop    %rbp
     117:	c3                   	ret

0000000000000118 <pdsp_call_i16_func>:
     118:	55                   	push   %rbp
     119:	48 89 e5             	mov    %rsp,%rbp
     11c:	48 83 ec 20          	sub    $0x20,%rsp
     120:	48 89 4d 10          	mov    %rcx,0x10(%rbp)
     124:	48 89 55 18          	mov    %rdx,0x18(%rbp)
     128:	44 89 c0             	mov    %r8d,%eax
     12b:	4c 89 4d 28          	mov    %r9,0x28(%rbp)
     12f:	66 89 45 20          	mov    %ax,0x20(%rbp)
     133:	48 83 7d 10 00       	cmpq   $0x0,0x10(%rbp)
     138:	74 0e                	je     148 <pdsp_call_i16_func+0x30>
     13a:	48 83 7d 28 00       	cmpq   $0x0,0x28(%rbp)
     13f:	74 07                	je     148 <pdsp_call_i16_func+0x30>
     141:	48 83 7d 18 00       	cmpq   $0x0,0x18(%rbp)
     146:	75 1f                	jne    167 <pdsp_call_i16_func+0x4f>
     148:	41 b8 6c 00 00 00    	mov    $0x6c,%r8d
     14e:	48 8d 05 20 00 00 00 	lea    0x20(%rip),%rax        # 175 <pdsp_call_i16_func+0x5d>
     155:	48 89 c2             	mov    %rax,%rdx
     158:	48 8d 05 27 00 00 00 	lea    0x27(%rip),%rax        # 186 <pdsp_call_i16_func+0x6e>
     15f:	48 89 c1             	mov    %rax,%rcx
     162:	e8 99 fe ff ff       	call   0 <printf>
     167:	0f b7 45 20          	movzwl 0x20(%rbp),%eax
     16b:	48 8d 14 c5 00 00 00 	lea    0x0(,%rax,8),%rdx
     172:	00 
     173:	48 8b 45 10          	mov    0x10(%rbp),%rax
     177:	48 01 d0             	add    %rdx,%rax
     17a:	48 8b 00             	mov    (%rax),%rax
     17d:	48 85 c0             	test   %rax,%rax
     180:	74 30                	je     1b2 <pdsp_call_i16_func+0x9a>
     182:	0f b7 45 20          	movzwl 0x20(%rbp),%eax
     186:	48 3b 45 18          	cmp    0x18(%rbp),%rax
     18a:	73 26                	jae    1b2 <pdsp_call_i16_func+0x9a>
     18c:	0f b7 45 20          	movzwl 0x20(%rbp),%eax
     190:	48 8d 14 c5 00 00 00 	lea    0x0(,%rax,8),%rdx
     197:	00 
     198:	48 8b 45 10          	mov    0x10(%rbp),%rax
     19c:	48 01 d0             	add    %rdx,%rax
     19f:	48 8b 00             	mov    (%rax),%rax
     1a2:	ff d0                	call   *%rax
     1a4:	48 8b 55 28          	mov    0x28(%rbp),%rdx
     1a8:	66 89 02             	mov    %ax,(%rdx)
     1ab:	b8 00 00 00 00       	mov    $0x0,%eax
     1b0:	eb 05                	jmp    1b7 <pdsp_call_i16_func+0x9f>
     1b2:	b8 02 00 00 00       	mov    $0x2,%eax
     1b7:	48 83 c4 20          	add    $0x20,%rsp
     1bb:	5d                   	pop    %rbp
     1bc:	c3                   	ret

00000000000001bd <pdsp_srec_encode>:
     1bd:	55                   	push   %rbp
     1be:	48 89 e5             	mov    %rsp,%rbp
     1c1:	48 83 ec 20          	sub    $0x20,%rsp
     1c5:	48 89 4d 10          	mov    %rcx,0x10(%rbp)
     1c9:	48 89 55 18          	mov    %rdx,0x18(%rbp)
     1cd:	48 83 7d 10 00       	cmpq   $0x0,0x10(%rbp)
     1d2:	74 07                	je     1db <pdsp_srec_encode+0x1e>
     1d4:	48 83 7d 18 00       	cmpq   $0x0,0x18(%rbp)
     1d9:	75 1f                	jne    1fa <pdsp_srec_encode+0x3d>
     1db:	41 b8 79 00 00 00    	mov    $0x79,%r8d
     1e1:	48 8d 05 20 00 00 00 	lea    0x20(%rip),%rax        # 208 <pdsp_i16_to_string+0x4>
     1e8:	48 89 c2             	mov    %rax,%rdx
     1eb:	48 8d 05 27 00 00 00 	lea    0x27(%rip),%rax        # 219 <pdsp_i16_to_string+0x15>
     1f2:	48 89 c1             	mov    %rax,%rcx
     1f5:	e8 06 fe ff ff       	call   0 <printf>
     1fa:	48 8b 45 10          	mov    0x10(%rbp),%rax
     1fe:	48 83 c4 20          	add    $0x20,%rsp
     202:	5d                   	pop    %rbp
     203:	c3                   	ret

0000000000000204 <pdsp_i16_to_string>:
     204:	55                   	push   %rbp
     205:	48 89 e5             	mov    %rsp,%rbp
     208:	48 83 ec 30          	sub    $0x30,%rsp
     20c:	89 c8                	mov    %ecx,%eax
     20e:	48 89 55 18          	mov    %rdx,0x18(%rbp)
     212:	66 89 45 10          	mov    %ax,0x10(%rbp)
     216:	66 c7 45 fe 05 00    	movw   $0x5,-0x2(%rbp)
     21c:	66 c7 45 fa 00 00    	movw   $0x0,-0x6(%rbp)
     222:	c6 45 fd 00          	movb   $0x0,-0x3(%rbp)
     226:	48 83 7d 18 00       	cmpq   $0x0,0x18(%rbp)
     22b:	75 1f                	jne    24c <pdsp_i16_to_string+0x48>
     22d:	41 b8 ca 00 00 00    	mov    $0xca,%r8d
     233:	48 8d 05 20 00 00 00 	lea    0x20(%rip),%rax        # 25a <pdsp_i16_to_string+0x56>
     23a:	48 89 c2             	mov    %rax,%rdx
     23d:	48 8d 05 27 00 00 00 	lea    0x27(%rip),%rax        # 26b <pdsp_i16_to_string+0x67>
     244:	48 89 c1             	mov    %rax,%rcx
     247:	e8 b4 fd ff ff       	call   0 <printf>
     24c:	66 81 7d 10 00 80    	cmpw   $0x8000,0x10(%rbp)
     252:	75 06                	jne    25a <pdsp_i16_to_string+0x56>
     254:	66 c7 45 10 01 80    	movw   $0x8001,0x10(%rbp)
     25a:	66 83 7d 10 00       	cmpw   $0x0,0x10(%rbp)
     25f:	79 0e                	jns    26f <pdsp_i16_to_string+0x6b>
     261:	0f b7 45 10          	movzwl 0x10(%rbp),%eax
     265:	f7 d8                	neg    %eax
     267:	66 89 45 10          	mov    %ax,0x10(%rbp)
     26b:	c6 45 fd 01          	movb   $0x1,-0x3(%rbp)
     26f:	66 83 7d 10 00       	cmpw   $0x0,0x10(%rbp)
     274:	0f 85 67 01 00 00    	jne    3e1 <pdsp_i16_to_string+0x1dd>
     27a:	0f b7 45 fe          	movzwl -0x2(%rbp),%eax
     27e:	89 c2                	mov    %eax,%edx
     280:	83 ea 01             	sub    $0x1,%edx
     283:	66 89 55 fe          	mov    %dx,-0x2(%rbp)
     287:	48 0f bf d0          	movswq %ax,%rdx
     28b:	48 8b 45 18          	mov    0x18(%rbp),%rax
     28f:	48 01 d0             	add    %rdx,%rax
     292:	c6 00 30             	movb   $0x30,(%rax)
     295:	0f b7 45 fe          	movzwl -0x2(%rbp),%eax
     299:	89 c2                	mov    %eax,%edx
     29b:	83 ea 01             	sub    $0x1,%edx
     29e:	66 89 55 fe          	mov    %dx,-0x2(%rbp)
     2a2:	48 0f bf d0          	movswq %ax,%rdx
     2a6:	48 8b 45 18          	mov    0x18(%rbp),%rax
     2aa:	48 01 d0             	add    %rdx,%rax
     2ad:	c6 00 20             	movb   $0x20,(%rax)
     2b0:	0f b7 45 fe          	movzwl -0x2(%rbp),%eax
     2b4:	89 c2                	mov    %eax,%edx
     2b6:	83 ea 01             	sub    $0x1,%edx
     2b9:	66 89 55 fe          	mov    %dx,-0x2(%rbp)
     2bd:	48 0f bf d0          	movswq %ax,%rdx
     2c1:	48 8b 45 18          	mov    0x18(%rbp),%rax
     2c5:	48 01 d0             	add    %rdx,%rax
     2c8:	c6 00 20             	movb   $0x20,(%rax)
     2cb:	0f b7 45 fe          	movzwl -0x2(%rbp),%eax
     2cf:	89 c2                	mov    %eax,%edx
     2d1:	83 ea 01             	sub    $0x1,%edx
     2d4:	66 89 55 fe          	mov    %dx,-0x2(%rbp)
     2d8:	48 0f bf d0          	movswq %ax,%rdx
     2dc:	48 8b 45 18          	mov    0x18(%rbp),%rax
     2e0:	48 01 d0             	add    %rdx,%rax
     2e3:	c6 00 20             	movb   $0x20,(%rax)
     2e6:	0f b7 45 fe          	movzwl -0x2(%rbp),%eax
     2ea:	89 c2                	mov    %eax,%edx
     2ec:	83 ea 01             	sub    $0x1,%edx
     2ef:	66 89 55 fe          	mov    %dx,-0x2(%rbp)
     2f3:	48 0f bf d0          	movswq %ax,%rdx
     2f7:	48 8b 45 18          	mov    0x18(%rbp),%rax
     2fb:	48 01 d0             	add    %rdx,%rax
     2fe:	c6 00 20             	movb   $0x20,(%rax)
     301:	0f b7 45 fe          	movzwl -0x2(%rbp),%eax
     305:	89 c2                	mov    %eax,%edx
     307:	83 ea 01             	sub    $0x1,%edx
     30a:	66 89 55 fe          	mov    %dx,-0x2(%rbp)
     30e:	48 0f bf d0          	movswq %ax,%rdx
     312:	48 8b 45 18          	mov    0x18(%rbp),%rax
     316:	48 01 d0             	add    %rdx,%rax
     319:	c6 00 20             	movb   $0x20,(%rax)
     31c:	e9 cb 00 00 00       	jmp    3ec <pdsp_i16_to_string+0x1e8>
     321:	66 83 7d 10 00       	cmpw   $0x0,0x10(%rbp)
     326:	74 77                	je     39f <pdsp_i16_to_string+0x19b>
     328:	0f b7 55 10          	movzwl 0x10(%rbp),%edx
     32c:	0f bf c2             	movswl %dx,%eax
     32f:	69 c0 67 66 00 00    	imul   $0x6667,%eax,%eax
     335:	c1 e8 10             	shr    $0x10,%eax
     338:	66 c1 f8 02          	sar    $0x2,%ax
     33c:	41 89 d0             	mov    %edx,%r8d
     33f:	66 41 c1 f8 0f       	sar    $0xf,%r8w
     344:	44 29 c0             	sub    %r8d,%eax
     347:	89 c1                	mov    %eax,%ecx
     349:	89 c8                	mov    %ecx,%eax
     34b:	c1 e0 02             	shl    $0x2,%eax
     34e:	01 c8                	add    %ecx,%eax
     350:	01 c0                	add    %eax,%eax
     352:	29 c2                	sub    %eax,%edx
     354:	66 89 55 fa          	mov    %dx,-0x6(%rbp)
     358:	0f b7 45 fa          	movzwl -0x6(%rbp),%eax
     35c:	8d 48 30             	lea    0x30(%rax),%ecx
     35f:	0f b7 45 fe          	movzwl -0x2(%rbp),%eax
     363:	89 c2                	mov    %eax,%edx
     365:	83 ea 01             	sub    $0x1,%edx
     368:	66 89 55 fe          	mov    %dx,-0x2(%rbp)
     36c:	48 0f bf d0          	movswq %ax,%rdx
     370:	48 8b 45 18          	mov    0x18(%rbp),%rax
     374:	48 01 d0             	add    %rdx,%rax
     377:	89 ca                	mov    %ecx,%edx
     379:	88 10                	mov    %dl,(%rax)
     37b:	0f b7 45 10          	movzwl 0x10(%rbp),%eax
     37f:	0f bf d0             	movswl %ax,%edx
     382:	69 d2 67 66 00 00    	imul   $0x6667,%edx,%edx
     388:	c1 ea 10             	shr    $0x10,%edx
     38b:	66 c1 fa 02          	sar    $0x2,%dx
     38f:	66 c1 f8 0f          	sar    $0xf,%ax
     393:	89 c1                	mov    %eax,%ecx
     395:	89 d0                	mov    %edx,%eax
     397:	29 c8                	sub    %ecx,%eax
     399:	66 89 45 10          	mov    %ax,0x10(%rbp)
     39d:	eb 42                	jmp    3e1 <pdsp_i16_to_string+0x1dd>
     39f:	80 7d fd 00          	cmpb   $0x0,-0x3(%rbp)
     3a3:	74 21                	je     3c6 <pdsp_i16_to_string+0x1c2>
     3a5:	0f b7 45 fe          	movzwl -0x2(%rbp),%eax
     3a9:	89 c2                	mov    %eax,%edx
     3ab:	83 ea 01             	sub    $0x1,%edx
     3ae:	66 89 55 fe          	mov    %dx,-0x2(%rbp)
     3b2:	48 0f bf d0          	movswq %ax,%rdx
     3b6:	48 8b 45 18          	mov    0x18(%rbp),%rax
     3ba:	48 01 d0             	add    %rdx,%rax
     3bd:	c6 00 2d             	movb   $0x2d,(%rax)
     3c0:	c6 45 fd 00          	movb   $0x0,-0x3(%rbp)
     3c4:	eb 1b                	jmp    3e1 <pdsp_i16_to_string+0x1dd>
     3c6:	0f b7 45 fe          	movzwl -0x2(%rbp),%eax
     3ca:	89 c2                	mov    %eax,%edx
     3cc:	83 ea 01             	sub    $0x1,%edx
     3cf:	66 89 55 fe          	mov    %dx,-0x2(%rbp)
     3d3:	48 0f bf d0          	movswq %ax,%rdx
     3d7:	48 8b 45 18          	mov    0x18(%rbp),%rax
     3db:	48 01 d0             	add    %rdx,%rax
     3de:	c6 00 20             	movb   $0x20,(%rax)
     3e1:	66 83 7d fe 00       	cmpw   $0x0,-0x2(%rbp)
     3e6:	0f 89 35 ff ff ff    	jns    321 <pdsp_i16_to_string+0x11d>
     3ec:	48 8b 45 18          	mov    0x18(%rbp),%rax
     3f0:	48 83 c0 06          	add    $0x6,%rax
     3f4:	48 83 c4 30          	add    $0x30,%rsp
     3f8:	5d                   	pop    %rbp
     3f9:	c3                   	ret

00000000000003fa <pdsp_u8_to_base16>:
     3fa:	55                   	push   %rbp
     3fb:	48 89 e5             	mov    %rsp,%rbp
     3fe:	48 83 ec 20          	sub    $0x20,%rsp
     402:	48 89 4d 10          	mov    %rcx,0x10(%rbp)
     406:	48 89 55 18          	mov    %rdx,0x18(%rbp)
     40a:	4c 89 45 20          	mov    %r8,0x20(%rbp)
     40e:	48 83 7d 10 00       	cmpq   $0x0,0x10(%rbp)
     413:	74 0b                	je     420 <pdsp_u8_to_base16+0x26>
     415:	48 83 7d 18 00       	cmpq   $0x0,0x18(%rbp)
     41a:	0f 85 87 00 00 00    	jne    4a7 <pdsp_u8_to_base16+0xad>
     420:	41 b8 00 01 00 00    	mov    $0x100,%r8d
     426:	48 8d 05 20 00 00 00 	lea    0x20(%rip),%rax        # 44d <pdsp_u8_to_base16+0x53>
     42d:	48 89 c2             	mov    %rax,%rdx
     430:	48 8d 05 27 00 00 00 	lea    0x27(%rip),%rax        # 45e <pdsp_u8_to_base16+0x64>
     437:	48 89 c1             	mov    %rax,%rcx
     43a:	e8 c1 fb ff ff       	call   0 <printf>
     43f:	eb 66                	jmp    4a7 <pdsp_u8_to_base16+0xad>
     441:	48 8b 45 18          	mov    0x18(%rbp),%rax
     445:	0f b6 00             	movzbl (%rax),%eax
     448:	c0 e8 04             	shr    $0x4,%al
     44b:	0f b6 c0             	movzbl %al,%eax
     44e:	83 e0 0f             	and    $0xf,%eax
     451:	89 c1                	mov    %eax,%ecx
     453:	48 8b 45 10          	mov    0x10(%rbp),%rax
     457:	48 8d 50 01          	lea    0x1(%rax),%rdx
     45b:	48 89 55 10          	mov    %rdx,0x10(%rbp)
     45f:	48 63 d1             	movslq %ecx,%rdx
     462:	48 8d 0d 00 00 00 00 	lea    0x0(%rip),%rcx        # 469 <pdsp_u8_to_base16+0x6f>
     469:	0f b6 14 0a          	movzbl (%rdx,%rcx,1),%edx
     46d:	88 10                	mov    %dl,(%rax)
     46f:	48 8b 45 18          	mov    0x18(%rbp),%rax
     473:	48 8d 50 01          	lea    0x1(%rax),%rdx
     477:	48 89 55 18          	mov    %rdx,0x18(%rbp)
     47b:	0f b6 00             	movzbl (%rax),%eax
     47e:	0f b6 c0             	movzbl %al,%eax
     481:	83 e0 0f             	and    $0xf,%eax
     484:	89 c1                	mov    %eax,%ecx
     486:	48 8b 45 10          	mov    0x10(%rbp),%rax
     48a:	48 8d 50 01          	lea    0x1(%rax),%rdx
     48e:	48 89 55 10          	mov    %rdx,0x10(%rbp)
     492:	48 63 d1             	movslq %ecx,%rdx
     495:	48 8d 0d 00 00 00 00 	lea    0x0(%rip),%rcx        # 49c <pdsp_u8_to_base16+0xa2>
     49c:	0f b6 14 0a          	movzbl (%rdx,%rcx,1),%edx
     4a0:	88 10                	mov    %dl,(%rax)
     4a2:	48 83 6d 20 01       	subq   $0x1,0x20(%rbp)
     4a7:	48 83 7d 20 00       	cmpq   $0x0,0x20(%rbp)
     4ac:	75 93                	jne    441 <pdsp_u8_to_base16+0x47>
     4ae:	48 8b 45 10          	mov    0x10(%rbp),%rax
     4b2:	48 83 c4 20          	add    $0x20,%rsp
     4b6:	5d                   	pop    %rbp
     4b7:	c3                   	ret

00000000000004b8 <pdsp_u16_to_base16>:
     4b8:	55                   	push   %rbp
     4b9:	48 89 e5             	mov    %rsp,%rbp
     4bc:	48 83 ec 20          	sub    $0x20,%rsp
     4c0:	48 89 4d 10          	mov    %rcx,0x10(%rbp)
     4c4:	89 d0                	mov    %edx,%eax
     4c6:	66 89 45 18          	mov    %ax,0x18(%rbp)
     4ca:	48 83 7d 10 00       	cmpq   $0x0,0x10(%rbp)
     4cf:	75 1f                	jne    4f0 <pdsp_u16_to_base16+0x38>
     4d1:	41 b8 0b 01 00 00    	mov    $0x10b,%r8d
     4d7:	48 8d 05 20 00 00 00 	lea    0x20(%rip),%rax        # 4fe <pdsp_u16_to_base16+0x46>
     4de:	48 89 c2             	mov    %rax,%rdx
     4e1:	48 8d 05 27 00 00 00 	lea    0x27(%rip),%rax        # 50f <pdsp_u16_to_base16+0x57>
     4e8:	48 89 c1             	mov    %rax,%rcx
     4eb:	e8 10 fb ff ff       	call   0 <printf>
     4f0:	0f b7 45 18          	movzwl 0x18(%rbp),%eax
     4f4:	66 c1 e8 0c          	shr    $0xc,%ax
     4f8:	0f b7 c0             	movzwl %ax,%eax
     4fb:	83 e0 0f             	and    $0xf,%eax
     4fe:	89 c1                	mov    %eax,%ecx
     500:	48 8b 45 10          	mov    0x10(%rbp),%rax
     504:	48 8d 50 01          	lea    0x1(%rax),%rdx
     508:	48 89 55 10          	mov    %rdx,0x10(%rbp)
     50c:	48 63 d1             	movslq %ecx,%rdx
     50f:	48 8d 0d 00 00 00 00 	lea    0x0(%rip),%rcx        # 516 <pdsp_u16_to_base16+0x5e>
     516:	0f b6 14 0a          	movzbl (%rdx,%rcx,1),%edx
     51a:	88 10                	mov    %dl,(%rax)
     51c:	0f b7 45 18          	movzwl 0x18(%rbp),%eax
     520:	66 c1 e8 08          	shr    $0x8,%ax
     524:	0f b7 c0             	movzwl %ax,%eax
     527:	83 e0 0f             	and    $0xf,%eax
     52a:	89 c1                	mov    %eax,%ecx
     52c:	48 8b 45 10          	mov    0x10(%rbp),%rax
     530:	48 8d 50 01          	lea    0x1(%rax),%rdx
     534:	48 89 55 10          	mov    %rdx,0x10(%rbp)
     538:	48 63 d1             	movslq %ecx,%rdx
     53b:	48 8d 0d 00 00 00 00 	lea    0x0(%rip),%rcx        # 542 <pdsp_u16_to_base16+0x8a>
     542:	0f b6 14 0a          	movzbl (%rdx,%rcx,1),%edx
     546:	88 10                	mov    %dl,(%rax)
     548:	0f b7 45 18          	movzwl 0x18(%rbp),%eax
     54c:	66 c1 e8 04          	shr    $0x4,%ax
     550:	0f b7 c0             	movzwl %ax,%eax
     553:	83 e0 0f             	and    $0xf,%eax
     556:	89 c1                	mov    %eax,%ecx
     558:	48 8b 45 10          	mov    0x10(%rbp),%rax
     55c:	48 8d 50 01          	lea    0x1(%rax),%rdx
     560:	48 89 55 10          	mov    %rdx,0x10(%rbp)
     564:	48 63 d1             	movslq %ecx,%rdx
     567:	48 8d 0d 00 00 00 00 	lea    0x0(%rip),%rcx        # 56e <pdsp_u16_to_base16+0xb6>
     56e:	0f b6 14 0a          	movzbl (%rdx,%rcx,1),%edx
     572:	88 10                	mov    %dl,(%rax)
     574:	0f b7 45 18          	movzwl 0x18(%rbp),%eax
     578:	83 e0 0f             	and    $0xf,%eax
     57b:	89 c1                	mov    %eax,%ecx
     57d:	48 8b 45 10          	mov    0x10(%rbp),%rax
     581:	48 8d 50 01          	lea    0x1(%rax),%rdx
     585:	48 89 55 10          	mov    %rdx,0x10(%rbp)
     589:	48 63 d1             	movslq %ecx,%rdx
     58c:	48 8d 0d 00 00 00 00 	lea    0x0(%rip),%rcx        # 593 <pdsp_u16_to_base16+0xdb>
     593:	0f b6 14 0a          	movzbl (%rdx,%rcx,1),%edx
     597:	88 10                	mov    %dl,(%rax)
     599:	48 8b 45 10          	mov    0x10(%rbp),%rax
     59d:	48 83 c4 20          	add    $0x20,%rsp
     5a1:	5d                   	pop    %rbp
     5a2:	c3                   	ret

00000000000005a3 <pdsp_u32_to_base16>:
     5a3:	55                   	push   %rbp
     5a4:	48 89 e5             	mov    %rsp,%rbp
     5a7:	48 83 ec 20          	sub    $0x20,%rsp
     5ab:	48 89 4d 10          	mov    %rcx,0x10(%rbp)
     5af:	89 55 18             	mov    %edx,0x18(%rbp)
     5b2:	48 83 7d 10 00       	cmpq   $0x0,0x10(%rbp)
     5b7:	75 1f                	jne    5d8 <pdsp_u32_to_base16+0x35>
     5b9:	41 b8 15 01 00 00    	mov    $0x115,%r8d
     5bf:	48 8d 05 20 00 00 00 	lea    0x20(%rip),%rax        # 5e6 <pdsp_u32_to_base16+0x43>
     5c6:	48 89 c2             	mov    %rax,%rdx
     5c9:	48 8d 05 27 00 00 00 	lea    0x27(%rip),%rax        # 5f7 <pdsp_u32_to_base16+0x54>
     5d0:	48 89 c1             	mov    %rax,%rcx
     5d3:	e8 28 fa ff ff       	call   0 <printf>
     5d8:	8b 45 18             	mov    0x18(%rbp),%eax
     5db:	c1 e8 1c             	shr    $0x1c,%eax
     5de:	89 c1                	mov    %eax,%ecx
     5e0:	48 8b 45 10          	mov    0x10(%rbp),%rax
     5e4:	48 8d 50 01          	lea    0x1(%rax),%rdx
     5e8:	48 89 55 10          	mov    %rdx,0x10(%rbp)
     5ec:	89 c9                	mov    %ecx,%ecx
     5ee:	48 8d 15 00 00 00 00 	lea    0x0(%rip),%rdx        # 5f5 <pdsp_u32_to_base16+0x52>
     5f5:	0f b6 14 11          	movzbl (%rcx,%rdx,1),%edx
     5f9:	88 10                	mov    %dl,(%rax)
     5fb:	8b 45 18             	mov    0x18(%rbp),%eax
     5fe:	c1 e8 18             	shr    $0x18,%eax
     601:	83 e0 0f             	and    $0xf,%eax
     604:	89 c1                	mov    %eax,%ecx
     606:	48 8b 45 10          	mov    0x10(%rbp),%rax
     60a:	48 8d 50 01          	lea    0x1(%rax),%rdx
     60e:	48 89 55 10          	mov    %rdx,0x10(%rbp)
     612:	89 c9                	mov    %ecx,%ecx
     614:	48 8d 15 00 00 00 00 	lea    0x0(%rip),%rdx        # 61b <pdsp_u32_to_base16+0x78>
     61b:	0f b6 14 11          	movzbl (%rcx,%rdx,1),%edx
     61f:	88 10                	mov    %dl,(%rax)
     621:	8b 45 18             	mov    0x18(%rbp),%eax
     624:	c1 e8 14             	shr    $0x14,%eax
     627:	83 e0 0f             	and    $0xf,%eax
     62a:	89 c1                	mov    %eax,%ecx
     62c:	48 8b 45 10          	mov    0x10(%rbp),%rax
     630:	48 8d 50 01          	lea    0x1(%rax),%rdx
     634:	48 89 55 10          	mov    %rdx,0x10(%rbp)
     638:	89 c9                	mov    %ecx,%ecx
     63a:	48 8d 15 00 00 00 00 	lea    0x0(%rip),%rdx        # 641 <pdsp_u32_to_base16+0x9e>
     641:	0f b6 14 11          	movzbl (%rcx,%rdx,1),%edx
     645:	88 10                	mov    %dl,(%rax)
     647:	8b 45 18             	mov    0x18(%rbp),%eax
     64a:	c1 e8 10             	shr    $0x10,%eax
     64d:	83 e0 0f             	and    $0xf,%eax
     650:	89 c1                	mov    %eax,%ecx
     652:	48 8b 45 10          	mov    0x10(%rbp),%rax
     656:	48 8d 50 01          	lea    0x1(%rax),%rdx
     65a:	48 89 55 10          	mov    %rdx,0x10(%rbp)
     65e:	89 c9                	mov    %ecx,%ecx
     660:	48 8d 15 00 00 00 00 	lea    0x0(%rip),%rdx        # 667 <pdsp_u32_to_base16+0xc4>
     667:	0f b6 14 11          	movzbl (%rcx,%rdx,1),%edx
     66b:	88 10                	mov    %dl,(%rax)
     66d:	8b 45 18             	mov    0x18(%rbp),%eax
     670:	c1 e8 0c             	shr    $0xc,%eax
     673:	83 e0 0f             	and    $0xf,%eax
     676:	89 c1                	mov    %eax,%ecx
     678:	48 8b 45 10          	mov    0x10(%rbp),%rax
     67c:	48 8d 50 01          	lea    0x1(%rax),%rdx
     680:	48 89 55 10          	mov    %rdx,0x10(%rbp)
     684:	89 c9                	mov    %ecx,%ecx
     686:	48 8d 15 00 00 00 00 	lea    0x0(%rip),%rdx        # 68d <pdsp_u32_to_base16+0xea>
     68d:	0f b6 14 11          	movzbl (%rcx,%rdx,1),%edx
     691:	88 10                	mov    %dl,(%rax)
     693:	8b 45 18             	mov    0x18(%rbp),%eax
     696:	c1 e8 08             	shr    $0x8,%eax
     699:	83 e0 0f             	and    $0xf,%eax
     69c:	89 c1                	mov    %eax,%ecx
     69e:	48 8b 45 10          	mov    0x10(%rbp),%rax
     6a2:	48 8d 50 01          	lea    0x1(%rax),%rdx
     6a6:	48 89 55 10          	mov    %rdx,0x10(%rbp)
     6aa:	89 c9                	mov    %ecx,%ecx
     6ac:	48 8d 15 00 00 00 00 	lea    0x0(%rip),%rdx        # 6b3 <pdsp_u32_to_base16+0x110>
     6b3:	0f b6 14 11          	movzbl (%rcx,%rdx,1),%edx
     6b7:	88 10                	mov    %dl,(%rax)
     6b9:	8b 45 18             	mov    0x18(%rbp),%eax
     6bc:	c1 e8 04             	shr    $0x4,%eax
     6bf:	83 e0 0f             	and    $0xf,%eax
     6c2:	89 c1                	mov    %eax,%ecx
     6c4:	48 8b 45 10          	mov    0x10(%rbp),%rax
     6c8:	48 8d 50 01          	lea    0x1(%rax),%rdx
     6cc:	48 89 55 10          	mov    %rdx,0x10(%rbp)
     6d0:	89 c9                	mov    %ecx,%ecx
     6d2:	48 8d 15 00 00 00 00 	lea    0x0(%rip),%rdx        # 6d9 <pdsp_u32_to_base16+0x136>
     6d9:	0f b6 14 11          	movzbl (%rcx,%rdx,1),%edx
     6dd:	88 10                	mov    %dl,(%rax)
     6df:	8b 45 18             	mov    0x18(%rbp),%eax
     6e2:	83 e0 0f             	and    $0xf,%eax
     6e5:	89 c1                	mov    %eax,%ecx
     6e7:	48 8b 45 10          	mov    0x10(%rbp),%rax
     6eb:	48 8d 50 01          	lea    0x1(%rax),%rdx
     6ef:	48 89 55 10          	mov    %rdx,0x10(%rbp)
     6f3:	89 c9                	mov    %ecx,%ecx
     6f5:	48 8d 15 00 00 00 00 	lea    0x0(%rip),%rdx        # 6fc <pdsp_u32_to_base16+0x159>
     6fc:	0f b6 14 11          	movzbl (%rcx,%rdx,1),%edx
     700:	88 10                	mov    %dl,(%rax)
     702:	48 8b 45 10          	mov    0x10(%rbp),%rax
     706:	48 83 c4 20          	add    $0x20,%rsp
     70a:	5d                   	pop    %rbp
     70b:	c3                   	ret

000000000000070c <pdsp_u64_to_base16>:
     70c:	55                   	push   %rbp
     70d:	48 89 e5             	mov    %rsp,%rbp
     710:	48 83 ec 20          	sub    $0x20,%rsp
     714:	48 89 4d 10          	mov    %rcx,0x10(%rbp)
     718:	48 89 55 18          	mov    %rdx,0x18(%rbp)
     71c:	48 83 7d 10 00       	cmpq   $0x0,0x10(%rbp)
     721:	75 1f                	jne    742 <pdsp_u64_to_base16+0x36>
     723:	41 b8 23 01 00 00    	mov    $0x123,%r8d
     729:	48 8d 05 20 00 00 00 	lea    0x20(%rip),%rax        # 750 <pdsp_u64_to_base16+0x44>
     730:	48 89 c2             	mov    %rax,%rdx
     733:	48 8d 05 27 00 00 00 	lea    0x27(%rip),%rax        # 761 <pdsp_u64_to_base16+0x55>
     73a:	48 89 c1             	mov    %rax,%rcx
     73d:	e8 be f8 ff ff       	call   0 <printf>
     742:	48 8b 45 18          	mov    0x18(%rbp),%rax
     746:	48 c1 e8 20          	shr    $0x20,%rax
     74a:	89 c2                	mov    %eax,%edx
     74c:	48 8b 45 10          	mov    0x10(%rbp),%rax
     750:	48 89 c1             	mov    %rax,%rcx
     753:	e8 4b fe ff ff       	call   5a3 <pdsp_u32_to_base16>
     758:	48 89 45 10          	mov    %rax,0x10(%rbp)
     75c:	48 8b 45 18          	mov    0x18(%rbp),%rax
     760:	89 c2                	mov    %eax,%edx
     762:	48 8b 45 10          	mov    0x10(%rbp),%rax
     766:	48 89 c1             	mov    %rax,%rcx
     769:	e8 35 fe ff ff       	call   5a3 <pdsp_u32_to_base16>
     76e:	48 89 45 10          	mov    %rax,0x10(%rbp)
     772:	48 8b 45 10          	mov    0x10(%rbp),%rax
     776:	48 83 c4 20          	add    $0x20,%rsp
     77a:	5d                   	pop    %rbp
     77b:	c3                   	ret

000000000000077c <pdsp_u16_to_base64>:
     77c:	55                   	push   %rbp
     77d:	48 89 e5             	mov    %rsp,%rbp
     780:	48 83 ec 20          	sub    $0x20,%rsp
     784:	48 89 4d 10          	mov    %rcx,0x10(%rbp)
     788:	89 d0                	mov    %edx,%eax
     78a:	66 89 45 18          	mov    %ax,0x18(%rbp)
     78e:	48 83 7d 10 00       	cmpq   $0x0,0x10(%rbp)
     793:	75 1f                	jne    7b4 <pdsp_u16_to_base64+0x38>
     795:	41 b8 2b 01 00 00    	mov    $0x12b,%r8d
     79b:	48 8d 05 20 00 00 00 	lea    0x20(%rip),%rax        # 7c2 <pdsp_u16_to_base64+0x46>
     7a2:	48 89 c2             	mov    %rax,%rdx
     7a5:	48 8d 05 27 00 00 00 	lea    0x27(%rip),%rax        # 7d3 <pdsp_u16_to_base64+0x57>
     7ac:	48 89 c1             	mov    %rax,%rcx
     7af:	e8 4c f8 ff ff       	call   0 <printf>
     7b4:	0f b7 45 18          	movzwl 0x18(%rbp),%eax
     7b8:	66 c1 e8 0a          	shr    $0xa,%ax
     7bc:	0f b7 c0             	movzwl %ax,%eax
     7bf:	83 e0 3f             	and    $0x3f,%eax
     7c2:	89 c1                	mov    %eax,%ecx
     7c4:	48 8b 45 10          	mov    0x10(%rbp),%rax
     7c8:	48 8d 50 01          	lea    0x1(%rax),%rdx
     7cc:	48 89 55 10          	mov    %rdx,0x10(%rbp)
     7d0:	48 63 d1             	movslq %ecx,%rdx
     7d3:	48 8d 0d 20 00 00 00 	lea    0x20(%rip),%rcx        # 7fa <pdsp_u16_to_base64+0x7e>
     7da:	0f b6 14 0a          	movzbl (%rdx,%rcx,1),%edx
     7de:	88 10                	mov    %dl,(%rax)
     7e0:	0f b7 45 18          	movzwl 0x18(%rbp),%eax
     7e4:	66 c1 e8 04          	shr    $0x4,%ax
     7e8:	0f b7 c0             	movzwl %ax,%eax
     7eb:	83 e0 3f             	and    $0x3f,%eax
     7ee:	89 c1                	mov    %eax,%ecx
     7f0:	48 8b 45 10          	mov    0x10(%rbp),%rax
     7f4:	48 8d 50 01          	lea    0x1(%rax),%rdx
     7f8:	48 89 55 10          	mov    %rdx,0x10(%rbp)
     7fc:	48 63 d1             	movslq %ecx,%rdx
     7ff:	48 8d 0d 20 00 00 00 	lea    0x20(%rip),%rcx        # 826 <pdsp_u16_to_base64+0xaa>
     806:	0f b6 14 0a          	movzbl (%rdx,%rcx,1),%edx
     80a:	88 10                	mov    %dl,(%rax)
     80c:	0f b7 45 18          	movzwl 0x18(%rbp),%eax
     810:	c1 e0 02             	shl    $0x2,%eax
     813:	83 e0 3f             	and    $0x3f,%eax
     816:	89 c1                	mov    %eax,%ecx
     818:	48 8b 45 10          	mov    0x10(%rbp),%rax
     81c:	48 8d 50 01          	lea    0x1(%rax),%rdx
     820:	48 89 55 10          	mov    %rdx,0x10(%rbp)
     824:	48 63 d1             	movslq %ecx,%rdx
     827:	48 8d 0d 20 00 00 00 	lea    0x20(%rip),%rcx        # 84e <pdsp_u32_to_base64+0x10>
     82e:	0f b6 14 0a          	movzbl (%rdx,%rcx,1),%edx
     832:	88 10                	mov    %dl,(%rax)
     834:	48 8b 45 10          	mov    0x10(%rbp),%rax
     838:	48 83 c4 20          	add    $0x20,%rsp
     83c:	5d                   	pop    %rbp
     83d:	c3                   	ret

000000000000083e <pdsp_u32_to_base64>:
     83e:	55                   	push   %rbp
     83f:	48 89 e5             	mov    %rsp,%rbp
     842:	48 83 ec 20          	sub    $0x20,%rsp
     846:	48 89 4d 10          	mov    %rcx,0x10(%rbp)
     84a:	89 55 18             	mov    %edx,0x18(%rbp)
     84d:	48 83 7d 10 00       	cmpq   $0x0,0x10(%rbp)
     852:	75 1f                	jne    873 <pdsp_u32_to_base64+0x35>
     854:	41 b8 34 01 00 00    	mov    $0x134,%r8d
     85a:	48 8d 05 20 00 00 00 	lea    0x20(%rip),%rax        # 881 <pdsp_u32_to_base64+0x43>
     861:	48 89 c2             	mov    %rax,%rdx
     864:	48 8d 05 27 00 00 00 	lea    0x27(%rip),%rax        # 892 <pdsp_u32_to_base64+0x54>
     86b:	48 89 c1             	mov    %rax,%rcx
     86e:	e8 8d f7 ff ff       	call   0 <printf>
     873:	8b 45 18             	mov    0x18(%rbp),%eax
     876:	c1 e8 1a             	shr    $0x1a,%eax
     879:	89 c1                	mov    %eax,%ecx
     87b:	48 8b 45 10          	mov    0x10(%rbp),%rax
     87f:	48 8d 50 01          	lea    0x1(%rax),%rdx
     883:	48 89 55 10          	mov    %rdx,0x10(%rbp)
     887:	89 c9                	mov    %ecx,%ecx
     889:	48 8d 15 20 00 00 00 	lea    0x20(%rip),%rdx        # 8b0 <pdsp_u32_to_base64+0x72>
     890:	0f b6 14 11          	movzbl (%rcx,%rdx,1),%edx
     894:	88 10                	mov    %dl,(%rax)
     896:	8b 45 18             	mov    0x18(%rbp),%eax
     899:	c1 e8 14             	shr    $0x14,%eax
     89c:	83 e0 3f             	and    $0x3f,%eax
     89f:	89 c1                	mov    %eax,%ecx
     8a1:	48 8b 45 10          	mov    0x10(%rbp),%rax
     8a5:	48 8d 50 01          	lea    0x1(%rax),%rdx
     8a9:	48 89 55 10          	mov    %rdx,0x10(%rbp)
     8ad:	89 c9                	mov    %ecx,%ecx
     8af:	48 8d 15 20 00 00 00 	lea    0x20(%rip),%rdx        # 8d6 <pdsp_u32_to_base64+0x98>
     8b6:	0f b6 14 11          	movzbl (%rcx,%rdx,1),%edx
     8ba:	88 10                	mov    %dl,(%rax)
     8bc:	8b 45 18             	mov    0x18(%rbp),%eax
     8bf:	c1 e8 0e             	shr    $0xe,%eax
     8c2:	83 e0 3f             	and    $0x3f,%eax
     8c5:	89 c1                	mov    %eax,%ecx
     8c7:	48 8b 45 10          	mov    0x10(%rbp),%rax
     8cb:	48 8d 50 01          	lea    0x1(%rax),%rdx
     8cf:	48 89 55 10          	mov    %rdx,0x10(%rbp)
     8d3:	89 c9                	mov    %ecx,%ecx
     8d5:	48 8d 15 20 00 00 00 	lea    0x20(%rip),%rdx        # 8fc <pdsp_u32_to_base64+0xbe>
     8dc:	0f b6 14 11          	movzbl (%rcx,%rdx,1),%edx
     8e0:	88 10                	mov    %dl,(%rax)
     8e2:	8b 45 18             	mov    0x18(%rbp),%eax
     8e5:	c1 e8 08             	shr    $0x8,%eax
     8e8:	83 e0 3f             	and    $0x3f,%eax
     8eb:	89 c1                	mov    %eax,%ecx
     8ed:	48 8b 45 10          	mov    0x10(%rbp),%rax
     8f1:	48 8d 50 01          	lea    0x1(%rax),%rdx
     8f5:	48 89 55 10          	mov    %rdx,0x10(%rbp)
     8f9:	89 c9                	mov    %ecx,%ecx
     8fb:	48 8d 15 20 00 00 00 	lea    0x20(%rip),%rdx        # 922 <pdsp_u32_to_base64+0xe4>
     902:	0f b6 14 11          	movzbl (%rcx,%rdx,1),%edx
     906:	88 10                	mov    %dl,(%rax)
     908:	8b 45 18             	mov    0x18(%rbp),%eax
     90b:	c1 e8 02             	shr    $0x2,%eax
     90e:	83 e0 3f             	and    $0x3f,%eax
     911:	89 c1                	mov    %eax,%ecx
     913:	48 8b 45 10          	mov    0x10(%rbp),%rax
     917:	48 8d 50 01          	lea    0x1(%rax),%rdx
     91b:	48 89 55 10          	mov    %rdx,0x10(%rbp)
     91f:	89 c9                	mov    %ecx,%ecx
     921:	48 8d 15 20 00 00 00 	lea    0x20(%rip),%rdx        # 948 <pdsp_u32_to_base64+0x10a>
     928:	0f b6 14 11          	movzbl (%rcx,%rdx,1),%edx
     92c:	88 10                	mov    %dl,(%rax)
     92e:	8b 45 18             	mov    0x18(%rbp),%eax
     931:	c1 e0 04             	shl    $0x4,%eax
     934:	83 e0 3f             	and    $0x3f,%eax
     937:	89 c1                	mov    %eax,%ecx
     939:	48 8b 45 10          	mov    0x10(%rbp),%rax
     93d:	48 8d 50 01          	lea    0x1(%rax),%rdx
     941:	48 89 55 10          	mov    %rdx,0x10(%rbp)
     945:	89 c9                	mov    %ecx,%ecx
     947:	48 8d 15 20 00 00 00 	lea    0x20(%rip),%rdx        # 96e <pdsp_u64_to_base64+0x10>
     94e:	0f b6 14 11          	movzbl (%rcx,%rdx,1),%edx
     952:	88 10                	mov    %dl,(%rax)
     954:	48 8b 45 10          	mov    0x10(%rbp),%rax
     958:	48 83 c4 20          	add    $0x20,%rsp
     95c:	5d                   	pop    %rbp
     95d:	c3                   	ret

000000000000095e <pdsp_u64_to_base64>:
     95e:	55                   	push   %rbp
     95f:	48 89 e5             	mov    %rsp,%rbp
     962:	48 83 ec 20          	sub    $0x20,%rsp
     966:	48 89 4d 10          	mov    %rcx,0x10(%rbp)
     96a:	48 89 55 18          	mov    %rdx,0x18(%rbp)
     96e:	48 83 7d 10 00       	cmpq   $0x0,0x10(%rbp)
     973:	75 1f                	jne    994 <pdsp_u64_to_base64+0x36>
     975:	41 b8 40 01 00 00    	mov    $0x140,%r8d
     97b:	48 8d 05 20 00 00 00 	lea    0x20(%rip),%rax        # 9a2 <pdsp_u64_to_base64+0x44>
     982:	48 89 c2             	mov    %rax,%rdx
     985:	48 8d 05 27 00 00 00 	lea    0x27(%rip),%rax        # 9b3 <pdsp_u64_to_base64+0x55>
     98c:	48 89 c1             	mov    %rax,%rcx
     98f:	e8 6c f6 ff ff       	call   0 <printf>
     994:	48 8b 45 18          	mov    0x18(%rbp),%rax
     998:	48 c1 e8 3a          	shr    $0x3a,%rax
     99c:	48 89 c1             	mov    %rax,%rcx
     99f:	48 8b 45 10          	mov    0x10(%rbp),%rax
     9a3:	48 8d 50 01          	lea    0x1(%rax),%rdx
     9a7:	48 89 55 10          	mov    %rdx,0x10(%rbp)
     9ab:	48 8d 15 20 00 00 00 	lea    0x20(%rip),%rdx        # 9d2 <pdsp_u64_to_base64+0x74>
     9b2:	0f b6 14 11          	movzbl (%rcx,%rdx,1),%edx
     9b6:	88 10                	mov    %dl,(%rax)
     9b8:	48 8b 45 18          	mov    0x18(%rbp),%rax
     9bc:	48 c1 e8 34          	shr    $0x34,%rax
     9c0:	83 e0 3f             	and    $0x3f,%eax
     9c3:	48 89 c1             	mov    %rax,%rcx
     9c6:	48 8b 45 10          	mov    0x10(%rbp),%rax
     9ca:	48 8d 50 01          	lea    0x1(%rax),%rdx
     9ce:	48 89 55 10          	mov    %rdx,0x10(%rbp)
     9d2:	48 8d 15 20 00 00 00 	lea    0x20(%rip),%rdx        # 9f9 <pdsp_u64_to_base64+0x9b>
     9d9:	0f b6 14 11          	movzbl (%rcx,%rdx,1),%edx
     9dd:	88 10                	mov    %dl,(%rax)
     9df:	48 8b 45 18          	mov    0x18(%rbp),%rax
     9e3:	48 c1 e8 2e          	shr    $0x2e,%rax
     9e7:	83 e0 3f             	and    $0x3f,%eax
     9ea:	48 89 c1             	mov    %rax,%rcx
     9ed:	48 8b 45 10          	mov    0x10(%rbp),%rax
     9f1:	48 8d 50 01          	lea    0x1(%rax),%rdx
     9f5:	48 89 55 10          	mov    %rdx,0x10(%rbp)
     9f9:	48 8d 15 20 00 00 00 	lea    0x20(%rip),%rdx        # a20 <pdsp_u64_to_base64+0xc2>
     a00:	0f b6 14 11          	movzbl (%rcx,%rdx,1),%edx
     a04:	88 10                	mov    %dl,(%rax)
     a06:	48 8b 45 18          	mov    0x18(%rbp),%rax
     a0a:	48 c1 e8 28          	shr    $0x28,%rax
     a0e:	83 e0 3f             	and    $0x3f,%eax
     a11:	48 89 c1             	mov    %rax,%rcx
     a14:	48 8b 45 10          	mov    0x10(%rbp),%rax
     a18:	48 8d 50 01          	lea    0x1(%rax),%rdx
     a1c:	48 89 55 10          	mov    %rdx,0x10(%rbp)
     a20:	48 8d 15 20 00 00 00 	lea    0x20(%rip),%rdx        # a47 <pdsp_u64_to_base64+0xe9>
     a27:	0f b6 14 11          	movzbl (%rcx,%rdx,1),%edx
     a2b:	88 10                	mov    %dl,(%rax)
     a2d:	48 8b 45 18          	mov    0x18(%rbp),%rax
     a31:	48 c1 e8 22          	shr    $0x22,%rax
     a35:	83 e0 3f             	and    $0x3f,%eax
     a38:	48 89 c1             	mov    %rax,%rcx
     a3b:	48 8b 45 10          	mov    0x10(%rbp),%rax
     a3f:	48 8d 50 01          	lea    0x1(%rax),%rdx
     a43:	48 89 55 10          	mov    %rdx,0x10(%rbp)
     a47:	48 8d 15 20 00 00 00 	lea    0x20(%rip),%rdx        # a6e <pdsp_u64_to_base64+0x110>
     a4e:	0f b6 14 11          	movzbl (%rcx,%rdx,1),%edx
     a52:	88 10                	mov    %dl,(%rax)
     a54:	48 8b 45 18          	mov    0x18(%rbp),%rax
     a58:	48 c1 e8 1c          	shr    $0x1c,%rax
     a5c:	83 e0 3f             	and    $0x3f,%eax
     a5f:	48 89 c1             	mov    %rax,%rcx
     a62:	48 8b 45 10          	mov    0x10(%rbp),%rax
     a66:	48 8d 50 01          	lea    0x1(%rax),%rdx
     a6a:	48 89 55 10          	mov    %rdx,0x10(%rbp)
     a6e:	48 8d 15 20 00 00 00 	lea    0x20(%rip),%rdx        # a95 <pdsp_u64_to_base64+0x137>
     a75:	0f b6 14 11          	movzbl (%rcx,%rdx,1),%edx
     a79:	88 10                	mov    %dl,(%rax)
     a7b:	48 8b 45 18          	mov    0x18(%rbp),%rax
     a7f:	48 c1 e8 16          	shr    $0x16,%rax
     a83:	83 e0 3f             	and    $0x3f,%eax
     a86:	48 89 c1             	mov    %rax,%rcx
     a89:	48 8b 45 10          	mov    0x10(%rbp),%rax
     a8d:	48 8d 50 01          	lea    0x1(%rax),%rdx
     a91:	48 89 55 10          	mov    %rdx,0x10(%rbp)
     a95:	48 8d 15 20 00 00 00 	lea    0x20(%rip),%rdx        # abc <pdsp_u64_to_base64+0x15e>
     a9c:	0f b6 14 11          	movzbl (%rcx,%rdx,1),%edx
     aa0:	88 10                	mov    %dl,(%rax)
     aa2:	48 8b 45 18          	mov    0x18(%rbp),%rax
     aa6:	48 c1 e8 10          	shr    $0x10,%rax
     aaa:	83 e0 3f             	and    $0x3f,%eax
     aad:	48 89 c1             	mov    %rax,%rcx
     ab0:	48 8b 45 10          	mov    0x10(%rbp),%rax
     ab4:	48 8d 50 01          	lea    0x1(%rax),%rdx
     ab8:	48 89 55 10          	mov    %rdx,0x10(%rbp)
     abc:	48 8d 15 20 00 00 00 	lea    0x20(%rip),%rdx        # ae3 <pdsp_u64_to_base64+0x185>
     ac3:	0f b6 14 11          	movzbl (%rcx,%rdx,1),%edx
     ac7:	88 10                	mov    %dl,(%rax)
     ac9:	48 8b 45 18          	mov    0x18(%rbp),%rax
     acd:	48 c1 e8 0a          	shr    $0xa,%rax
     ad1:	83 e0 3f             	and    $0x3f,%eax
     ad4:	48 89 c1             	mov    %rax,%rcx
     ad7:	48 8b 45 10          	mov    0x10(%rbp),%rax
     adb:	48 8d 50 01          	lea    0x1(%rax),%rdx
     adf:	48 89 55 10          	mov    %rdx,0x10(%rbp)
     ae3:	48 8d 15 20 00 00 00 	lea    0x20(%rip),%rdx        # b0a <pdsp_u64_to_base64+0x1ac>
     aea:	0f b6 14 11          	movzbl (%rcx,%rdx,1),%edx
     aee:	88 10                	mov    %dl,(%rax)
     af0:	48 8b 45 18          	mov    0x18(%rbp),%rax
     af4:	48 c1 e8 04          	shr    $0x4,%rax
     af8:	83 e0 3f             	and    $0x3f,%eax
     afb:	48 89 c1             	mov    %rax,%rcx
     afe:	48 8b 45 10          	mov    0x10(%rbp),%rax
     b02:	48 8d 50 01          	lea    0x1(%rax),%rdx
     b06:	48 89 55 10          	mov    %rdx,0x10(%rbp)
     b0a:	48 8d 15 20 00 00 00 	lea    0x20(%rip),%rdx        # b31 <pdsp_u64_to_base64+0x1d3>
     b11:	0f b6 14 11          	movzbl (%rcx,%rdx,1),%edx
     b15:	88 10                	mov    %dl,(%rax)
     b17:	48 8b 45 18          	mov    0x18(%rbp),%rax
     b1b:	48 c1 e0 02          	shl    $0x2,%rax
     b1f:	83 e0 3f             	and    $0x3f,%eax
     b22:	48 89 c1             	mov    %rax,%rcx
     b25:	48 8b 45 10          	mov    0x10(%rbp),%rax
     b29:	48 8d 50 01          	lea    0x1(%rax),%rdx
     b2d:	48 89 55 10          	mov    %rdx,0x10(%rbp)
     b31:	48 8d 15 20 00 00 00 	lea    0x20(%rip),%rdx        # b58 <pdsp_u16_to_base16_alt+0x10>
     b38:	0f b6 14 11          	movzbl (%rcx,%rdx,1),%edx
     b3c:	88 10                	mov    %dl,(%rax)
     b3e:	48 8b 45 10          	mov    0x10(%rbp),%rax
     b42:	48 83 c4 20          	add    $0x20,%rsp
     b46:	5d                   	pop    %rbp
     b47:	c3                   	ret

0000000000000b48 <pdsp_u16_to_base16_alt>:
     b48:	55                   	push   %rbp
     b49:	48 89 e5             	mov    %rsp,%rbp
     b4c:	48 83 ec 20          	sub    $0x20,%rsp
     b50:	89 c8                	mov    %ecx,%eax
     b52:	48 89 55 18          	mov    %rdx,0x18(%rbp)
     b56:	44 89 c2             	mov    %r8d,%edx
     b59:	66 89 45 10          	mov    %ax,0x10(%rbp)
     b5d:	89 d0                	mov    %edx,%eax
     b5f:	88 45 20             	mov    %al,0x20(%rbp)
     b62:	48 83 7d 18 00       	cmpq   $0x0,0x18(%rbp)
     b67:	75 1f                	jne    b88 <pdsp_u16_to_base16_alt+0x40>
     b69:	41 b8 54 01 00 00    	mov    $0x154,%r8d
     b6f:	48 8d 05 20 00 00 00 	lea    0x20(%rip),%rax        # b96 <pdsp_u16_to_base16_alt+0x4e>
     b76:	48 89 c2             	mov    %rax,%rdx
     b79:	48 8d 05 27 00 00 00 	lea    0x27(%rip),%rax        # ba7 <pdsp_u16_to_base16_alt+0x5f>
     b80:	48 89 c1             	mov    %rax,%rcx
     b83:	e8 78 f4 ff ff       	call   0 <printf>
     b88:	0f b6 55 20          	movzbl 0x20(%rbp),%edx
     b8c:	66 81 7d 10 ff 0f    	cmpw   $0xfff,0x10(%rbp)
     b92:	0f 97 c0             	seta   %al
     b95:	0f b6 c0             	movzbl %al,%eax
     b98:	09 d0                	or     %edx,%eax
     b9a:	85 c0                	test   %eax,%eax
     b9c:	0f 84 0d 01 00 00    	je     caf <pdsp_u16_to_base16_alt+0x167>
     ba2:	0f b7 45 10          	movzwl 0x10(%rbp),%eax
     ba6:	66 c1 e8 0c          	shr    $0xc,%ax
     baa:	83 e0 0f             	and    $0xf,%eax
     bad:	88 05 00 00 00 00    	mov    %al,0x0(%rip)        # bb3 <pdsp_u16_to_base16_alt+0x6b>
     bb3:	0f b6 05 00 00 00 00 	movzbl 0x0(%rip),%eax        # bba <pdsp_u16_to_base16_alt+0x72>
     bba:	3c 09                	cmp    $0x9,%al
     bbc:	7e 07                	jle    bc5 <pdsp_u16_to_base16_alt+0x7d>
     bbe:	ba 37 00 00 00       	mov    $0x37,%edx
     bc3:	eb 05                	jmp    bca <pdsp_u16_to_base16_alt+0x82>
     bc5:	ba 30 00 00 00       	mov    $0x30,%edx
     bca:	0f b6 05 00 00 00 00 	movzbl 0x0(%rip),%eax        # bd1 <pdsp_u16_to_base16_alt+0x89>
     bd1:	8d 0c 02             	lea    (%rdx,%rax,1),%ecx
     bd4:	48 8b 45 18          	mov    0x18(%rbp),%rax
     bd8:	48 8d 50 01          	lea    0x1(%rax),%rdx
     bdc:	48 89 55 18          	mov    %rdx,0x18(%rbp)
     be0:	89 ca                	mov    %ecx,%edx
     be2:	88 10                	mov    %dl,(%rax)
     be4:	0f b7 45 10          	movzwl 0x10(%rbp),%eax
     be8:	66 c1 e8 08          	shr    $0x8,%ax
     bec:	83 e0 0f             	and    $0xf,%eax
     bef:	88 05 00 00 00 00    	mov    %al,0x0(%rip)        # bf5 <pdsp_u16_to_base16_alt+0xad>
     bf5:	0f b6 05 00 00 00 00 	movzbl 0x0(%rip),%eax        # bfc <pdsp_u16_to_base16_alt+0xb4>
     bfc:	3c 09                	cmp    $0x9,%al
     bfe:	7e 07                	jle    c07 <pdsp_u16_to_base16_alt+0xbf>
     c00:	ba 37 00 00 00       	mov    $0x37,%edx
     c05:	eb 05                	jmp    c0c <pdsp_u16_to_base16_alt+0xc4>
     c07:	ba 30 00 00 00       	mov    $0x30,%edx
     c0c:	0f b6 05 00 00 00 00 	movzbl 0x0(%rip),%eax        # c13 <pdsp_u16_to_base16_alt+0xcb>
     c13:	8d 0c 02             	lea    (%rdx,%rax,1),%ecx
     c16:	48 8b 45 18          	mov    0x18(%rbp),%rax
     c1a:	48 8d 50 01          	lea    0x1(%rax),%rdx
     c1e:	48 89 55 18          	mov    %rdx,0x18(%rbp)
     c22:	89 ca                	mov    %ecx,%edx
     c24:	88 10                	mov    %dl,(%rax)
     c26:	0f b7 45 10          	movzwl 0x10(%rbp),%eax
     c2a:	66 c1 e8 04          	shr    $0x4,%ax
     c2e:	83 e0 0f             	and    $0xf,%eax
     c31:	88 05 00 00 00 00    	mov    %al,0x0(%rip)        # c37 <pdsp_u16_to_base16_alt+0xef>
     c37:	0f b6 05 00 00 00 00 	movzbl 0x0(%rip),%eax        # c3e <pdsp_u16_to_base16_alt+0xf6>
     c3e:	3c 09                	cmp    $0x9,%al
     c40:	7e 07                	jle    c49 <pdsp_u16_to_base16_alt+0x101>
     c42:	ba 37 00 00 00       	mov    $0x37,%edx
     c47:	eb 05                	jmp    c4e <pdsp_u16_to_base16_alt+0x106>
     c49:	ba 30 00 00 00       	mov    $0x30,%edx
     c4e:	0f b6 05 00 00 00 00 	movzbl 0x0(%rip),%eax        # c55 <pdsp_u16_to_base16_alt+0x10d>
     c55:	8d 0c 02             	lea    (%rdx,%rax,1),%ecx
     c58:	48 8b 45 18          	mov    0x18(%rbp),%rax
     c5c:	48 8d 50 01          	lea    0x1(%rax),%rdx
     c60:	48 89 55 18          	mov    %rdx,0x18(%rbp)
     c64:	89 ca                	mov    %ecx,%edx
     c66:	88 10                	mov    %dl,(%rax)
     c68:	0f b7 45 10          	movzwl 0x10(%rbp),%eax
     c6c:	83 e0 0f             	and    $0xf,%eax
     c6f:	88 05 00 00 00 00    	mov    %al,0x0(%rip)        # c75 <pdsp_u16_to_base16_alt+0x12d>
     c75:	0f b6 05 00 00 00 00 	movzbl 0x0(%rip),%eax        # c7c <pdsp_u16_to_base16_alt+0x134>
     c7c:	3c 09                	cmp    $0x9,%al
     c7e:	7e 07                	jle    c87 <pdsp_u16_to_base16_alt+0x13f>
     c80:	ba 37 00 00 00       	mov    $0x37,%edx
     c85:	eb 05                	jmp    c8c <pdsp_u16_to_base16_alt+0x144>
     c87:	ba 30 00 00 00       	mov    $0x30,%edx
     c8c:	0f b6 05 00 00 00 00 	movzbl 0x0(%rip),%eax        # c93 <pdsp_u16_to_base16_alt+0x14b>
     c93:	8d 0c 02             	lea    (%rdx,%rax,1),%ecx
     c96:	48 8b 45 18          	mov    0x18(%rbp),%rax
     c9a:	48 8d 50 01          	lea    0x1(%rax),%rdx
     c9e:	48 89 55 18          	mov    %rdx,0x18(%rbp)
     ca2:	89 ca                	mov    %ecx,%edx
     ca4:	88 10                	mov    %dl,(%rax)
     ca6:	48 8b 45 18          	mov    0x18(%rbp),%rax
     caa:	e9 aa 01 00 00       	jmp    e59 <pdsp_u16_to_base16_alt+0x311>
     caf:	66 81 7d 10 ff 00    	cmpw   $0xff,0x10(%rbp)
     cb5:	0f 86 cb 00 00 00    	jbe    d86 <pdsp_u16_to_base16_alt+0x23e>
     cbb:	0f b7 45 10          	movzwl 0x10(%rbp),%eax
     cbf:	66 c1 e8 08          	shr    $0x8,%ax
     cc3:	83 e0 0f             	and    $0xf,%eax
     cc6:	88 05 00 00 00 00    	mov    %al,0x0(%rip)        # ccc <pdsp_u16_to_base16_alt+0x184>
     ccc:	0f b6 05 00 00 00 00 	movzbl 0x0(%rip),%eax        # cd3 <pdsp_u16_to_base16_alt+0x18b>
     cd3:	3c 09                	cmp    $0x9,%al
     cd5:	7e 07                	jle    cde <pdsp_u16_to_base16_alt+0x196>
     cd7:	ba 37 00 00 00       	mov    $0x37,%edx
     cdc:	eb 05                	jmp    ce3 <pdsp_u16_to_base16_alt+0x19b>
     cde:	ba 30 00 00 00       	mov    $0x30,%edx
     ce3:	0f b6 05 00 00 00 00 	movzbl 0x0(%rip),%eax        # cea <pdsp_u16_to_base16_alt+0x1a2>
     cea:	8d 0c 02             	lea    (%rdx,%rax,1),%ecx
     ced:	48 8b 45 18          	mov    0x18(%rbp),%rax
     cf1:	48 8d 50 01          	lea    0x1(%rax),%rdx
     cf5:	48 89 55 18          	mov    %rdx,0x18(%rbp)
     cf9:	89 ca                	mov    %ecx,%edx
     cfb:	88 10                	mov    %dl,(%rax)
     cfd:	0f b7 45 10          	movzwl 0x10(%rbp),%eax
     d01:	66 c1 e8 04          	shr    $0x4,%ax
     d05:	83 e0 0f             	and    $0xf,%eax
     d08:	88 05 00 00 00 00    	mov    %al,0x0(%rip)        # d0e <pdsp_u16_to_base16_alt+0x1c6>
     d0e:	0f b6 05 00 00 00 00 	movzbl 0x0(%rip),%eax        # d15 <pdsp_u16_to_base16_alt+0x1cd>
     d15:	3c 09                	cmp    $0x9,%al
     d17:	7e 07                	jle    d20 <pdsp_u16_to_base16_alt+0x1d8>
     d19:	ba 37 00 00 00       	mov    $0x37,%edx
     d1e:	eb 05                	jmp    d25 <pdsp_u16_to_base16_alt+0x1dd>
     d20:	ba 30 00 00 00       	mov    $0x30,%edx
     d25:	0f b6 05 00 00 00 00 	movzbl 0x0(%rip),%eax        # d2c <pdsp_u16_to_base16_alt+0x1e4>
     d2c:	8d 0c 02             	lea    (%rdx,%rax,1),%ecx
     d2f:	48 8b 45 18          	mov    0x18(%rbp),%rax
     d33:	48 8d 50 01          	lea    0x1(%rax),%rdx
     d37:	48 89 55 18          	mov    %rdx,0x18(%rbp)
     d3b:	89 ca                	mov    %ecx,%edx
     d3d:	88 10                	mov    %dl,(%rax)
     d3f:	0f b7 45 10          	movzwl 0x10(%rbp),%eax
     d43:	83 e0 0f             	and    $0xf,%eax
     d46:	88 05 00 00 00 00    	mov    %al,0x0(%rip)        # d4c <pdsp_u16_to_base16_alt+0x204>
     d4c:	0f b6 05 00 00 00 00 	movzbl 0x0(%rip),%eax        # d53 <pdsp_u16_to_base16_alt+0x20b>
     d53:	3c 09                	cmp    $0x9,%al
     d55:	7e 07                	jle    d5e <pdsp_u16_to_base16_alt+0x216>
     d57:	ba 37 00 00 00       	mov    $0x37,%edx
     d5c:	eb 05                	jmp    d63 <pdsp_u16_to_base16_alt+0x21b>
     d5e:	ba 30 00 00 00       	mov    $0x30,%edx
     d63:	0f b6 05 00 00 00 00 	movzbl 0x0(%rip),%eax        # d6a <pdsp_u16_to_base16_alt+0x222>
     d6a:	8d 0c 02             	lea    (%rdx,%rax,1),%ecx
     d6d:	48 8b 45 18          	mov    0x18(%rbp),%rax
     d71:	48 8d 50 01          	lea    0x1(%rax),%rdx
     d75:	48 89 55 18          	mov    %rdx,0x18(%rbp)
     d79:	89 ca                	mov    %ecx,%edx
     d7b:	88 10                	mov    %dl,(%rax)
     d7d:	48 8b 45 18          	mov    0x18(%rbp),%rax
     d81:	e9 d3 00 00 00       	jmp    e59 <pdsp_u16_to_base16_alt+0x311>
     d86:	66 83 7d 10 0f       	cmpw   $0xf,0x10(%rbp)
     d8b:	0f 86 86 00 00 00    	jbe    e17 <pdsp_u16_to_base16_alt+0x2cf>
     d91:	0f b7 45 10          	movzwl 0x10(%rbp),%eax
     d95:	66 c1 e8 04          	shr    $0x4,%ax
     d99:	83 e0 0f             	and    $0xf,%eax
     d9c:	88 05 00 00 00 00    	mov    %al,0x0(%rip)        # da2 <pdsp_u16_to_base16_alt+0x25a>
     da2:	0f b6 05 00 00 00 00 	movzbl 0x0(%rip),%eax        # da9 <pdsp_u16_to_base16_alt+0x261>
     da9:	3c 09                	cmp    $0x9,%al
     dab:	7e 07                	jle    db4 <pdsp_u16_to_base16_alt+0x26c>
     dad:	ba 37 00 00 00       	mov    $0x37,%edx
     db2:	eb 05                	jmp    db9 <pdsp_u16_to_base16_alt+0x271>
     db4:	ba 30 00 00 00       	mov    $0x30,%edx
     db9:	0f b6 05 00 00 00 00 	movzbl 0x0(%rip),%eax        # dc0 <pdsp_u16_to_base16_alt+0x278>
     dc0:	8d 0c 02             	lea    (%rdx,%rax,1),%ecx
     dc3:	48 8b 45 18          	mov    0x18(%rbp),%rax
     dc7:	48 8d 50 01          	lea    0x1(%rax),%rdx
     dcb:	48 89 55 18          	mov    %rdx,0x18(%rbp)
     dcf:	89 ca                	mov    %ecx,%edx
     dd1:	88 10                	mov    %dl,(%rax)
     dd3:	0f b7 45 10          	movzwl 0x10(%rbp),%eax
     dd7:	83 e0 0f             	and    $0xf,%eax
     dda:	88 05 00 00 00 00    	mov    %al,0x0(%rip)        # de0 <pdsp_u16_to_base16_alt+0x298>
     de0:	0f b6 05 00 00 00 00 	movzbl 0x0(%rip),%eax        # de7 <pdsp_u16_to_base16_alt+0x29f>
     de7:	3c 09                	cmp    $0x9,%al
     de9:	7e 07                	jle    df2 <pdsp_u16_to_base16_alt+0x2aa>
     deb:	ba 37 00 00 00       	mov    $0x37,%edx
     df0:	eb 05                	jmp    df7 <pdsp_u16_to_base16_alt+0x2af>
     df2:	ba 30 00 00 00       	mov    $0x30,%edx
     df7:	0f b6 05 00 00 00 00 	movzbl 0x0(%rip),%eax        # dfe <pdsp_u16_to_base16_alt+0x2b6>
     dfe:	8d 0c 02             	lea    (%rdx,%rax,1),%ecx
     e01:	48 8b 45 18          	mov    0x18(%rbp),%rax
     e05:	48 8d 50 01          	lea    0x1(%rax),%rdx
     e09:	48 89 55 18          	mov    %rdx,0x18(%rbp)
     e0d:	89 ca                	mov    %ecx,%edx
     e0f:	88 10                	mov    %dl,(%rax)
     e11:	48 8b 45 18          	mov    0x18(%rbp),%rax
     e15:	eb 42                	jmp    e59 <pdsp_u16_to_base16_alt+0x311>
     e17:	0f b7 45 10          	movzwl 0x10(%rbp),%eax
     e1b:	83 e0 0f             	and    $0xf,%eax
     e1e:	88 05 00 00 00 00    	mov    %al,0x0(%rip)        # e24 <pdsp_u16_to_base16_alt+0x2dc>
     e24:	0f b6 05 00 00 00 00 	movzbl 0x0(%rip),%eax        # e2b <pdsp_u16_to_base16_alt+0x2e3>
     e2b:	3c 09                	cmp    $0x9,%al
     e2d:	7e 07                	jle    e36 <pdsp_u16_to_base16_alt+0x2ee>
     e2f:	ba 37 00 00 00       	mov    $0x37,%edx
     e34:	eb 05                	jmp    e3b <pdsp_u16_to_base16_alt+0x2f3>
     e36:	ba 30 00 00 00       	mov    $0x30,%edx
     e3b:	0f b6 05 00 00 00 00 	movzbl 0x0(%rip),%eax        # e42 <pdsp_u16_to_base16_alt+0x2fa>
     e42:	8d 0c 02             	lea    (%rdx,%rax,1),%ecx
     e45:	48 8b 45 18          	mov    0x18(%rbp),%rax
     e49:	48 8d 50 01          	lea    0x1(%rax),%rdx
     e4d:	48 89 55 18          	mov    %rdx,0x18(%rbp)
     e51:	89 ca                	mov    %ecx,%edx
     e53:	88 10                	mov    %dl,(%rax)
     e55:	48 8b 45 18          	mov    0x18(%rbp),%rax
     e59:	48 83 c4 20          	add    $0x20,%rsp
     e5d:	5d                   	pop    %rbp
     e5e:	c3                   	ret

0000000000000e5f <pdsp_u64_to_base16_alt>:
     e5f:	55                   	push   %rbp
     e60:	48 89 e5             	mov    %rsp,%rbp
     e63:	48 83 ec 20          	sub    $0x20,%rsp
     e67:	48 89 4d 10          	mov    %rcx,0x10(%rbp)
     e6b:	48 89 55 18          	mov    %rdx,0x18(%rbp)
     e6f:	48 83 7d 18 00       	cmpq   $0x0,0x18(%rbp)
     e74:	75 1f                	jne    e95 <pdsp_u64_to_base16_alt+0x36>
     e76:	41 b8 85 01 00 00    	mov    $0x185,%r8d
     e7c:	48 8d 05 20 00 00 00 	lea    0x20(%rip),%rax        # ea3 <pdsp_u64_to_base16_alt+0x44>
     e83:	48 89 c2             	mov    %rax,%rdx
     e86:	48 8d 05 27 00 00 00 	lea    0x27(%rip),%rax        # eb4 <pdsp_u64_to_base16_alt+0x55>
     e8d:	48 89 c1             	mov    %rax,%rcx
     e90:	e8 6b f1 ff ff       	call   0 <printf>
     e95:	48 8b 45 10          	mov    0x10(%rbp),%rax
     e99:	48 c1 e8 30          	shr    $0x30,%rax
     e9d:	0f b7 c0             	movzwl %ax,%eax
     ea0:	48 8b 55 18          	mov    0x18(%rbp),%rdx
     ea4:	41 b8 01 00 00 00    	mov    $0x1,%r8d
     eaa:	89 c1                	mov    %eax,%ecx
     eac:	e8 97 fc ff ff       	call   b48 <pdsp_u16_to_base16_alt>
     eb1:	48 89 45 18          	mov    %rax,0x18(%rbp)
     eb5:	48 8b 45 10          	mov    0x10(%rbp),%rax
     eb9:	48 c1 e8 20          	shr    $0x20,%rax
     ebd:	0f b7 c0             	movzwl %ax,%eax
     ec0:	48 8b 55 18          	mov    0x18(%rbp),%rdx
     ec4:	41 b8 01 00 00 00    	mov    $0x1,%r8d
     eca:	89 c1                	mov    %eax,%ecx
     ecc:	e8 77 fc ff ff       	call   b48 <pdsp_u16_to_base16_alt>
     ed1:	48 89 45 18          	mov    %rax,0x18(%rbp)
     ed5:	48 8b 45 10          	mov    0x10(%rbp),%rax
     ed9:	48 c1 e8 10          	shr    $0x10,%rax
     edd:	0f b7 c0             	movzwl %ax,%eax
     ee0:	48 8b 55 18          	mov    0x18(%rbp),%rdx
     ee4:	41 b8 01 00 00 00    	mov    $0x1,%r8d
     eea:	89 c1                	mov    %eax,%ecx
     eec:	e8 57 fc ff ff       	call   b48 <pdsp_u16_to_base16_alt>
     ef1:	48 89 45 18          	mov    %rax,0x18(%rbp)
     ef5:	48 8b 45 10          	mov    0x10(%rbp),%rax
     ef9:	0f b7 c0             	movzwl %ax,%eax
     efc:	48 8b 55 18          	mov    0x18(%rbp),%rdx
     f00:	41 b8 01 00 00 00    	mov    $0x1,%r8d
     f06:	89 c1                	mov    %eax,%ecx
     f08:	e8 3b fc ff ff       	call   b48 <pdsp_u16_to_base16_alt>
     f0d:	48 89 45 18          	mov    %rax,0x18(%rbp)
     f11:	48 8b 45 18          	mov    0x18(%rbp),%rax
     f15:	48 83 c4 20          	add    $0x20,%rsp
     f19:	5d                   	pop    %rbp
     f1a:	c3                   	ret

0000000000000f1b <pdsp_map>:
     f1b:	55                   	push   %rbp
     f1c:	48 89 e5             	mov    %rsp,%rbp
     f1f:	f3 0f 11 45 10       	movss  %xmm0,0x10(%rbp)
     f24:	f3 0f 11 4d 18       	movss  %xmm1,0x18(%rbp)
     f29:	f3 0f 11 55 20       	movss  %xmm2,0x20(%rbp)
     f2e:	f3 0f 11 5d 28       	movss  %xmm3,0x28(%rbp)
     f33:	f3 0f 10 45 20       	movss  0x20(%rbp),%xmm0
     f38:	f3 0f 5c 45 18       	subss  0x18(%rbp),%xmm0
     f3d:	66 0f ef c9          	pxor   %xmm1,%xmm1
     f41:	0f 2e c1             	ucomiss %xmm1,%xmm0
     f44:	7a 24                	jp     f6a <pdsp_map+0x4f>
     f46:	66 0f ef c9          	pxor   %xmm1,%xmm1
     f4a:	0f 2e c1             	ucomiss %xmm1,%xmm0
     f4d:	75 1b                	jne    f6a <pdsp_map+0x4f>
     f4f:	f3 0f 10 45 30       	movss  0x30(%rbp),%xmm0
     f54:	0f 28 c8             	movaps %xmm0,%xmm1
     f57:	f3 0f 58 4d 28       	addss  0x28(%rbp),%xmm1
     f5c:	f3 0f 10 05 40 00 00 	movss  0x40(%rip),%xmm0        # fa4 <pdsp_map_idx+0x7>
     f63:	00 
     f64:	f3 0f 59 c1          	mulss  %xmm1,%xmm0
     f68:	eb 31                	jmp    f9b <pdsp_map+0x80>
     f6a:	f3 0f 10 45 30       	movss  0x30(%rbp),%xmm0
     f6f:	f3 0f 5c 45 28       	subss  0x28(%rbp),%xmm0
     f74:	f3 0f 10 4d 20       	movss  0x20(%rbp),%xmm1
     f79:	0f 28 d1             	movaps %xmm1,%xmm2
     f7c:	f3 0f 5c 55 18       	subss  0x18(%rbp),%xmm2
     f81:	0f 28 c8             	movaps %xmm0,%xmm1
     f84:	f3 0f 5e ca          	divss  %xmm2,%xmm1
     f88:	f3 0f 10 45 10       	movss  0x10(%rbp),%xmm0
     f8d:	f3 0f 5c 45 18       	subss  0x18(%rbp),%xmm0
     f92:	f3 0f 59 c1          	mulss  %xmm1,%xmm0
     f96:	f3 0f 58 45 28       	addss  0x28(%rbp),%xmm0
     f9b:	5d                   	pop    %rbp
     f9c:	c3                   	ret

0000000000000f9d <pdsp_map_idx>:
     f9d:	55                   	push   %rbp
     f9e:	48 89 e5             	mov    %rsp,%rbp
     fa1:	48 83 ec 30          	sub    $0x30,%rsp
     fa5:	f3 0f 11 45 10       	movss  %xmm0,0x10(%rbp)
     faa:	f3 0f 11 4d 18       	movss  %xmm1,0x18(%rbp)
     faf:	f3 0f 11 55 20       	movss  %xmm2,0x20(%rbp)
     fb4:	f3 0f 11 5d 28       	movss  %xmm3,0x28(%rbp)
     fb9:	f3 0f 10 45 18       	movss  0x18(%rbp),%xmm0
     fbe:	8b 45 10             	mov    0x10(%rbp),%eax
     fc1:	0f 28 c8             	movaps %xmm0,%xmm1
     fc4:	66 0f 6e c0          	movd   %eax,%xmm0
     fc8:	e8 00 00 00 00       	call   fcd <pdsp_map_idx+0x30>
     fcd:	66 0f 7e c2          	movd   %xmm0,%edx
     fd1:	8b 45 20             	mov    0x20(%rbp),%eax
     fd4:	66 0f 6e ca          	movd   %edx,%xmm1
     fd8:	66 0f 6e c0          	movd   %eax,%xmm0
     fdc:	e8 00 00 00 00       	call   fe1 <pdsp_map_idx+0x44>
     fe1:	66 0f 7e c0          	movd   %xmm0,%eax
     fe5:	89 45 10             	mov    %eax,0x10(%rbp)
     fe8:	f3 0f 10 45 20       	movss  0x20(%rbp),%xmm0
     fed:	f3 0f 5c 45 18       	subss  0x18(%rbp),%xmm0
     ff2:	66 0f ef c9          	pxor   %xmm1,%xmm1
     ff6:	0f 2e c1             	ucomiss %xmm1,%xmm0
     ff9:	7a 21                	jp     101c <pdsp_map_idx+0x7f>
     ffb:	66 0f ef c9          	pxor   %xmm1,%xmm1
     fff:	0f 2e c1             	ucomiss %xmm1,%xmm0
    1002:	75 18                	jne    101c <pdsp_map_idx+0x7f>
    1004:	f3 0f 10 4d 28       	movss  0x28(%rbp),%xmm1
    1009:	f3 0f 10 05 40 00 00 	movss  0x40(%rip),%xmm0        # 1051 <pdsp_map_idx+0xb4>
    1010:	00 
    1011:	f3 0f 59 c1          	mulss  %xmm1,%xmm0
    1015:	f3 0f 11 45 fc       	movss  %xmm0,-0x4(%rbp)
    101a:	eb 2c                	jmp    1048 <pdsp_map_idx+0xab>
    101c:	f3 0f 10 45 20       	movss  0x20(%rbp),%xmm0
    1021:	0f 28 d0             	movaps %xmm0,%xmm2
    1024:	f3 0f 5c 55 18       	subss  0x18(%rbp),%xmm2
    1029:	f3 0f 10 45 28       	movss  0x28(%rbp),%xmm0
    102e:	0f 28 c8             	movaps %xmm0,%xmm1
    1031:	f3 0f 5e ca          	divss  %xmm2,%xmm1
    1035:	f3 0f 10 45 10       	movss  0x10(%rbp),%xmm0
    103a:	f3 0f 5c 45 18       	subss  0x18(%rbp),%xmm0
    103f:	f3 0f 59 c1          	mulss  %xmm1,%xmm0
    1043:	f3 0f 11 45 fc       	movss  %xmm0,-0x4(%rbp)
    1048:	f3 0f 2c 45 fc       	cvttss2si -0x4(%rbp),%eax
    104d:	48 83 c4 30          	add    $0x30,%rsp
    1051:	5d                   	pop    %rbp
    1052:	c3                   	ret

0000000000001053 <pdsp_interpolate_2d>:
    1053:	55                   	push   %rbp
    1054:	48 89 e5             	mov    %rsp,%rbp
    1057:	48 83 ec 40          	sub    $0x40,%rsp
    105b:	48 89 4d 10          	mov    %rcx,0x10(%rbp)
    105f:	48 89 55 18          	mov    %rdx,0x18(%rbp)
    1063:	44 89 45 20          	mov    %r8d,0x20(%rbp)
    1067:	f3 0f 11 5d 28       	movss  %xmm3,0x28(%rbp)
    106c:	c7 45 fc 01 00 00 00 	movl   $0x1,-0x4(%rbp)
    1073:	48 83 7d 10 00       	cmpq   $0x0,0x10(%rbp)
    1078:	74 0d                	je     1087 <pdsp_interpolate_2d+0x34>
    107a:	48 83 7d 18 00       	cmpq   $0x0,0x18(%rbp)
    107f:	74 06                	je     1087 <pdsp_interpolate_2d+0x34>
    1081:	83 7d 20 00          	cmpl   $0x0,0x20(%rbp)
    1085:	75 25                	jne    10ac <pdsp_interpolate_2d+0x59>
    1087:	41 b8 bf 01 00 00    	mov    $0x1bf,%r8d
    108d:	48 8d 05 20 00 00 00 	lea    0x20(%rip),%rax        # 10b4 <pdsp_interpolate_2d+0x61>
    1094:	48 89 c2             	mov    %rax,%rdx
    1097:	48 8d 05 27 00 00 00 	lea    0x27(%rip),%rax        # 10c5 <pdsp_interpolate_2d+0x72>
    109e:	48 89 c1             	mov    %rax,%rcx
    10a1:	e8 5a ef ff ff       	call   0 <printf>
    10a6:	eb 04                	jmp    10ac <pdsp_interpolate_2d+0x59>
    10a8:	83 45 fc 01          	addl   $0x1,-0x4(%rbp)
    10ac:	8b 45 fc             	mov    -0x4(%rbp),%eax
    10af:	48 8d 14 85 00 00 00 	lea    0x0(,%rax,4),%rdx
    10b6:	00 
    10b7:	48 8b 45 10          	mov    0x10(%rbp),%rax
    10bb:	48 01 d0             	add    %rdx,%rax
    10be:	f3 0f 10 08          	movss  (%rax),%xmm1
    10c2:	f3 0f 10 45 28       	movss  0x28(%rbp),%xmm0
    10c7:	0f 2f c1             	comiss %xmm1,%xmm0
    10ca:	76 0b                	jbe    10d7 <pdsp_interpolate_2d+0x84>
    10cc:	8b 45 20             	mov    0x20(%rbp),%eax
    10cf:	83 e8 01             	sub    $0x1,%eax
    10d2:	39 45 fc             	cmp    %eax,-0x4(%rbp)
    10d5:	72 d1                	jb     10a8 <pdsp_interpolate_2d+0x55>
    10d7:	8b 45 fc             	mov    -0x4(%rbp),%eax
    10da:	48 8d 14 85 00 00 00 	lea    0x0(,%rax,4),%rdx
    10e1:	00 
    10e2:	48 8b 45 18          	mov    0x18(%rbp),%rax
    10e6:	48 01 d0             	add    %rdx,%rax
    10e9:	f3 0f 10 00          	movss  (%rax),%xmm0
    10ed:	8b 45 fc             	mov    -0x4(%rbp),%eax
    10f0:	83 e8 01             	sub    $0x1,%eax
    10f3:	89 c0                	mov    %eax,%eax
    10f5:	48 8d 14 85 00 00 00 	lea    0x0(,%rax,4),%rdx
    10fc:	00 
    10fd:	48 8b 45 18          	mov    0x18(%rbp),%rax
    1101:	48 01 d0             	add    %rdx,%rax
    1104:	f3 0f 10 18          	movss  (%rax),%xmm3
    1108:	8b 45 fc             	mov    -0x4(%rbp),%eax
    110b:	48 8d 14 85 00 00 00 	lea    0x0(,%rax,4),%rdx
    1112:	00 
    1113:	48 8b 45 10          	mov    0x10(%rbp),%rax
    1117:	48 01 d0             	add    %rdx,%rax
    111a:	f3 0f 10 10          	movss  (%rax),%xmm2
    111e:	8b 45 fc             	mov    -0x4(%rbp),%eax
    1121:	83 e8 01             	sub    $0x1,%eax
    1124:	89 c0                	mov    %eax,%eax
    1126:	48 8d 14 85 00 00 00 	lea    0x0(,%rax,4),%rdx
    112d:	00 
    112e:	48 8b 45 10          	mov    0x10(%rbp),%rax
    1132:	48 01 d0             	add    %rdx,%rax
    1135:	f3 0f 10 08          	movss  (%rax),%xmm1
    1139:	8b 45 28             	mov    0x28(%rbp),%eax
    113c:	f3 0f 11 44 24 20    	movss  %xmm0,0x20(%rsp)
    1142:	66 0f 6e c0          	movd   %eax,%xmm0
    1146:	e8 d0 fd ff ff       	call   f1b <pdsp_map>
    114b:	48 83 c4 40          	add    $0x40,%rsp
    114f:	5d                   	pop    %rbp
    1150:	c3                   	ret

0000000000001151 <pdsp_lookup>:
    1151:	55                   	push   %rbp
    1152:	48 89 e5             	mov    %rsp,%rbp
    1155:	48 83 ec 20          	sub    $0x20,%rsp
    1159:	48 89 4d 10          	mov    %rcx,0x10(%rbp)
    115d:	f3 0f 11 4d 18       	movss  %xmm1,0x18(%rbp)
    1162:	f3 0f 11 55 20       	movss  %xmm2,0x20(%rbp)
    1167:	f3 0f 11 5d 28       	movss  %xmm3,0x28(%rbp)
    116c:	48 83 7d 10 00       	cmpq   $0x0,0x10(%rbp)
    1171:	74 14                	je     1187 <pdsp_lookup+0x36>
    1173:	66 0f ef c0          	pxor   %xmm0,%xmm0
    1177:	0f 2e 45 18          	ucomiss 0x18(%rbp),%xmm0
    117b:	7a 29                	jp     11a6 <pdsp_lookup+0x55>
    117d:	66 0f ef c0          	pxor   %xmm0,%xmm0
    1181:	0f 2e 45 18          	ucomiss 0x18(%rbp),%xmm0
    1185:	75 1f                	jne    11a6 <pdsp_lookup+0x55>
    1187:	41 b8 d0 01 00 00    	mov    $0x1d0,%r8d
    118d:	48 8d 05 20 00 00 00 	lea    0x20(%rip),%rax        # 11b4 <pdsp_lookup+0x63>
    1194:	48 89 c2             	mov    %rax,%rdx
    1197:	48 8d 05 27 00 00 00 	lea    0x27(%rip),%rax        # 11c5 <pdsp_lookup+0x74>
    119e:	48 89 c1             	mov    %rax,%rcx
    11a1:	e8 5a ee ff ff       	call   0 <printf>
    11a6:	f3 0f 10 45 30       	movss  0x30(%rbp),%xmm0
    11ab:	f3 0f 59 45 20       	mulss  0x20(%rbp),%xmm0
    11b0:	f3 0f 58 45 28       	addss  0x28(%rbp),%xmm0
    11b5:	8b 45 18             	mov    0x18(%rbp),%eax
    11b8:	0f 28 c8             	movaps %xmm0,%xmm1
    11bb:	66 0f 6e c0          	movd   %eax,%xmm0
    11bf:	e8 00 00 00 00       	call   11c4 <pdsp_lookup+0x73>
    11c4:	66 0f 7e c0          	movd   %xmm0,%eax
    11c8:	66 0f ef c9          	pxor   %xmm1,%xmm1
    11cc:	66 0f 6e c0          	movd   %eax,%xmm0
    11d0:	e8 00 00 00 00       	call   11d5 <pdsp_lookup+0x84>
    11d5:	f3 0f 2c c0          	cvttss2si %xmm0,%eax
    11d9:	48 0f bf c0          	movswq %ax,%rax
    11dd:	48 8d 14 85 00 00 00 	lea    0x0(,%rax,4),%rdx
    11e4:	00 
    11e5:	48 8b 45 10          	mov    0x10(%rbp),%rax
    11e9:	48 01 d0             	add    %rdx,%rax
    11ec:	f3 0f 10 00          	movss  (%rax),%xmm0
    11f0:	48 83 c4 20          	add    $0x20,%rsp
    11f4:	5d                   	pop    %rbp
    11f5:	c3                   	ret

00000000000011f6 <pdsp_array_set_f32>:
    11f6:	55                   	push   %rbp
    11f7:	48 89 e5             	mov    %rsp,%rbp
    11fa:	48 83 ec 30          	sub    $0x30,%rsp
    11fe:	48 89 4d 10          	mov    %rcx,0x10(%rbp)
    1202:	48 89 55 18          	mov    %rdx,0x18(%rbp)
    1206:	f3 0f 11 55 20       	movss  %xmm2,0x20(%rbp)
    120b:	c7 45 fc 00 00 00 00 	movl   $0x0,-0x4(%rbp)
    1212:	48 83 7d 10 00       	cmpq   $0x0,0x10(%rbp)
    1217:	74 07                	je     1220 <pdsp_array_set_f32+0x2a>
    1219:	48 83 7d 18 00       	cmpq   $0x0,0x18(%rbp)
    121e:	75 1f                	jne    123f <pdsp_array_set_f32+0x49>
    1220:	41 b8 d8 01 00 00    	mov    $0x1d8,%r8d
    1226:	48 8d 05 20 00 00 00 	lea    0x20(%rip),%rax        # 124d <pdsp_array_set_f32+0x57>
    122d:	48 89 c2             	mov    %rax,%rdx
    1230:	48 8d 05 27 00 00 00 	lea    0x27(%rip),%rax        # 125e <pdsp_array_set_f32+0x68>
    1237:	48 89 c1             	mov    %rax,%rcx
    123a:	e8 c1 ed ff ff       	call   0 <printf>
    123f:	c7 45 fc 00 00 00 00 	movl   $0x0,-0x4(%rbp)
    1246:	eb 1f                	jmp    1267 <pdsp_array_set_f32+0x71>
    1248:	8b 45 fc             	mov    -0x4(%rbp),%eax
    124b:	48 8d 14 85 00 00 00 	lea    0x0(,%rax,4),%rdx
    1252:	00 
    1253:	48 8b 45 10          	mov    0x10(%rbp),%rax
    1257:	48 01 d0             	add    %rdx,%rax
    125a:	f3 0f 10 45 20       	movss  0x20(%rbp),%xmm0
    125f:	f3 0f 11 00          	movss  %xmm0,(%rax)
    1263:	83 45 fc 01          	addl   $0x1,-0x4(%rbp)
    1267:	8b 45 fc             	mov    -0x4(%rbp),%eax
    126a:	48 3b 45 18          	cmp    0x18(%rbp),%rax
    126e:	72 d8                	jb     1248 <pdsp_array_set_f32+0x52>
    1270:	90                   	nop
    1271:	90                   	nop
    1272:	48 83 c4 30          	add    $0x30,%rsp
    1276:	5d                   	pop    %rbp
    1277:	c3                   	ret

0000000000001278 <pdsp_array_set_i16>:
    1278:	55                   	push   %rbp
    1279:	48 89 e5             	mov    %rsp,%rbp
    127c:	48 83 ec 30          	sub    $0x30,%rsp
    1280:	48 89 4d 10          	mov    %rcx,0x10(%rbp)
    1284:	48 89 55 18          	mov    %rdx,0x18(%rbp)
    1288:	44 89 c0             	mov    %r8d,%eax
    128b:	66 89 45 20          	mov    %ax,0x20(%rbp)
    128f:	c7 45 fc 00 00 00 00 	movl   $0x0,-0x4(%rbp)
    1296:	48 83 7d 10 00       	cmpq   $0x0,0x10(%rbp)
    129b:	74 07                	je     12a4 <pdsp_array_set_i16+0x2c>
    129d:	48 83 7d 18 00       	cmpq   $0x0,0x18(%rbp)
    12a2:	75 1f                	jne    12c3 <pdsp_array_set_i16+0x4b>
    12a4:	41 b8 e3 01 00 00    	mov    $0x1e3,%r8d
    12aa:	48 8d 05 20 00 00 00 	lea    0x20(%rip),%rax        # 12d1 <pdsp_array_set_i16+0x59>
    12b1:	48 89 c2             	mov    %rax,%rdx
    12b4:	48 8d 05 27 00 00 00 	lea    0x27(%rip),%rax        # 12e2 <pdsp_array_set_i16+0x6a>
    12bb:	48 89 c1             	mov    %rax,%rcx
    12be:	e8 3d ed ff ff       	call   0 <printf>
    12c3:	c7 45 fc 00 00 00 00 	movl   $0x0,-0x4(%rbp)
    12ca:	eb 19                	jmp    12e5 <pdsp_array_set_i16+0x6d>
    12cc:	8b 45 fc             	mov    -0x4(%rbp),%eax
    12cf:	48 8d 14 00          	lea    (%rax,%rax,1),%rdx
    12d3:	48 8b 45 10          	mov    0x10(%rbp),%rax
    12d7:	48 01 c2             	add    %rax,%rdx
    12da:	0f b7 45 20          	movzwl 0x20(%rbp),%eax
    12de:	66 89 02             	mov    %ax,(%rdx)
    12e1:	83 45 fc 01          	addl   $0x1,-0x4(%rbp)
    12e5:	8b 45 fc             	mov    -0x4(%rbp),%eax
    12e8:	48 3b 45 18          	cmp    0x18(%rbp),%rax
    12ec:	72 de                	jb     12cc <pdsp_array_set_i16+0x54>
    12ee:	90                   	nop
    12ef:	90                   	nop
    12f0:	48 83 c4 30          	add    $0x30,%rsp
    12f4:	5d                   	pop    %rbp
    12f5:	c3                   	ret

00000000000012f6 <pdsp_array_apply_f32>:
    12f6:	55                   	push   %rbp
    12f7:	53                   	push   %rbx
    12f8:	48 83 ec 38          	sub    $0x38,%rsp
    12fc:	48 8d 6c 24 30       	lea    0x30(%rsp),%rbp
    1301:	48 89 4d 20          	mov    %rcx,0x20(%rbp)
    1305:	48 89 55 28          	mov    %rdx,0x28(%rbp)
    1309:	44 89 45 30          	mov    %r8d,0x30(%rbp)
    130d:	4c 89 4d 38          	mov    %r9,0x38(%rbp)
    1311:	c7 45 fc 00 00 00 00 	movl   $0x0,-0x4(%rbp)
    1318:	48 83 7d 20 00       	cmpq   $0x0,0x20(%rbp)
    131d:	74 14                	je     1333 <pdsp_array_apply_f32+0x3d>
    131f:	48 83 7d 28 00       	cmpq   $0x0,0x28(%rbp)
    1324:	74 0d                	je     1333 <pdsp_array_apply_f32+0x3d>
    1326:	83 7d 30 00          	cmpl   $0x0,0x30(%rbp)
    132a:	74 07                	je     1333 <pdsp_array_apply_f32+0x3d>
    132c:	48 83 7d 38 00       	cmpq   $0x0,0x38(%rbp)
    1331:	75 1f                	jne    1352 <pdsp_array_apply_f32+0x5c>
    1333:	41 b8 f0 01 00 00    	mov    $0x1f0,%r8d
    1339:	48 8d 05 20 00 00 00 	lea    0x20(%rip),%rax        # 1360 <pdsp_array_apply_f32+0x6a>
    1340:	48 89 c2             	mov    %rax,%rdx
    1343:	48 8d 05 27 00 00 00 	lea    0x27(%rip),%rax        # 1371 <pdsp_array_apply_f32+0x7b>
    134a:	48 89 c1             	mov    %rax,%rcx
    134d:	e8 ae ec ff ff       	call   0 <printf>
    1352:	c7 45 fc 00 00 00 00 	movl   $0x0,-0x4(%rbp)
    1359:	eb 3b                	jmp    1396 <pdsp_array_apply_f32+0xa0>
    135b:	8b 45 fc             	mov    -0x4(%rbp),%eax
    135e:	48 8d 14 85 00 00 00 	lea    0x0(,%rax,4),%rdx
    1365:	00 
    1366:	48 8b 45 20          	mov    0x20(%rbp),%rax
    136a:	48 01 d0             	add    %rdx,%rax
    136d:	8b 00                	mov    (%rax),%eax
    136f:	8b 55 fc             	mov    -0x4(%rbp),%edx
    1372:	48 8d 0c 95 00 00 00 	lea    0x0(,%rdx,4),%rcx
    1379:	00 
    137a:	48 8b 55 28          	mov    0x28(%rbp),%rdx
    137e:	48 8d 1c 11          	lea    (%rcx,%rdx,1),%rbx
    1382:	48 8b 55 38          	mov    0x38(%rbp),%rdx
    1386:	66 0f 6e c0          	movd   %eax,%xmm0
    138a:	ff d2                	call   *%rdx
    138c:	66 0f 7e c0          	movd   %xmm0,%eax
    1390:	89 03                	mov    %eax,(%rbx)
    1392:	83 45 fc 01          	addl   $0x1,-0x4(%rbp)
    1396:	8b 45 fc             	mov    -0x4(%rbp),%eax
    1399:	3b 45 30             	cmp    0x30(%rbp),%eax
    139c:	72 bd                	jb     135b <pdsp_array_apply_f32+0x65>
    139e:	90                   	nop
    139f:	90                   	nop
    13a0:	48 83 c4 38          	add    $0x38,%rsp
    13a4:	5b                   	pop    %rbx
    13a5:	5d                   	pop    %rbp
    13a6:	c3                   	ret

00000000000013a7 <pdsp_array_apply_i16>:
    13a7:	55                   	push   %rbp
    13a8:	53                   	push   %rbx
    13a9:	48 83 ec 38          	sub    $0x38,%rsp
    13ad:	48 8d 6c 24 30       	lea    0x30(%rsp),%rbp
    13b2:	48 89 4d 20          	mov    %rcx,0x20(%rbp)
    13b6:	48 89 55 28          	mov    %rdx,0x28(%rbp)
    13ba:	44 89 45 30          	mov    %r8d,0x30(%rbp)
    13be:	4c 89 4d 38          	mov    %r9,0x38(%rbp)
    13c2:	c7 45 fc 00 00 00 00 	movl   $0x0,-0x4(%rbp)
    13c9:	48 83 7d 20 00       	cmpq   $0x0,0x20(%rbp)
    13ce:	74 14                	je     13e4 <pdsp_array_apply_i16+0x3d>
    13d0:	48 83 7d 28 00       	cmpq   $0x0,0x28(%rbp)
    13d5:	74 0d                	je     13e4 <pdsp_array_apply_i16+0x3d>
    13d7:	83 7d 30 00          	cmpl   $0x0,0x30(%rbp)
    13db:	74 07                	je     13e4 <pdsp_array_apply_i16+0x3d>
    13dd:	48 83 7d 38 00       	cmpq   $0x0,0x38(%rbp)
    13e2:	75 1f                	jne    1403 <pdsp_array_apply_i16+0x5c>
    13e4:	41 b8 fe 01 00 00    	mov    $0x1fe,%r8d
    13ea:	48 8d 05 20 00 00 00 	lea    0x20(%rip),%rax        # 1411 <pdsp_array_apply_i16+0x6a>
    13f1:	48 89 c2             	mov    %rax,%rdx
    13f4:	48 8d 05 27 00 00 00 	lea    0x27(%rip),%rax        # 1422 <pdsp_array_apply_i16+0x7b>
    13fb:	48 89 c1             	mov    %rax,%rcx
    13fe:	e8 fd eb ff ff       	call   0 <printf>
    1403:	c7 45 fc 00 00 00 00 	movl   $0x0,-0x4(%rbp)
    140a:	eb 30                	jmp    143c <pdsp_array_apply_i16+0x95>
    140c:	8b 45 fc             	mov    -0x4(%rbp),%eax
    140f:	48 8d 14 00          	lea    (%rax,%rax,1),%rdx
    1413:	48 8b 45 20          	mov    0x20(%rbp),%rax
    1417:	48 01 d0             	add    %rdx,%rax
    141a:	0f b7 00             	movzwl (%rax),%eax
    141d:	98                   	cwtl
    141e:	8b 55 fc             	mov    -0x4(%rbp),%edx
    1421:	48 8d 0c 12          	lea    (%rdx,%rdx,1),%rcx
    1425:	48 8b 55 28          	mov    0x28(%rbp),%rdx
    1429:	48 8d 1c 11          	lea    (%rcx,%rdx,1),%rbx
    142d:	48 8b 55 38          	mov    0x38(%rbp),%rdx
    1431:	89 c1                	mov    %eax,%ecx
    1433:	ff d2                	call   *%rdx
    1435:	66 89 03             	mov    %ax,(%rbx)
    1438:	83 45 fc 01          	addl   $0x1,-0x4(%rbp)
    143c:	8b 45 fc             	mov    -0x4(%rbp),%eax
    143f:	3b 45 30             	cmp    0x30(%rbp),%eax
    1442:	72 c8                	jb     140c <pdsp_array_apply_i16+0x65>
    1444:	90                   	nop
    1445:	90                   	nop
    1446:	48 83 c4 38          	add    $0x38,%rsp
    144a:	5b                   	pop    %rbx
    144b:	5d                   	pop    %rbp
    144c:	c3                   	ret

000000000000144d <pdsp_array_linspace_f32>:
    144d:	55                   	push   %rbp
    144e:	53                   	push   %rbx
    144f:	48 83 ec 48          	sub    $0x48,%rsp
    1453:	48 8d 6c 24 40       	lea    0x40(%rsp),%rbp
    1458:	48 89 4d 20          	mov    %rcx,0x20(%rbp)
    145c:	89 55 28             	mov    %edx,0x28(%rbp)
    145f:	f3 0f 11 55 30       	movss  %xmm2,0x30(%rbp)
    1464:	f3 0f 11 5d 38       	movss  %xmm3,0x38(%rbp)
    1469:	c7 45 fc 00 00 00 00 	movl   $0x0,-0x4(%rbp)
    1470:	48 83 7d 20 00       	cmpq   $0x0,0x20(%rbp)
    1475:	74 06                	je     147d <pdsp_array_linspace_f32+0x30>
    1477:	83 7d 28 00          	cmpl   $0x0,0x28(%rbp)
    147b:	75 1f                	jne    149c <pdsp_array_linspace_f32+0x4f>
    147d:	41 b8 0c 02 00 00    	mov    $0x20c,%r8d
    1483:	48 8d 05 20 00 00 00 	lea    0x20(%rip),%rax        # 14aa <pdsp_array_linspace_f32+0x5d>
    148a:	48 89 c2             	mov    %rax,%rdx
    148d:	48 8d 05 27 00 00 00 	lea    0x27(%rip),%rax        # 14bb <pdsp_array_linspace_f32+0x6e>
    1494:	48 89 c1             	mov    %rax,%rcx
    1497:	e8 64 eb ff ff       	call   0 <printf>
    149c:	c7 45 fc 00 00 00 00 	movl   $0x0,-0x4(%rbp)
    14a3:	e9 ac 00 00 00       	jmp    1554 <pdsp_array_linspace_f32+0x107>
    14a8:	8b 45 28             	mov    0x28(%rbp),%eax
    14ab:	48 85 c0             	test   %rax,%rax
    14ae:	78 0b                	js     14bb <pdsp_array_linspace_f32+0x6e>
    14b0:	66 0f ef c0          	pxor   %xmm0,%xmm0
    14b4:	f3 48 0f 2a c0       	cvtsi2ss %rax,%xmm0
    14b9:	eb 19                	jmp    14d4 <pdsp_array_linspace_f32+0x87>
    14bb:	48 89 c2             	mov    %rax,%rdx
    14be:	48 d1 ea             	shr    %rdx
    14c1:	83 e0 01             	and    $0x1,%eax
    14c4:	48 09 c2             	or     %rax,%rdx
    14c7:	66 0f ef c0          	pxor   %xmm0,%xmm0
    14cb:	f3 48 0f 2a c2       	cvtsi2ss %rdx,%xmm0
    14d0:	f3 0f 58 c0          	addss  %xmm0,%xmm0
    14d4:	f3 0f 10 0d 44 00 00 	movss  0x44(%rip),%xmm1        # 1520 <pdsp_array_linspace_f32+0xd3>
    14db:	00 
    14dc:	0f 28 d0             	movaps %xmm0,%xmm2
    14df:	f3 0f 5c d1          	subss  %xmm1,%xmm2
    14e3:	8b 45 fc             	mov    -0x4(%rbp),%eax
    14e6:	48 85 c0             	test   %rax,%rax
    14e9:	78 0f                	js     14fa <pdsp_array_linspace_f32+0xad>
    14eb:	66 0f ef e4          	pxor   %xmm4,%xmm4
    14ef:	f3 48 0f 2a e0       	cvtsi2ss %rax,%xmm4
    14f4:	66 0f 7e e0          	movd   %xmm4,%eax
    14f8:	eb 1d                	jmp    1517 <pdsp_array_linspace_f32+0xca>
    14fa:	48 89 c2             	mov    %rax,%rdx
    14fd:	48 d1 ea             	shr    %rdx
    1500:	83 e0 01             	and    $0x1,%eax
    1503:	48 09 c2             	or     %rax,%rdx
    1506:	66 0f ef c0          	pxor   %xmm0,%xmm0
    150a:	f3 48 0f 2a c2       	cvtsi2ss %rdx,%xmm0
    150f:	f3 0f 58 c0          	addss  %xmm0,%xmm0
    1513:	66 0f 7e c0          	movd   %xmm0,%eax
    1517:	8b 55 fc             	mov    -0x4(%rbp),%edx
    151a:	48 8d 0c 95 00 00 00 	lea    0x0(,%rdx,4),%rcx
    1521:	00 
    1522:	48 8b 55 20          	mov    0x20(%rbp),%rdx
    1526:	48 8d 1c 11          	lea    (%rcx,%rdx,1),%rbx
    152a:	f3 0f 10 4d 30       	movss  0x30(%rbp),%xmm1
    152f:	f3 0f 10 45 38       	movss  0x38(%rbp),%xmm0
    1534:	f3 0f 11 44 24 20    	movss  %xmm0,0x20(%rsp)
    153a:	0f 28 d9             	movaps %xmm1,%xmm3
    153d:	66 0f ef c9          	pxor   %xmm1,%xmm1
    1541:	66 0f 6e c0          	movd   %eax,%xmm0
    1545:	e8 d1 f9 ff ff       	call   f1b <pdsp_map>
    154a:	66 0f 7e c0          	movd   %xmm0,%eax
    154e:	89 03                	mov    %eax,(%rbx)
    1550:	83 45 fc 01          	addl   $0x1,-0x4(%rbp)
    1554:	8b 45 fc             	mov    -0x4(%rbp),%eax
    1557:	3b 45 28             	cmp    0x28(%rbp),%eax
    155a:	0f 82 48 ff ff ff    	jb     14a8 <pdsp_array_linspace_f32+0x5b>
    1560:	90                   	nop
    1561:	90                   	nop
    1562:	48 83 c4 48          	add    $0x48,%rsp
    1566:	5b                   	pop    %rbx
    1567:	5d                   	pop    %rbp
    1568:	c3                   	ret

0000000000001569 <pdsp_array_logspace_f32>:
    1569:	55                   	push   %rbp
    156a:	53                   	push   %rbx
    156b:	48 83 ec 48          	sub    $0x48,%rsp
    156f:	48 8d 6c 24 40       	lea    0x40(%rsp),%rbp
    1574:	48 89 4d 20          	mov    %rcx,0x20(%rbp)
    1578:	89 55 28             	mov    %edx,0x28(%rbp)
    157b:	f3 0f 11 55 30       	movss  %xmm2,0x30(%rbp)
    1580:	f3 0f 11 5d 38       	movss  %xmm3,0x38(%rbp)
    1585:	c7 45 fc 00 00 00 00 	movl   $0x0,-0x4(%rbp)
    158c:	48 83 7d 20 00       	cmpq   $0x0,0x20(%rbp)
    1591:	74 06                	je     1599 <pdsp_array_logspace_f32+0x30>
    1593:	83 7d 28 00          	cmpl   $0x0,0x28(%rbp)
    1597:	75 1f                	jne    15b8 <pdsp_array_logspace_f32+0x4f>
    1599:	41 b8 1b 02 00 00    	mov    $0x21b,%r8d
    159f:	48 8d 05 20 00 00 00 	lea    0x20(%rip),%rax        # 15c6 <pdsp_array_logspace_f32+0x5d>
    15a6:	48 89 c2             	mov    %rax,%rdx
    15a9:	48 8d 05 27 00 00 00 	lea    0x27(%rip),%rax        # 15d7 <pdsp_array_logspace_f32+0x6e>
    15b0:	48 89 c1             	mov    %rax,%rcx
    15b3:	e8 48 ea ff ff       	call   0 <printf>
    15b8:	c7 45 fc 00 00 00 00 	movl   $0x0,-0x4(%rbp)
    15bf:	e9 c3 00 00 00       	jmp    1687 <pdsp_array_logspace_f32+0x11e>
    15c4:	8b 45 28             	mov    0x28(%rbp),%eax
    15c7:	48 85 c0             	test   %rax,%rax
    15ca:	78 0b                	js     15d7 <pdsp_array_logspace_f32+0x6e>
    15cc:	66 0f ef c0          	pxor   %xmm0,%xmm0
    15d0:	f3 48 0f 2a c0       	cvtsi2ss %rax,%xmm0
    15d5:	eb 19                	jmp    15f0 <pdsp_array_logspace_f32+0x87>
    15d7:	48 89 c2             	mov    %rax,%rdx
    15da:	48 d1 ea             	shr    %rdx
    15dd:	83 e0 01             	and    $0x1,%eax
    15e0:	48 09 c2             	or     %rax,%rdx
    15e3:	66 0f ef c0          	pxor   %xmm0,%xmm0
    15e7:	f3 48 0f 2a c2       	cvtsi2ss %rdx,%xmm0
    15ec:	f3 0f 58 c0          	addss  %xmm0,%xmm0
    15f0:	f3 0f 10 0d 44 00 00 	movss  0x44(%rip),%xmm1        # 163c <pdsp_array_logspace_f32+0xd3>
    15f7:	00 
    15f8:	0f 28 d0             	movaps %xmm0,%xmm2
    15fb:	f3 0f 5c d1          	subss  %xmm1,%xmm2
    15ff:	8b 45 fc             	mov    -0x4(%rbp),%eax
    1602:	48 85 c0             	test   %rax,%rax
    1605:	78 0f                	js     1616 <pdsp_array_logspace_f32+0xad>
    1607:	66 0f ef e4          	pxor   %xmm4,%xmm4
    160b:	f3 48 0f 2a e0       	cvtsi2ss %rax,%xmm4
    1610:	66 0f 7e e0          	movd   %xmm4,%eax
    1614:	eb 1d                	jmp    1633 <pdsp_array_logspace_f32+0xca>
    1616:	48 89 c2             	mov    %rax,%rdx
    1619:	48 d1 ea             	shr    %rdx
    161c:	83 e0 01             	and    $0x1,%eax
    161f:	48 09 c2             	or     %rax,%rdx
    1622:	66 0f ef c0          	pxor   %xmm0,%xmm0
    1626:	f3 48 0f 2a c2       	cvtsi2ss %rdx,%xmm0
    162b:	f3 0f 58 c0          	addss  %xmm0,%xmm0
    162f:	66 0f 7e c0          	movd   %xmm0,%eax
    1633:	f3 0f 10 4d 30       	movss  0x30(%rbp),%xmm1
    1638:	f3 0f 10 45 38       	movss  0x38(%rbp),%xmm0
    163d:	f3 0f 11 44 24 20    	movss  %xmm0,0x20(%rsp)
    1643:	0f 28 d9             	movaps %xmm1,%xmm3
    1646:	66 0f ef c9          	pxor   %xmm1,%xmm1
    164a:	66 0f 6e c0          	movd   %eax,%xmm0
    164e:	e8 c8 f8 ff ff       	call   f1b <pdsp_map>
    1653:	66 0f 7e c0          	movd   %xmm0,%eax
    1657:	8b 55 fc             	mov    -0x4(%rbp),%edx
    165a:	48 8d 0c 95 00 00 00 	lea    0x0(,%rdx,4),%rcx
    1661:	00 
    1662:	48 8b 55 20          	mov    0x20(%rbp),%rdx
    1666:	48 8d 1c 11          	lea    (%rcx,%rdx,1),%rbx
    166a:	66 0f 6e c8          	movd   %eax,%xmm1
    166e:	8b 05 48 00 00 00    	mov    0x48(%rip),%eax        # 16bc <pdsp_hysteresis_value_clear+0x20>
    1674:	66 0f 6e c0          	movd   %eax,%xmm0
    1678:	e8 00 00 00 00       	call   167d <pdsp_array_logspace_f32+0x114>
    167d:	66 0f 7e c0          	movd   %xmm0,%eax
    1681:	89 03                	mov    %eax,(%rbx)
    1683:	83 45 fc 01          	addl   $0x1,-0x4(%rbp)
    1687:	8b 45 fc             	mov    -0x4(%rbp),%eax
    168a:	3b 45 28             	cmp    0x28(%rbp),%eax
    168d:	0f 82 31 ff ff ff    	jb     15c4 <pdsp_array_logspace_f32+0x5b>
    1693:	90                   	nop
    1694:	90                   	nop
    1695:	48 83 c4 48          	add    $0x48,%rsp
    1699:	5b                   	pop    %rbx
    169a:	5d                   	pop    %rbp
    169b:	c3                   	ret

000000000000169c <pdsp_hysteresis_value_clear>:
    169c:	55                   	push   %rbp
    169d:	48 89 e5             	mov    %rsp,%rbp
    16a0:	48 83 ec 20          	sub    $0x20,%rsp
    16a4:	48 89 4d 10          	mov    %rcx,0x10(%rbp)
    16a8:	48 83 7d 10 00       	cmpq   $0x0,0x10(%rbp)
    16ad:	75 1f                	jne    16ce <pdsp_hysteresis_value_clear+0x32>
    16af:	41 b8 26 02 00 00    	mov    $0x226,%r8d
    16b5:	48 8d 05 20 00 00 00 	lea    0x20(%rip),%rax        # 16dc <pdsp_hysteresis_value_init>
    16bc:	48 89 c2             	mov    %rax,%rdx
    16bf:	48 8d 05 27 00 00 00 	lea    0x27(%rip),%rax        # 16ed <pdsp_hysteresis_value_init+0x11>
    16c6:	48 89 c1             	mov    %rax,%rcx
    16c9:	e8 32 e9 ff ff       	call   0 <printf>
    16ce:	48 8b 45 10          	mov    0x10(%rbp),%rax
    16d2:	c6 00 00             	movb   $0x0,(%rax)
    16d5:	90                   	nop
    16d6:	48 83 c4 20          	add    $0x20,%rsp
    16da:	5d                   	pop    %rbp
    16db:	c3                   	ret

00000000000016dc <pdsp_hysteresis_value_init>:
    16dc:	55                   	push   %rbp
    16dd:	48 89 e5             	mov    %rsp,%rbp
    16e0:	48 89 4d 10          	mov    %rcx,0x10(%rbp)
    16e4:	f3 0f 11 4d 18       	movss  %xmm1,0x18(%rbp)
    16e9:	f3 0f 11 55 20       	movss  %xmm2,0x20(%rbp)
    16ee:	48 8b 45 10          	mov    0x10(%rbp),%rax
    16f2:	c6 00 00             	movb   $0x0,(%rax)
    16f5:	48 8b 45 10          	mov    0x10(%rbp),%rax
    16f9:	f3 0f 10 45 18       	movss  0x18(%rbp),%xmm0
    16fe:	f3 0f 11 40 04       	movss  %xmm0,0x4(%rax)
    1703:	48 8b 45 10          	mov    0x10(%rbp),%rax
    1707:	f3 0f 10 45 20       	movss  0x20(%rbp),%xmm0
    170c:	f3 0f 11 40 08       	movss  %xmm0,0x8(%rax)
    1711:	90                   	nop
    1712:	5d                   	pop    %rbp
    1713:	c3                   	ret

0000000000001714 <pdsp_hysteresis_value>:
    1714:	55                   	push   %rbp
    1715:	48 89 e5             	mov    %rsp,%rbp
    1718:	48 83 ec 20          	sub    $0x20,%rsp
    171c:	48 89 4d 10          	mov    %rcx,0x10(%rbp)
    1720:	f3 0f 11 4d 18       	movss  %xmm1,0x18(%rbp)
    1725:	48 83 7d 10 00       	cmpq   $0x0,0x10(%rbp)
    172a:	75 1f                	jne    174b <pdsp_hysteresis_value+0x37>
    172c:	41 b8 36 02 00 00    	mov    $0x236,%r8d
    1732:	48 8d 05 20 00 00 00 	lea    0x20(%rip),%rax        # 1759 <pdsp_hysteresis_value+0x45>
    1739:	48 89 c2             	mov    %rax,%rdx
    173c:	48 8d 05 27 00 00 00 	lea    0x27(%rip),%rax        # 176a <pdsp_hysteresis_value+0x56>
    1743:	48 89 c1             	mov    %rax,%rcx
    1746:	e8 b5 e8 ff ff       	call   0 <printf>
    174b:	48 8b 45 10          	mov    0x10(%rbp),%rax
    174f:	f3 0f 10 48 08       	movss  0x8(%rax),%xmm1
    1754:	f3 0f 10 45 18       	movss  0x18(%rbp),%xmm0
    1759:	0f 2f c1             	comiss %xmm1,%xmm0
    175c:	76 09                	jbe    1767 <pdsp_hysteresis_value+0x53>
    175e:	48 8b 45 10          	mov    0x10(%rbp),%rax
    1762:	c6 00 01             	movb   $0x1,(%rax)
    1765:	eb 16                	jmp    177d <pdsp_hysteresis_value+0x69>
    1767:	48 8b 45 10          	mov    0x10(%rbp),%rax
    176b:	f3 0f 10 40 04       	movss  0x4(%rax),%xmm0
    1770:	0f 2f 45 18          	comiss 0x18(%rbp),%xmm0
    1774:	76 07                	jbe    177d <pdsp_hysteresis_value+0x69>
    1776:	48 8b 45 10          	mov    0x10(%rbp),%rax
    177a:	c6 00 00             	movb   $0x0,(%rax)
    177d:	48 8b 45 10          	mov    0x10(%rbp),%rax
    1781:	0f b6 00             	movzbl (%rax),%eax
    1784:	48 83 c4 20          	add    $0x20,%rsp
    1788:	5d                   	pop    %rbp
    1789:	c3                   	ret

000000000000178a <pdsp_hysteresis_list_clear>:
    178a:	55                   	push   %rbp
    178b:	48 89 e5             	mov    %rsp,%rbp
    178e:	48 83 ec 20          	sub    $0x20,%rsp
    1792:	48 89 4d 10          	mov    %rcx,0x10(%rbp)
    1796:	48 83 7d 10 00       	cmpq   $0x0,0x10(%rbp)
    179b:	75 1f                	jne    17bc <pdsp_hysteresis_list_clear+0x32>
    179d:	41 b8 47 02 00 00    	mov    $0x247,%r8d
    17a3:	48 8d 05 20 00 00 00 	lea    0x20(%rip),%rax        # 17ca <pdsp_hysteresis_list_clear+0x40>
    17aa:	48 89 c2             	mov    %rax,%rdx
    17ad:	48 8d 05 27 00 00 00 	lea    0x27(%rip),%rax        # 17db <pdsp_hysteresis_list_init+0xf>
    17b4:	48 89 c1             	mov    %rax,%rcx
    17b7:	e8 44 e8 ff ff       	call   0 <printf>
    17bc:	48 8b 45 10          	mov    0x10(%rbp),%rax
    17c0:	66 c7 00 00 00       	movw   $0x0,(%rax)
    17c5:	90                   	nop
    17c6:	48 83 c4 20          	add    $0x20,%rsp
    17ca:	5d                   	pop    %rbp
    17cb:	c3                   	ret

00000000000017cc <pdsp_hysteresis_list_init>:
    17cc:	55                   	push   %rbp
    17cd:	48 89 e5             	mov    %rsp,%rbp
    17d0:	48 89 4d 10          	mov    %rcx,0x10(%rbp)
    17d4:	48 89 55 18          	mov    %rdx,0x18(%rbp)
    17d8:	4c 89 45 20          	mov    %r8,0x20(%rbp)
    17dc:	44 89 c8             	mov    %r9d,%eax
    17df:	66 89 45 28          	mov    %ax,0x28(%rbp)
    17e3:	48 8b 45 10          	mov    0x10(%rbp),%rax
    17e7:	66 c7 00 00 00       	movw   $0x0,(%rax)
    17ec:	48 8b 45 10          	mov    0x10(%rbp),%rax
    17f0:	48 8b 55 18          	mov    0x18(%rbp),%rdx
    17f4:	48 89 50 08          	mov    %rdx,0x8(%rax)
    17f8:	48 8b 45 10          	mov    0x10(%rbp),%rax
    17fc:	48 8b 55 20          	mov    0x20(%rbp),%rdx
    1800:	48 89 50 10          	mov    %rdx,0x10(%rax)
    1804:	48 8b 45 10          	mov    0x10(%rbp),%rax
    1808:	0f b7 55 28          	movzwl 0x28(%rbp),%edx
    180c:	66 89 50 18          	mov    %dx,0x18(%rax)
    1810:	90                   	nop
    1811:	5d                   	pop    %rbp
    1812:	c3                   	ret

0000000000001813 <pdsp_hysteresis_list>:
    1813:	55                   	push   %rbp
    1814:	48 89 e5             	mov    %rsp,%rbp
    1817:	48 83 ec 20          	sub    $0x20,%rsp
    181b:	48 89 4d 10          	mov    %rcx,0x10(%rbp)
    181f:	f3 0f 11 4d 18       	movss  %xmm1,0x18(%rbp)
    1824:	48 83 7d 10 00       	cmpq   $0x0,0x10(%rbp)
    1829:	75 1f                	jne    184a <pdsp_hysteresis_list+0x37>
    182b:	41 b8 59 02 00 00    	mov    $0x259,%r8d
    1831:	48 8d 05 20 00 00 00 	lea    0x20(%rip),%rax        # 1858 <pdsp_hysteresis_list+0x45>
    1838:	48 89 c2             	mov    %rax,%rdx
    183b:	48 8d 05 27 00 00 00 	lea    0x27(%rip),%rax        # 1869 <pdsp_hysteresis_list+0x56>
    1842:	48 89 c1             	mov    %rax,%rcx
    1845:	e8 b6 e7 ff ff       	call   0 <printf>
    184a:	48 8b 45 10          	mov    0x10(%rbp),%rax
    184e:	48 8b 50 08          	mov    0x8(%rax),%rdx
    1852:	48 8b 45 10          	mov    0x10(%rbp),%rax
    1856:	0f b7 00             	movzwl (%rax),%eax
    1859:	0f b7 c0             	movzwl %ax,%eax
    185c:	48 c1 e0 02          	shl    $0x2,%rax
    1860:	48 01 d0             	add    %rdx,%rax
    1863:	f3 0f 10 08          	movss  (%rax),%xmm1
    1867:	f3 0f 10 45 18       	movss  0x18(%rbp),%xmm0
    186c:	0f 2f c1             	comiss %xmm1,%xmm0
    186f:	76 2f                	jbe    18a0 <pdsp_hysteresis_list+0x8d>
    1871:	48 8b 45 10          	mov    0x10(%rbp),%rax
    1875:	0f b7 00             	movzwl (%rax),%eax
    1878:	0f b7 d0             	movzwl %ax,%edx
    187b:	48 8b 45 10          	mov    0x10(%rbp),%rax
    187f:	0f b7 40 18          	movzwl 0x18(%rax),%eax
    1883:	0f b7 c0             	movzwl %ax,%eax
    1886:	83 e8 02             	sub    $0x2,%eax
    1889:	39 c2                	cmp    %eax,%edx
    188b:	7d 53                	jge    18e0 <pdsp_hysteresis_list+0xcd>
    188d:	48 8b 45 10          	mov    0x10(%rbp),%rax
    1891:	0f b7 00             	movzwl (%rax),%eax
    1894:	8d 50 01             	lea    0x1(%rax),%edx
    1897:	48 8b 45 10          	mov    0x10(%rbp),%rax
    189b:	66 89 10             	mov    %dx,(%rax)
    189e:	eb 40                	jmp    18e0 <pdsp_hysteresis_list+0xcd>
    18a0:	48 8b 45 10          	mov    0x10(%rbp),%rax
    18a4:	48 8b 50 10          	mov    0x10(%rax),%rdx
    18a8:	48 8b 45 10          	mov    0x10(%rbp),%rax
    18ac:	0f b7 00             	movzwl (%rax),%eax
    18af:	0f b7 c0             	movzwl %ax,%eax
    18b2:	48 c1 e0 02          	shl    $0x2,%rax
    18b6:	48 01 d0             	add    %rdx,%rax
    18b9:	f3 0f 10 00          	movss  (%rax),%xmm0
    18bd:	0f 2f 45 18          	comiss 0x18(%rbp),%xmm0
    18c1:	76 1d                	jbe    18e0 <pdsp_hysteresis_list+0xcd>
    18c3:	48 8b 45 10          	mov    0x10(%rbp),%rax
    18c7:	0f b7 00             	movzwl (%rax),%eax
    18ca:	66 85 c0             	test   %ax,%ax
    18cd:	74 11                	je     18e0 <pdsp_hysteresis_list+0xcd>
    18cf:	48 8b 45 10          	mov    0x10(%rbp),%rax
    18d3:	0f b7 00             	movzwl (%rax),%eax
    18d6:	8d 50 ff             	lea    -0x1(%rax),%edx
    18d9:	48 8b 45 10          	mov    0x10(%rbp),%rax
    18dd:	66 89 10             	mov    %dx,(%rax)
    18e0:	48 8b 45 10          	mov    0x10(%rbp),%rax
    18e4:	0f b7 00             	movzwl (%rax),%eax
    18e7:	48 83 c4 20          	add    $0x20,%rsp
    18eb:	5d                   	pop    %rbp
    18ec:	c3                   	ret

00000000000018ed <pdsp_debounce_clear>:
    18ed:	55                   	push   %rbp
    18ee:	48 89 e5             	mov    %rsp,%rbp
    18f1:	48 83 ec 20          	sub    $0x20,%rsp
    18f5:	48 89 4d 10          	mov    %rcx,0x10(%rbp)
    18f9:	48 83 7d 10 00       	cmpq   $0x0,0x10(%rbp)
    18fe:	75 1f                	jne    191f <pdsp_debounce_clear+0x32>
    1900:	41 b8 70 02 00 00    	mov    $0x270,%r8d
    1906:	48 8d 05 20 00 00 00 	lea    0x20(%rip),%rax        # 192d <pdsp_debounce_clear+0x40>
    190d:	48 89 c2             	mov    %rax,%rdx
    1910:	48 8d 05 27 00 00 00 	lea    0x27(%rip),%rax        # 193e <pdsp_debounce+0x4>
    1917:	48 89 c1             	mov    %rax,%rcx
    191a:	e8 e1 e6 ff ff       	call   0 <printf>
    191f:	48 8b 45 10          	mov    0x10(%rbp),%rax
    1923:	c6 00 00             	movb   $0x0,(%rax)
    1926:	48 8b 45 10          	mov    0x10(%rbp),%rax
    192a:	66 0f ef c0          	pxor   %xmm0,%xmm0
    192e:	f3 0f 11 40 04       	movss  %xmm0,0x4(%rax)
    1933:	90                   	nop
    1934:	48 83 c4 20          	add    $0x20,%rsp
    1938:	5d                   	pop    %rbp
    1939:	c3                   	ret

000000000000193a <pdsp_debounce>:
    193a:	55                   	push   %rbp
    193b:	48 89 e5             	mov    %rsp,%rbp
    193e:	48 83 ec 20          	sub    $0x20,%rsp
    1942:	48 89 4d 10          	mov    %rcx,0x10(%rbp)
    1946:	89 d0                	mov    %edx,%eax
    1948:	88 45 18             	mov    %al,0x18(%rbp)
    194b:	48 83 7d 10 00       	cmpq   $0x0,0x10(%rbp)
    1950:	75 1f                	jne    1971 <pdsp_debounce+0x37>
    1952:	41 b8 78 02 00 00    	mov    $0x278,%r8d
    1958:	48 8d 05 20 00 00 00 	lea    0x20(%rip),%rax        # 197f <pdsp_debounce+0x45>
    195f:	48 89 c2             	mov    %rax,%rdx
    1962:	48 8d 05 27 00 00 00 	lea    0x27(%rip),%rax        # 1990 <pdsp_debounce+0x56>
    1969:	48 89 c1             	mov    %rax,%rcx
    196c:	e8 8f e6 ff ff       	call   0 <printf>
    1971:	48 8b 45 10          	mov    0x10(%rbp),%rax
    1975:	0f b6 00             	movzbl (%rax),%eax
    1978:	83 f0 01             	xor    $0x1,%eax
    197b:	84 c0                	test   %al,%al
    197d:	74 56                	je     19d5 <pdsp_debounce+0x9b>
    197f:	80 7d 18 00          	cmpb   $0x0,0x18(%rbp)
    1983:	74 50                	je     19d5 <pdsp_debounce+0x9b>
    1985:	48 8b 45 10          	mov    0x10(%rbp),%rax
    1989:	f3 0f 10 48 04       	movss  0x4(%rax),%xmm1
    198e:	48 8b 45 10          	mov    0x10(%rbp),%rax
    1992:	f3 0f 10 40 08       	movss  0x8(%rax),%xmm0
    1997:	f3 0f 58 c1          	addss  %xmm1,%xmm0
    199b:	48 8b 45 10          	mov    0x10(%rbp),%rax
    199f:	f3 0f 11 40 04       	movss  %xmm0,0x4(%rax)
    19a4:	48 8b 45 10          	mov    0x10(%rbp),%rax
    19a8:	f3 0f 10 40 04       	movss  0x4(%rax),%xmm0
    19ad:	48 8b 45 10          	mov    0x10(%rbp),%rax
    19b1:	f3 0f 10 48 0c       	movss  0xc(%rax),%xmm1
    19b6:	0f 2f c1             	comiss %xmm1,%xmm0
    19b9:	0f 86 85 00 00 00    	jbe    1a44 <pdsp_debounce+0x10a>
    19bf:	48 8b 45 10          	mov    0x10(%rbp),%rax
    19c3:	c6 00 01             	movb   $0x1,(%rax)
    19c6:	48 8b 45 10          	mov    0x10(%rbp),%rax
    19ca:	66 0f ef c0          	pxor   %xmm0,%xmm0
    19ce:	f3 0f 11 40 04       	movss  %xmm0,0x4(%rax)
    19d3:	eb 6f                	jmp    1a44 <pdsp_debounce+0x10a>
    19d5:	48 8b 45 10          	mov    0x10(%rbp),%rax
    19d9:	0f b6 00             	movzbl (%rax),%eax
    19dc:	84 c0                	test   %al,%al
    19de:	74 57                	je     1a37 <pdsp_debounce+0xfd>
    19e0:	0f b6 45 18          	movzbl 0x18(%rbp),%eax
    19e4:	83 f0 01             	xor    $0x1,%eax
    19e7:	84 c0                	test   %al,%al
    19e9:	74 4c                	je     1a37 <pdsp_debounce+0xfd>
    19eb:	48 8b 45 10          	mov    0x10(%rbp),%rax
    19ef:	f3 0f 10 48 04       	movss  0x4(%rax),%xmm1
    19f4:	48 8b 45 10          	mov    0x10(%rbp),%rax
    19f8:	f3 0f 10 40 08       	movss  0x8(%rax),%xmm0
    19fd:	f3 0f 58 c1          	addss  %xmm1,%xmm0
    1a01:	48 8b 45 10          	mov    0x10(%rbp),%rax
    1a05:	f3 0f 11 40 04       	movss  %xmm0,0x4(%rax)
    1a0a:	48 8b 45 10          	mov    0x10(%rbp),%rax
    1a0e:	f3 0f 10 40 04       	movss  0x4(%rax),%xmm0
    1a13:	48 8b 45 10          	mov    0x10(%rbp),%rax
    1a17:	f3 0f 10 48 10       	movss  0x10(%rax),%xmm1
    1a1c:	0f 2f c1             	comiss %xmm1,%xmm0
    1a1f:	76 23                	jbe    1a44 <pdsp_debounce+0x10a>
    1a21:	48 8b 45 10          	mov    0x10(%rbp),%rax
    1a25:	c6 00 00             	movb   $0x0,(%rax)
    1a28:	48 8b 45 10          	mov    0x10(%rbp),%rax
    1a2c:	66 0f ef c0          	pxor   %xmm0,%xmm0
    1a30:	f3 0f 11 40 04       	movss  %xmm0,0x4(%rax)
    1a35:	eb 0d                	jmp    1a44 <pdsp_debounce+0x10a>
    1a37:	48 8b 45 10          	mov    0x10(%rbp),%rax
    1a3b:	66 0f ef c0          	pxor   %xmm0,%xmm0
    1a3f:	f3 0f 11 40 04       	movss  %xmm0,0x4(%rax)
    1a44:	48 8b 45 10          	mov    0x10(%rbp),%rax
    1a48:	0f b6 00             	movzbl (%rax),%eax
    1a4b:	48 83 c4 20          	add    $0x20,%rsp
    1a4f:	5d                   	pop    %rbp
    1a50:	c3                   	ret

0000000000001a51 <pdsp_debounce_cnt_clear>:
    1a51:	55                   	push   %rbp
    1a52:	48 89 e5             	mov    %rsp,%rbp
    1a55:	48 83 ec 20          	sub    $0x20,%rsp
    1a59:	48 89 4d 10          	mov    %rcx,0x10(%rbp)
    1a5d:	48 83 7d 10 00       	cmpq   $0x0,0x10(%rbp)
    1a62:	75 1f                	jne    1a83 <pdsp_debounce_cnt_clear+0x32>
    1a64:	41 b8 97 02 00 00    	mov    $0x297,%r8d
    1a6a:	48 8d 05 20 00 00 00 	lea    0x20(%rip),%rax        # 1a91 <pdsp_debounce_cnt_clear+0x40>
    1a71:	48 89 c2             	mov    %rax,%rdx
    1a74:	48 8d 05 27 00 00 00 	lea    0x27(%rip),%rax        # 1aa2 <pdsp_debounce_cnt+0x7>
    1a7b:	48 89 c1             	mov    %rax,%rcx
    1a7e:	e8 7d e5 ff ff       	call   0 <printf>
    1a83:	48 8b 45 10          	mov    0x10(%rbp),%rax
    1a87:	c6 00 00             	movb   $0x0,(%rax)
    1a8a:	48 8b 45 10          	mov    0x10(%rbp),%rax
    1a8e:	66 c7 40 02 00 00    	movw   $0x0,0x2(%rax)
    1a94:	90                   	nop
    1a95:	48 83 c4 20          	add    $0x20,%rsp
    1a99:	5d                   	pop    %rbp
    1a9a:	c3                   	ret

0000000000001a9b <pdsp_debounce_cnt>:
    1a9b:	55                   	push   %rbp
    1a9c:	48 89 e5             	mov    %rsp,%rbp
    1a9f:	48 83 ec 20          	sub    $0x20,%rsp
    1aa3:	48 89 4d 10          	mov    %rcx,0x10(%rbp)
    1aa7:	89 d0                	mov    %edx,%eax
    1aa9:	88 45 18             	mov    %al,0x18(%rbp)
    1aac:	48 83 7d 10 00       	cmpq   $0x0,0x10(%rbp)
    1ab1:	75 1f                	jne    1ad2 <pdsp_debounce_cnt+0x37>
    1ab3:	41 b8 9f 02 00 00    	mov    $0x29f,%r8d
    1ab9:	48 8d 05 20 00 00 00 	lea    0x20(%rip),%rax        # 1ae0 <pdsp_debounce_cnt+0x45>
    1ac0:	48 89 c2             	mov    %rax,%rdx
    1ac3:	48 8d 05 27 00 00 00 	lea    0x27(%rip),%rax        # 1af1 <pdsp_debounce_cnt+0x56>
    1aca:	48 89 c1             	mov    %rax,%rcx
    1acd:	e8 2e e5 ff ff       	call   0 <printf>
    1ad2:	48 8b 45 10          	mov    0x10(%rbp),%rax
    1ad6:	0f b6 00             	movzbl (%rax),%eax
    1ad9:	83 f0 01             	xor    $0x1,%eax
    1adc:	84 c0                	test   %al,%al
    1ade:	74 41                	je     1b21 <pdsp_debounce_cnt+0x86>
    1ae0:	80 7d 18 00          	cmpb   $0x0,0x18(%rbp)
    1ae4:	74 3b                	je     1b21 <pdsp_debounce_cnt+0x86>
    1ae6:	48 8b 45 10          	mov    0x10(%rbp),%rax
    1aea:	0f b7 40 02          	movzwl 0x2(%rax),%eax
    1aee:	8d 50 01             	lea    0x1(%rax),%edx
    1af1:	48 8b 45 10          	mov    0x10(%rbp),%rax
    1af5:	66 89 50 02          	mov    %dx,0x2(%rax)
    1af9:	48 8b 45 10          	mov    0x10(%rbp),%rax
    1afd:	0f b7 50 02          	movzwl 0x2(%rax),%edx
    1b01:	48 8b 45 10          	mov    0x10(%rbp),%rax
    1b05:	0f b7 40 04          	movzwl 0x4(%rax),%eax
    1b09:	66 39 d0             	cmp    %dx,%ax
    1b0c:	73 6e                	jae    1b7c <pdsp_debounce_cnt+0xe1>
    1b0e:	48 8b 45 10          	mov    0x10(%rbp),%rax
    1b12:	c6 00 01             	movb   $0x1,(%rax)
    1b15:	48 8b 45 10          	mov    0x10(%rbp),%rax
    1b19:	66 c7 40 02 00 00    	movw   $0x0,0x2(%rax)
    1b1f:	eb 5b                	jmp    1b7c <pdsp_debounce_cnt+0xe1>
    1b21:	48 8b 45 10          	mov    0x10(%rbp),%rax
    1b25:	0f b6 00             	movzbl (%rax),%eax
    1b28:	84 c0                	test   %al,%al
    1b2a:	74 46                	je     1b72 <pdsp_debounce_cnt+0xd7>
    1b2c:	0f b6 45 18          	movzbl 0x18(%rbp),%eax
    1b30:	83 f0 01             	xor    $0x1,%eax
    1b33:	84 c0                	test   %al,%al
    1b35:	74 3b                	je     1b72 <pdsp_debounce_cnt+0xd7>
    1b37:	48 8b 45 10          	mov    0x10(%rbp),%rax
    1b3b:	0f b7 40 02          	movzwl 0x2(%rax),%eax
    1b3f:	8d 50 01             	lea    0x1(%rax),%edx
    1b42:	48 8b 45 10          	mov    0x10(%rbp),%rax
    1b46:	66 89 50 02          	mov    %dx,0x2(%rax)
    1b4a:	48 8b 45 10          	mov    0x10(%rbp),%rax
    1b4e:	0f b7 50 02          	movzwl 0x2(%rax),%edx
    1b52:	48 8b 45 10          	mov    0x10(%rbp),%rax
    1b56:	0f b7 40 06          	movzwl 0x6(%rax),%eax
    1b5a:	66 39 d0             	cmp    %dx,%ax
    1b5d:	73 1d                	jae    1b7c <pdsp_debounce_cnt+0xe1>
    1b5f:	48 8b 45 10          	mov    0x10(%rbp),%rax
    1b63:	c6 00 00             	movb   $0x0,(%rax)
    1b66:	48 8b 45 10          	mov    0x10(%rbp),%rax
    1b6a:	66 c7 40 02 00 00    	movw   $0x0,0x2(%rax)
    1b70:	eb 0a                	jmp    1b7c <pdsp_debounce_cnt+0xe1>
    1b72:	48 8b 45 10          	mov    0x10(%rbp),%rax
    1b76:	66 c7 40 02 00 00    	movw   $0x0,0x2(%rax)
    1b7c:	48 8b 45 10          	mov    0x10(%rbp),%rax
    1b80:	0f b6 00             	movzbl (%rax),%eax
    1b83:	48 83 c4 20          	add    $0x20,%rsp
    1b87:	5d                   	pop    %rbp
    1b88:	c3                   	ret

0000000000001b89 <pdsp_robust_clear>:
    1b89:	55                   	push   %rbp
    1b8a:	48 89 e5             	mov    %rsp,%rbp
    1b8d:	48 83 ec 20          	sub    $0x20,%rsp
    1b91:	48 89 4d 10          	mov    %rcx,0x10(%rbp)
    1b95:	48 83 7d 10 00       	cmpq   $0x0,0x10(%rbp)
    1b9a:	75 1f                	jne    1bbb <pdsp_robust_clear+0x32>
    1b9c:	41 b8 be 02 00 00    	mov    $0x2be,%r8d
    1ba2:	48 8d 05 20 00 00 00 	lea    0x20(%rip),%rax        # 1bc9 <pdsp_robust_clear+0x40>
    1ba9:	48 89 c2             	mov    %rax,%rdx
    1bac:	48 8d 05 27 00 00 00 	lea    0x27(%rip),%rax        # 1bda <pdsp_robust+0x2>
    1bb3:	48 89 c1             	mov    %rax,%rcx
    1bb6:	e8 45 e4 ff ff       	call   0 <printf>
    1bbb:	48 8b 45 10          	mov    0x10(%rbp),%rax
    1bbf:	66 c7 00 00 00       	movw   $0x0,(%rax)
    1bc4:	48 8b 45 10          	mov    0x10(%rbp),%rax
    1bc8:	66 0f ef c0          	pxor   %xmm0,%xmm0
    1bcc:	f3 0f 11 40 04       	movss  %xmm0,0x4(%rax)
    1bd1:	90                   	nop
    1bd2:	48 83 c4 20          	add    $0x20,%rsp
    1bd6:	5d                   	pop    %rbp
    1bd7:	c3                   	ret

0000000000001bd8 <pdsp_robust>:
    1bd8:	55                   	push   %rbp
    1bd9:	48 89 e5             	mov    %rsp,%rbp
    1bdc:	48 83 ec 20          	sub    $0x20,%rsp
    1be0:	48 89 4d 10          	mov    %rcx,0x10(%rbp)
    1be4:	f3 0f 11 4d 18       	movss  %xmm1,0x18(%rbp)
    1be9:	48 83 7d 10 00       	cmpq   $0x0,0x10(%rbp)
    1bee:	75 1f                	jne    1c0f <pdsp_robust+0x37>
    1bf0:	41 b8 c5 02 00 00    	mov    $0x2c5,%r8d
    1bf6:	48 8d 05 20 00 00 00 	lea    0x20(%rip),%rax        # 1c1d <pdsp_robust+0x45>
    1bfd:	48 89 c2             	mov    %rax,%rdx
    1c00:	48 8d 05 27 00 00 00 	lea    0x27(%rip),%rax        # 1c2e <pdsp_robust+0x56>
    1c07:	48 89 c1             	mov    %rax,%rcx
    1c0a:	e8 f1 e3 ff ff       	call   0 <printf>
    1c0f:	48 8b 45 10          	mov    0x10(%rbp),%rax
    1c13:	48 8b 50 10          	mov    0x10(%rax),%rdx
    1c17:	48 8b 45 10          	mov    0x10(%rbp),%rax
    1c1b:	0f b7 00             	movzwl (%rax),%eax
    1c1e:	0f b7 c0             	movzwl %ax,%eax
    1c21:	48 c1 e0 02          	shl    $0x2,%rax
    1c25:	48 01 d0             	add    %rdx,%rax
    1c28:	f3 0f 10 08          	movss  (%rax),%xmm1
    1c2c:	f3 0f 10 45 18       	movss  0x18(%rbp),%xmm0
    1c31:	0f 2f c1             	comiss %xmm1,%xmm0
    1c34:	0f 86 a9 00 00 00    	jbe    1ce3 <pdsp_robust+0x10b>
    1c3a:	48 8b 45 10          	mov    0x10(%rbp),%rax
    1c3e:	0f b7 00             	movzwl (%rax),%eax
    1c41:	0f b7 d0             	movzwl %ax,%edx
    1c44:	48 8b 45 10          	mov    0x10(%rbp),%rax
    1c48:	0f b7 40 30          	movzwl 0x30(%rax),%eax
    1c4c:	0f b7 c0             	movzwl %ax,%eax
    1c4f:	83 e8 01             	sub    $0x1,%eax
    1c52:	39 c2                	cmp    %eax,%edx
    1c54:	7d 1f                	jge    1c75 <pdsp_robust+0x9d>
    1c56:	48 8b 45 10          	mov    0x10(%rbp),%rax
    1c5a:	f3 0f 10 48 04       	movss  0x4(%rax),%xmm1
    1c5f:	48 8b 45 10          	mov    0x10(%rbp),%rax
    1c63:	f3 0f 10 40 08       	movss  0x8(%rax),%xmm0
    1c68:	f3 0f 58 c1          	addss  %xmm1,%xmm0
    1c6c:	48 8b 45 10          	mov    0x10(%rbp),%rax
    1c70:	f3 0f 11 40 04       	movss  %xmm0,0x4(%rax)
    1c75:	48 8b 45 10          	mov    0x10(%rbp),%rax
    1c79:	f3 0f 10 40 04       	movss  0x4(%rax),%xmm0
    1c7e:	48 8b 45 10          	mov    0x10(%rbp),%rax
    1c82:	48 8b 50 20          	mov    0x20(%rax),%rdx
    1c86:	48 8b 45 10          	mov    0x10(%rbp),%rax
    1c8a:	0f b7 00             	movzwl (%rax),%eax
    1c8d:	0f b7 c0             	movzwl %ax,%eax
    1c90:	48 c1 e0 02          	shl    $0x2,%rax
    1c94:	48 01 d0             	add    %rdx,%rax
    1c97:	f3 0f 10 08          	movss  (%rax),%xmm1
    1c9b:	0f 2f c1             	comiss %xmm1,%xmm0
    1c9e:	0f 86 f5 00 00 00    	jbe    1d99 <pdsp_robust+0x1c1>
    1ca4:	48 8b 45 10          	mov    0x10(%rbp),%rax
    1ca8:	0f b7 00             	movzwl (%rax),%eax
    1cab:	0f b7 d0             	movzwl %ax,%edx
    1cae:	48 8b 45 10          	mov    0x10(%rbp),%rax
    1cb2:	0f b7 40 30          	movzwl 0x30(%rax),%eax
    1cb6:	0f b7 c0             	movzwl %ax,%eax
    1cb9:	83 e8 01             	sub    $0x1,%eax
    1cbc:	39 c2                	cmp    %eax,%edx
    1cbe:	7d 11                	jge    1cd1 <pdsp_robust+0xf9>
    1cc0:	48 8b 45 10          	mov    0x10(%rbp),%rax
    1cc4:	0f b7 00             	movzwl (%rax),%eax
    1cc7:	8d 50 01             	lea    0x1(%rax),%edx
    1cca:	48 8b 45 10          	mov    0x10(%rbp),%rax
    1cce:	66 89 10             	mov    %dx,(%rax)
    1cd1:	48 8b 45 10          	mov    0x10(%rbp),%rax
    1cd5:	66 0f ef c0          	pxor   %xmm0,%xmm0
    1cd9:	f3 0f 11 40 04       	movss  %xmm0,0x4(%rax)
    1cde:	e9 b6 00 00 00       	jmp    1d99 <pdsp_robust+0x1c1>
    1ce3:	48 8b 45 10          	mov    0x10(%rbp),%rax
    1ce7:	48 8b 50 18          	mov    0x18(%rax),%rdx
    1ceb:	48 8b 45 10          	mov    0x10(%rbp),%rax
    1cef:	0f b7 00             	movzwl (%rax),%eax
    1cf2:	0f b7 c0             	movzwl %ax,%eax
    1cf5:	48 c1 e0 02          	shl    $0x2,%rax
    1cf9:	48 01 d0             	add    %rdx,%rax
    1cfc:	f3 0f 10 00          	movss  (%rax),%xmm0
    1d00:	0f 2f 45 18          	comiss 0x18(%rbp),%xmm0
    1d04:	0f 86 82 00 00 00    	jbe    1d8c <pdsp_robust+0x1b4>
    1d0a:	48 8b 45 10          	mov    0x10(%rbp),%rax
    1d0e:	0f b7 00             	movzwl (%rax),%eax
    1d11:	66 85 c0             	test   %ax,%ax
    1d14:	74 1f                	je     1d35 <pdsp_robust+0x15d>
    1d16:	48 8b 45 10          	mov    0x10(%rbp),%rax
    1d1a:	f3 0f 10 48 04       	movss  0x4(%rax),%xmm1
    1d1f:	48 8b 45 10          	mov    0x10(%rbp),%rax
    1d23:	f3 0f 10 40 08       	movss  0x8(%rax),%xmm0
    1d28:	f3 0f 58 c1          	addss  %xmm1,%xmm0
    1d2c:	48 8b 45 10          	mov    0x10(%rbp),%rax
    1d30:	f3 0f 11 40 04       	movss  %xmm0,0x4(%rax)
    1d35:	48 8b 45 10          	mov    0x10(%rbp),%rax
    1d39:	f3 0f 10 40 04       	movss  0x4(%rax),%xmm0
    1d3e:	48 8b 45 10          	mov    0x10(%rbp),%rax
    1d42:	48 8b 50 28          	mov    0x28(%rax),%rdx
    1d46:	48 8b 45 10          	mov    0x10(%rbp),%rax
    1d4a:	0f b7 00             	movzwl (%rax),%eax
    1d4d:	0f b7 c0             	movzwl %ax,%eax
    1d50:	48 c1 e0 02          	shl    $0x2,%rax
    1d54:	48 01 d0             	add    %rdx,%rax
    1d57:	f3 0f 10 08          	movss  (%rax),%xmm1
    1d5b:	0f 2f c1             	comiss %xmm1,%xmm0
    1d5e:	76 39                	jbe    1d99 <pdsp_robust+0x1c1>
    1d60:	48 8b 45 10          	mov    0x10(%rbp),%rax
    1d64:	0f b7 00             	movzwl (%rax),%eax
    1d67:	66 85 c0             	test   %ax,%ax
    1d6a:	74 11                	je     1d7d <pdsp_robust+0x1a5>
    1d6c:	48 8b 45 10          	mov    0x10(%rbp),%rax
    1d70:	0f b7 00             	movzwl (%rax),%eax
    1d73:	8d 50 ff             	lea    -0x1(%rax),%edx
    1d76:	48 8b 45 10          	mov    0x10(%rbp),%rax
    1d7a:	66 89 10             	mov    %dx,(%rax)
    1d7d:	48 8b 45 10          	mov    0x10(%rbp),%rax
    1d81:	66 0f ef c0          	pxor   %xmm0,%xmm0
    1d85:	f3 0f 11 40 04       	movss  %xmm0,0x4(%rax)
    1d8a:	eb 0d                	jmp    1d99 <pdsp_robust+0x1c1>
    1d8c:	48 8b 45 10          	mov    0x10(%rbp),%rax
    1d90:	66 0f ef c0          	pxor   %xmm0,%xmm0
    1d94:	f3 0f 11 40 04       	movss  %xmm0,0x4(%rax)
    1d99:	48 8b 45 10          	mov    0x10(%rbp),%rax
    1d9d:	0f b7 00             	movzwl (%rax),%eax
    1da0:	48 83 c4 20          	add    $0x20,%rsp
    1da4:	5d                   	pop    %rbp
    1da5:	c3                   	ret

0000000000001da6 <pdsp_backlash_init>:
    1da6:	55                   	push   %rbp
    1da7:	48 89 e5             	mov    %rsp,%rbp
    1daa:	48 83 ec 20          	sub    $0x20,%rsp
    1dae:	48 89 4d 10          	mov    %rcx,0x10(%rbp)
    1db2:	f3 0f 11 4d 18       	movss  %xmm1,0x18(%rbp)
    1db7:	f3 0f 11 55 20       	movss  %xmm2,0x20(%rbp)
    1dbc:	48 83 7d 10 00       	cmpq   $0x0,0x10(%rbp)
    1dc1:	75 1f                	jne    1de2 <pdsp_backlash_init+0x3c>
    1dc3:	41 b8 f7 02 00 00    	mov    $0x2f7,%r8d
    1dc9:	48 8d 05 20 00 00 00 	lea    0x20(%rip),%rax        # 1df0 <pdsp_backlash_init+0x4a>
    1dd0:	48 89 c2             	mov    %rax,%rdx
    1dd3:	48 8d 05 27 00 00 00 	lea    0x27(%rip),%rax        # 1e01 <pdsp_backlash_init+0x5b>
    1dda:	48 89 c1             	mov    %rax,%rcx
    1ddd:	e8 1e e2 ff ff       	call   0 <printf>
    1de2:	48 8b 45 10          	mov    0x10(%rbp),%rax
    1de6:	f3 0f 10 45 18       	movss  0x18(%rbp),%xmm0
    1deb:	f3 0f 11 00          	movss  %xmm0,(%rax)
    1def:	48 8b 45 10          	mov    0x10(%rbp),%rax
    1df3:	f3 0f 10 45 20       	movss  0x20(%rbp),%xmm0
    1df8:	f3 0f 11 40 04       	movss  %xmm0,0x4(%rax)
    1dfd:	90                   	nop
    1dfe:	48 83 c4 20          	add    $0x20,%rsp
    1e02:	5d                   	pop    %rbp
    1e03:	c3                   	ret

0000000000001e04 <pdsp_backlash>:
    1e04:	55                   	push   %rbp
    1e05:	48 89 e5             	mov    %rsp,%rbp
    1e08:	48 83 ec 20          	sub    $0x20,%rsp
    1e0c:	48 89 4d 10          	mov    %rcx,0x10(%rbp)
    1e10:	f3 0f 11 4d 18       	movss  %xmm1,0x18(%rbp)
    1e15:	48 83 7d 10 00       	cmpq   $0x0,0x10(%rbp)
    1e1a:	75 1f                	jne    1e3b <pdsp_backlash+0x37>
    1e1c:	41 b8 fe 02 00 00    	mov    $0x2fe,%r8d
    1e22:	48 8d 05 20 00 00 00 	lea    0x20(%rip),%rax        # 1e49 <pdsp_backlash+0x45>
    1e29:	48 89 c2             	mov    %rax,%rdx
    1e2c:	48 8d 05 27 00 00 00 	lea    0x27(%rip),%rax        # 1e5a <pdsp_backlash+0x56>
    1e33:	48 89 c1             	mov    %rax,%rcx
    1e36:	e8 c5 e1 ff ff       	call   0 <printf>
    1e3b:	48 8b 45 10          	mov    0x10(%rbp),%rax
    1e3f:	f3 0f 10 08          	movss  (%rax),%xmm1
    1e43:	f3 0f 10 45 18       	movss  0x18(%rbp),%xmm0
    1e48:	f3 0f 5c c1          	subss  %xmm1,%xmm0
    1e4c:	66 0f 7e c0          	movd   %xmm0,%eax
    1e50:	48 8b 55 10          	mov    0x10(%rbp),%rdx
    1e54:	f3 0f 10 42 04       	movss  0x4(%rdx),%xmm0
    1e59:	0f 28 c8             	movaps %xmm0,%xmm1
    1e5c:	66 0f 6e c0          	movd   %eax,%xmm0
    1e60:	e8 00 00 00 00       	call   1e65 <pdsp_backlash+0x61>
    1e65:	66 0f 7e c0          	movd   %xmm0,%eax
    1e69:	48 8b 55 10          	mov    0x10(%rbp),%rdx
    1e6d:	89 42 04             	mov    %eax,0x4(%rdx)
    1e70:	48 8b 45 10          	mov    0x10(%rbp),%rax
    1e74:	f3 0f 10 00          	movss  (%rax),%xmm0
    1e78:	f3 0f 58 45 18       	addss  0x18(%rbp),%xmm0
    1e7d:	66 0f 7e c0          	movd   %xmm0,%eax
    1e81:	48 8b 55 10          	mov    0x10(%rbp),%rdx
    1e85:	f3 0f 10 42 04       	movss  0x4(%rdx),%xmm0
    1e8a:	0f 28 c8             	movaps %xmm0,%xmm1
    1e8d:	66 0f 6e c0          	movd   %eax,%xmm0
    1e91:	e8 00 00 00 00       	call   1e96 <pdsp_backlash+0x92>
    1e96:	66 0f 7e c0          	movd   %xmm0,%eax
    1e9a:	48 8b 55 10          	mov    0x10(%rbp),%rdx
    1e9e:	89 42 04             	mov    %eax,0x4(%rdx)
    1ea1:	48 8b 45 10          	mov    0x10(%rbp),%rax
    1ea5:	f3 0f 10 40 04       	movss  0x4(%rax),%xmm0
    1eaa:	48 83 c4 20          	add    $0x20,%rsp
    1eae:	5d                   	pop    %rbp
    1eaf:	c3                   	ret

0000000000001eb0 <pdsp_edge_delay_init>:
    1eb0:	55                   	push   %rbp
    1eb1:	48 89 e5             	mov    %rsp,%rbp
    1eb4:	48 83 ec 20          	sub    $0x20,%rsp
    1eb8:	48 89 4d 10          	mov    %rcx,0x10(%rbp)
    1ebc:	89 d0                	mov    %edx,%eax
    1ebe:	44 89 c1             	mov    %r8d,%ecx
    1ec1:	44 89 ca             	mov    %r9d,%edx
    1ec4:	66 89 45 18          	mov    %ax,0x18(%rbp)
    1ec8:	89 c8                	mov    %ecx,%eax
    1eca:	66 89 45 20          	mov    %ax,0x20(%rbp)
    1ece:	89 d0                	mov    %edx,%eax
    1ed0:	66 89 45 28          	mov    %ax,0x28(%rbp)
    1ed4:	48 83 7d 10 00       	cmpq   $0x0,0x10(%rbp)
    1ed9:	75 1f                	jne    1efa <pdsp_edge_delay_init+0x4a>
    1edb:	41 b8 09 03 00 00    	mov    $0x309,%r8d
    1ee1:	48 8d 05 20 00 00 00 	lea    0x20(%rip),%rax        # 1f08 <pdsp_edge_delay_init+0x58>
    1ee8:	48 89 c2             	mov    %rax,%rdx
    1eeb:	48 8d 05 27 00 00 00 	lea    0x27(%rip),%rax        # 1f19 <pdsp_edge_delay_init+0x69>
    1ef2:	48 89 c1             	mov    %rax,%rcx
    1ef5:	e8 06 e1 ff ff       	call   0 <printf>
    1efa:	48 8b 45 10          	mov    0x10(%rbp),%rax
    1efe:	0f b7 55 18          	movzwl 0x18(%rbp),%edx
    1f02:	66 89 10             	mov    %dx,(%rax)
    1f05:	48 8b 45 10          	mov    0x10(%rbp),%rax
    1f09:	66 c7 40 02 00 00    	movw   $0x0,0x2(%rax)
    1f0f:	48 8b 45 10          	mov    0x10(%rbp),%rax
    1f13:	0f b7 55 20          	movzwl 0x20(%rbp),%edx
    1f17:	66 89 50 04          	mov    %dx,0x4(%rax)
    1f1b:	48 8b 45 10          	mov    0x10(%rbp),%rax
    1f1f:	0f b7 55 28          	movzwl 0x28(%rbp),%edx
    1f23:	66 89 50 06          	mov    %dx,0x6(%rax)
    1f27:	90                   	nop
    1f28:	48 83 c4 20          	add    $0x20,%rsp
    1f2c:	5d                   	pop    %rbp
    1f2d:	c3                   	ret

0000000000001f2e <pdsp_edge_delay>:
    1f2e:	55                   	push   %rbp
    1f2f:	48 89 e5             	mov    %rsp,%rbp
    1f32:	48 83 ec 20          	sub    $0x20,%rsp
    1f36:	48 89 4d 10          	mov    %rcx,0x10(%rbp)
    1f3a:	89 d0                	mov    %edx,%eax
    1f3c:	66 89 45 18          	mov    %ax,0x18(%rbp)
    1f40:	48 83 7d 10 00       	cmpq   $0x0,0x10(%rbp)
    1f45:	75 1f                	jne    1f66 <pdsp_edge_delay+0x38>
    1f47:	41 b8 13 03 00 00    	mov    $0x313,%r8d
    1f4d:	48 8d 05 20 00 00 00 	lea    0x20(%rip),%rax        # 1f74 <pdsp_edge_delay+0x46>
    1f54:	48 89 c2             	mov    %rax,%rdx
    1f57:	48 8d 05 27 00 00 00 	lea    0x27(%rip),%rax        # 1f85 <pdsp_edge_delay+0x57>
    1f5e:	48 89 c1             	mov    %rax,%rcx
    1f61:	e8 9a e0 ff ff       	call   0 <printf>
    1f66:	48 8b 45 10          	mov    0x10(%rbp),%rax
    1f6a:	0f b7 00             	movzwl (%rax),%eax
    1f6d:	66 3b 45 18          	cmp    0x18(%rbp),%ax
    1f71:	73 41                	jae    1fb4 <pdsp_edge_delay+0x86>
    1f73:	48 8b 45 10          	mov    0x10(%rbp),%rax
    1f77:	0f b7 50 02          	movzwl 0x2(%rax),%edx
    1f7b:	48 8b 45 10          	mov    0x10(%rbp),%rax
    1f7f:	0f b7 40 04          	movzwl 0x4(%rax),%eax
    1f83:	66 39 c2             	cmp    %ax,%dx
    1f86:	73 15                	jae    1f9d <pdsp_edge_delay+0x6f>
    1f88:	48 8b 45 10          	mov    0x10(%rbp),%rax
    1f8c:	0f b7 40 02          	movzwl 0x2(%rax),%eax
    1f90:	8d 50 01             	lea    0x1(%rax),%edx
    1f93:	48 8b 45 10          	mov    0x10(%rbp),%rax
    1f97:	66 89 50 02          	mov    %dx,0x2(%rax)
    1f9b:	eb 6f                	jmp    200c <pdsp_edge_delay+0xde>
    1f9d:	48 8b 45 10          	mov    0x10(%rbp),%rax
    1fa1:	66 c7 40 02 00 00    	movw   $0x0,0x2(%rax)
    1fa7:	48 8b 45 10          	mov    0x10(%rbp),%rax
    1fab:	0f b7 55 18          	movzwl 0x18(%rbp),%edx
    1faf:	66 89 10             	mov    %dx,(%rax)
    1fb2:	eb 58                	jmp    200c <pdsp_edge_delay+0xde>
    1fb4:	48 8b 45 10          	mov    0x10(%rbp),%rax
    1fb8:	0f b7 00             	movzwl (%rax),%eax
    1fbb:	66 39 45 18          	cmp    %ax,0x18(%rbp)
    1fbf:	73 41                	jae    2002 <pdsp_edge_delay+0xd4>
    1fc1:	48 8b 45 10          	mov    0x10(%rbp),%rax
    1fc5:	0f b7 50 02          	movzwl 0x2(%rax),%edx
    1fc9:	48 8b 45 10          	mov    0x10(%rbp),%rax
    1fcd:	0f b7 40 06          	movzwl 0x6(%rax),%eax
    1fd1:	66 39 c2             	cmp    %ax,%dx
    1fd4:	73 15                	jae    1feb <pdsp_edge_delay+0xbd>
    1fd6:	48 8b 45 10          	mov    0x10(%rbp),%rax
    1fda:	0f b7 40 02          	movzwl 0x2(%rax),%eax
    1fde:	8d 50 01             	lea    0x1(%rax),%edx
    1fe1:	48 8b 45 10          	mov    0x10(%rbp),%rax
    1fe5:	66 89 50 02          	mov    %dx,0x2(%rax)
    1fe9:	eb 21                	jmp    200c <pdsp_edge_delay+0xde>
    1feb:	48 8b 45 10          	mov    0x10(%rbp),%rax
    1fef:	66 c7 40 02 00 00    	movw   $0x0,0x2(%rax)
    1ff5:	48 8b 45 10          	mov    0x10(%rbp),%rax
    1ff9:	0f b7 55 18          	movzwl 0x18(%rbp),%edx
    1ffd:	66 89 10             	mov    %dx,(%rax)
    2000:	eb 0a                	jmp    200c <pdsp_edge_delay+0xde>
    2002:	48 8b 45 10          	mov    0x10(%rbp),%rax
    2006:	66 c7 40 02 00 00    	movw   $0x0,0x2(%rax)
    200c:	48 8b 45 10          	mov    0x10(%rbp),%rax
    2010:	0f b7 00             	movzwl (%rax),%eax
    2013:	48 83 c4 20          	add    $0x20,%rsp
    2017:	5d                   	pop    %rbp
    2018:	c3                   	ret

0000000000002019 <pdsp_monoflop_init>:
    2019:	55                   	push   %rbp
    201a:	48 89 e5             	mov    %rsp,%rbp
    201d:	48 83 ec 20          	sub    $0x20,%rsp
    2021:	48 89 4d 10          	mov    %rcx,0x10(%rbp)
    2025:	89 d0                	mov    %edx,%eax
    2027:	44 89 c1             	mov    %r8d,%ecx
    202a:	44 89 ca             	mov    %r9d,%edx
    202d:	66 89 45 18          	mov    %ax,0x18(%rbp)
    2031:	89 c8                	mov    %ecx,%eax
    2033:	66 89 45 20          	mov    %ax,0x20(%rbp)
    2037:	89 d0                	mov    %edx,%eax
    2039:	66 89 45 28          	mov    %ax,0x28(%rbp)
    203d:	48 83 7d 10 00       	cmpq   $0x0,0x10(%rbp)
    2042:	75 1f                	jne    2063 <pdsp_monoflop_init+0x4a>
    2044:	41 b8 3b 03 00 00    	mov    $0x33b,%r8d
    204a:	48 8d 05 20 00 00 00 	lea    0x20(%rip),%rax        # 2071 <pdsp_monoflop_init+0x58>
    2051:	48 89 c2             	mov    %rax,%rdx
    2054:	48 8d 05 27 00 00 00 	lea    0x27(%rip),%rax        # 2082 <pdsp_monoflop_init+0x69>
    205b:	48 89 c1             	mov    %rax,%rcx
    205e:	e8 9d df ff ff       	call   0 <printf>
    2063:	48 8b 45 10          	mov    0x10(%rbp),%rax
    2067:	c6 00 00             	movb   $0x0,(%rax)
    206a:	48 8b 45 10          	mov    0x10(%rbp),%rax
    206e:	66 c7 40 02 00 00    	movw   $0x0,0x2(%rax)
    2074:	48 8b 45 10          	mov    0x10(%rbp),%rax
    2078:	0f b7 55 18          	movzwl 0x18(%rbp),%edx
    207c:	66 89 50 04          	mov    %dx,0x4(%rax)
    2080:	48 8b 45 10          	mov    0x10(%rbp),%rax
    2084:	0f b7 55 20          	movzwl 0x20(%rbp),%edx
    2088:	66 89 50 06          	mov    %dx,0x6(%rax)
    208c:	48 8b 45 10          	mov    0x10(%rbp),%rax
    2090:	0f b7 55 28          	movzwl 0x28(%rbp),%edx
    2094:	66 89 50 08          	mov    %dx,0x8(%rax)
    2098:	90                   	nop
    2099:	48 83 c4 20          	add    $0x20,%rsp
    209d:	5d                   	pop    %rbp
    209e:	c3                   	ret

000000000000209f <pdsp_monoflop>:
    209f:	55                   	push   %rbp
    20a0:	48 89 e5             	mov    %rsp,%rbp
    20a3:	48 83 ec 20          	sub    $0x20,%rsp
    20a7:	48 89 4d 10          	mov    %rcx,0x10(%rbp)
    20ab:	89 d0                	mov    %edx,%eax
    20ad:	88 45 18             	mov    %al,0x18(%rbp)
    20b0:	48 83 7d 10 00       	cmpq   $0x0,0x10(%rbp)
    20b5:	75 1f                	jne    20d6 <pdsp_monoflop+0x37>
    20b7:	41 b8 46 03 00 00    	mov    $0x346,%r8d
    20bd:	48 8d 05 20 00 00 00 	lea    0x20(%rip),%rax        # 20e4 <pdsp_monoflop+0x45>
    20c4:	48 89 c2             	mov    %rax,%rdx
    20c7:	48 8d 05 27 00 00 00 	lea    0x27(%rip),%rax        # 20f5 <pdsp_monoflop+0x56>
    20ce:	48 89 c1             	mov    %rax,%rcx
    20d1:	e8 2a df ff ff       	call   0 <printf>
    20d6:	80 7d 18 00          	cmpb   $0x0,0x18(%rbp)
    20da:	74 3f                	je     211b <pdsp_monoflop+0x7c>
    20dc:	48 8b 45 10          	mov    0x10(%rbp),%rax
    20e0:	0f b6 00             	movzbl (%rax),%eax
    20e3:	83 f0 01             	xor    $0x1,%eax
    20e6:	84 c0                	test   %al,%al
    20e8:	74 31                	je     211b <pdsp_monoflop+0x7c>
    20ea:	48 8b 45 10          	mov    0x10(%rbp),%rax
    20ee:	0f b7 40 02          	movzwl 0x2(%rax),%eax
    20f2:	66 85 c0             	test   %ax,%ax
    20f5:	75 24                	jne    211b <pdsp_monoflop+0x7c>
    20f7:	48 8b 45 10          	mov    0x10(%rbp),%rax
    20fb:	0f b7 50 04          	movzwl 0x4(%rax),%edx
    20ff:	48 8b 45 10          	mov    0x10(%rbp),%rax
    2103:	66 89 50 02          	mov    %dx,0x2(%rax)
    2107:	48 8b 45 10          	mov    0x10(%rbp),%rax
    210b:	0f b6 55 18          	movzbl 0x18(%rbp),%edx
    210f:	88 10                	mov    %dl,(%rax)
    2111:	48 8b 45 10          	mov    0x10(%rbp),%rax
    2115:	0f b7 40 08          	movzwl 0x8(%rax),%eax
    2119:	eb 53                	jmp    216e <pdsp_monoflop+0xcf>
    211b:	48 8b 45 10          	mov    0x10(%rbp),%rax
    211f:	0f b7 40 02          	movzwl 0x2(%rax),%eax
    2123:	66 85 c0             	test   %ax,%ax
    2126:	74 13                	je     213b <pdsp_monoflop+0x9c>
    2128:	48 8b 45 10          	mov    0x10(%rbp),%rax
    212c:	0f b7 40 02          	movzwl 0x2(%rax),%eax
    2130:	8d 50 ff             	lea    -0x1(%rax),%edx
    2133:	48 8b 45 10          	mov    0x10(%rbp),%rax
    2137:	66 89 50 02          	mov    %dx,0x2(%rax)
    213b:	48 8b 45 10          	mov    0x10(%rbp),%rax
    213f:	0f b7 40 02          	movzwl 0x2(%rax),%eax
    2143:	66 85 c0             	test   %ax,%ax
    2146:	74 14                	je     215c <pdsp_monoflop+0xbd>
    2148:	48 8b 45 10          	mov    0x10(%rbp),%rax
    214c:	0f b6 55 18          	movzbl 0x18(%rbp),%edx
    2150:	88 10                	mov    %dl,(%rax)
    2152:	48 8b 45 10          	mov    0x10(%rbp),%rax
    2156:	0f b7 40 08          	movzwl 0x8(%rax),%eax
    215a:	eb 12                	jmp    216e <pdsp_monoflop+0xcf>
    215c:	48 8b 45 10          	mov    0x10(%rbp),%rax
    2160:	0f b6 55 18          	movzbl 0x18(%rbp),%edx
    2164:	88 10                	mov    %dl,(%rax)
    2166:	48 8b 45 10          	mov    0x10(%rbp),%rax
    216a:	0f b7 40 06          	movzwl 0x6(%rax),%eax
    216e:	48 83 c4 20          	add    $0x20,%rsp
    2172:	5d                   	pop    %rbp
    2173:	c3                   	ret

0000000000002174 <pdsp_monoflop_rtr>:
    2174:	55                   	push   %rbp
    2175:	48 89 e5             	mov    %rsp,%rbp
    2178:	48 83 ec 20          	sub    $0x20,%rsp
    217c:	48 89 4d 10          	mov    %rcx,0x10(%rbp)
    2180:	89 d0                	mov    %edx,%eax
    2182:	88 45 18             	mov    %al,0x18(%rbp)
    2185:	48 83 7d 10 00       	cmpq   $0x0,0x10(%rbp)
    218a:	75 1f                	jne    21ab <pdsp_monoflop_rtr+0x37>
    218c:	41 b8 61 03 00 00    	mov    $0x361,%r8d
    2192:	48 8d 05 20 00 00 00 	lea    0x20(%rip),%rax        # 21b9 <pdsp_monoflop_rtr+0x45>
    2199:	48 89 c2             	mov    %rax,%rdx
    219c:	48 8d 05 27 00 00 00 	lea    0x27(%rip),%rax        # 21ca <pdsp_monoflop_rtr+0x56>
    21a3:	48 89 c1             	mov    %rax,%rcx
    21a6:	e8 55 de ff ff       	call   0 <printf>
    21ab:	80 7d 18 00          	cmpb   $0x0,0x18(%rbp)
    21af:	74 32                	je     21e3 <pdsp_monoflop_rtr+0x6f>
    21b1:	48 8b 45 10          	mov    0x10(%rbp),%rax
    21b5:	0f b6 00             	movzbl (%rax),%eax
    21b8:	83 f0 01             	xor    $0x1,%eax
    21bb:	84 c0                	test   %al,%al
    21bd:	74 24                	je     21e3 <pdsp_monoflop_rtr+0x6f>
    21bf:	48 8b 45 10          	mov    0x10(%rbp),%rax
    21c3:	0f b7 50 04          	movzwl 0x4(%rax),%edx
    21c7:	48 8b 45 10          	mov    0x10(%rbp),%rax
    21cb:	66 89 50 02          	mov    %dx,0x2(%rax)
    21cf:	48 8b 45 10          	mov    0x10(%rbp),%rax
    21d3:	0f b6 55 18          	movzbl 0x18(%rbp),%edx
    21d7:	88 10                	mov    %dl,(%rax)
    21d9:	48 8b 45 10          	mov    0x10(%rbp),%rax
    21dd:	0f b7 40 08          	movzwl 0x8(%rax),%eax
    21e1:	eb 53                	jmp    2236 <pdsp_monoflop_rtr+0xc2>
    21e3:	48 8b 45 10          	mov    0x10(%rbp),%rax
    21e7:	0f b7 40 02          	movzwl 0x2(%rax),%eax
    21eb:	66 85 c0             	test   %ax,%ax
    21ee:	74 13                	je     2203 <pdsp_monoflop_rtr+0x8f>
    21f0:	48 8b 45 10          	mov    0x10(%rbp),%rax
    21f4:	0f b7 40 02          	movzwl 0x2(%rax),%eax
    21f8:	8d 50 ff             	lea    -0x1(%rax),%edx
    21fb:	48 8b 45 10          	mov    0x10(%rbp),%rax
    21ff:	66 89 50 02          	mov    %dx,0x2(%rax)
    2203:	48 8b 45 10          	mov    0x10(%rbp),%rax
    2207:	0f b7 40 02          	movzwl 0x2(%rax),%eax
    220b:	66 85 c0             	test   %ax,%ax
    220e:	74 14                	je     2224 <pdsp_monoflop_rtr+0xb0>
    2210:	48 8b 45 10          	mov    0x10(%rbp),%rax
    2214:	0f b6 55 18          	movzbl 0x18(%rbp),%edx
    2218:	88 10                	mov    %dl,(%rax)
    221a:	48 8b 45 10          	mov    0x10(%rbp),%rax
    221e:	0f b7 40 08          	movzwl 0x8(%rax),%eax
    2222:	eb 12                	jmp    2236 <pdsp_monoflop_rtr+0xc2>
    2224:	48 8b 45 10          	mov    0x10(%rbp),%rax
    2228:	0f b6 55 18          	movzbl 0x18(%rbp),%edx
    222c:	88 10                	mov    %dl,(%rax)
    222e:	48 8b 45 10          	mov    0x10(%rbp),%rax
    2232:	0f b7 40 06          	movzwl 0x6(%rax),%eax
    2236:	48 83 c4 20          	add    $0x20,%rsp
    223a:	5d                   	pop    %rbp
    223b:	c3                   	ret

000000000000223c <pdsp_monoflop_rtr_det>:
    223c:	55                   	push   %rbp
    223d:	48 89 e5             	mov    %rsp,%rbp
    2240:	48 83 ec 20          	sub    $0x20,%rsp
    2244:	48 89 4d 10          	mov    %rcx,0x10(%rbp)
    2248:	89 d0                	mov    %edx,%eax
    224a:	88 45 18             	mov    %al,0x18(%rbp)
    224d:	48 83 7d 10 00       	cmpq   $0x0,0x10(%rbp)
    2252:	75 1f                	jne    2273 <pdsp_monoflop_rtr_det+0x37>
    2254:	41 b8 7b 03 00 00    	mov    $0x37b,%r8d
    225a:	48 8d 05 20 00 00 00 	lea    0x20(%rip),%rax        # 2281 <pdsp_monoflop_rtr_det+0x45>
    2261:	48 89 c2             	mov    %rax,%rdx
    2264:	48 8d 05 27 00 00 00 	lea    0x27(%rip),%rax        # 2292 <pdsp_monoflop_rtr_det+0x56>
    226b:	48 89 c1             	mov    %rax,%rcx
    226e:	e8 8d dd ff ff       	call   0 <printf>
    2273:	48 8b 45 10          	mov    0x10(%rbp),%rax
    2277:	0f b6 00             	movzbl (%rax),%eax
    227a:	38 45 18             	cmp    %al,0x18(%rbp)
    227d:	74 24                	je     22a3 <pdsp_monoflop_rtr_det+0x67>
    227f:	48 8b 45 10          	mov    0x10(%rbp),%rax
    2283:	0f b7 50 04          	movzwl 0x4(%rax),%edx
    2287:	48 8b 45 10          	mov    0x10(%rbp),%rax
    228b:	66 89 50 02          	mov    %dx,0x2(%rax)
    228f:	48 8b 45 10          	mov    0x10(%rbp),%rax
    2293:	0f b6 55 18          	movzbl 0x18(%rbp),%edx
    2297:	88 10                	mov    %dl,(%rax)
    2299:	48 8b 45 10          	mov    0x10(%rbp),%rax
    229d:	0f b7 40 08          	movzwl 0x8(%rax),%eax
    22a1:	eb 46                	jmp    22e9 <pdsp_monoflop_rtr_det+0xad>
    22a3:	48 8b 45 10          	mov    0x10(%rbp),%rax
    22a7:	0f b7 40 02          	movzwl 0x2(%rax),%eax
    22ab:	66 85 c0             	test   %ax,%ax
    22ae:	74 27                	je     22d7 <pdsp_monoflop_rtr_det+0x9b>
    22b0:	48 8b 45 10          	mov    0x10(%rbp),%rax
    22b4:	0f b7 40 02          	movzwl 0x2(%rax),%eax
    22b8:	8d 50 ff             	lea    -0x1(%rax),%edx
    22bb:	48 8b 45 10          	mov    0x10(%rbp),%rax
    22bf:	66 89 50 02          	mov    %dx,0x2(%rax)
    22c3:	48 8b 45 10          	mov    0x10(%rbp),%rax
    22c7:	0f b6 55 18          	movzbl 0x18(%rbp),%edx
    22cb:	88 10                	mov    %dl,(%rax)
    22cd:	48 8b 45 10          	mov    0x10(%rbp),%rax
    22d1:	0f b7 40 08          	movzwl 0x8(%rax),%eax
    22d5:	eb 12                	jmp    22e9 <pdsp_monoflop_rtr_det+0xad>
    22d7:	48 8b 45 10          	mov    0x10(%rbp),%rax
    22db:	0f b6 55 18          	movzbl 0x18(%rbp),%edx
    22df:	88 10                	mov    %dl,(%rax)
    22e1:	48 8b 45 10          	mov    0x10(%rbp),%rax
    22e5:	0f b7 40 06          	movzwl 0x6(%rax),%eax
    22e9:	48 83 c4 20          	add    $0x20,%rsp
    22ed:	5d                   	pop    %rbp
    22ee:	c3                   	ret

00000000000022ef <pdsp_pulse_init>:
    22ef:	55                   	push   %rbp
    22f0:	48 89 e5             	mov    %rsp,%rbp
    22f3:	48 83 ec 30          	sub    $0x30,%rsp
    22f7:	48 89 4d 10          	mov    %rcx,0x10(%rbp)
    22fb:	89 d0                	mov    %edx,%eax
    22fd:	44 89 c9             	mov    %r9d,%ecx
    2300:	8b 55 30             	mov    0x30(%rbp),%edx
    2303:	66 89 45 18          	mov    %ax,0x18(%rbp)
    2307:	44 89 c0             	mov    %r8d,%eax
    230a:	66 89 45 20          	mov    %ax,0x20(%rbp)
    230e:	89 c8                	mov    %ecx,%eax
    2310:	66 89 45 28          	mov    %ax,0x28(%rbp)
    2314:	89 d0                	mov    %edx,%eax
    2316:	66 89 45 fc          	mov    %ax,-0x4(%rbp)
    231a:	48 83 7d 10 00       	cmpq   $0x0,0x10(%rbp)
    231f:	75 1f                	jne    2340 <pdsp_pulse_init+0x51>
    2321:	41 b8 94 03 00 00    	mov    $0x394,%r8d
    2327:	48 8d 05 20 00 00 00 	lea    0x20(%rip),%rax        # 234e <pdsp_pulse_init+0x5f>
    232e:	48 89 c2             	mov    %rax,%rdx
    2331:	48 8d 05 27 00 00 00 	lea    0x27(%rip),%rax        # 235f <pdsp_pulse_init+0x70>
    2338:	48 89 c1             	mov    %rax,%rcx
    233b:	e8 c0 dc ff ff       	call   0 <printf>
    2340:	48 8b 45 10          	mov    0x10(%rbp),%rax
    2344:	66 c7 00 00 00       	movw   $0x0,(%rax)
    2349:	48 8b 45 10          	mov    0x10(%rbp),%rax
    234d:	0f b7 55 18          	movzwl 0x18(%rbp),%edx
    2351:	66 89 50 02          	mov    %dx,0x2(%rax)
    2355:	48 8b 45 10          	mov    0x10(%rbp),%rax
    2359:	0f b7 55 20          	movzwl 0x20(%rbp),%edx
    235d:	66 89 50 04          	mov    %dx,0x4(%rax)
    2361:	48 8b 45 10          	mov    0x10(%rbp),%rax
    2365:	0f b7 55 28          	movzwl 0x28(%rbp),%edx
    2369:	66 89 50 06          	mov    %dx,0x6(%rax)
    236d:	48 8b 45 10          	mov    0x10(%rbp),%rax
    2371:	0f b7 55 fc          	movzwl -0x4(%rbp),%edx
    2375:	66 89 50 08          	mov    %dx,0x8(%rax)
    2379:	90                   	nop
    237a:	48 83 c4 30          	add    $0x30,%rsp
    237e:	5d                   	pop    %rbp
    237f:	c3                   	ret

0000000000002380 <pdsp_pulse>:
    2380:	55                   	push   %rbp
    2381:	48 89 e5             	mov    %rsp,%rbp
    2384:	48 83 ec 20          	sub    $0x20,%rsp
    2388:	48 89 4d 10          	mov    %rcx,0x10(%rbp)
    238c:	48 83 7d 10 00       	cmpq   $0x0,0x10(%rbp)
    2391:	75 1f                	jne    23b2 <pdsp_pulse+0x32>
    2393:	41 b8 9e 03 00 00    	mov    $0x39e,%r8d
    2399:	48 8d 05 20 00 00 00 	lea    0x20(%rip),%rax        # 23c0 <pdsp_pulse+0x40>
    23a0:	48 89 c2             	mov    %rax,%rdx
    23a3:	48 8d 05 27 00 00 00 	lea    0x27(%rip),%rax        # 23d1 <pdsp_pulse+0x51>
    23aa:	48 89 c1             	mov    %rax,%rcx
    23ad:	e8 4e dc ff ff       	call   0 <printf>
    23b2:	48 8b 45 10          	mov    0x10(%rbp),%rax
    23b6:	0f b7 10             	movzwl (%rax),%edx
    23b9:	48 8b 45 10          	mov    0x10(%rbp),%rax
    23bd:	0f b7 40 02          	movzwl 0x2(%rax),%eax
    23c1:	66 39 c2             	cmp    %ax,%dx
    23c4:	73 1b                	jae    23e1 <pdsp_pulse+0x61>
    23c6:	48 8b 45 10          	mov    0x10(%rbp),%rax
    23ca:	0f b7 00             	movzwl (%rax),%eax
    23cd:	8d 50 01             	lea    0x1(%rax),%edx
    23d0:	48 8b 45 10          	mov    0x10(%rbp),%rax
    23d4:	66 89 10             	mov    %dx,(%rax)
    23d7:	48 8b 45 10          	mov    0x10(%rbp),%rax
    23db:	0f b7 40 06          	movzwl 0x6(%rax),%eax
    23df:	eb 36                	jmp    2417 <pdsp_pulse+0x97>
    23e1:	48 8b 45 10          	mov    0x10(%rbp),%rax
    23e5:	0f b7 00             	movzwl (%rax),%eax
    23e8:	8d 50 01             	lea    0x1(%rax),%edx
    23eb:	48 8b 45 10          	mov    0x10(%rbp),%rax
    23ef:	66 89 10             	mov    %dx,(%rax)
    23f2:	48 8b 45 10          	mov    0x10(%rbp),%rax
    23f6:	0f b7 10             	movzwl (%rax),%edx
    23f9:	48 8b 45 10          	mov    0x10(%rbp),%rax
    23fd:	0f b7 40 04          	movzwl 0x4(%rax),%eax
    2401:	66 39 c2             	cmp    %ax,%dx
    2404:	72 09                	jb     240f <pdsp_pulse+0x8f>
    2406:	48 8b 45 10          	mov    0x10(%rbp),%rax
    240a:	66 c7 00 00 00       	movw   $0x0,(%rax)
    240f:	48 8b 45 10          	mov    0x10(%rbp),%rax
    2413:	0f b7 40 08          	movzwl 0x8(%rax),%eax
    2417:	48 83 c4 20          	add    $0x20,%rsp
    241b:	5d                   	pop    %rbp
    241c:	c3                   	ret

000000000000241d <pdsp_bit_write_u16>:
    241d:	55                   	push   %rbp
    241e:	48 89 e5             	mov    %rsp,%rbp
    2421:	48 83 ec 20          	sub    $0x20,%rsp
    2425:	48 89 4d 10          	mov    %rcx,0x10(%rbp)
    2429:	89 d0                	mov    %edx,%eax
    242b:	44 89 c2             	mov    %r8d,%edx
    242e:	66 89 45 18          	mov    %ax,0x18(%rbp)
    2432:	89 d0                	mov    %edx,%eax
    2434:	88 45 20             	mov    %al,0x20(%rbp)
    2437:	48 83 7d 10 00       	cmpq   $0x0,0x10(%rbp)
    243c:	74 07                	je     2445 <pdsp_bit_write_u16+0x28>
    243e:	66 83 7d 18 0f       	cmpw   $0xf,0x18(%rbp)
    2443:	76 1f                	jbe    2464 <pdsp_bit_write_u16+0x47>
    2445:	41 b8 b2 03 00 00    	mov    $0x3b2,%r8d
    244b:	48 8d 05 20 00 00 00 	lea    0x20(%rip),%rax        # 2472 <pdsp_bit_write_u16+0x55>
    2452:	48 89 c2             	mov    %rax,%rdx
    2455:	48 8d 05 27 00 00 00 	lea    0x27(%rip),%rax        # 2483 <pdsp_bit_write_u16+0x66>
    245c:	48 89 c1             	mov    %rax,%rcx
    245f:	e8 9c db ff ff       	call   0 <printf>
    2464:	80 7d 20 00          	cmpb   $0x0,0x20(%rbp)
    2468:	74 27                	je     2491 <pdsp_bit_write_u16+0x74>
    246a:	48 8b 45 10          	mov    0x10(%rbp),%rax
    246e:	0f b7 00             	movzwl (%rax),%eax
    2471:	41 89 c0             	mov    %eax,%r8d
    2474:	0f b7 45 18          	movzwl 0x18(%rbp),%eax
    2478:	ba 01 00 00 00       	mov    $0x1,%edx
    247d:	89 c1                	mov    %eax,%ecx
    247f:	d3 e2                	shl    %cl,%edx
    2481:	89 d0                	mov    %edx,%eax
    2483:	44 09 c0             	or     %r8d,%eax
    2486:	89 c2                	mov    %eax,%edx
    2488:	48 8b 45 10          	mov    0x10(%rbp),%rax
    248c:	66 89 10             	mov    %dx,(%rax)
    248f:	eb 27                	jmp    24b8 <pdsp_bit_write_u16+0x9b>
    2491:	48 8b 45 10          	mov    0x10(%rbp),%rax
    2495:	0f b7 00             	movzwl (%rax),%eax
    2498:	41 89 c0             	mov    %eax,%r8d
    249b:	0f b7 45 18          	movzwl 0x18(%rbp),%eax
    249f:	ba 01 00 00 00       	mov    $0x1,%edx
    24a4:	89 c1                	mov    %eax,%ecx
    24a6:	d3 e2                	shl    %cl,%edx
    24a8:	89 d0                	mov    %edx,%eax
    24aa:	f7 d0                	not    %eax
    24ac:	44 21 c0             	and    %r8d,%eax
    24af:	89 c2                	mov    %eax,%edx
    24b1:	48 8b 45 10          	mov    0x10(%rbp),%rax
    24b5:	66 89 10             	mov    %dx,(%rax)
    24b8:	90                   	nop
    24b9:	48 83 c4 20          	add    $0x20,%rsp
    24bd:	5d                   	pop    %rbp
    24be:	c3                   	ret

00000000000024bf <pdsp_bit_write_u32>:
    24bf:	55                   	push   %rbp
    24c0:	48 89 e5             	mov    %rsp,%rbp
    24c3:	48 83 ec 20          	sub    $0x20,%rsp
    24c7:	48 89 4d 10          	mov    %rcx,0x10(%rbp)
    24cb:	89 d0                	mov    %edx,%eax
    24cd:	44 89 c2             	mov    %r8d,%edx
    24d0:	66 89 45 18          	mov    %ax,0x18(%rbp)
    24d4:	89 d0                	mov    %edx,%eax
    24d6:	88 45 20             	mov    %al,0x20(%rbp)
    24d9:	48 83 7d 10 00       	cmpq   $0x0,0x10(%rbp)
    24de:	74 07                	je     24e7 <pdsp_bit_write_u32+0x28>
    24e0:	66 83 7d 18 1f       	cmpw   $0x1f,0x18(%rbp)
    24e5:	76 1f                	jbe    2506 <pdsp_bit_write_u32+0x47>
    24e7:	41 b8 c0 03 00 00    	mov    $0x3c0,%r8d
    24ed:	48 8d 05 20 00 00 00 	lea    0x20(%rip),%rax        # 2514 <pdsp_bit_write_u32+0x55>
    24f4:	48 89 c2             	mov    %rax,%rdx
    24f7:	48 8d 05 27 00 00 00 	lea    0x27(%rip),%rax        # 2525 <pdsp_bit_write_u32+0x66>
    24fe:	48 89 c1             	mov    %rax,%rcx
    2501:	e8 fa da ff ff       	call   0 <printf>
    2506:	80 7d 20 00          	cmpb   $0x0,0x20(%rbp)
    250a:	74 22                	je     252e <pdsp_bit_write_u32+0x6f>
    250c:	48 8b 45 10          	mov    0x10(%rbp),%rax
    2510:	8b 10                	mov    (%rax),%edx
    2512:	0f b7 45 18          	movzwl 0x18(%rbp),%eax
    2516:	41 b8 01 00 00 00    	mov    $0x1,%r8d
    251c:	89 c1                	mov    %eax,%ecx
    251e:	41 d3 e0             	shl    %cl,%r8d
    2521:	44 89 c0             	mov    %r8d,%eax
    2524:	09 c2                	or     %eax,%edx
    2526:	48 8b 45 10          	mov    0x10(%rbp),%rax
    252a:	89 10                	mov    %edx,(%rax)
    252c:	eb 22                	jmp    2550 <pdsp_bit_write_u32+0x91>
    252e:	48 8b 45 10          	mov    0x10(%rbp),%rax
    2532:	8b 10                	mov    (%rax),%edx
    2534:	0f b7 45 18          	movzwl 0x18(%rbp),%eax
    2538:	41 b8 01 00 00 00    	mov    $0x1,%r8d
    253e:	89 c1                	mov    %eax,%ecx
    2540:	41 d3 e0             	shl    %cl,%r8d
    2543:	44 89 c0             	mov    %r8d,%eax
    2546:	f7 d0                	not    %eax
    2548:	21 c2                	and    %eax,%edx
    254a:	48 8b 45 10          	mov    0x10(%rbp),%rax
    254e:	89 10                	mov    %edx,(%rax)
    2550:	90                   	nop
    2551:	48 83 c4 20          	add    $0x20,%rsp
    2555:	5d                   	pop    %rbp
    2556:	c3                   	ret

0000000000002557 <pdsp_bit_read_u16>:
    2557:	55                   	push   %rbp
    2558:	48 89 e5             	mov    %rsp,%rbp
    255b:	48 83 ec 20          	sub    $0x20,%rsp
    255f:	48 89 4d 10          	mov    %rcx,0x10(%rbp)
    2563:	89 d0                	mov    %edx,%eax
    2565:	66 89 45 18          	mov    %ax,0x18(%rbp)
    2569:	48 83 7d 10 00       	cmpq   $0x0,0x10(%rbp)
    256e:	74 07                	je     2577 <pdsp_bit_read_u16+0x20>
    2570:	66 83 7d 18 0f       	cmpw   $0xf,0x18(%rbp)
    2575:	76 1f                	jbe    2596 <pdsp_bit_read_u16+0x3f>
    2577:	41 b8 ce 03 00 00    	mov    $0x3ce,%r8d
    257d:	48 8d 05 20 00 00 00 	lea    0x20(%rip),%rax        # 25a4 <pdsp_bit_read_u16+0x4d>
    2584:	48 89 c2             	mov    %rax,%rdx
    2587:	48 8d 05 27 00 00 00 	lea    0x27(%rip),%rax        # 25b5 <pdsp_bit_read_u16+0x5e>
    258e:	48 89 c1             	mov    %rax,%rcx
    2591:	e8 6a da ff ff       	call   0 <printf>
    2596:	48 8b 45 10          	mov    0x10(%rbp),%rax
    259a:	0f b7 00             	movzwl (%rax),%eax
    259d:	0f b7 d0             	movzwl %ax,%edx
    25a0:	0f b7 45 18          	movzwl 0x18(%rbp),%eax
    25a4:	89 c1                	mov    %eax,%ecx
    25a6:	d3 fa                	sar    %cl,%edx
    25a8:	89 d0                	mov    %edx,%eax
    25aa:	83 e0 01             	and    $0x1,%eax
    25ad:	85 c0                	test   %eax,%eax
    25af:	0f 95 c0             	setne  %al
    25b2:	48 83 c4 20          	add    $0x20,%rsp
    25b6:	5d                   	pop    %rbp
    25b7:	c3                   	ret

00000000000025b8 <pdsp_bit_read_u32>:
    25b8:	55                   	push   %rbp
    25b9:	48 89 e5             	mov    %rsp,%rbp
    25bc:	48 83 ec 20          	sub    $0x20,%rsp
    25c0:	48 89 4d 10          	mov    %rcx,0x10(%rbp)
    25c4:	89 d0                	mov    %edx,%eax
    25c6:	66 89 45 18          	mov    %ax,0x18(%rbp)
    25ca:	48 83 7d 10 00       	cmpq   $0x0,0x10(%rbp)
    25cf:	74 07                	je     25d8 <pdsp_bit_read_u32+0x20>
    25d1:	66 83 7d 18 1f       	cmpw   $0x1f,0x18(%rbp)
    25d6:	76 1f                	jbe    25f7 <pdsp_bit_read_u32+0x3f>
    25d8:	41 b8 d5 03 00 00    	mov    $0x3d5,%r8d
    25de:	48 8d 05 20 00 00 00 	lea    0x20(%rip),%rax        # 2605 <pdsp_bit_read_u32+0x4d>
    25e5:	48 89 c2             	mov    %rax,%rdx
    25e8:	48 8d 05 27 00 00 00 	lea    0x27(%rip),%rax        # 2616 <pdsp_mask_set+0x1>
    25ef:	48 89 c1             	mov    %rax,%rcx
    25f2:	e8 09 da ff ff       	call   0 <printf>
    25f7:	48 8b 45 10          	mov    0x10(%rbp),%rax
    25fb:	8b 10                	mov    (%rax),%edx
    25fd:	0f b7 45 18          	movzwl 0x18(%rbp),%eax
    2601:	89 c1                	mov    %eax,%ecx
    2603:	d3 ea                	shr    %cl,%edx
    2605:	89 d0                	mov    %edx,%eax
    2607:	83 e0 01             	and    $0x1,%eax
    260a:	85 c0                	test   %eax,%eax
    260c:	0f 95 c0             	setne  %al
    260f:	48 83 c4 20          	add    $0x20,%rsp
    2613:	5d                   	pop    %rbp
    2614:	c3                   	ret

0000000000002615 <pdsp_mask_set>:
    2615:	55                   	push   %rbp
    2616:	48 89 e5             	mov    %rsp,%rbp
    2619:	48 83 ec 20          	sub    $0x20,%rsp
    261d:	48 89 4d 10          	mov    %rcx,0x10(%rbp)
    2621:	89 55 18             	mov    %edx,0x18(%rbp)
    2624:	48 83 7d 10 00       	cmpq   $0x0,0x10(%rbp)
    2629:	75 1f                	jne    264a <pdsp_mask_set+0x35>
    262b:	41 b8 db 03 00 00    	mov    $0x3db,%r8d
    2631:	48 8d 05 20 00 00 00 	lea    0x20(%rip),%rax        # 2658 <pdsp_mask_set+0x43>
    2638:	48 89 c2             	mov    %rax,%rdx
    263b:	48 8d 05 27 00 00 00 	lea    0x27(%rip),%rax        # 2669 <pdsp_mask_clear+0x7>
    2642:	48 89 c1             	mov    %rax,%rcx
    2645:	e8 b6 d9 ff ff       	call   0 <printf>
    264a:	48 8b 45 10          	mov    0x10(%rbp),%rax
    264e:	8b 00                	mov    (%rax),%eax
    2650:	0b 45 18             	or     0x18(%rbp),%eax
    2653:	89 c2                	mov    %eax,%edx
    2655:	48 8b 45 10          	mov    0x10(%rbp),%rax
    2659:	89 10                	mov    %edx,(%rax)
    265b:	90                   	nop
    265c:	48 83 c4 20          	add    $0x20,%rsp
    2660:	5d                   	pop    %rbp
    2661:	c3                   	ret

0000000000002662 <pdsp_mask_clear>:
    2662:	55                   	push   %rbp
    2663:	48 89 e5             	mov    %rsp,%rbp
    2666:	48 83 ec 20          	sub    $0x20,%rsp
    266a:	48 89 4d 10          	mov    %rcx,0x10(%rbp)
    266e:	89 55 18             	mov    %edx,0x18(%rbp)
    2671:	48 83 7d 10 00       	cmpq   $0x0,0x10(%rbp)
    2676:	75 1f                	jne    2697 <pdsp_mask_clear+0x35>
    2678:	41 b8 e1 03 00 00    	mov    $0x3e1,%r8d
    267e:	48 8d 05 20 00 00 00 	lea    0x20(%rip),%rax        # 26a5 <pdsp_mask_clear+0x43>
    2685:	48 89 c2             	mov    %rax,%rdx
    2688:	48 8d 05 27 00 00 00 	lea    0x27(%rip),%rax        # 26b6 <pdsp_mask_get+0x5>
    268f:	48 89 c1             	mov    %rax,%rcx
    2692:	e8 69 d9 ff ff       	call   0 <printf>
    2697:	48 8b 45 10          	mov    0x10(%rbp),%rax
    269b:	8b 00                	mov    (%rax),%eax
    269d:	8b 55 18             	mov    0x18(%rbp),%edx
    26a0:	f7 d2                	not    %edx
    26a2:	21 c2                	and    %eax,%edx
    26a4:	48 8b 45 10          	mov    0x10(%rbp),%rax
    26a8:	89 10                	mov    %edx,(%rax)
    26aa:	90                   	nop
    26ab:	48 83 c4 20          	add    $0x20,%rsp
    26af:	5d                   	pop    %rbp
    26b0:	c3                   	ret

00000000000026b1 <pdsp_mask_get>:
    26b1:	55                   	push   %rbp
    26b2:	48 89 e5             	mov    %rsp,%rbp
    26b5:	48 83 ec 20          	sub    $0x20,%rsp
    26b9:	48 89 4d 10          	mov    %rcx,0x10(%rbp)
    26bd:	89 55 18             	mov    %edx,0x18(%rbp)
    26c0:	44 89 45 20          	mov    %r8d,0x20(%rbp)
    26c4:	48 83 7d 10 00       	cmpq   $0x0,0x10(%rbp)
    26c9:	75 1f                	jne    26ea <pdsp_mask_get+0x39>
    26cb:	41 b8 e9 03 00 00    	mov    $0x3e9,%r8d
    26d1:	48 8d 05 20 00 00 00 	lea    0x20(%rip),%rax        # 26f8 <pdsp_mask_get+0x47>
    26d8:	48 89 c2             	mov    %rax,%rdx
    26db:	48 8d 05 27 00 00 00 	lea    0x27(%rip),%rax        # 2709 <pdsp_mask_get+0x58>
    26e2:	48 89 c1             	mov    %rax,%rcx
    26e5:	e8 16 d9 ff ff       	call   0 <printf>
    26ea:	48 8b 45 10          	mov    0x10(%rbp),%rax
    26ee:	8b 00                	mov    (%rax),%eax
    26f0:	23 45 18             	and    0x18(%rbp),%eax
    26f3:	89 c2                	mov    %eax,%edx
    26f5:	48 8b 45 10          	mov    0x10(%rbp),%rax
    26f9:	8b 00                	mov    (%rax),%eax
    26fb:	f7 d0                	not    %eax
    26fd:	23 45 20             	and    0x20(%rbp),%eax
    2700:	09 d0                	or     %edx,%eax
    2702:	85 c0                	test   %eax,%eax
    2704:	0f 95 c0             	setne  %al
    2707:	48 83 c4 20          	add    $0x20,%rsp
    270b:	5d                   	pop    %rbp
    270c:	c3                   	ret

000000000000270d <pdsp_signal_write_f32>:
    270d:	55                   	push   %rbp
    270e:	48 89 e5             	mov    %rsp,%rbp
    2711:	48 83 ec 20          	sub    $0x20,%rsp
    2715:	48 89 4d 10          	mov    %rcx,0x10(%rbp)
    2719:	48 89 55 18          	mov    %rdx,0x18(%rbp)
    271d:	f3 0f 11 55 20       	movss  %xmm2,0x20(%rbp)
    2722:	48 83 7d 10 00       	cmpq   $0x0,0x10(%rbp)
    2727:	75 1f                	jne    2748 <pdsp_signal_write_f32+0x3b>
    2729:	41 b8 f1 03 00 00    	mov    $0x3f1,%r8d
    272f:	48 8d 05 20 00 00 00 	lea    0x20(%rip),%rax        # 2756 <pdsp_signal_write_f32+0x49>
    2736:	48 89 c2             	mov    %rax,%rdx
    2739:	48 8d 05 27 00 00 00 	lea    0x27(%rip),%rax        # 2767 <pdsp_signal_write_f32+0x5a>
    2740:	48 89 c1             	mov    %rax,%rcx
    2743:	e8 b8 d8 ff ff       	call   0 <printf>
    2748:	48 8b 45 10          	mov    0x10(%rbp),%rax
    274c:	f3 0f 10 00          	movss  (%rax),%xmm0
    2750:	0f 28 c8             	movaps %xmm0,%xmm1
    2753:	f3 0f 59 4d 20       	mulss  0x20(%rbp),%xmm1
    2758:	48 8b 45 10          	mov    0x10(%rbp),%rax
    275c:	f3 0f 10 40 04       	movss  0x4(%rax),%xmm0
    2761:	f3 0f 58 c1          	addss  %xmm1,%xmm0
    2765:	f3 0f 2c c0          	cvttss2si %xmm0,%eax
    2769:	0f b7 c8             	movzwl %ax,%ecx
    276c:	48 8b 55 18          	mov    0x18(%rbp),%rdx
    2770:	48 8b 45 10          	mov    0x10(%rbp),%rax
    2774:	41 89 c8             	mov    %ecx,%r8d
    2777:	48 89 c1             	mov    %rax,%rcx
    277a:	e8 51 00 00 00       	call   27d0 <pdsp_signal_write_u16>
    277f:	90                   	nop
    2780:	48 83 c4 20          	add    $0x20,%rsp
    2784:	5d                   	pop    %rbp
    2785:	c3                   	ret

0000000000002786 <pdsp_signal_read_f32>:
    2786:	55                   	push   %rbp
    2787:	48 89 e5             	mov    %rsp,%rbp
    278a:	48 83 ec 20          	sub    $0x20,%rsp
    278e:	48 89 4d 10          	mov    %rcx,0x10(%rbp)
    2792:	48 89 55 18          	mov    %rdx,0x18(%rbp)
    2796:	48 8b 55 18          	mov    0x18(%rbp),%rdx
    279a:	48 8b 45 10          	mov    0x10(%rbp),%rax
    279e:	48 89 c1             	mov    %rax,%rcx
    27a1:	e8 c4 00 00 00       	call   286a <pdsp_signal_read_u16>
    27a6:	0f b7 c0             	movzwl %ax,%eax
    27a9:	66 0f ef c0          	pxor   %xmm0,%xmm0
    27ad:	f3 0f 2a c0          	cvtsi2ss %eax,%xmm0
    27b1:	48 8b 45 10          	mov    0x10(%rbp),%rax
    27b5:	f3 0f 10 48 04       	movss  0x4(%rax),%xmm1
    27ba:	f3 0f 5c c1          	subss  %xmm1,%xmm0
    27be:	48 8b 45 10          	mov    0x10(%rbp),%rax
    27c2:	f3 0f 10 08          	movss  (%rax),%xmm1
    27c6:	f3 0f 5e c1          	divss  %xmm1,%xmm0
    27ca:	48 83 c4 20          	add    $0x20,%rsp
    27ce:	5d                   	pop    %rbp
    27cf:	c3                   	ret

00000000000027d0 <pdsp_signal_write_u16>:
    27d0:	55                   	push   %rbp
    27d1:	48 89 e5             	mov    %rsp,%rbp
    27d4:	48 83 ec 20          	sub    $0x20,%rsp
    27d8:	48 89 4d 10          	mov    %rcx,0x10(%rbp)
    27dc:	48 89 55 18          	mov    %rdx,0x18(%rbp)
    27e0:	44 89 c0             	mov    %r8d,%eax
    27e3:	66 89 45 20          	mov    %ax,0x20(%rbp)
    27e7:	48 83 7d 10 00       	cmpq   $0x0,0x10(%rbp)
    27ec:	74 0e                	je     27fc <pdsp_signal_write_u16+0x2c>
    27ee:	48 8b 45 10          	mov    0x10(%rbp),%rax
    27f2:	0f b7 40 08          	movzwl 0x8(%rax),%eax
    27f6:	66 83 f8 3f          	cmp    $0x3f,%ax
    27fa:	76 1f                	jbe    281b <pdsp_signal_write_u16+0x4b>
    27fc:	41 b8 03 04 00 00    	mov    $0x403,%r8d
    2802:	48 8d 05 20 00 00 00 	lea    0x20(%rip),%rax        # 2829 <pdsp_signal_write_u16+0x59>
    2809:	48 89 c2             	mov    %rax,%rdx
    280c:	48 8d 05 27 00 00 00 	lea    0x27(%rip),%rax        # 283a <pdsp_signal_write_u16+0x6a>
    2813:	48 89 c1             	mov    %rax,%rcx
    2816:	e8 e5 d7 ff ff       	call   0 <printf>
    281b:	48 8b 45 18          	mov    0x18(%rbp),%rax
    281f:	48 8b 10             	mov    (%rax),%rdx
    2822:	48 8b 45 10          	mov    0x10(%rbp),%rax
    2826:	0f b7 40 0a          	movzwl 0xa(%rax),%eax
    282a:	0f b7 c0             	movzwl %ax,%eax
    282d:	48 98                	cltq
    282f:	48 8d 0c 00          	lea    (%rax,%rax,1),%rcx
    2833:	48 8d 05 00 00 00 00 	lea    0x0(%rip),%rax        # 283a <pdsp_signal_write_u16+0x6a>
    283a:	0f b7 04 01          	movzwl (%rcx,%rax,1),%eax
    283e:	66 23 45 20          	and    0x20(%rbp),%ax
    2842:	44 0f b7 c0          	movzwl %ax,%r8d
    2846:	48 8b 45 10          	mov    0x10(%rbp),%rax
    284a:	0f b7 40 08          	movzwl 0x8(%rax),%eax
    284e:	0f b7 c0             	movzwl %ax,%eax
    2851:	89 c1                	mov    %eax,%ecx
    2853:	49 d3 e0             	shl    %cl,%r8
    2856:	4c 89 c0             	mov    %r8,%rax
    2859:	48 09 c2             	or     %rax,%rdx
    285c:	48 8b 45 18          	mov    0x18(%rbp),%rax
    2860:	48 89 10             	mov    %rdx,(%rax)
    2863:	90                   	nop
    2864:	48 83 c4 20          	add    $0x20,%rsp
    2868:	5d                   	pop    %rbp
    2869:	c3                   	ret

000000000000286a <pdsp_signal_read_u16>:
    286a:	55                   	push   %rbp
    286b:	48 89 e5             	mov    %rsp,%rbp
    286e:	48 83 ec 20          	sub    $0x20,%rsp
    2872:	48 89 4d 10          	mov    %rcx,0x10(%rbp)
    2876:	48 89 55 18          	mov    %rdx,0x18(%rbp)
    287a:	48 83 7d 10 00       	cmpq   $0x0,0x10(%rbp)
    287f:	74 0e                	je     288f <pdsp_signal_read_u16+0x25>
    2881:	48 8b 45 10          	mov    0x10(%rbp),%rax
    2885:	0f b7 40 08          	movzwl 0x8(%rax),%eax
    2889:	66 83 f8 3f          	cmp    $0x3f,%ax
    288d:	76 1f                	jbe    28ae <pdsp_signal_read_u16+0x44>
    288f:	41 b8 0b 04 00 00    	mov    $0x40b,%r8d
    2895:	48 8d 05 20 00 00 00 	lea    0x20(%rip),%rax        # 28bc <pdsp_signal_read_u16+0x52>
    289c:	48 89 c2             	mov    %rax,%rdx
    289f:	48 8d 05 27 00 00 00 	lea    0x27(%rip),%rax        # 28cd <pdsp_signal_read_u16+0x63>
    28a6:	48 89 c1             	mov    %rax,%rcx
    28a9:	e8 52 d7 ff ff       	call   0 <printf>
    28ae:	48 8b 45 18          	mov    0x18(%rbp),%rax
    28b2:	48 8b 10             	mov    (%rax),%rdx
    28b5:	48 8b 45 10          	mov    0x10(%rbp),%rax
    28b9:	0f b7 40 08          	movzwl 0x8(%rax),%eax
    28bd:	0f b7 c0             	movzwl %ax,%eax
    28c0:	89 c1                	mov    %eax,%ecx
    28c2:	48 d3 ea             	shr    %cl,%rdx
    28c5:	48 89 d0             	mov    %rdx,%rax
    28c8:	89 c1                	mov    %eax,%ecx
    28ca:	48 8b 45 10          	mov    0x10(%rbp),%rax
    28ce:	0f b7 40 0a          	movzwl 0xa(%rax),%eax
    28d2:	0f b7 c0             	movzwl %ax,%eax
    28d5:	48 98                	cltq
    28d7:	48 8d 14 00          	lea    (%rax,%rax,1),%rdx
    28db:	48 8d 05 00 00 00 00 	lea    0x0(%rip),%rax        # 28e2 <pdsp_signal_read_u16+0x78>
    28e2:	0f b7 04 02          	movzwl (%rdx,%rax,1),%eax
    28e6:	21 c8                	and    %ecx,%eax
    28e8:	48 83 c4 20          	add    $0x20,%rsp
    28ec:	5d                   	pop    %rbp
    28ed:	c3                   	ret

00000000000028ee <pdsp_mean2w_f32>:
    28ee:	55                   	push   %rbp
    28ef:	48 89 e5             	mov    %rsp,%rbp
    28f2:	f3 0f 11 45 10       	movss  %xmm0,0x10(%rbp)
    28f7:	f3 0f 11 4d 18       	movss  %xmm1,0x18(%rbp)
    28fc:	f3 0f 11 55 20       	movss  %xmm2,0x20(%rbp)
    2901:	f3 0f 10 45 10       	movss  0x10(%rbp),%xmm0
    2906:	0f 28 c8             	movaps %xmm0,%xmm1
    2909:	f3 0f 59 4d 20       	mulss  0x20(%rbp),%xmm1
    290e:	f3 0f 10 05 44 00 00 	movss  0x44(%rip),%xmm0        # 295a <pdsp_mean4_u16+0x34>
    2915:	00 
    2916:	f3 0f 5c 45 20       	subss  0x20(%rbp),%xmm0
    291b:	f3 0f 59 45 18       	mulss  0x18(%rbp),%xmm0
    2920:	f3 0f 58 c1          	addss  %xmm1,%xmm0
    2924:	5d                   	pop    %rbp
    2925:	c3                   	ret

0000000000002926 <pdsp_mean4_u16>:
    2926:	55                   	push   %rbp
    2927:	48 89 e5             	mov    %rsp,%rbp
    292a:	48 83 ec 20          	sub    $0x20,%rsp
    292e:	48 89 4d 10          	mov    %rcx,0x10(%rbp)
    2932:	48 83 7d 10 00       	cmpq   $0x0,0x10(%rbp)
    2937:	75 1f                	jne    2958 <pdsp_mean4_u16+0x32>
    2939:	41 b8 18 04 00 00    	mov    $0x418,%r8d
    293f:	48 8d 05 20 00 00 00 	lea    0x20(%rip),%rax        # 2966 <pdsp_mean4_u16+0x40>
    2946:	48 89 c2             	mov    %rax,%rdx
    2949:	48 8d 05 27 00 00 00 	lea    0x27(%rip),%rax        # 2977 <pdsp_mean4_u16+0x51>
    2950:	48 89 c1             	mov    %rax,%rcx
    2953:	e8 a8 d6 ff ff       	call   0 <printf>
    2958:	48 8b 45 10          	mov    0x10(%rbp),%rax
    295c:	0f b7 00             	movzwl (%rax),%eax
    295f:	0f b7 d0             	movzwl %ax,%edx
    2962:	48 8b 45 10          	mov    0x10(%rbp),%rax
    2966:	48 83 c0 02          	add    $0x2,%rax
    296a:	0f b7 00             	movzwl (%rax),%eax
    296d:	0f b7 c0             	movzwl %ax,%eax
    2970:	01 c2                	add    %eax,%edx
    2972:	48 8b 45 10          	mov    0x10(%rbp),%rax
    2976:	48 83 c0 04          	add    $0x4,%rax
    297a:	0f b7 00             	movzwl (%rax),%eax
    297d:	0f b7 c0             	movzwl %ax,%eax
    2980:	01 c2                	add    %eax,%edx
    2982:	48 8b 45 10          	mov    0x10(%rbp),%rax
    2986:	48 83 c0 06          	add    $0x6,%rax
    298a:	0f b7 00             	movzwl (%rax),%eax
    298d:	0f b7 c0             	movzwl %ax,%eax
    2990:	01 d0                	add    %edx,%eax
    2992:	89 c0                	mov    %eax,%eax
    2994:	48 85 c0             	test   %rax,%rax
    2997:	78 0b                	js     29a4 <pdsp_mean4_u16+0x7e>
    2999:	66 0f ef c0          	pxor   %xmm0,%xmm0
    299d:	f3 48 0f 2a c0       	cvtsi2ss %rax,%xmm0
    29a2:	eb 19                	jmp    29bd <pdsp_mean4_u16+0x97>
    29a4:	48 89 c2             	mov    %rax,%rdx
    29a7:	48 d1 ea             	shr    %rdx
    29aa:	83 e0 01             	and    $0x1,%eax
    29ad:	48 09 c2             	or     %rax,%rdx
    29b0:	66 0f ef c0          	pxor   %xmm0,%xmm0
    29b4:	f3 48 0f 2a c2       	cvtsi2ss %rdx,%xmm0
    29b9:	f3 0f 58 c0          	addss  %xmm0,%xmm0
    29bd:	f3 0f 10 0d 4c 00 00 	movss  0x4c(%rip),%xmm1        # 2a11 <pdsp_mean8_u16+0x42>
    29c4:	00 
    29c5:	f3 0f 59 c1          	mulss  %xmm1,%xmm0
    29c9:	48 83 c4 20          	add    $0x20,%rsp
    29cd:	5d                   	pop    %rbp
    29ce:	c3                   	ret

00000000000029cf <pdsp_mean8_u16>:
    29cf:	55                   	push   %rbp
    29d0:	48 89 e5             	mov    %rsp,%rbp
    29d3:	48 83 ec 20          	sub    $0x20,%rsp
    29d7:	48 89 4d 10          	mov    %rcx,0x10(%rbp)
    29db:	48 83 7d 10 00       	cmpq   $0x0,0x10(%rbp)
    29e0:	75 1f                	jne    2a01 <pdsp_mean8_u16+0x32>
    29e2:	41 b8 20 04 00 00    	mov    $0x420,%r8d
    29e8:	48 8d 05 20 00 00 00 	lea    0x20(%rip),%rax        # 2a0f <pdsp_mean8_u16+0x40>
    29ef:	48 89 c2             	mov    %rax,%rdx
    29f2:	48 8d 05 27 00 00 00 	lea    0x27(%rip),%rax        # 2a20 <pdsp_mean8_u16+0x51>
    29f9:	48 89 c1             	mov    %rax,%rcx
    29fc:	e8 ff d5 ff ff       	call   0 <printf>
    2a01:	48 8b 45 10          	mov    0x10(%rbp),%rax
    2a05:	0f b7 00             	movzwl (%rax),%eax
    2a08:	0f b7 d0             	movzwl %ax,%edx
    2a0b:	48 8b 45 10          	mov    0x10(%rbp),%rax
    2a0f:	48 83 c0 02          	add    $0x2,%rax
    2a13:	0f b7 00             	movzwl (%rax),%eax
    2a16:	0f b7 c0             	movzwl %ax,%eax
    2a19:	01 c2                	add    %eax,%edx
    2a1b:	48 8b 45 10          	mov    0x10(%rbp),%rax
    2a1f:	48 83 c0 04          	add    $0x4,%rax
    2a23:	0f b7 00             	movzwl (%rax),%eax
    2a26:	0f b7 c0             	movzwl %ax,%eax
    2a29:	01 c2                	add    %eax,%edx
    2a2b:	48 8b 45 10          	mov    0x10(%rbp),%rax
    2a2f:	48 83 c0 06          	add    $0x6,%rax
    2a33:	0f b7 00             	movzwl (%rax),%eax
    2a36:	0f b7 c0             	movzwl %ax,%eax
    2a39:	01 c2                	add    %eax,%edx
    2a3b:	48 8b 45 10          	mov    0x10(%rbp),%rax
    2a3f:	48 83 c0 08          	add    $0x8,%rax
    2a43:	0f b7 00             	movzwl (%rax),%eax
    2a46:	0f b7 c0             	movzwl %ax,%eax
    2a49:	01 c2                	add    %eax,%edx
    2a4b:	48 8b 45 10          	mov    0x10(%rbp),%rax
    2a4f:	48 83 c0 0a          	add    $0xa,%rax
    2a53:	0f b7 00             	movzwl (%rax),%eax
    2a56:	0f b7 c0             	movzwl %ax,%eax
    2a59:	01 c2                	add    %eax,%edx
    2a5b:	48 8b 45 10          	mov    0x10(%rbp),%rax
    2a5f:	48 83 c0 0c          	add    $0xc,%rax
    2a63:	0f b7 00             	movzwl (%rax),%eax
    2a66:	0f b7 c0             	movzwl %ax,%eax
    2a69:	01 c2                	add    %eax,%edx
    2a6b:	48 8b 45 10          	mov    0x10(%rbp),%rax
    2a6f:	48 83 c0 0e          	add    $0xe,%rax
    2a73:	0f b7 00             	movzwl (%rax),%eax
    2a76:	0f b7 c0             	movzwl %ax,%eax
    2a79:	01 d0                	add    %edx,%eax
    2a7b:	89 c0                	mov    %eax,%eax
    2a7d:	48 85 c0             	test   %rax,%rax
    2a80:	78 0b                	js     2a8d <pdsp_mean8_u16+0xbe>
    2a82:	66 0f ef c0          	pxor   %xmm0,%xmm0
    2a86:	f3 48 0f 2a c0       	cvtsi2ss %rax,%xmm0
    2a8b:	eb 19                	jmp    2aa6 <pdsp_mean8_u16+0xd7>
    2a8d:	48 89 c2             	mov    %rax,%rdx
    2a90:	48 d1 ea             	shr    %rdx
    2a93:	83 e0 01             	and    $0x1,%eax
    2a96:	48 09 c2             	or     %rax,%rdx
    2a99:	66 0f ef c0          	pxor   %xmm0,%xmm0
    2a9d:	f3 48 0f 2a c2       	cvtsi2ss %rdx,%xmm0
    2aa2:	f3 0f 58 c0          	addss  %xmm0,%xmm0
    2aa6:	f3 0f 10 0d 50 00 00 	movss  0x50(%rip),%xmm1        # 2afe <pdsp_queue_init+0x46>
    2aad:	00 
    2aae:	f3 0f 59 c1          	mulss  %xmm1,%xmm0
    2ab2:	48 83 c4 20          	add    $0x20,%rsp
    2ab6:	5d                   	pop    %rbp
    2ab7:	c3                   	ret

0000000000002ab8 <pdsp_queue_init>:
    2ab8:	55                   	push   %rbp
    2ab9:	48 89 e5             	mov    %rsp,%rbp
    2abc:	48 83 ec 20          	sub    $0x20,%rsp
    2ac0:	48 89 4d 10          	mov    %rcx,0x10(%rbp)
    2ac4:	48 83 7d 10 00       	cmpq   $0x0,0x10(%rbp)
    2ac9:	75 1f                	jne    2aea <pdsp_queue_init+0x32>
    2acb:	41 b8 2a 04 00 00    	mov    $0x42a,%r8d
    2ad1:	48 8d 05 20 00 00 00 	lea    0x20(%rip),%rax        # 2af8 <pdsp_queue_init+0x40>
    2ad8:	48 89 c2             	mov    %rax,%rdx
    2adb:	48 8d 05 27 00 00 00 	lea    0x27(%rip),%rax        # 2b09 <pdsp_queue_init+0x51>
    2ae2:	48 89 c1             	mov    %rax,%rcx
    2ae5:	e8 16 d5 ff ff       	call   0 <printf>
    2aea:	48 8b 45 10          	mov    0x10(%rbp),%rax
    2aee:	48 8b 00             	mov    (%rax),%rax
    2af1:	66 c7 40 04 00 00    	movw   $0x0,0x4(%rax)
    2af7:	48 8b 45 10          	mov    0x10(%rbp),%rax
    2afb:	0f b7 40 10          	movzwl 0x10(%rax),%eax
    2aff:	8d 50 ff             	lea    -0x1(%rax),%edx
    2b02:	48 8b 45 10          	mov    0x10(%rbp),%rax
    2b06:	48 8b 00             	mov    (%rax),%rax
    2b09:	66 89 10             	mov    %dx,(%rax)
    2b0c:	48 8b 45 10          	mov    0x10(%rbp),%rax
    2b10:	48 8b 00             	mov    (%rax),%rax
    2b13:	66 c7 40 02 00 00    	movw   $0x0,0x2(%rax)
    2b19:	90                   	nop
    2b1a:	48 83 c4 20          	add    $0x20,%rsp
    2b1e:	5d                   	pop    %rbp
    2b1f:	c3                   	ret

0000000000002b20 <pdsp_queue_is_not_empty>:
    2b20:	55                   	push   %rbp
    2b21:	48 89 e5             	mov    %rsp,%rbp
    2b24:	48 83 ec 20          	sub    $0x20,%rsp
    2b28:	48 89 4d 10          	mov    %rcx,0x10(%rbp)
    2b2c:	48 83 7d 10 00       	cmpq   $0x0,0x10(%rbp)
    2b31:	74 0c                	je     2b3f <pdsp_queue_is_not_empty+0x1f>
    2b33:	48 8b 45 10          	mov    0x10(%rbp),%rax
    2b37:	48 8b 00             	mov    (%rax),%rax
    2b3a:	48 85 c0             	test   %rax,%rax
    2b3d:	75 1f                	jne    2b5e <pdsp_queue_is_not_empty+0x3e>
    2b3f:	41 b8 32 04 00 00    	mov    $0x432,%r8d
    2b45:	48 8d 05 20 00 00 00 	lea    0x20(%rip),%rax        # 2b6c <pdsp_queue_is_not_empty+0x4c>
    2b4c:	48 89 c2             	mov    %rax,%rdx
    2b4f:	48 8d 05 27 00 00 00 	lea    0x27(%rip),%rax        # 2b7d <pdsp_queue_is_not_full+0x8>
    2b56:	48 89 c1             	mov    %rax,%rcx
    2b59:	e8 a2 d4 ff ff       	call   0 <printf>
    2b5e:	48 8b 45 10          	mov    0x10(%rbp),%rax
    2b62:	48 8b 00             	mov    (%rax),%rax
    2b65:	0f b7 40 04          	movzwl 0x4(%rax),%eax
    2b69:	66 85 c0             	test   %ax,%ax
    2b6c:	0f 9f c0             	setg   %al
    2b6f:	48 83 c4 20          	add    $0x20,%rsp
    2b73:	5d                   	pop    %rbp
    2b74:	c3                   	ret

0000000000002b75 <pdsp_queue_is_not_full>:
    2b75:	55                   	push   %rbp
    2b76:	48 89 e5             	mov    %rsp,%rbp
    2b79:	48 83 ec 20          	sub    $0x20,%rsp
    2b7d:	48 89 4d 10          	mov    %rcx,0x10(%rbp)
    2b81:	48 83 7d 10 00       	cmpq   $0x0,0x10(%rbp)
    2b86:	74 0c                	je     2b94 <pdsp_queue_is_not_full+0x1f>
    2b88:	48 8b 45 10          	mov    0x10(%rbp),%rax
    2b8c:	48 8b 00             	mov    (%rax),%rax
    2b8f:	48 85 c0             	test   %rax,%rax
    2b92:	75 1f                	jne    2bb3 <pdsp_queue_is_not_full+0x3e>
    2b94:	41 b8 38 04 00 00    	mov    $0x438,%r8d
    2b9a:	48 8d 05 20 00 00 00 	lea    0x20(%rip),%rax        # 2bc1 <pdsp_queue_is_not_full+0x4c>
    2ba1:	48 89 c2             	mov    %rax,%rdx
    2ba4:	48 8d 05 27 00 00 00 	lea    0x27(%rip),%rax        # 2bd2 <pdsp_queue_advance_head>
    2bab:	48 89 c1             	mov    %rax,%rcx
    2bae:	e8 4d d4 ff ff       	call   0 <printf>
    2bb3:	48 8b 45 10          	mov    0x10(%rbp),%rax
    2bb7:	48 8b 00             	mov    (%rax),%rax
    2bba:	0f b7 50 04          	movzwl 0x4(%rax),%edx
    2bbe:	48 8b 45 10          	mov    0x10(%rbp),%rax
    2bc2:	0f b7 40 10          	movzwl 0x10(%rax),%eax
    2bc6:	66 39 c2             	cmp    %ax,%dx
    2bc9:	0f 9c c0             	setl   %al
    2bcc:	48 83 c4 20          	add    $0x20,%rsp
    2bd0:	5d                   	pop    %rbp
    2bd1:	c3                   	ret

0000000000002bd2 <pdsp_queue_advance_head>:
    2bd2:	55                   	push   %rbp
    2bd3:	48 89 e5             	mov    %rsp,%rbp
    2bd6:	48 83 ec 20          	sub    $0x20,%rsp
    2bda:	48 89 4d 10          	mov    %rcx,0x10(%rbp)
    2bde:	48 83 7d 10 00       	cmpq   $0x0,0x10(%rbp)
    2be3:	74 0c                	je     2bf1 <pdsp_queue_advance_head+0x1f>
    2be5:	48 8b 45 10          	mov    0x10(%rbp),%rax
    2be9:	48 8b 00             	mov    (%rax),%rax
    2bec:	48 85 c0             	test   %rax,%rax
    2bef:	75 1f                	jne    2c10 <pdsp_queue_advance_head+0x3e>
    2bf1:	41 b8 3e 04 00 00    	mov    $0x43e,%r8d
    2bf7:	48 8d 05 20 00 00 00 	lea    0x20(%rip),%rax        # 2c1e <pdsp_queue_advance_head+0x4c>
    2bfe:	48 89 c2             	mov    %rax,%rdx
    2c01:	48 8d 05 27 00 00 00 	lea    0x27(%rip),%rax        # 2c2f <pdsp_queue_advance_head+0x5d>
    2c08:	48 89 c1             	mov    %rax,%rcx
    2c0b:	e8 f0 d3 ff ff       	call   0 <printf>
    2c10:	48 8b 45 10          	mov    0x10(%rbp),%rax
    2c14:	48 8b 00             	mov    (%rax),%rax
    2c17:	0f b7 10             	movzwl (%rax),%edx
    2c1a:	83 c2 01             	add    $0x1,%edx
    2c1d:	66 89 10             	mov    %dx,(%rax)
    2c20:	48 8b 45 10          	mov    0x10(%rbp),%rax
    2c24:	48 8b 00             	mov    (%rax),%rax
    2c27:	0f b7 10             	movzwl (%rax),%edx
    2c2a:	48 8b 45 10          	mov    0x10(%rbp),%rax
    2c2e:	0f b7 40 10          	movzwl 0x10(%rax),%eax
    2c32:	66 39 c2             	cmp    %ax,%dx
    2c35:	7c 0c                	jl     2c43 <pdsp_queue_advance_head+0x71>
    2c37:	48 8b 45 10          	mov    0x10(%rbp),%rax
    2c3b:	48 8b 00             	mov    (%rax),%rax
    2c3e:	66 c7 00 00 00       	movw   $0x0,(%rax)
    2c43:	48 8b 45 10          	mov    0x10(%rbp),%rax
    2c47:	48 8b 00             	mov    (%rax),%rax
    2c4a:	0f b7 50 04          	movzwl 0x4(%rax),%edx
    2c4e:	83 c2 01             	add    $0x1,%edx
    2c51:	66 89 50 04          	mov    %dx,0x4(%rax)
    2c55:	90                   	nop
    2c56:	48 83 c4 20          	add    $0x20,%rsp
    2c5a:	5d                   	pop    %rbp
    2c5b:	c3                   	ret

0000000000002c5c <pdsp_queue_advance_tail>:
    2c5c:	55                   	push   %rbp
    2c5d:	48 89 e5             	mov    %rsp,%rbp
    2c60:	48 83 ec 20          	sub    $0x20,%rsp
    2c64:	48 89 4d 10          	mov    %rcx,0x10(%rbp)
    2c68:	48 83 7d 10 00       	cmpq   $0x0,0x10(%rbp)
    2c6d:	74 0c                	je     2c7b <pdsp_queue_advance_tail+0x1f>
    2c6f:	48 8b 45 10          	mov    0x10(%rbp),%rax
    2c73:	48 8b 00             	mov    (%rax),%rax
    2c76:	48 85 c0             	test   %rax,%rax
    2c79:	75 1f                	jne    2c9a <pdsp_queue_advance_tail+0x3e>
    2c7b:	41 b8 49 04 00 00    	mov    $0x449,%r8d
    2c81:	48 8d 05 20 00 00 00 	lea    0x20(%rip),%rax        # 2ca8 <pdsp_queue_advance_tail+0x4c>
    2c88:	48 89 c2             	mov    %rax,%rdx
    2c8b:	48 8d 05 27 00 00 00 	lea    0x27(%rip),%rax        # 2cb9 <pdsp_queue_advance_tail+0x5d>
    2c92:	48 89 c1             	mov    %rax,%rcx
    2c95:	e8 66 d3 ff ff       	call   0 <printf>
    2c9a:	48 8b 45 10          	mov    0x10(%rbp),%rax
    2c9e:	48 8b 00             	mov    (%rax),%rax
    2ca1:	0f b7 50 02          	movzwl 0x2(%rax),%edx
    2ca5:	83 c2 01             	add    $0x1,%edx
    2ca8:	66 89 50 02          	mov    %dx,0x2(%rax)
    2cac:	48 8b 45 10          	mov    0x10(%rbp),%rax
    2cb0:	48 8b 00             	mov    (%rax),%rax
    2cb3:	0f b7 50 02          	movzwl 0x2(%rax),%edx
    2cb7:	48 8b 45 10          	mov    0x10(%rbp),%rax
    2cbb:	0f b7 40 10          	movzwl 0x10(%rax),%eax
    2cbf:	66 39 c2             	cmp    %ax,%dx
    2cc2:	7c 0d                	jl     2cd1 <pdsp_queue_advance_tail+0x75>
    2cc4:	48 8b 45 10          	mov    0x10(%rbp),%rax
    2cc8:	48 8b 00             	mov    (%rax),%rax
    2ccb:	66 c7 40 02 00 00    	movw   $0x0,0x2(%rax)
    2cd1:	48 8b 45 10          	mov    0x10(%rbp),%rax
    2cd5:	48 8b 00             	mov    (%rax),%rax
    2cd8:	0f b7 50 04          	movzwl 0x4(%rax),%edx
    2cdc:	83 ea 01             	sub    $0x1,%edx
    2cdf:	66 89 50 04          	mov    %dx,0x4(%rax)
    2ce3:	90                   	nop
    2ce4:	48 83 c4 20          	add    $0x20,%rsp
    2ce8:	5d                   	pop    %rbp
    2ce9:	c3                   	ret

0000000000002cea <pdsp_queue_push_ch>:
    2cea:	55                   	push   %rbp
    2ceb:	48 89 e5             	mov    %rsp,%rbp
    2cee:	48 83 ec 20          	sub    $0x20,%rsp
    2cf2:	48 89 4d 10          	mov    %rcx,0x10(%rbp)
    2cf6:	89 d0                	mov    %edx,%eax
    2cf8:	88 45 18             	mov    %al,0x18(%rbp)
    2cfb:	48 83 7d 10 00       	cmpq   $0x0,0x10(%rbp)
    2d00:	75 1f                	jne    2d21 <pdsp_queue_push_ch+0x37>
    2d02:	41 b8 55 04 00 00    	mov    $0x455,%r8d
    2d08:	48 8d 05 20 00 00 00 	lea    0x20(%rip),%rax        # 2d2f <pdsp_queue_push_ch+0x45>
    2d0f:	48 89 c2             	mov    %rax,%rdx
    2d12:	48 8d 05 27 00 00 00 	lea    0x27(%rip),%rax        # 2d40 <pdsp_queue_push_ch+0x56>
    2d19:	48 89 c1             	mov    %rax,%rcx
    2d1c:	e8 df d2 ff ff       	call   0 <printf>
    2d21:	48 8b 45 10          	mov    0x10(%rbp),%rax
    2d25:	48 89 c1             	mov    %rax,%rcx
    2d28:	e8 a5 fe ff ff       	call   2bd2 <pdsp_queue_advance_head>
    2d2d:	48 8b 45 10          	mov    0x10(%rbp),%rax
    2d31:	48 8b 50 08          	mov    0x8(%rax),%rdx
    2d35:	48 8b 45 10          	mov    0x10(%rbp),%rax
    2d39:	48 8b 00             	mov    (%rax),%rax
    2d3c:	0f b7 00             	movzwl (%rax),%eax
    2d3f:	48 0f bf c0          	movswq %ax,%rax
    2d43:	48 01 c2             	add    %rax,%rdx
    2d46:	0f b6 45 18          	movzbl 0x18(%rbp),%eax
    2d4a:	88 02                	mov    %al,(%rdx)
    2d4c:	90                   	nop
    2d4d:	48 83 c4 20          	add    $0x20,%rsp
    2d51:	5d                   	pop    %rbp
    2d52:	c3                   	ret

0000000000002d53 <pdsp_queue_push_i16>:
    2d53:	55                   	push   %rbp
    2d54:	48 89 e5             	mov    %rsp,%rbp
    2d57:	48 83 ec 20          	sub    $0x20,%rsp
    2d5b:	48 89 4d 10          	mov    %rcx,0x10(%rbp)
    2d5f:	89 d0                	mov    %edx,%eax
    2d61:	66 89 45 18          	mov    %ax,0x18(%rbp)
    2d65:	48 83 7d 10 00       	cmpq   $0x0,0x10(%rbp)
    2d6a:	75 1f                	jne    2d8b <pdsp_queue_push_i16+0x38>
    2d6c:	41 b8 5d 04 00 00    	mov    $0x45d,%r8d
    2d72:	48 8d 05 20 00 00 00 	lea    0x20(%rip),%rax        # 2d99 <pdsp_queue_push_i16+0x46>
    2d79:	48 89 c2             	mov    %rax,%rdx
    2d7c:	48 8d 05 27 00 00 00 	lea    0x27(%rip),%rax        # 2daa <pdsp_queue_push_i16+0x57>
    2d83:	48 89 c1             	mov    %rax,%rcx
    2d86:	e8 75 d2 ff ff       	call   0 <printf>
    2d8b:	48 8b 45 10          	mov    0x10(%rbp),%rax
    2d8f:	48 89 c1             	mov    %rax,%rcx
    2d92:	e8 3b fe ff ff       	call   2bd2 <pdsp_queue_advance_head>
    2d97:	48 8b 45 10          	mov    0x10(%rbp),%rax
    2d9b:	48 8b 50 08          	mov    0x8(%rax),%rdx
    2d9f:	48 8b 45 10          	mov    0x10(%rbp),%rax
    2da3:	48 8b 00             	mov    (%rax),%rax
    2da6:	0f b7 00             	movzwl (%rax),%eax
    2da9:	48 0f bf c0          	movswq %ax,%rax
    2dad:	48 01 c0             	add    %rax,%rax
    2db0:	48 01 c2             	add    %rax,%rdx
    2db3:	0f b7 45 18          	movzwl 0x18(%rbp),%eax
    2db7:	66 89 02             	mov    %ax,(%rdx)
    2dba:	90                   	nop
    2dbb:	48 83 c4 20          	add    $0x20,%rsp
    2dbf:	5d                   	pop    %rbp
    2dc0:	c3                   	ret

0000000000002dc1 <pdsp_queue_push_i32>:
    2dc1:	55                   	push   %rbp
    2dc2:	48 89 e5             	mov    %rsp,%rbp
    2dc5:	48 83 ec 20          	sub    $0x20,%rsp
    2dc9:	48 89 4d 10          	mov    %rcx,0x10(%rbp)
    2dcd:	89 55 18             	mov    %edx,0x18(%rbp)
    2dd0:	48 83 7d 10 00       	cmpq   $0x0,0x10(%rbp)
    2dd5:	75 1f                	jne    2df6 <pdsp_queue_push_i32+0x35>
    2dd7:	41 b8 65 04 00 00    	mov    $0x465,%r8d
    2ddd:	48 8d 05 20 00 00 00 	lea    0x20(%rip),%rax        # 2e04 <pdsp_queue_push_i32+0x43>
    2de4:	48 89 c2             	mov    %rax,%rdx
    2de7:	48 8d 05 27 00 00 00 	lea    0x27(%rip),%rax        # 2e15 <pdsp_queue_push_i32+0x54>
    2dee:	48 89 c1             	mov    %rax,%rcx
    2df1:	e8 0a d2 ff ff       	call   0 <printf>
    2df6:	48 8b 45 10          	mov    0x10(%rbp),%rax
    2dfa:	48 89 c1             	mov    %rax,%rcx
    2dfd:	e8 d0 fd ff ff       	call   2bd2 <pdsp_queue_advance_head>
    2e02:	48 8b 45 10          	mov    0x10(%rbp),%rax
    2e06:	48 8b 50 08          	mov    0x8(%rax),%rdx
    2e0a:	48 8b 45 10          	mov    0x10(%rbp),%rax
    2e0e:	48 8b 00             	mov    (%rax),%rax
    2e11:	0f b7 00             	movzwl (%rax),%eax
    2e14:	48 0f bf c0          	movswq %ax,%rax
    2e18:	48 c1 e0 02          	shl    $0x2,%rax
    2e1c:	48 01 c2             	add    %rax,%rdx
    2e1f:	8b 45 18             	mov    0x18(%rbp),%eax
    2e22:	89 02                	mov    %eax,(%rdx)
    2e24:	90                   	nop
    2e25:	48 83 c4 20          	add    $0x20,%rsp
    2e29:	5d                   	pop    %rbp
    2e2a:	c3                   	ret

0000000000002e2b <pdsp_queue_push_f32>:
    2e2b:	55                   	push   %rbp
    2e2c:	48 89 e5             	mov    %rsp,%rbp
    2e2f:	48 83 ec 20          	sub    $0x20,%rsp
    2e33:	48 89 4d 10          	mov    %rcx,0x10(%rbp)
    2e37:	f3 0f 11 4d 18       	movss  %xmm1,0x18(%rbp)
    2e3c:	48 83 7d 10 00       	cmpq   $0x0,0x10(%rbp)
    2e41:	75 1f                	jne    2e62 <pdsp_queue_push_f32+0x37>
    2e43:	41 b8 6d 04 00 00    	mov    $0x46d,%r8d
    2e49:	48 8d 05 20 00 00 00 	lea    0x20(%rip),%rax        # 2e70 <pdsp_queue_push_f32+0x45>
    2e50:	48 89 c2             	mov    %rax,%rdx
    2e53:	48 8d 05 27 00 00 00 	lea    0x27(%rip),%rax        # 2e81 <pdsp_queue_push_f32+0x56>
    2e5a:	48 89 c1             	mov    %rax,%rcx
    2e5d:	e8 9e d1 ff ff       	call   0 <printf>
    2e62:	48 8b 45 10          	mov    0x10(%rbp),%rax
    2e66:	48 89 c1             	mov    %rax,%rcx
    2e69:	e8 64 fd ff ff       	call   2bd2 <pdsp_queue_advance_head>
    2e6e:	48 8b 45 10          	mov    0x10(%rbp),%rax
    2e72:	48 8b 50 08          	mov    0x8(%rax),%rdx
    2e76:	48 8b 45 10          	mov    0x10(%rbp),%rax
    2e7a:	48 8b 00             	mov    (%rax),%rax
    2e7d:	0f b7 00             	movzwl (%rax),%eax
    2e80:	48 0f bf c0          	movswq %ax,%rax
    2e84:	48 c1 e0 02          	shl    $0x2,%rax
    2e88:	48 01 d0             	add    %rdx,%rax
    2e8b:	f3 0f 10 45 18       	movss  0x18(%rbp),%xmm0
    2e90:	f3 0f 11 00          	movss  %xmm0,(%rax)
    2e94:	90                   	nop
    2e95:	48 83 c4 20          	add    $0x20,%rsp
    2e99:	5d                   	pop    %rbp
    2e9a:	c3                   	ret

0000000000002e9b <pdsp_queue_push_u64>:
    2e9b:	55                   	push   %rbp
    2e9c:	48 89 e5             	mov    %rsp,%rbp
    2e9f:	48 83 ec 20          	sub    $0x20,%rsp
    2ea3:	48 89 4d 10          	mov    %rcx,0x10(%rbp)
    2ea7:	48 89 55 18          	mov    %rdx,0x18(%rbp)
    2eab:	48 83 7d 10 00       	cmpq   $0x0,0x10(%rbp)
    2eb0:	75 1f                	jne    2ed1 <pdsp_queue_push_u64+0x36>
    2eb2:	41 b8 75 04 00 00    	mov    $0x475,%r8d
    2eb8:	48 8d 05 20 00 00 00 	lea    0x20(%rip),%rax        # 2edf <pdsp_queue_push_u64+0x44>
    2ebf:	48 89 c2             	mov    %rax,%rdx
    2ec2:	48 8d 05 27 00 00 00 	lea    0x27(%rip),%rax        # 2ef0 <pdsp_queue_push_u64+0x55>
    2ec9:	48 89 c1             	mov    %rax,%rcx
    2ecc:	e8 2f d1 ff ff       	call   0 <printf>
    2ed1:	48 8b 45 10          	mov    0x10(%rbp),%rax
    2ed5:	48 89 c1             	mov    %rax,%rcx
    2ed8:	e8 f5 fc ff ff       	call   2bd2 <pdsp_queue_advance_head>
    2edd:	48 8b 45 10          	mov    0x10(%rbp),%rax
    2ee1:	48 8b 50 08          	mov    0x8(%rax),%rdx
    2ee5:	48 8b 45 10          	mov    0x10(%rbp),%rax
    2ee9:	48 8b 00             	mov    (%rax),%rax
    2eec:	0f b7 00             	movzwl (%rax),%eax
    2eef:	48 0f bf c0          	movswq %ax,%rax
    2ef3:	48 c1 e0 03          	shl    $0x3,%rax
    2ef7:	48 01 c2             	add    %rax,%rdx
    2efa:	48 8b 45 18          	mov    0x18(%rbp),%rax
    2efe:	48 89 02             	mov    %rax,(%rdx)
    2f01:	90                   	nop
    2f02:	48 83 c4 20          	add    $0x20,%rsp
    2f06:	5d                   	pop    %rbp
    2f07:	c3                   	ret

0000000000002f08 <pdsp_queue_pop_ch>:
    2f08:	55                   	push   %rbp
    2f09:	48 89 e5             	mov    %rsp,%rbp
    2f0c:	48 83 ec 30          	sub    $0x30,%rsp
    2f10:	48 89 4d 10          	mov    %rcx,0x10(%rbp)
    2f14:	48 83 7d 10 00       	cmpq   $0x0,0x10(%rbp)
    2f19:	75 1f                	jne    2f3a <pdsp_queue_pop_ch+0x32>
    2f1b:	41 b8 7d 04 00 00    	mov    $0x47d,%r8d
    2f21:	48 8d 05 20 00 00 00 	lea    0x20(%rip),%rax        # 2f48 <pdsp_queue_pop_ch+0x40>
    2f28:	48 89 c2             	mov    %rax,%rdx
    2f2b:	48 8d 05 27 00 00 00 	lea    0x27(%rip),%rax        # 2f59 <pdsp_queue_pop_ch+0x51>
    2f32:	48 89 c1             	mov    %rax,%rcx
    2f35:	e8 c6 d0 ff ff       	call   0 <printf>
    2f3a:	48 8b 45 10          	mov    0x10(%rbp),%rax
    2f3e:	48 8b 50 08          	mov    0x8(%rax),%rdx
    2f42:	48 8b 45 10          	mov    0x10(%rbp),%rax
    2f46:	48 8b 00             	mov    (%rax),%rax
    2f49:	0f b7 40 02          	movzwl 0x2(%rax),%eax
    2f4d:	48 0f bf c0          	movswq %ax,%rax
    2f51:	48 01 d0             	add    %rdx,%rax
    2f54:	0f b6 00             	movzbl (%rax),%eax
    2f57:	88 45 ff             	mov    %al,-0x1(%rbp)
    2f5a:	48 8b 45 10          	mov    0x10(%rbp),%rax
    2f5e:	48 89 c1             	mov    %rax,%rcx
    2f61:	e8 f6 fc ff ff       	call   2c5c <pdsp_queue_advance_tail>
    2f66:	0f b6 45 ff          	movzbl -0x1(%rbp),%eax
    2f6a:	48 83 c4 30          	add    $0x30,%rsp
    2f6e:	5d                   	pop    %rbp
    2f6f:	c3                   	ret

0000000000002f70 <pdsp_queue_pop_i16>:
    2f70:	55                   	push   %rbp
    2f71:	48 89 e5             	mov    %rsp,%rbp
    2f74:	48 83 ec 30          	sub    $0x30,%rsp
    2f78:	48 89 4d 10          	mov    %rcx,0x10(%rbp)
    2f7c:	48 83 7d 10 00       	cmpq   $0x0,0x10(%rbp)
    2f81:	75 1f                	jne    2fa2 <pdsp_queue_pop_i16+0x32>
    2f83:	41 b8 86 04 00 00    	mov    $0x486,%r8d
    2f89:	48 8d 05 20 00 00 00 	lea    0x20(%rip),%rax        # 2fb0 <pdsp_queue_pop_i16+0x40>
    2f90:	48 89 c2             	mov    %rax,%rdx
    2f93:	48 8d 05 27 00 00 00 	lea    0x27(%rip),%rax        # 2fc1 <pdsp_queue_pop_i16+0x51>
    2f9a:	48 89 c1             	mov    %rax,%rcx
    2f9d:	e8 5e d0 ff ff       	call   0 <printf>
    2fa2:	48 8b 45 10          	mov    0x10(%rbp),%rax
    2fa6:	48 8b 50 08          	mov    0x8(%rax),%rdx
    2faa:	48 8b 45 10          	mov    0x10(%rbp),%rax
    2fae:	48 8b 00             	mov    (%rax),%rax
    2fb1:	0f b7 40 02          	movzwl 0x2(%rax),%eax
    2fb5:	48 0f bf c0          	movswq %ax,%rax
    2fb9:	48 01 c0             	add    %rax,%rax
    2fbc:	48 01 d0             	add    %rdx,%rax
    2fbf:	0f b7 00             	movzwl (%rax),%eax
    2fc2:	66 89 45 fe          	mov    %ax,-0x2(%rbp)
    2fc6:	48 8b 45 10          	mov    0x10(%rbp),%rax
    2fca:	48 89 c1             	mov    %rax,%rcx
    2fcd:	e8 8a fc ff ff       	call   2c5c <pdsp_queue_advance_tail>
    2fd2:	0f b7 45 fe          	movzwl -0x2(%rbp),%eax
    2fd6:	48 83 c4 30          	add    $0x30,%rsp
    2fda:	5d                   	pop    %rbp
    2fdb:	c3                   	ret

0000000000002fdc <pdsp_queue_pop_i32>:
    2fdc:	55                   	push   %rbp
    2fdd:	48 89 e5             	mov    %rsp,%rbp
    2fe0:	48 83 ec 30          	sub    $0x30,%rsp
    2fe4:	48 89 4d 10          	mov    %rcx,0x10(%rbp)
    2fe8:	48 83 7d 10 00       	cmpq   $0x0,0x10(%rbp)
    2fed:	75 1f                	jne    300e <pdsp_queue_pop_i32+0x32>
    2fef:	41 b8 8f 04 00 00    	mov    $0x48f,%r8d
    2ff5:	48 8d 05 20 00 00 00 	lea    0x20(%rip),%rax        # 301c <pdsp_queue_pop_i32+0x40>
    2ffc:	48 89 c2             	mov    %rax,%rdx
    2fff:	48 8d 05 27 00 00 00 	lea    0x27(%rip),%rax        # 302d <pdsp_queue_pop_i32+0x51>
    3006:	48 89 c1             	mov    %rax,%rcx
    3009:	e8 f2 cf ff ff       	call   0 <printf>
    300e:	48 8b 45 10          	mov    0x10(%rbp),%rax
    3012:	48 8b 50 08          	mov    0x8(%rax),%rdx
    3016:	48 8b 45 10          	mov    0x10(%rbp),%rax
    301a:	48 8b 00             	mov    (%rax),%rax
    301d:	0f b7 40 02          	movzwl 0x2(%rax),%eax
    3021:	48 0f bf c0          	movswq %ax,%rax
    3025:	48 c1 e0 02          	shl    $0x2,%rax
    3029:	48 01 d0             	add    %rdx,%rax
    302c:	8b 00                	mov    (%rax),%eax
    302e:	89 45 fc             	mov    %eax,-0x4(%rbp)
    3031:	48 8b 45 10          	mov    0x10(%rbp),%rax
    3035:	48 89 c1             	mov    %rax,%rcx
    3038:	e8 1f fc ff ff       	call   2c5c <pdsp_queue_advance_tail>
    303d:	8b 45 fc             	mov    -0x4(%rbp),%eax
    3040:	48 83 c4 30          	add    $0x30,%rsp
    3044:	5d                   	pop    %rbp
    3045:	c3                   	ret

0000000000003046 <pdsp_queue_pop_f32>:
    3046:	55                   	push   %rbp
    3047:	48 89 e5             	mov    %rsp,%rbp
    304a:	48 83 ec 30          	sub    $0x30,%rsp
    304e:	48 89 4d 10          	mov    %rcx,0x10(%rbp)
    3052:	48 83 7d 10 00       	cmpq   $0x0,0x10(%rbp)
    3057:	75 1f                	jne    3078 <pdsp_queue_pop_f32+0x32>
    3059:	41 b8 98 04 00 00    	mov    $0x498,%r8d
    305f:	48 8d 05 20 00 00 00 	lea    0x20(%rip),%rax        # 3086 <pdsp_queue_pop_f32+0x40>
    3066:	48 89 c2             	mov    %rax,%rdx
    3069:	48 8d 05 27 00 00 00 	lea    0x27(%rip),%rax        # 3097 <pdsp_queue_pop_f32+0x51>
    3070:	48 89 c1             	mov    %rax,%rcx
    3073:	e8 88 cf ff ff       	call   0 <printf>
    3078:	48 8b 45 10          	mov    0x10(%rbp),%rax
    307c:	48 8b 50 08          	mov    0x8(%rax),%rdx
    3080:	48 8b 45 10          	mov    0x10(%rbp),%rax
    3084:	48 8b 00             	mov    (%rax),%rax
    3087:	0f b7 40 02          	movzwl 0x2(%rax),%eax
    308b:	48 0f bf c0          	movswq %ax,%rax
    308f:	48 c1 e0 02          	shl    $0x2,%rax
    3093:	48 01 d0             	add    %rdx,%rax
    3096:	f3 0f 10 00          	movss  (%rax),%xmm0
    309a:	f3 0f 11 45 fc       	movss  %xmm0,-0x4(%rbp)
    309f:	48 8b 45 10          	mov    0x10(%rbp),%rax
    30a3:	48 89 c1             	mov    %rax,%rcx
    30a6:	e8 b1 fb ff ff       	call   2c5c <pdsp_queue_advance_tail>
    30ab:	f3 0f 10 45 fc       	movss  -0x4(%rbp),%xmm0
    30b0:	48 83 c4 30          	add    $0x30,%rsp
    30b4:	5d                   	pop    %rbp
    30b5:	c3                   	ret

00000000000030b6 <pdsp_queue_pop_u64>:
    30b6:	55                   	push   %rbp
    30b7:	48 89 e5             	mov    %rsp,%rbp
    30ba:	48 83 ec 30          	sub    $0x30,%rsp
    30be:	48 89 4d 10          	mov    %rcx,0x10(%rbp)
    30c2:	48 83 7d 10 00       	cmpq   $0x0,0x10(%rbp)
    30c7:	75 1f                	jne    30e8 <pdsp_queue_pop_u64+0x32>
    30c9:	41 b8 a1 04 00 00    	mov    $0x4a1,%r8d
    30cf:	48 8d 05 20 00 00 00 	lea    0x20(%rip),%rax        # 30f6 <pdsp_queue_pop_u64+0x40>
    30d6:	48 89 c2             	mov    %rax,%rdx
    30d9:	48 8d 05 27 00 00 00 	lea    0x27(%rip),%rax        # 3107 <pdsp_queue_pop_u64+0x51>
    30e0:	48 89 c1             	mov    %rax,%rcx
    30e3:	e8 18 cf ff ff       	call   0 <printf>
    30e8:	48 8b 45 10          	mov    0x10(%rbp),%rax
    30ec:	48 8b 50 08          	mov    0x8(%rax),%rdx
    30f0:	48 8b 45 10          	mov    0x10(%rbp),%rax
    30f4:	48 8b 00             	mov    (%rax),%rax
    30f7:	0f b7 40 02          	movzwl 0x2(%rax),%eax
    30fb:	48 0f bf c0          	movswq %ax,%rax
    30ff:	48 c1 e0 03          	shl    $0x3,%rax
    3103:	48 01 d0             	add    %rdx,%rax
    3106:	48 8b 00             	mov    (%rax),%rax
    3109:	48 89 45 f8          	mov    %rax,-0x8(%rbp)
    310d:	48 8b 45 10          	mov    0x10(%rbp),%rax
    3111:	48 89 c1             	mov    %rax,%rcx
    3114:	e8 43 fb ff ff       	call   2c5c <pdsp_queue_advance_tail>
    3119:	48 8b 45 f8          	mov    -0x8(%rbp),%rax
    311d:	48 83 c4 30          	add    $0x30,%rsp
    3121:	5d                   	pop    %rbp
    3122:	c3                   	ret

0000000000003123 <pdsp_llc_init>:
    3123:	55                   	push   %rbp
    3124:	48 89 e5             	mov    %rsp,%rbp
    3127:	48 83 ec 20          	sub    $0x20,%rsp
    312b:	48 89 4d 10          	mov    %rcx,0x10(%rbp)
    312f:	89 55 18             	mov    %edx,0x18(%rbp)
    3132:	f3 0f 11 55 20       	movss  %xmm2,0x20(%rbp)
    3137:	f3 0f 11 5d 28       	movss  %xmm3,0x28(%rbp)
    313c:	48 8b 45 10          	mov    0x10(%rbp),%rax
    3140:	8b 55 18             	mov    0x18(%rbp),%edx
    3143:	89 10                	mov    %edx,(%rax)
    3145:	48 8b 45 10          	mov    0x10(%rbp),%rax
    3149:	48 83 c0 04          	add    $0x4,%rax
    314d:	f3 0f 10 45 20       	movss  0x20(%rbp),%xmm0
    3152:	0f 28 c8             	movaps %xmm0,%xmm1
    3155:	48 89 c1             	mov    %rax,%rcx
    3158:	e8 e7 05 00 00       	call   3744 <pdsp_expavg_init>
    315d:	48 8b 45 10          	mov    0x10(%rbp),%rax
    3161:	48 8d 48 10          	lea    0x10(%rax),%rcx
    3165:	48 8b 55 30          	mov    0x30(%rbp),%rdx
    3169:	48 8b 45 38          	mov    0x38(%rbp),%rax
    316d:	41 b9 0d 00 00 00    	mov    $0xd,%r9d
    3173:	49 89 d0             	mov    %rdx,%r8
    3176:	48 89 c2             	mov    %rax,%rdx
    3179:	e8 4e e6 ff ff       	call   17cc <pdsp_hysteresis_list_init>
    317e:	48 8b 45 10          	mov    0x10(%rbp),%rax
    3182:	48 83 c0 34          	add    $0x34,%rax
    3186:	f3 0f 10 45 28       	movss  0x28(%rbp),%xmm0
    318b:	0f 28 c8             	movaps %xmm0,%xmm1
    318e:	48 89 c1             	mov    %rax,%rcx
    3191:	e8 ae 05 00 00       	call   3744 <pdsp_expavg_init>
    3196:	48 8b 45 10          	mov    0x10(%rbp),%rax
    319a:	48 83 c0 40          	add    $0x40,%rax
    319e:	f3 0f 10 45 28       	movss  0x28(%rbp),%xmm0
    31a3:	0f 28 c8             	movaps %xmm0,%xmm1
    31a6:	48 89 c1             	mov    %rax,%rcx
    31a9:	e8 96 05 00 00       	call   3744 <pdsp_expavg_init>
    31ae:	48 8b 45 10          	mov    0x10(%rbp),%rax
    31b2:	48 83 c0 48          	add    $0x48,%rax
    31b6:	f3 0f 10 45 28       	movss  0x28(%rbp),%xmm0
    31bb:	0f 28 c8             	movaps %xmm0,%xmm1
    31be:	48 89 c1             	mov    %rax,%rcx
    31c1:	e8 7e 05 00 00       	call   3744 <pdsp_expavg_init>
    31c6:	48 8b 45 10          	mov    0x10(%rbp),%rax
    31ca:	66 0f ef c0          	pxor   %xmm0,%xmm0
    31ce:	f3 0f 11 40 50       	movss  %xmm0,0x50(%rax)
    31d3:	48 8b 45 10          	mov    0x10(%rbp),%rax
    31d7:	66 0f ef c0          	pxor   %xmm0,%xmm0
    31db:	f3 0f 11 40 30       	movss  %xmm0,0x30(%rax)
    31e0:	48 8b 45 10          	mov    0x10(%rbp),%rax
    31e4:	66 c7 40 54 00 00    	movw   $0x0,0x54(%rax)
    31ea:	48 8b 45 10          	mov    0x10(%rbp),%rax
    31ee:	48 8d 48 58          	lea    0x58(%rax),%rcx
    31f2:	48 8b 55 40          	mov    0x40(%rbp),%rdx
    31f6:	48 8b 45 48          	mov    0x48(%rbp),%rax
    31fa:	41 b9 05 00 00 00    	mov    $0x5,%r9d
    3200:	49 89 d0             	mov    %rdx,%r8
    3203:	48 89 c2             	mov    %rax,%rdx
    3206:	e8 c1 e5 ff ff       	call   17cc <pdsp_hysteresis_list_init>
    320b:	48 8b 45 10          	mov    0x10(%rbp),%rax
    320f:	c6 40 78 00          	movb   $0x0,0x78(%rax)
    3213:	48 8b 45 10          	mov    0x10(%rbp),%rax
    3217:	c7 40 7c 00 00 00 00 	movl   $0x0,0x7c(%rax)
    321e:	48 8b 45 10          	mov    0x10(%rbp),%rax
    3222:	c7 80 80 00 00 00 00 	movl   $0x0,0x80(%rax)
    3229:	00 00 00 
    322c:	48 8b 45 10          	mov    0x10(%rbp),%rax
    3230:	c6 80 84 00 00 00 00 	movb   $0x0,0x84(%rax)
    3237:	48 8b 45 10          	mov    0x10(%rbp),%rax
    323b:	c6 80 85 00 00 00 00 	movb   $0x0,0x85(%rax)
    3242:	90                   	nop
    3243:	48 83 c4 20          	add    $0x20,%rsp
    3247:	5d                   	pop    %rbp
    3248:	c3                   	ret

0000000000003249 <pdsp_llc_run>:
    3249:	55                   	push   %rbp
    324a:	48 89 e5             	mov    %rsp,%rbp
    324d:	48 89 4d 10          	mov    %rcx,0x10(%rbp)
    3251:	48 8b 45 10          	mov    0x10(%rbp),%rax
    3255:	66 0f ef c0          	pxor   %xmm0,%xmm0
    3259:	f3 0f 11 40 50       	movss  %xmm0,0x50(%rax)
    325e:	48 8b 45 10          	mov    0x10(%rbp),%rax
    3262:	66 0f ef c0          	pxor   %xmm0,%xmm0
    3266:	f3 0f 11 40 30       	movss  %xmm0,0x30(%rax)
    326b:	48 8b 45 10          	mov    0x10(%rbp),%rax
    326f:	c6 40 78 00          	movb   $0x0,0x78(%rax)
    3273:	48 8b 45 10          	mov    0x10(%rbp),%rax
    3277:	c7 40 7c 00 00 00 00 	movl   $0x0,0x7c(%rax)
    327e:	48 8b 45 10          	mov    0x10(%rbp),%rax
    3282:	c7 80 80 00 00 00 00 	movl   $0x0,0x80(%rax)
    3289:	00 00 00 
    328c:	90                   	nop
    328d:	5d                   	pop    %rbp
    328e:	c3                   	ret

000000000000328f <pdsp_llc_set_values>:
    328f:	55                   	push   %rbp
    3290:	48 89 e5             	mov    %rsp,%rbp
    3293:	48 83 ec 20          	sub    $0x20,%rsp
    3297:	48 89 4d 10          	mov    %rcx,0x10(%rbp)
    329b:	f3 0f 11 4d 18       	movss  %xmm1,0x18(%rbp)
    32a0:	f3 0f 11 55 20       	movss  %xmm2,0x20(%rbp)
    32a5:	f3 0f 11 5d 28       	movss  %xmm3,0x28(%rbp)
    32aa:	48 8b 45 10          	mov    0x10(%rbp),%rax
    32ae:	48 83 c0 04          	add    $0x4,%rax
    32b2:	f3 0f 10 45 18       	movss  0x18(%rbp),%xmm0
    32b7:	0f 28 c8             	movaps %xmm0,%xmm1
    32ba:	48 89 c1             	mov    %rax,%rcx
    32bd:	e8 1f 05 00 00       	call   37e1 <pdsp_expavg>
    32c2:	48 8b 45 10          	mov    0x10(%rbp),%rax
    32c6:	48 83 c0 34          	add    $0x34,%rax
    32ca:	f3 0f 10 45 20       	movss  0x20(%rbp),%xmm0
    32cf:	0f 28 c8             	movaps %xmm0,%xmm1
    32d2:	48 89 c1             	mov    %rax,%rcx
    32d5:	e8 07 05 00 00       	call   37e1 <pdsp_expavg>
    32da:	48 8b 45 10          	mov    0x10(%rbp),%rax
    32de:	48 83 c0 40          	add    $0x40,%rax
    32e2:	f3 0f 10 45 28       	movss  0x28(%rbp),%xmm0
    32e7:	0f 28 c8             	movaps %xmm0,%xmm1
    32ea:	48 89 c1             	mov    %rax,%rcx
    32ed:	e8 ef 04 00 00       	call   37e1 <pdsp_expavg>
    32f2:	48 8b 45 10          	mov    0x10(%rbp),%rax
    32f6:	48 83 c0 48          	add    $0x48,%rax
    32fa:	f3 0f 10 45 30       	movss  0x30(%rbp),%xmm0
    32ff:	0f 28 c8             	movaps %xmm0,%xmm1
    3302:	48 89 c1             	mov    %rax,%rcx
    3305:	e8 d7 04 00 00       	call   37e1 <pdsp_expavg>
    330a:	90                   	nop
    330b:	48 83 c4 20          	add    $0x20,%rsp
    330f:	5d                   	pop    %rbp
    3310:	c3                   	ret

0000000000003311 <pdsp_llc_set_ev_ready>:
    3311:	55                   	push   %rbp
    3312:	48 89 e5             	mov    %rsp,%rbp
    3315:	48 89 4d 10          	mov    %rcx,0x10(%rbp)
    3319:	89 55 18             	mov    %edx,0x18(%rbp)
    331c:	48 8b 45 10          	mov    0x10(%rbp),%rax
    3320:	8b 55 18             	mov    0x18(%rbp),%edx
    3323:	89 50 7c             	mov    %edx,0x7c(%rax)
    3326:	90                   	nop
    3327:	5d                   	pop    %rbp
    3328:	c3                   	ret

0000000000003329 <pdsp_llc_get_se_ready>:
    3329:	55                   	push   %rbp
    332a:	48 89 e5             	mov    %rsp,%rbp
    332d:	48 89 4d 10          	mov    %rcx,0x10(%rbp)
    3331:	48 8b 45 10          	mov    0x10(%rbp),%rax
    3335:	8b 80 80 00 00 00    	mov    0x80(%rax),%eax
    333b:	5d                   	pop    %rbp
    333c:	c3                   	ret

000000000000333d <pdsp_llc_get_plug_detected>:
    333d:	55                   	push   %rbp
    333e:	48 89 e5             	mov    %rsp,%rbp
    3341:	48 89 4d 10          	mov    %rcx,0x10(%rbp)
    3345:	48 8b 45 10          	mov    0x10(%rbp),%rax
    3349:	0f b6 40 78          	movzbl 0x78(%rax),%eax
    334d:	5d                   	pop    %rbp
    334e:	c3                   	ret

000000000000334f <pdsp_llc_get_cp_duty_state>:
    334f:	55                   	push   %rbp
    3350:	48 89 e5             	mov    %rsp,%rbp
    3353:	48 89 4d 10          	mov    %rcx,0x10(%rbp)
    3357:	48 8b 45 10          	mov    0x10(%rbp),%rax
    335b:	0f b7 40 58          	movzwl 0x58(%rax),%eax
    335f:	5d                   	pop    %rbp
    3360:	c3                   	ret

0000000000003361 <pdsp_llc_get_s2_normal_status>:
    3361:	55                   	push   %rbp
    3362:	48 89 e5             	mov    %rsp,%rbp
    3365:	48 89 4d 10          	mov    %rcx,0x10(%rbp)
    3369:	48 8b 45 10          	mov    0x10(%rbp),%rax
    336d:	0f b6 80 84 00 00 00 	movzbl 0x84(%rax),%eax
    3374:	5d                   	pop    %rbp
    3375:	c3                   	ret

0000000000003376 <pdsp_llc_get_s2_ventilation_status>:
    3376:	55                   	push   %rbp
    3377:	48 89 e5             	mov    %rsp,%rbp
    337a:	48 89 4d 10          	mov    %rcx,0x10(%rbp)
    337e:	48 8b 45 10          	mov    0x10(%rbp),%rax
    3382:	0f b6 80 85 00 00 00 	movzbl 0x85(%rax),%eax
    3389:	5d                   	pop    %rbp
    338a:	c3                   	ret

000000000000338b <pdsp_ain>:
    338b:	55                   	push   %rbp
    338c:	48 89 e5             	mov    %rsp,%rbp
    338f:	48 83 ec 20          	sub    $0x20,%rsp
    3393:	48 89 4d 10          	mov    %rcx,0x10(%rbp)
    3397:	f3 0f 11 4d 18       	movss  %xmm1,0x18(%rbp)
    339c:	48 83 7d 10 00       	cmpq   $0x0,0x10(%rbp)
    33a1:	75 1f                	jne    33c2 <pdsp_ain+0x37>
    33a3:	41 b8 fc 04 00 00    	mov    $0x4fc,%r8d
    33a9:	48 8d 05 20 00 00 00 	lea    0x20(%rip),%rax        # 33d0 <pdsp_ain+0x45>
    33b0:	48 89 c2             	mov    %rax,%rdx
    33b3:	48 8d 05 27 00 00 00 	lea    0x27(%rip),%rax        # 33e1 <pdsp_ain+0x56>
    33ba:	48 89 c1             	mov    %rax,%rcx
    33bd:	e8 3e cc ff ff       	call   0 <printf>
    33c2:	48 8b 45 10          	mov    0x10(%rbp),%rax
    33c6:	8b 00                	mov    (%rax),%eax
    33c8:	85 c0                	test   %eax,%eax
    33ca:	75 20                	jne    33ec <pdsp_ain+0x61>
    33cc:	48 8b 45 10          	mov    0x10(%rbp),%rax
    33d0:	f3 0f 10 40 08       	movss  0x8(%rax),%xmm0
    33d5:	0f 28 c8             	movaps %xmm0,%xmm1
    33d8:	f3 0f 59 4d 18       	mulss  0x18(%rbp),%xmm1
    33dd:	48 8b 45 10          	mov    0x10(%rbp),%rax
    33e1:	f3 0f 10 40 0c       	movss  0xc(%rax),%xmm0
    33e6:	f3 0f 58 c1          	addss  %xmm1,%xmm0
    33ea:	eb 53                	jmp    343f <pdsp_ain+0xb4>
    33ec:	48 8b 45 10          	mov    0x10(%rbp),%rax
    33f0:	8b 00                	mov    (%rax),%eax
    33f2:	83 f8 01             	cmp    $0x1,%eax
    33f5:	75 0b                	jne    3402 <pdsp_ain+0x77>
    33f7:	48 8b 45 10          	mov    0x10(%rbp),%rax
    33fb:	f3 0f 10 40 04       	movss  0x4(%rax),%xmm0
    3400:	eb 3d                	jmp    343f <pdsp_ain+0xb4>
    3402:	48 8b 45 10          	mov    0x10(%rbp),%rax
    3406:	8b 00                	mov    (%rax),%eax
    3408:	83 f8 02             	cmp    $0x2,%eax
    340b:	75 2d                	jne    343a <pdsp_ain+0xaf>
    340d:	48 8b 45 10          	mov    0x10(%rbp),%rax
    3411:	f3 0f 10 40 08       	movss  0x8(%rax),%xmm0
    3416:	0f 28 c8             	movaps %xmm0,%xmm1
    3419:	f3 0f 59 4d 18       	mulss  0x18(%rbp),%xmm1
    341e:	48 8b 45 10          	mov    0x10(%rbp),%rax
    3422:	f3 0f 10 40 0c       	movss  0xc(%rax),%xmm0
    3427:	f3 0f 58 c8          	addss  %xmm0,%xmm1
    342b:	48 8b 45 10          	mov    0x10(%rbp),%rax
    342f:	f3 0f 10 40 04       	movss  0x4(%rax),%xmm0
    3434:	f3 0f 58 c1          	addss  %xmm1,%xmm0
    3438:	eb 05                	jmp    343f <pdsp_ain+0xb4>
    343a:	f3 0f 10 45 18       	movss  0x18(%rbp),%xmm0
    343f:	48 83 c4 20          	add    $0x20,%rsp
    3443:	5d                   	pop    %rbp
    3444:	c3                   	ret

0000000000003445 <pdsp_ain_ovr>:
    3445:	55                   	push   %rbp
    3446:	48 89 e5             	mov    %rsp,%rbp
    3449:	48 83 ec 20          	sub    $0x20,%rsp
    344d:	48 89 4d 10          	mov    %rcx,0x10(%rbp)
    3451:	f3 0f 11 4d 18       	movss  %xmm1,0x18(%rbp)
    3456:	48 83 7d 10 00       	cmpq   $0x0,0x10(%rbp)
    345b:	75 1f                	jne    347c <pdsp_ain_ovr+0x37>
    345d:	41 b8 12 05 00 00    	mov    $0x512,%r8d
    3463:	48 8d 05 20 00 00 00 	lea    0x20(%rip),%rax        # 348a <pdsp_ain_ovr+0x45>
    346a:	48 89 c2             	mov    %rax,%rdx
    346d:	48 8d 05 27 00 00 00 	lea    0x27(%rip),%rax        # 349b <pdsp_ain_ovr+0x56>
    3474:	48 89 c1             	mov    %rax,%rcx
    3477:	e8 84 cb ff ff       	call   0 <printf>
    347c:	48 8b 45 10          	mov    0x10(%rbp),%rax
    3480:	f3 0f 10 40 08       	movss  0x8(%rax),%xmm0
    3485:	0f 28 c8             	movaps %xmm0,%xmm1
    3488:	f3 0f 59 4d 18       	mulss  0x18(%rbp),%xmm1
    348d:	48 8b 45 10          	mov    0x10(%rbp),%rax
    3491:	f3 0f 10 40 0c       	movss  0xc(%rax),%xmm0
    3496:	f3 0f 58 c8          	addss  %xmm0,%xmm1
    349a:	48 8b 45 10          	mov    0x10(%rbp),%rax
    349e:	f3 0f 10 40 04       	movss  0x4(%rax),%xmm0
    34a3:	f3 0f 58 c1          	addss  %xmm1,%xmm0
    34a7:	48 83 c4 20          	add    $0x20,%rsp
    34ab:	5d                   	pop    %rbp
    34ac:	c3                   	ret

00000000000034ad <pdsp_ain_ovr_enable>:
    34ad:	55                   	push   %rbp
    34ae:	48 89 e5             	mov    %rsp,%rbp
    34b1:	48 83 ec 20          	sub    $0x20,%rsp
    34b5:	48 89 4d 10          	mov    %rcx,0x10(%rbp)
    34b9:	f3 0f 11 4d 18       	movss  %xmm1,0x18(%rbp)
    34be:	48 83 7d 10 00       	cmpq   $0x0,0x10(%rbp)
    34c3:	75 1f                	jne    34e4 <pdsp_ain_ovr_enable+0x37>
    34c5:	41 b8 1a 05 00 00    	mov    $0x51a,%r8d
    34cb:	48 8d 05 20 00 00 00 	lea    0x20(%rip),%rax        # 34f2 <pdsp_ain_ovr_enable+0x45>
    34d2:	48 89 c2             	mov    %rax,%rdx
    34d5:	48 8d 05 27 00 00 00 	lea    0x27(%rip),%rax        # 3503 <pdsp_ain_ovr_disable>
    34dc:	48 89 c1             	mov    %rax,%rcx
    34df:	e8 1c cb ff ff       	call   0 <printf>
    34e4:	48 8b 45 10          	mov    0x10(%rbp),%rax
    34e8:	c7 00 01 00 00 00    	movl   $0x1,(%rax)
    34ee:	48 8b 45 10          	mov    0x10(%rbp),%rax
    34f2:	f3 0f 10 45 18       	movss  0x18(%rbp),%xmm0
    34f7:	f3 0f 11 40 04       	movss  %xmm0,0x4(%rax)
    34fc:	90                   	nop
    34fd:	48 83 c4 20          	add    $0x20,%rsp
    3501:	5d                   	pop    %rbp
    3502:	c3                   	ret

0000000000003503 <pdsp_ain_ovr_disable>:
    3503:	55                   	push   %rbp
    3504:	48 89 e5             	mov    %rsp,%rbp
    3507:	48 83 ec 20          	sub    $0x20,%rsp
    350b:	48 89 4d 10          	mov    %rcx,0x10(%rbp)
    350f:	48 83 7d 10 00       	cmpq   $0x0,0x10(%rbp)
    3514:	75 1f                	jne    3535 <pdsp_ain_ovr_disable+0x32>
    3516:	41 b8 21 05 00 00    	mov    $0x521,%r8d
    351c:	48 8d 05 20 00 00 00 	lea    0x20(%rip),%rax        # 3543 <pdsp_ain_ovr_disable+0x40>
    3523:	48 89 c2             	mov    %rax,%rdx
    3526:	48 8d 05 27 00 00 00 	lea    0x27(%rip),%rax        # 3554 <pdsp_ain_ovr_inject+0xe>
    352d:	48 89 c1             	mov    %rax,%rcx
    3530:	e8 cb ca ff ff       	call   0 <printf>
    3535:	48 8b 45 10          	mov    0x10(%rbp),%rax
    3539:	c7 00 00 00 00 00    	movl   $0x0,(%rax)
    353f:	90                   	nop
    3540:	48 83 c4 20          	add    $0x20,%rsp
    3544:	5d                   	pop    %rbp
    3545:	c3                   	ret

0000000000003546 <pdsp_ain_ovr_inject>:
    3546:	55                   	push   %rbp
    3547:	48 89 e5             	mov    %rsp,%rbp
    354a:	48 83 ec 20          	sub    $0x20,%rsp
    354e:	48 89 4d 10          	mov    %rcx,0x10(%rbp)
    3552:	f3 0f 11 4d 18       	movss  %xmm1,0x18(%rbp)
    3557:	48 83 7d 10 00       	cmpq   $0x0,0x10(%rbp)
    355c:	75 1f                	jne    357d <pdsp_ain_ovr_inject+0x37>
    355e:	41 b8 28 05 00 00    	mov    $0x528,%r8d
    3564:	48 8d 05 20 00 00 00 	lea    0x20(%rip),%rax        # 358b <pdsp_ain_ovr_inject+0x45>
    356b:	48 89 c2             	mov    %rax,%rdx
    356e:	48 8d 05 27 00 00 00 	lea    0x27(%rip),%rax        # 359c <pdsp_ain_calibrate_gain>
    3575:	48 89 c1             	mov    %rax,%rcx
    3578:	e8 83 ca ff ff       	call   0 <printf>
    357d:	48 8b 45 10          	mov    0x10(%rbp),%rax
    3581:	c7 00 02 00 00 00    	movl   $0x2,(%rax)
    3587:	48 8b 45 10          	mov    0x10(%rbp),%rax
    358b:	f3 0f 10 45 18       	movss  0x18(%rbp),%xmm0
    3590:	f3 0f 11 40 04       	movss  %xmm0,0x4(%rax)
    3595:	90                   	nop
    3596:	48 83 c4 20          	add    $0x20,%rsp
    359a:	5d                   	pop    %rbp
    359b:	c3                   	ret

000000000000359c <pdsp_ain_calibrate_gain>:
    359c:	55                   	push   %rbp
    359d:	48 89 e5             	mov    %rsp,%rbp
    35a0:	f3 0f 11 45 10       	movss  %xmm0,0x10(%rbp)
    35a5:	f3 0f 11 4d 18       	movss  %xmm1,0x18(%rbp)
    35aa:	f3 0f 11 55 20       	movss  %xmm2,0x20(%rbp)
    35af:	66 0f ef c0          	pxor   %xmm0,%xmm0
    35b3:	0f 2e 45 20          	ucomiss 0x20(%rbp),%xmm0
    35b7:	7a 14                	jp     35cd <pdsp_ain_calibrate_gain+0x31>
    35b9:	66 0f ef c0          	pxor   %xmm0,%xmm0
    35bd:	0f 2e 45 20          	ucomiss 0x20(%rbp),%xmm0
    35c1:	75 0a                	jne    35cd <pdsp_ain_calibrate_gain+0x31>
    35c3:	f3 0f 10 45 18       	movss  0x18(%rbp),%xmm0
    35c8:	f3 0f 11 45 20       	movss  %xmm0,0x20(%rbp)
    35cd:	f3 0f 10 45 10       	movss  0x10(%rbp),%xmm0
    35d2:	f3 0f 59 45 18       	mulss  0x18(%rbp),%xmm0
    35d7:	f3 0f 5e 45 20       	divss  0x20(%rbp),%xmm0
    35dc:	5d                   	pop    %rbp
    35dd:	c3                   	ret

00000000000035de <pdsp_ain_calibrate_offset>:
    35de:	55                   	push   %rbp
    35df:	48 89 e5             	mov    %rsp,%rbp
    35e2:	f3 0f 11 45 10       	movss  %xmm0,0x10(%rbp)
    35e7:	f3 0f 11 4d 18       	movss  %xmm1,0x18(%rbp)
    35ec:	f3 0f 11 55 20       	movss  %xmm2,0x20(%rbp)
    35f1:	f3 0f 10 45 18       	movss  0x18(%rbp),%xmm0
    35f6:	f3 0f 5c 45 20       	subss  0x20(%rbp),%xmm0
    35fb:	f3 0f 58 45 10       	addss  0x10(%rbp),%xmm0
    3600:	5d                   	pop    %rbp
    3601:	c3                   	ret

0000000000003602 <pdsp_minmax_clear>:
    3602:	55                   	push   %rbp
    3603:	48 89 e5             	mov    %rsp,%rbp
    3606:	48 83 ec 20          	sub    $0x20,%rsp
    360a:	48 89 4d 10          	mov    %rcx,0x10(%rbp)
    360e:	48 83 7d 10 00       	cmpq   $0x0,0x10(%rbp)
    3613:	75 1f                	jne    3634 <pdsp_minmax_clear+0x32>
    3615:	41 b8 41 05 00 00    	mov    $0x541,%r8d
    361b:	48 8d 05 20 00 00 00 	lea    0x20(%rip),%rax        # 3642 <pdsp_minmax_clear+0x40>
    3622:	48 89 c2             	mov    %rax,%rdx
    3625:	48 8d 05 27 00 00 00 	lea    0x27(%rip),%rax        # 3653 <pdsp_minmax_clear+0x51>
    362c:	48 89 c1             	mov    %rax,%rcx
    362f:	e8 cc c9 ff ff       	call   0 <printf>
    3634:	48 8b 45 10          	mov    0x10(%rbp),%rax
    3638:	f3 0f 10 05 54 00 00 	movss  0x54(%rip),%xmm0        # 3694 <pdsp_minmax+0x2b>
    363f:	00 
    3640:	f3 0f 11 00          	movss  %xmm0,(%rax)
    3644:	48 8b 45 10          	mov    0x10(%rbp),%rax
    3648:	f3 0f 10 05 58 00 00 	movss  0x58(%rip),%xmm0        # 36a8 <pdsp_minmax+0x3f>
    364f:	00 
    3650:	f3 0f 11 40 04       	movss  %xmm0,0x4(%rax)
    3655:	48 8b 45 10          	mov    0x10(%rbp),%rax
    3659:	66 0f ef c0          	pxor   %xmm0,%xmm0
    365d:	f3 0f 11 40 08       	movss  %xmm0,0x8(%rax)
    3662:	90                   	nop
    3663:	48 83 c4 20          	add    $0x20,%rsp
    3667:	5d                   	pop    %rbp
    3668:	c3                   	ret

0000000000003669 <pdsp_minmax>:
    3669:	55                   	push   %rbp
    366a:	48 89 e5             	mov    %rsp,%rbp
    366d:	48 83 ec 20          	sub    $0x20,%rsp
    3671:	48 89 4d 10          	mov    %rcx,0x10(%rbp)
    3675:	f3 0f 11 4d 18       	movss  %xmm1,0x18(%rbp)
    367a:	48 83 7d 10 00       	cmpq   $0x0,0x10(%rbp)
    367f:	75 1f                	jne    36a0 <pdsp_minmax+0x37>
    3681:	41 b8 49 05 00 00    	mov    $0x549,%r8d
    3687:	48 8d 05 20 00 00 00 	lea    0x20(%rip),%rax        # 36ae <pdsp_minmax+0x45>
    368e:	48 89 c2             	mov    %rax,%rdx
    3691:	48 8d 05 27 00 00 00 	lea    0x27(%rip),%rax        # 36bf <pdsp_minmax+0x56>
    3698:	48 89 c1             	mov    %rax,%rcx
    369b:	e8 60 c9 ff ff       	call   0 <printf>
    36a0:	48 8b 45 10          	mov    0x10(%rbp),%rax
    36a4:	f3 0f 10 00          	movss  (%rax),%xmm0
    36a8:	8b 45 18             	mov    0x18(%rbp),%eax
    36ab:	0f 28 c8             	movaps %xmm0,%xmm1
    36ae:	66 0f 6e c0          	movd   %eax,%xmm0
    36b2:	e8 00 00 00 00       	call   36b7 <pdsp_minmax+0x4e>
    36b7:	66 0f 7e c0          	movd   %xmm0,%eax
    36bb:	48 8b 55 10          	mov    0x10(%rbp),%rdx
    36bf:	89 02                	mov    %eax,(%rdx)
    36c1:	48 8b 45 10          	mov    0x10(%rbp),%rax
    36c5:	f3 0f 10 40 04       	movss  0x4(%rax),%xmm0
    36ca:	8b 45 18             	mov    0x18(%rbp),%eax
    36cd:	0f 28 c8             	movaps %xmm0,%xmm1
    36d0:	66 0f 6e c0          	movd   %eax,%xmm0
    36d4:	e8 00 00 00 00       	call   36d9 <pdsp_minmax+0x70>
    36d9:	66 0f 7e c0          	movd   %xmm0,%eax
    36dd:	48 8b 55 10          	mov    0x10(%rbp),%rdx
    36e1:	89 42 04             	mov    %eax,0x4(%rdx)
    36e4:	48 8b 45 10          	mov    0x10(%rbp),%rax
    36e8:	f3 0f 10 40 04       	movss  0x4(%rax),%xmm0
    36ed:	48 8b 45 10          	mov    0x10(%rbp),%rax
    36f1:	f3 0f 10 08          	movss  (%rax),%xmm1
    36f5:	f3 0f 5c c1          	subss  %xmm1,%xmm0
    36f9:	48 8b 45 10          	mov    0x10(%rbp),%rax
    36fd:	f3 0f 11 40 08       	movss  %xmm0,0x8(%rax)
    3702:	90                   	nop
    3703:	48 83 c4 20          	add    $0x20,%rsp
    3707:	5d                   	pop    %rbp
    3708:	c3                   	ret

0000000000003709 <pdsp_expavg_c2d>:
    3709:	55                   	push   %rbp
    370a:	48 89 e5             	mov    %rsp,%rbp
    370d:	48 89 4d 10          	mov    %rcx,0x10(%rbp)
    3711:	f3 0f 11 4d 18       	movss  %xmm1,0x18(%rbp)
    3716:	f3 0f 11 55 20       	movss  %xmm2,0x20(%rbp)
    371b:	f3 0f 10 45 18       	movss  0x18(%rbp),%xmm0
    3720:	0f 28 c8             	movaps %xmm0,%xmm1
    3723:	f3 0f 58 c8          	addss  %xmm0,%xmm1
    3727:	f3 0f 10 05 5c 00 00 	movss  0x5c(%rip),%xmm0        # 378b <pdsp_expavg_init+0x47>
    372e:	00 
    372f:	f3 0f 59 c1          	mulss  %xmm1,%xmm0
    3733:	f3 0f 59 45 20       	mulss  0x20(%rbp),%xmm0
    3738:	48 8b 45 10          	mov    0x10(%rbp),%rax
    373c:	f3 0f 11 40 04       	movss  %xmm0,0x4(%rax)
    3741:	90                   	nop
    3742:	5d                   	pop    %rbp
    3743:	c3                   	ret

0000000000003744 <pdsp_expavg_init>:
    3744:	55                   	push   %rbp
    3745:	48 89 e5             	mov    %rsp,%rbp
    3748:	48 83 ec 20          	sub    $0x20,%rsp
    374c:	48 89 4d 10          	mov    %rcx,0x10(%rbp)
    3750:	f3 0f 11 4d 18       	movss  %xmm1,0x18(%rbp)
    3755:	48 83 7d 10 00       	cmpq   $0x0,0x10(%rbp)
    375a:	75 1f                	jne    377b <pdsp_expavg_init+0x37>
    375c:	41 b8 57 05 00 00    	mov    $0x557,%r8d
    3762:	48 8d 05 20 00 00 00 	lea    0x20(%rip),%rax        # 3789 <pdsp_expavg_init+0x45>
    3769:	48 89 c2             	mov    %rax,%rdx
    376c:	48 8d 05 27 00 00 00 	lea    0x27(%rip),%rax        # 379a <pdsp_expavg_init+0x56>
    3773:	48 89 c1             	mov    %rax,%rcx
    3776:	e8 85 c8 ff ff       	call   0 <printf>
    377b:	48 8b 45 10          	mov    0x10(%rbp),%rax
    377f:	66 0f ef c0          	pxor   %xmm0,%xmm0
    3783:	f3 0f 11 00          	movss  %xmm0,(%rax)
    3787:	48 8b 45 10          	mov    0x10(%rbp),%rax
    378b:	f3 0f 10 45 18       	movss  0x18(%rbp),%xmm0
    3790:	f3 0f 11 40 04       	movss  %xmm0,0x4(%rax)
    3795:	90                   	nop
    3796:	48 83 c4 20          	add    $0x20,%rsp
    379a:	5d                   	pop    %rbp
    379b:	c3                   	ret

000000000000379c <pdsp_expavg_clear>:
    379c:	55                   	push   %rbp
    379d:	48 89 e5             	mov    %rsp,%rbp
    37a0:	48 83 ec 20          	sub    $0x20,%rsp
    37a4:	48 89 4d 10          	mov    %rcx,0x10(%rbp)
    37a8:	48 83 7d 10 00       	cmpq   $0x0,0x10(%rbp)
    37ad:	75 1f                	jne    37ce <pdsp_expavg_clear+0x32>
    37af:	41 b8 5e 05 00 00    	mov    $0x55e,%r8d
    37b5:	48 8d 05 20 00 00 00 	lea    0x20(%rip),%rax        # 37dc <pdsp_expavg_clear+0x40>
    37bc:	48 89 c2             	mov    %rax,%rdx
    37bf:	48 8d 05 27 00 00 00 	lea    0x27(%rip),%rax        # 37ed <pdsp_expavg+0xc>
    37c6:	48 89 c1             	mov    %rax,%rcx
    37c9:	e8 32 c8 ff ff       	call   0 <printf>
    37ce:	48 8b 45 10          	mov    0x10(%rbp),%rax
    37d2:	66 0f ef c0          	pxor   %xmm0,%xmm0
    37d6:	f3 0f 11 00          	movss  %xmm0,(%rax)
    37da:	90                   	nop
    37db:	48 83 c4 20          	add    $0x20,%rsp
    37df:	5d                   	pop    %rbp
    37e0:	c3                   	ret

00000000000037e1 <pdsp_expavg>:
    37e1:	55                   	push   %rbp
    37e2:	48 89 e5             	mov    %rsp,%rbp
    37e5:	48 83 ec 20          	sub    $0x20,%rsp
    37e9:	48 89 4d 10          	mov    %rcx,0x10(%rbp)
    37ed:	f3 0f 11 4d 18       	movss  %xmm1,0x18(%rbp)
    37f2:	48 83 7d 10 00       	cmpq   $0x0,0x10(%rbp)
    37f7:	75 1f                	jne    3818 <pdsp_expavg+0x37>
    37f9:	41 b8 64 05 00 00    	mov    $0x564,%r8d
    37ff:	48 8d 05 20 00 00 00 	lea    0x20(%rip),%rax        # 3826 <pdsp_expavg+0x45>
    3806:	48 89 c2             	mov    %rax,%rdx
    3809:	48 8d 05 27 00 00 00 	lea    0x27(%rip),%rax        # 3837 <pdsp_expavg+0x56>
    3810:	48 89 c1             	mov    %rax,%rcx
    3813:	e8 e8 c7 ff ff       	call   0 <printf>
    3818:	48 8b 45 10          	mov    0x10(%rbp),%rax
    381c:	f3 0f 10 08          	movss  (%rax),%xmm1
    3820:	48 8b 45 10          	mov    0x10(%rbp),%rax
    3824:	f3 0f 10 50 04       	movss  0x4(%rax),%xmm2
    3829:	48 8b 45 10          	mov    0x10(%rbp),%rax
    382d:	f3 0f 10 18          	movss  (%rax),%xmm3
    3831:	f3 0f 10 45 18       	movss  0x18(%rbp),%xmm0
    3836:	f3 0f 5c c3          	subss  %xmm3,%xmm0
    383a:	f3 0f 59 c2          	mulss  %xmm2,%xmm0
    383e:	f3 0f 58 c1          	addss  %xmm1,%xmm0
    3842:	48 8b 45 10          	mov    0x10(%rbp),%rax
    3846:	f3 0f 11 00          	movss  %xmm0,(%rax)
    384a:	48 8b 45 10          	mov    0x10(%rbp),%rax
    384e:	f3 0f 10 00          	movss  (%rax),%xmm0
    3852:	48 83 c4 20          	add    $0x20,%rsp
    3856:	5d                   	pop    %rbp
    3857:	c3                   	ret

0000000000003858 <pdsp_smoothstep>:
    3858:	55                   	push   %rbp
    3859:	48 89 e5             	mov    %rsp,%rbp
    385c:	f3 0f 11 45 10       	movss  %xmm0,0x10(%rbp)
    3861:	f3 0f 11 4d 18       	movss  %xmm1,0x18(%rbp)
    3866:	f3 0f 11 55 20       	movss  %xmm2,0x20(%rbp)
    386b:	f3 0f 10 45 10       	movss  0x10(%rbp),%xmm0
    3870:	0f 2f 45 20          	comiss 0x20(%rbp),%xmm0
    3874:	76 06                	jbe    387c <pdsp_smoothstep+0x24>
    3876:	66 0f ef c0          	pxor   %xmm0,%xmm0
    387a:	eb 5a                	jmp    38d6 <pdsp_smoothstep+0x7e>
    387c:	f3 0f 10 45 20       	movss  0x20(%rbp),%xmm0
    3881:	0f 2f 45 18          	comiss 0x18(%rbp),%xmm0
    3885:	72 0a                	jb     3891 <pdsp_smoothstep+0x39>
    3887:	f3 0f 10 05 44 00 00 	movss  0x44(%rip),%xmm0        # 38d3 <pdsp_smoothstep+0x7b>
    388e:	00 
    388f:	eb 45                	jmp    38d6 <pdsp_smoothstep+0x7e>
    3891:	f3 0f 10 45 20       	movss  0x20(%rbp),%xmm0
    3896:	f3 0f 5c 45 10       	subss  0x10(%rbp),%xmm0
    389b:	f3 0f 10 4d 18       	movss  0x18(%rbp),%xmm1
    38a0:	f3 0f 5c 4d 10       	subss  0x10(%rbp),%xmm1
    38a5:	f3 0f 5e c1          	divss  %xmm1,%xmm0
    38a9:	f3 0f 11 45 20       	movss  %xmm0,0x20(%rbp)
    38ae:	f3 0f 10 45 20       	movss  0x20(%rbp),%xmm0
    38b3:	0f 28 c8             	movaps %xmm0,%xmm1
    38b6:	f3 0f 59 c8          	mulss  %xmm0,%xmm1
    38ba:	f3 0f 10 45 20       	movss  0x20(%rbp),%xmm0
    38bf:	0f 28 d0             	movaps %xmm0,%xmm2
    38c2:	f3 0f 58 d0          	addss  %xmm0,%xmm2
    38c6:	f3 0f 10 05 60 00 00 	movss  0x60(%rip),%xmm0        # 392e <pdsp_1p1z_c2d+0x56>
    38cd:	00 
    38ce:	f3 0f 5c c2          	subss  %xmm2,%xmm0
    38d2:	f3 0f 59 c1          	mulss  %xmm1,%xmm0
    38d6:	5d                   	pop    %rbp
    38d7:	c3                   	ret

00000000000038d8 <pdsp_1p1z_c2d>:
    38d8:	55                   	push   %rbp
    38d9:	48 89 e5             	mov    %rsp,%rbp
    38dc:	48 83 ec 10          	sub    $0x10,%rsp
    38e0:	48 89 4d 10          	mov    %rcx,0x10(%rbp)
    38e4:	48 89 55 18          	mov    %rdx,0x18(%rbp)
    38e8:	f3 0f 11 55 20       	movss  %xmm2,0x20(%rbp)
    38ed:	f3 0f 10 05 64 00 00 	movss  0x64(%rip),%xmm0        # 3959 <pdsp_1p1z_c2d+0x81>
    38f4:	00 
    38f5:	f3 0f 5e 45 20       	divss  0x20(%rbp),%xmm0
    38fa:	f3 0f 11 45 fc       	movss  %xmm0,-0x4(%rbp)
    38ff:	48 8b 45 10          	mov    0x10(%rbp),%rax
    3903:	f3 0f 10 40 0c       	movss  0xc(%rax),%xmm0
    3908:	0f 28 c8             	movaps %xmm0,%xmm1
    390b:	f3 0f 59 4d fc       	mulss  -0x4(%rbp),%xmm1
    3910:	48 8b 45 10          	mov    0x10(%rbp),%rax
    3914:	f3 0f 10 40 08       	movss  0x8(%rax),%xmm0
    3919:	f3 0f 58 c8          	addss  %xmm0,%xmm1
    391d:	f3 0f 10 05 44 00 00 	movss  0x44(%rip),%xmm0        # 3969 <pdsp_1p1z_c2d+0x91>
    3924:	00 
    3925:	f3 0f 5e c1          	divss  %xmm1,%xmm0
    3929:	f3 0f 11 45 f8       	movss  %xmm0,-0x8(%rbp)
    392e:	48 8b 45 10          	mov    0x10(%rbp),%rax
    3932:	f3 0f 10 40 04       	movss  0x4(%rax),%xmm0
    3937:	0f 28 c8             	movaps %xmm0,%xmm1
    393a:	f3 0f 59 4d fc       	mulss  -0x4(%rbp),%xmm1
    393f:	48 8b 45 10          	mov    0x10(%rbp),%rax
    3943:	f3 0f 10 00          	movss  (%rax),%xmm0
    3947:	f3 0f 58 c1          	addss  %xmm1,%xmm0
    394b:	f3 0f 59 45 f8       	mulss  -0x8(%rbp),%xmm0
    3950:	48 8b 45 18          	mov    0x18(%rbp),%rax
    3954:	f3 0f 11 00          	movss  %xmm0,(%rax)
    3958:	48 8b 45 10          	mov    0x10(%rbp),%rax
    395c:	f3 0f 10 00          	movss  (%rax),%xmm0
    3960:	48 8b 45 10          	mov    0x10(%rbp),%rax
    3964:	f3 0f 10 48 04       	movss  0x4(%rax),%xmm1
    3969:	f3 0f 59 4d fc       	mulss  -0x4(%rbp),%xmm1
    396e:	f3 0f 5c c1          	subss  %xmm1,%xmm0
    3972:	f3 0f 59 45 f8       	mulss  -0x8(%rbp),%xmm0
    3977:	48 8b 45 18          	mov    0x18(%rbp),%rax
    397b:	f3 0f 11 40 04       	movss  %xmm0,0x4(%rax)
    3980:	48 8b 45 10          	mov    0x10(%rbp),%rax
    3984:	f3 0f 10 40 08       	movss  0x8(%rax),%xmm0
    3989:	48 8b 45 10          	mov    0x10(%rbp),%rax
    398d:	f3 0f 10 48 0c       	movss  0xc(%rax),%xmm1
    3992:	f3 0f 59 4d fc       	mulss  -0x4(%rbp),%xmm1
    3997:	f3 0f 5c c1          	subss  %xmm1,%xmm0
    399b:	f3 0f 59 45 f8       	mulss  -0x8(%rbp),%xmm0
    39a0:	48 8b 45 18          	mov    0x18(%rbp),%rax
    39a4:	f3 0f 11 40 08       	movss  %xmm0,0x8(%rax)
    39a9:	90                   	nop
    39aa:	48 83 c4 10          	add    $0x10,%rsp
    39ae:	5d                   	pop    %rbp
    39af:	c3                   	ret

00000000000039b0 <pdsp_2p2z_c2d>:
    39b0:	55                   	push   %rbp
    39b1:	48 89 e5             	mov    %rsp,%rbp
    39b4:	48 83 ec 10          	sub    $0x10,%rsp
    39b8:	48 89 4d 10          	mov    %rcx,0x10(%rbp)
    39bc:	48 89 55 18          	mov    %rdx,0x18(%rbp)
    39c0:	f3 0f 11 55 20       	movss  %xmm2,0x20(%rbp)
    39c5:	f3 0f 10 05 64 00 00 	movss  0x64(%rip),%xmm0        # 3a31 <pdsp_2p2z_c2d+0x81>
    39cc:	00 
    39cd:	f3 0f 5e 45 20       	divss  0x20(%rbp),%xmm0
    39d2:	f3 0f 11 45 fc       	movss  %xmm0,-0x4(%rbp)
    39d7:	f3 0f 10 45 fc       	movss  -0x4(%rbp),%xmm0
    39dc:	f3 0f 59 c0          	mulss  %xmm0,%xmm0
    39e0:	f3 0f 11 45 f8       	movss  %xmm0,-0x8(%rbp)
    39e5:	48 8b 45 10          	mov    0x10(%rbp),%rax
    39e9:	f3 0f 10 40 14       	movss  0x14(%rax),%xmm0
    39ee:	0f 28 c8             	movaps %xmm0,%xmm1
    39f1:	f3 0f 59 4d f8       	mulss  -0x8(%rbp),%xmm1
    39f6:	48 8b 45 10          	mov    0x10(%rbp),%rax
    39fa:	f3 0f 10 40 10       	movss  0x10(%rax),%xmm0
    39ff:	f3 0f 59 45 fc       	mulss  -0x4(%rbp),%xmm0
    3a04:	f3 0f 58 c8          	addss  %xmm0,%xmm1
    3a08:	48 8b 45 10          	mov    0x10(%rbp),%rax
    3a0c:	f3 0f 10 40 0c       	movss  0xc(%rax),%xmm0
    3a11:	f3 0f 58 c8          	addss  %xmm0,%xmm1
    3a15:	f3 0f 10 05 44 00 00 	movss  0x44(%rip),%xmm0        # 3a61 <pdsp_2p2z_c2d+0xb1>
    3a1c:	00 
    3a1d:	f3 0f 5e c1          	divss  %xmm1,%xmm0
    3a21:	f3 0f 11 45 f4       	movss  %xmm0,-0xc(%rbp)
    3a26:	48 8b 45 10          	mov    0x10(%rbp),%rax
    3a2a:	f3 0f 10 40 08       	movss  0x8(%rax),%xmm0
    3a2f:	0f 28 c8             	movaps %xmm0,%xmm1
    3a32:	f3 0f 59 4d f8       	mulss  -0x8(%rbp),%xmm1
    3a37:	48 8b 45 10          	mov    0x10(%rbp),%rax
    3a3b:	f3 0f 10 40 04       	movss  0x4(%rax),%xmm0
    3a40:	f3 0f 59 45 fc       	mulss  -0x4(%rbp),%xmm0
    3a45:	f3 0f 58 c8          	addss  %xmm0,%xmm1
    3a49:	48 8b 45 10          	mov    0x10(%rbp),%rax
    3a4d:	f3 0f 10 00          	movss  (%rax),%xmm0
    3a51:	f3 0f 58 c1          	addss  %xmm1,%xmm0
    3a55:	f3 0f 59 45 f4       	mulss  -0xc(%rbp),%xmm0
    3a5a:	48 8b 45 18          	mov    0x18(%rbp),%rax
    3a5e:	f3 0f 11 00          	movss  %xmm0,(%rax)
    3a62:	48 8b 45 10          	mov    0x10(%rbp),%rax
    3a66:	f3 0f 10 00          	movss  (%rax),%xmm0
    3a6a:	f3 0f 58 c0          	addss  %xmm0,%xmm0
    3a6e:	48 8b 45 10          	mov    0x10(%rbp),%rax
    3a72:	f3 0f 10 48 04       	movss  0x4(%rax),%xmm1
    3a77:	0f 28 d1             	movaps %xmm1,%xmm2
    3a7a:	f3 0f 59 55 fc       	mulss  -0x4(%rbp),%xmm2
    3a7f:	0f 28 c8             	movaps %xmm0,%xmm1
    3a82:	f3 0f 5c ca          	subss  %xmm2,%xmm1
    3a86:	48 8b 45 10          	mov    0x10(%rbp),%rax
    3a8a:	f3 0f 10 40 08       	movss  0x8(%rax),%xmm0
    3a8f:	f3 0f 58 c0          	addss  %xmm0,%xmm0
    3a93:	0f 28 d0             	movaps %xmm0,%xmm2
    3a96:	f3 0f 59 55 f8       	mulss  -0x8(%rbp),%xmm2
    3a9b:	f3 0f 5c ca          	subss  %xmm2,%xmm1
    3a9f:	0f 28 c1             	movaps %xmm1,%xmm0
    3aa2:	f3 0f 59 45 f4       	mulss  -0xc(%rbp),%xmm0
    3aa7:	48 8b 45 18          	mov    0x18(%rbp),%rax
    3aab:	f3 0f 11 40 04       	movss  %xmm0,0x4(%rax)
    3ab0:	48 8b 45 10          	mov    0x10(%rbp),%rax
    3ab4:	f3 0f 10 40 08       	movss  0x8(%rax),%xmm0
    3ab9:	f3 0f 59 45 f8       	mulss  -0x8(%rbp),%xmm0
    3abe:	48 8b 45 10          	mov    0x10(%rbp),%rax
    3ac2:	f3 0f 10 48 04       	movss  0x4(%rax),%xmm1
    3ac7:	0f 28 d1             	movaps %xmm1,%xmm2
    3aca:	f3 0f 59 55 fc       	mulss  -0x4(%rbp),%xmm2
    3acf:	0f 28 c8             	movaps %xmm0,%xmm1
    3ad2:	f3 0f 5c ca          	subss  %xmm2,%xmm1
    3ad6:	48 8b 45 10          	mov    0x10(%rbp),%rax
    3ada:	f3 0f 10 00          	movss  (%rax),%xmm0
    3ade:	f3 0f 58 c1          	addss  %xmm1,%xmm0
    3ae2:	f3 0f 59 45 f4       	mulss  -0xc(%rbp),%xmm0
    3ae7:	48 8b 45 18          	mov    0x18(%rbp),%rax
    3aeb:	f3 0f 11 40 08       	movss  %xmm0,0x8(%rax)
    3af0:	48 8b 45 10          	mov    0x10(%rbp),%rax
    3af4:	f3 0f 10 40 0c       	movss  0xc(%rax),%xmm0
    3af9:	f3 0f 58 c0          	addss  %xmm0,%xmm0
    3afd:	48 8b 45 10          	mov    0x10(%rbp),%rax
    3b01:	f3 0f 10 48 10       	movss  0x10(%rax),%xmm1
    3b06:	0f 28 d1             	movaps %xmm1,%xmm2
    3b09:	f3 0f 59 55 fc       	mulss  -0x4(%rbp),%xmm2
    3b0e:	0f 28 c8             	movaps %xmm0,%xmm1
    3b11:	f3 0f 5c ca          	subss  %xmm2,%xmm1
    3b15:	48 8b 45 10          	mov    0x10(%rbp),%rax
    3b19:	f3 0f 10 40 14       	movss  0x14(%rax),%xmm0
    3b1e:	f3 0f 58 c0          	addss  %xmm0,%xmm0
    3b22:	0f 28 d0             	movaps %xmm0,%xmm2
    3b25:	f3 0f 59 55 f8       	mulss  -0x8(%rbp),%xmm2
    3b2a:	f3 0f 5c ca          	subss  %xmm2,%xmm1
    3b2e:	0f 28 c1             	movaps %xmm1,%xmm0
    3b31:	f3 0f 59 45 f4       	mulss  -0xc(%rbp),%xmm0
    3b36:	48 8b 45 18          	mov    0x18(%rbp),%rax
    3b3a:	f3 0f 11 40 0c       	movss  %xmm0,0xc(%rax)
    3b3f:	48 8b 45 10          	mov    0x10(%rbp),%rax
    3b43:	f3 0f 10 40 14       	movss  0x14(%rax),%xmm0
    3b48:	0f 28 c8             	movaps %xmm0,%xmm1
    3b4b:	f3 0f 59 4d f8       	mulss  -0x8(%rbp),%xmm1
    3b50:	48 8b 45 10          	mov    0x10(%rbp),%rax
    3b54:	f3 0f 10 40 10       	movss  0x10(%rax),%xmm0
    3b59:	f3 0f 59 45 fc       	mulss  -0x4(%rbp),%xmm0
    3b5e:	f3 0f 58 c8          	addss  %xmm0,%xmm1
    3b62:	48 8b 45 10          	mov    0x10(%rbp),%rax
    3b66:	f3 0f 10 40 0c       	movss  0xc(%rax),%xmm0
    3b6b:	f3 0f 58 c1          	addss  %xmm1,%xmm0
    3b6f:	f3 0f 59 45 f4       	mulss  -0xc(%rbp),%xmm0
    3b74:	48 8b 45 18          	mov    0x18(%rbp),%rax
    3b78:	f3 0f 11 40 10       	movss  %xmm0,0x10(%rax)
    3b7d:	90                   	nop
    3b7e:	48 83 c4 10          	add    $0x10,%rsp
    3b82:	5d                   	pop    %rbp
    3b83:	c3                   	ret

0000000000003b84 <pdsp_3p3z_c2d>:
    3b84:	55                   	push   %rbp
    3b85:	48 89 e5             	mov    %rsp,%rbp
    3b88:	48 83 ec 10          	sub    $0x10,%rsp
    3b8c:	48 89 4d 10          	mov    %rcx,0x10(%rbp)
    3b90:	48 89 55 18          	mov    %rdx,0x18(%rbp)
    3b94:	f3 0f 11 55 20       	movss  %xmm2,0x20(%rbp)
    3b99:	f3 0f 10 05 64 00 00 	movss  0x64(%rip),%xmm0        # 3c05 <pdsp_3p3z_c2d+0x81>
    3ba0:	00 
    3ba1:	f3 0f 5e 45 20       	divss  0x20(%rbp),%xmm0
    3ba6:	f3 0f 11 45 fc       	movss  %xmm0,-0x4(%rbp)
    3bab:	f3 0f 10 45 fc       	movss  -0x4(%rbp),%xmm0
    3bb0:	f3 0f 59 c0          	mulss  %xmm0,%xmm0
    3bb4:	f3 0f 11 45 f8       	movss  %xmm0,-0x8(%rbp)
    3bb9:	f3 0f 10 45 fc       	movss  -0x4(%rbp),%xmm0
    3bbe:	f3 0f 59 c0          	mulss  %xmm0,%xmm0
    3bc2:	f3 0f 10 4d fc       	movss  -0x4(%rbp),%xmm1
    3bc7:	f3 0f 59 c1          	mulss  %xmm1,%xmm0
    3bcb:	f3 0f 11 45 f4       	movss  %xmm0,-0xc(%rbp)
    3bd0:	48 8b 45 10          	mov    0x10(%rbp),%rax
    3bd4:	f3 0f 10 40 1c       	movss  0x1c(%rax),%xmm0
    3bd9:	0f 28 c8             	movaps %xmm0,%xmm1
    3bdc:	f3 0f 59 4d f4       	mulss  -0xc(%rbp),%xmm1
    3be1:	48 8b 45 10          	mov    0x10(%rbp),%rax
    3be5:	f3 0f 10 40 18       	movss  0x18(%rax),%xmm0
    3bea:	f3 0f 59 45 f8       	mulss  -0x8(%rbp),%xmm0
    3bef:	f3 0f 58 c8          	addss  %xmm0,%xmm1
    3bf3:	48 8b 45 10          	mov    0x10(%rbp),%rax
    3bf7:	f3 0f 10 40 14       	movss  0x14(%rax),%xmm0
    3bfc:	f3 0f 59 45 fc       	mulss  -0x4(%rbp),%xmm0
    3c01:	f3 0f 58 c8          	addss  %xmm0,%xmm1
    3c05:	48 8b 45 10          	mov    0x10(%rbp),%rax
    3c09:	f3 0f 10 40 10       	movss  0x10(%rax),%xmm0
    3c0e:	f3 0f 58 c8          	addss  %xmm0,%xmm1
    3c12:	f3 0f 10 05 44 00 00 	movss  0x44(%rip),%xmm0        # 3c5e <pdsp_3p3z_c2d+0xda>
    3c19:	00 
    3c1a:	f3 0f 5e c1          	divss  %xmm1,%xmm0
    3c1e:	f3 0f 11 45 f0       	movss  %xmm0,-0x10(%rbp)
    3c23:	48 8b 45 10          	mov    0x10(%rbp),%rax
    3c27:	f3 0f 10 40 0c       	movss  0xc(%rax),%xmm0
    3c2c:	0f 28 c8             	movaps %xmm0,%xmm1
    3c2f:	f3 0f 59 4d f4       	mulss  -0xc(%rbp),%xmm1
    3c34:	48 8b 45 10          	mov    0x10(%rbp),%rax
    3c38:	f3 0f 10 40 08       	movss  0x8(%rax),%xmm0
    3c3d:	f3 0f 59 45 f8       	mulss  -0x8(%rbp),%xmm0
    3c42:	f3 0f 58 c8          	addss  %xmm0,%xmm1
    3c46:	48 8b 45 10          	mov    0x10(%rbp),%rax
    3c4a:	f3 0f 10 40 04       	movss  0x4(%rax),%xmm0
    3c4f:	f3 0f 59 45 fc       	mulss  -0x4(%rbp),%xmm0
    3c54:	f3 0f 58 c8          	addss  %xmm0,%xmm1
    3c58:	48 8b 45 10          	mov    0x10(%rbp),%rax
    3c5c:	f3 0f 10 00          	movss  (%rax),%xmm0
    3c60:	f3 0f 58 c1          	addss  %xmm1,%xmm0
    3c64:	f3 0f 59 45 f0       	mulss  -0x10(%rbp),%xmm0
    3c69:	48 8b 45 18          	mov    0x18(%rbp),%rax
    3c6d:	f3 0f 11 00          	movss  %xmm0,(%rax)
    3c71:	48 8b 45 10          	mov    0x10(%rbp),%rax
    3c75:	f3 0f 10 48 0c       	movss  0xc(%rax),%xmm1
    3c7a:	f3 0f 10 05 68 00 00 	movss  0x68(%rip),%xmm0        # 3cea <pdsp_3p3z_c2d+0x166>
    3c81:	00 
    3c82:	f3 0f 59 c1          	mulss  %xmm1,%xmm0
    3c86:	f3 0f 59 45 f4       	mulss  -0xc(%rbp),%xmm0
    3c8b:	48 8b 45 10          	mov    0x10(%rbp),%rax
    3c8f:	f3 0f 10 48 08       	movss  0x8(%rax),%xmm1
    3c94:	0f 28 d1             	movaps %xmm1,%xmm2
    3c97:	f3 0f 59 55 f8       	mulss  -0x8(%rbp),%xmm2
    3c9c:	0f 28 c8             	movaps %xmm0,%xmm1
    3c9f:	f3 0f 5c ca          	subss  %xmm2,%xmm1
    3ca3:	48 8b 45 10          	mov    0x10(%rbp),%rax
    3ca7:	f3 0f 10 40 04       	movss  0x4(%rax),%xmm0
    3cac:	f3 0f 59 45 fc       	mulss  -0x4(%rbp),%xmm0
    3cb1:	f3 0f 58 c8          	addss  %xmm0,%xmm1
    3cb5:	48 8b 45 10          	mov    0x10(%rbp),%rax
    3cb9:	f3 0f 10 10          	movss  (%rax),%xmm2
    3cbd:	f3 0f 10 05 60 00 00 	movss  0x60(%rip),%xmm0        # 3d25 <pdsp_3p3z_c2d+0x1a1>
    3cc4:	00 
    3cc5:	f3 0f 59 c2          	mulss  %xmm2,%xmm0
    3cc9:	f3 0f 58 c1          	addss  %xmm1,%xmm0
    3ccd:	f3 0f 59 45 f0       	mulss  -0x10(%rbp),%xmm0
    3cd2:	48 8b 45 18          	mov    0x18(%rbp),%rax
    3cd6:	f3 0f 11 40 04       	movss  %xmm0,0x4(%rax)
    3cdb:	48 8b 45 10          	mov    0x10(%rbp),%rax
    3cdf:	f3 0f 10 48 0c       	movss  0xc(%rax),%xmm1
    3ce4:	f3 0f 10 05 60 00 00 	movss  0x60(%rip),%xmm0        # 3d4c <pdsp_3p3z_c2d+0x1c8>
    3ceb:	00 
    3cec:	f3 0f 59 c1          	mulss  %xmm1,%xmm0
    3cf0:	f3 0f 59 45 f4       	mulss  -0xc(%rbp),%xmm0
    3cf5:	48 8b 45 10          	mov    0x10(%rbp),%rax
    3cf9:	f3 0f 10 48 08       	movss  0x8(%rax),%xmm1
    3cfe:	f3 0f 59 4d f8       	mulss  -0x8(%rbp),%xmm1
    3d03:	f3 0f 5c c1          	subss  %xmm1,%xmm0
    3d07:	48 8b 45 10          	mov    0x10(%rbp),%rax
    3d0b:	f3 0f 10 48 04       	movss  0x4(%rax),%xmm1
    3d10:	0f 28 d1             	movaps %xmm1,%xmm2
    3d13:	f3 0f 59 55 fc       	mulss  -0x4(%rbp),%xmm2
    3d18:	0f 28 c8             	movaps %xmm0,%xmm1
    3d1b:	f3 0f 5c ca          	subss  %xmm2,%xmm1
    3d1f:	48 8b 45 10          	mov    0x10(%rbp),%rax
    3d23:	f3 0f 10 10          	movss  (%rax),%xmm2
    3d27:	f3 0f 10 05 60 00 00 	movss  0x60(%rip),%xmm0        # 3d8f <pdsp_3p3z_c2d+0x20b>
    3d2e:	00 
    3d2f:	f3 0f 59 c2          	mulss  %xmm2,%xmm0
    3d33:	f3 0f 58 c1          	addss  %xmm1,%xmm0
    3d37:	f3 0f 59 45 f0       	mulss  -0x10(%rbp),%xmm0
    3d3c:	48 8b 45 18          	mov    0x18(%rbp),%rax
    3d40:	f3 0f 11 40 08       	movss  %xmm0,0x8(%rax)
    3d45:	48 8b 45 10          	mov    0x10(%rbp),%rax
    3d49:	f3 0f 10 40 0c       	movss  0xc(%rax),%xmm0
    3d4e:	0f 28 c8             	movaps %xmm0,%xmm1
    3d51:	f3 0f 59 4d f4       	mulss  -0xc(%rbp),%xmm1
    3d56:	48 8b 45 10          	mov    0x10(%rbp),%rax
    3d5a:	f3 0f 10 40 08       	movss  0x8(%rax),%xmm0
    3d5f:	f3 0f 59 45 f8       	mulss  -0x8(%rbp),%xmm0
    3d64:	f3 0f 58 c1          	addss  %xmm1,%xmm0
    3d68:	48 8b 45 10          	mov    0x10(%rbp),%rax
    3d6c:	f3 0f 10 48 04       	movss  0x4(%rax),%xmm1
    3d71:	0f 28 d1             	movaps %xmm1,%xmm2
    3d74:	f3 0f 59 55 fc       	mulss  -0x4(%rbp),%xmm2
    3d79:	0f 28 c8             	movaps %xmm0,%xmm1
    3d7c:	f3 0f 5c ca          	subss  %xmm2,%xmm1
    3d80:	48 8b 45 10          	mov    0x10(%rbp),%rax
    3d84:	f3 0f 10 00          	movss  (%rax),%xmm0
    3d88:	f3 0f 58 c1          	addss  %xmm1,%xmm0
    3d8c:	f3 0f 59 45 f0       	mulss  -0x10(%rbp),%xmm0
    3d91:	48 8b 45 18          	mov    0x18(%rbp),%rax
    3d95:	f3 0f 11 40 0c       	movss  %xmm0,0xc(%rax)
    3d9a:	48 8b 45 10          	mov    0x10(%rbp),%rax
    3d9e:	f3 0f 10 48 1c       	movss  0x1c(%rax),%xmm1
    3da3:	f3 0f 10 05 68 00 00 	movss  0x68(%rip),%xmm0        # 3e13 <pdsp_3p3z_c2d+0x28f>
    3daa:	00 
    3dab:	f3 0f 59 c1          	mulss  %xmm1,%xmm0
    3daf:	f3 0f 59 45 f4       	mulss  -0xc(%rbp),%xmm0
    3db4:	48 8b 45 10          	mov    0x10(%rbp),%rax
    3db8:	f3 0f 10 48 18       	movss  0x18(%rax),%xmm1
    3dbd:	0f 28 d1             	movaps %xmm1,%xmm2
    3dc0:	f3 0f 59 55 f8       	mulss  -0x8(%rbp),%xmm2
    3dc5:	0f 28 c8             	movaps %xmm0,%xmm1
    3dc8:	f3 0f 5c ca          	subss  %xmm2,%xmm1
    3dcc:	48 8b 45 10          	mov    0x10(%rbp),%rax
    3dd0:	f3 0f 10 40 14       	movss  0x14(%rax),%xmm0
    3dd5:	f3 0f 59 45 fc       	mulss  -0x4(%rbp),%xmm0
    3dda:	f3 0f 58 c8          	addss  %xmm0,%xmm1
    3dde:	48 8b 45 10          	mov    0x10(%rbp),%rax
    3de2:	f3 0f 10 50 10       	movss  0x10(%rax),%xmm2
    3de7:	f3 0f 10 05 60 00 00 	movss  0x60(%rip),%xmm0        # 3e4f <pdsp_3p3z_c2d+0x2cb>
    3dee:	00 
    3def:	f3 0f 59 c2          	mulss  %xmm2,%xmm0
    3df3:	f3 0f 58 c1          	addss  %xmm1,%xmm0
    3df7:	f3 0f 59 45 f0       	mulss  -0x10(%rbp),%xmm0
    3dfc:	48 8b 45 18          	mov    0x18(%rbp),%rax
    3e00:	f3 0f 11 40 10       	movss  %xmm0,0x10(%rax)
    3e05:	48 8b 45 10          	mov    0x10(%rbp),%rax
    3e09:	f3 0f 10 48 1c       	movss  0x1c(%rax),%xmm1
    3e0e:	f3 0f 10 05 60 00 00 	movss  0x60(%rip),%xmm0        # 3e76 <pdsp_3p3z_c2d+0x2f2>
    3e15:	00 
    3e16:	f3 0f 59 c1          	mulss  %xmm1,%xmm0
    3e1a:	f3 0f 59 45 f4       	mulss  -0xc(%rbp),%xmm0
    3e1f:	48 8b 45 10          	mov    0x10(%rbp),%rax
    3e23:	f3 0f 10 48 18       	movss  0x18(%rax),%xmm1
    3e28:	f3 0f 59 4d f8       	mulss  -0x8(%rbp),%xmm1
    3e2d:	f3 0f 5c c1          	subss  %xmm1,%xmm0
    3e31:	48 8b 45 10          	mov    0x10(%rbp),%rax
    3e35:	f3 0f 10 48 14       	movss  0x14(%rax),%xmm1
    3e3a:	0f 28 d1             	movaps %xmm1,%xmm2
    3e3d:	f3 0f 59 55 fc       	mulss  -0x4(%rbp),%xmm2
    3e42:	0f 28 c8             	movaps %xmm0,%xmm1
    3e45:	f3 0f 5c ca          	subss  %xmm2,%xmm1
    3e49:	48 8b 45 10          	mov    0x10(%rbp),%rax
    3e4d:	f3 0f 10 50 10       	movss  0x10(%rax),%xmm2
    3e52:	f3 0f 10 05 60 00 00 	movss  0x60(%rip),%xmm0        # 3eba <pdsp_3p3z_c2d+0x336>
    3e59:	00 
    3e5a:	f3 0f 59 c2          	mulss  %xmm2,%xmm0
    3e5e:	f3 0f 58 c1          	addss  %xmm1,%xmm0
    3e62:	f3 0f 59 45 f0       	mulss  -0x10(%rbp),%xmm0
    3e67:	48 8b 45 18          	mov    0x18(%rbp),%rax
    3e6b:	f3 0f 11 40 14       	movss  %xmm0,0x14(%rax)
    3e70:	48 8b 45 10          	mov    0x10(%rbp),%rax
    3e74:	f3 0f 10 40 1c       	movss  0x1c(%rax),%xmm0
    3e79:	0f 28 c8             	movaps %xmm0,%xmm1
    3e7c:	f3 0f 59 4d f4       	mulss  -0xc(%rbp),%xmm1
    3e81:	48 8b 45 10          	mov    0x10(%rbp),%rax
    3e85:	f3 0f 10 40 18       	movss  0x18(%rax),%xmm0
    3e8a:	f3 0f 59 45 f8       	mulss  -0x8(%rbp),%xmm0
    3e8f:	f3 0f 58 c1          	addss  %xmm1,%xmm0
    3e93:	48 8b 45 10          	mov    0x10(%rbp),%rax
    3e97:	f3 0f 10 48 14       	movss  0x14(%rax),%xmm1
    3e9c:	0f 28 d1             	movaps %xmm1,%xmm2
    3e9f:	f3 0f 59 55 fc       	mulss  -0x4(%rbp),%xmm2
    3ea4:	0f 28 c8             	movaps %xmm0,%xmm1
    3ea7:	f3 0f 5c ca          	subss  %xmm2,%xmm1
    3eab:	48 8b 45 10          	mov    0x10(%rbp),%rax
    3eaf:	f3 0f 10 40 10       	movss  0x10(%rax),%xmm0
    3eb4:	f3 0f 58 c1          	addss  %xmm1,%xmm0
    3eb8:	f3 0f 59 45 f0       	mulss  -0x10(%rbp),%xmm0
    3ebd:	48 8b 45 18          	mov    0x18(%rbp),%rax
    3ec1:	f3 0f 11 40 18       	movss  %xmm0,0x18(%rax)
    3ec6:	90                   	nop
    3ec7:	48 83 c4 10          	add    $0x10,%rsp
    3ecb:	5d                   	pop    %rbp
    3ecc:	c3                   	ret

0000000000003ecd <pdsp_df21_clear>:
    3ecd:	55                   	push   %rbp
    3ece:	48 89 e5             	mov    %rsp,%rbp
    3ed1:	48 83 ec 20          	sub    $0x20,%rsp
    3ed5:	48 89 4d 10          	mov    %rcx,0x10(%rbp)
    3ed9:	48 83 7d 10 00       	cmpq   $0x0,0x10(%rbp)
    3ede:	75 1f                	jne    3eff <pdsp_df21_clear+0x32>
    3ee0:	41 b8 d4 05 00 00    	mov    $0x5d4,%r8d
    3ee6:	48 8d 05 20 00 00 00 	lea    0x20(%rip),%rax        # 3f0d <pdsp_df21_clear+0x40>
    3eed:	48 89 c2             	mov    %rax,%rdx
    3ef0:	48 8d 05 27 00 00 00 	lea    0x27(%rip),%rax        # 3f1e <pdsp_df21+0xc>
    3ef7:	48 89 c1             	mov    %rax,%rcx
    3efa:	e8 01 c1 ff ff       	call   0 <printf>
    3eff:	48 8b 45 10          	mov    0x10(%rbp),%rax
    3f03:	66 0f ef c0          	pxor   %xmm0,%xmm0
    3f07:	f3 0f 11 00          	movss  %xmm0,(%rax)
    3f0b:	90                   	nop
    3f0c:	48 83 c4 20          	add    $0x20,%rsp
    3f10:	5d                   	pop    %rbp
    3f11:	c3                   	ret

0000000000003f12 <pdsp_df21>:
    3f12:	55                   	push   %rbp
    3f13:	48 89 e5             	mov    %rsp,%rbp
    3f16:	48 83 ec 20          	sub    $0x20,%rsp
    3f1a:	48 89 4d 10          	mov    %rcx,0x10(%rbp)
    3f1e:	48 89 55 18          	mov    %rdx,0x18(%rbp)
    3f22:	f3 0f 11 55 20       	movss  %xmm2,0x20(%rbp)
    3f27:	48 83 7d 10 00       	cmpq   $0x0,0x10(%rbp)
    3f2c:	74 07                	je     3f35 <pdsp_df21+0x23>
    3f2e:	48 83 7d 18 00       	cmpq   $0x0,0x18(%rbp)
    3f33:	75 1f                	jne    3f54 <pdsp_df21+0x42>
    3f35:	41 b8 db 05 00 00    	mov    $0x5db,%r8d
    3f3b:	48 8d 05 20 00 00 00 	lea    0x20(%rip),%rax        # 3f62 <pdsp_df21+0x50>
    3f42:	48 89 c2             	mov    %rax,%rdx
    3f45:	48 8d 05 27 00 00 00 	lea    0x27(%rip),%rax        # 3f73 <pdsp_df21+0x61>
    3f4c:	48 89 c1             	mov    %rax,%rcx
    3f4f:	e8 ac c0 ff ff       	call   0 <printf>
    3f54:	48 8b 45 10          	mov    0x10(%rbp),%rax
    3f58:	f3 0f 10 00          	movss  (%rax),%xmm0
    3f5c:	0f 28 c8             	movaps %xmm0,%xmm1
    3f5f:	f3 0f 59 4d 20       	mulss  0x20(%rbp),%xmm1
    3f64:	48 8b 45 18          	mov    0x18(%rbp),%rax
    3f68:	f3 0f 10 00          	movss  (%rax),%xmm0
    3f6c:	f3 0f 58 c1          	addss  %xmm1,%xmm0
    3f70:	48 8b 45 18          	mov    0x18(%rbp),%rax
    3f74:	f3 0f 11 40 04       	movss  %xmm0,0x4(%rax)
    3f79:	48 8b 45 10          	mov    0x10(%rbp),%rax
    3f7d:	f3 0f 10 40 04       	movss  0x4(%rax),%xmm0
    3f82:	0f 28 c8             	movaps %xmm0,%xmm1
    3f85:	f3 0f 59 4d 20       	mulss  0x20(%rbp),%xmm1
    3f8a:	48 8b 45 18          	mov    0x18(%rbp),%rax
    3f8e:	f3 0f 10 50 04       	movss  0x4(%rax),%xmm2
    3f93:	48 8b 45 10          	mov    0x10(%rbp),%rax
    3f97:	f3 0f 10 40 08       	movss  0x8(%rax),%xmm0
    3f9c:	f3 0f 59 c2          	mulss  %xmm2,%xmm0
    3fa0:	f3 0f 58 c1          	addss  %xmm1,%xmm0
    3fa4:	48 8b 45 18          	mov    0x18(%rbp),%rax
    3fa8:	f3 0f 11 00          	movss  %xmm0,(%rax)
    3fac:	48 8b 45 18          	mov    0x18(%rbp),%rax
    3fb0:	f3 0f 10 40 04       	movss  0x4(%rax),%xmm0
    3fb5:	48 83 c4 20          	add    $0x20,%rsp
    3fb9:	5d                   	pop    %rbp
    3fba:	c3                   	ret

0000000000003fbb <pdsp_df21_pre>:
    3fbb:	55                   	push   %rbp
    3fbc:	48 89 e5             	mov    %rsp,%rbp
    3fbf:	48 83 ec 20          	sub    $0x20,%rsp
    3fc3:	48 89 4d 10          	mov    %rcx,0x10(%rbp)
    3fc7:	48 89 55 18          	mov    %rdx,0x18(%rbp)
    3fcb:	f3 0f 11 55 20       	movss  %xmm2,0x20(%rbp)
    3fd0:	48 83 7d 10 00       	cmpq   $0x0,0x10(%rbp)
    3fd5:	74 07                	je     3fde <pdsp_df21_pre+0x23>
    3fd7:	48 83 7d 18 00       	cmpq   $0x0,0x18(%rbp)
    3fdc:	75 1f                	jne    3ffd <pdsp_df21_pre+0x42>
    3fde:	41 b8 e5 05 00 00    	mov    $0x5e5,%r8d
    3fe4:	48 8d 05 20 00 00 00 	lea    0x20(%rip),%rax        # 400b <pdsp_df21_pre+0x50>
    3feb:	48 89 c2             	mov    %rax,%rdx
    3fee:	48 8d 05 27 00 00 00 	lea    0x27(%rip),%rax        # 401c <pdsp_df21_pre+0x61>
    3ff5:	48 89 c1             	mov    %rax,%rcx
    3ff8:	e8 03 c0 ff ff       	call   0 <printf>
    3ffd:	48 8b 45 10          	mov    0x10(%rbp),%rax
    4001:	f3 0f 10 00          	movss  (%rax),%xmm0
    4005:	0f 28 c8             	movaps %xmm0,%xmm1
    4008:	f3 0f 59 4d 20       	mulss  0x20(%rbp),%xmm1
    400d:	48 8b 45 18          	mov    0x18(%rbp),%rax
    4011:	f3 0f 10 00          	movss  (%rax),%xmm0
    4015:	f3 0f 58 c1          	addss  %xmm1,%xmm0
    4019:	48 8b 45 18          	mov    0x18(%rbp),%rax
    401d:	f3 0f 11 40 04       	movss  %xmm0,0x4(%rax)
    4022:	48 8b 45 18          	mov    0x18(%rbp),%rax
    4026:	f3 0f 10 40 04       	movss  0x4(%rax),%xmm0
    402b:	48 83 c4 20          	add    $0x20,%rsp
    402f:	5d                   	pop    %rbp
    4030:	c3                   	ret

0000000000004031 <pdsp_df21_post>:
    4031:	55                   	push   %rbp
    4032:	48 89 e5             	mov    %rsp,%rbp
    4035:	48 83 ec 20          	sub    $0x20,%rsp
    4039:	48 89 4d 10          	mov    %rcx,0x10(%rbp)
    403d:	48 89 55 18          	mov    %rdx,0x18(%rbp)
    4041:	f3 0f 11 55 20       	movss  %xmm2,0x20(%rbp)
    4046:	48 83 7d 10 00       	cmpq   $0x0,0x10(%rbp)
    404b:	74 07                	je     4054 <pdsp_df21_post+0x23>
    404d:	48 83 7d 18 00       	cmpq   $0x0,0x18(%rbp)
    4052:	75 1f                	jne    4073 <pdsp_df21_post+0x42>
    4054:	41 b8 ed 05 00 00    	mov    $0x5ed,%r8d
    405a:	48 8d 05 20 00 00 00 	lea    0x20(%rip),%rax        # 4081 <pdsp_df21_post+0x50>
    4061:	48 89 c2             	mov    %rax,%rdx
    4064:	48 8d 05 27 00 00 00 	lea    0x27(%rip),%rax        # 4092 <pdsp_df21_post+0x61>
    406b:	48 89 c1             	mov    %rax,%rcx
    406e:	e8 8d bf ff ff       	call   0 <printf>
    4073:	48 8b 45 10          	mov    0x10(%rbp),%rax
    4077:	f3 0f 10 40 04       	movss  0x4(%rax),%xmm0
    407c:	0f 28 c8             	movaps %xmm0,%xmm1
    407f:	f3 0f 59 4d 20       	mulss  0x20(%rbp),%xmm1
    4084:	48 8b 45 18          	mov    0x18(%rbp),%rax
    4088:	f3 0f 10 50 04       	movss  0x4(%rax),%xmm2
    408d:	48 8b 45 10          	mov    0x10(%rbp),%rax
    4091:	f3 0f 10 40 08       	movss  0x8(%rax),%xmm0
    4096:	f3 0f 59 c2          	mulss  %xmm2,%xmm0
    409a:	f3 0f 58 c1          	addss  %xmm1,%xmm0
    409e:	48 8b 45 18          	mov    0x18(%rbp),%rax
    40a2:	f3 0f 11 00          	movss  %xmm0,(%rax)
    40a6:	90                   	nop
    40a7:	48 83 c4 20          	add    $0x20,%rsp
    40ab:	5d                   	pop    %rbp
    40ac:	c3                   	ret

00000000000040ad <pdsp_df22_clear>:
    40ad:	55                   	push   %rbp
    40ae:	48 89 e5             	mov    %rsp,%rbp
    40b1:	48 83 ec 20          	sub    $0x20,%rsp
    40b5:	48 89 4d 10          	mov    %rcx,0x10(%rbp)
    40b9:	48 83 7d 10 00       	cmpq   $0x0,0x10(%rbp)
    40be:	75 1f                	jne    40df <pdsp_df22_clear+0x32>
    40c0:	41 b8 f4 05 00 00    	mov    $0x5f4,%r8d
    40c6:	48 8d 05 20 00 00 00 	lea    0x20(%rip),%rax        # 40ed <pdsp_df22_clear+0x40>
    40cd:	48 89 c2             	mov    %rax,%rdx
    40d0:	48 8d 05 27 00 00 00 	lea    0x27(%rip),%rax        # 40fe <pdsp_df22_clear+0x51>
    40d7:	48 89 c1             	mov    %rax,%rcx
    40da:	e8 21 bf ff ff       	call   0 <printf>
    40df:	48 8b 45 10          	mov    0x10(%rbp),%rax
    40e3:	66 0f ef c0          	pxor   %xmm0,%xmm0
    40e7:	f3 0f 11 00          	movss  %xmm0,(%rax)
    40eb:	48 8b 45 10          	mov    0x10(%rbp),%rax
    40ef:	66 0f ef c0          	pxor   %xmm0,%xmm0
    40f3:	f3 0f 11 40 04       	movss  %xmm0,0x4(%rax)
    40f8:	90                   	nop
    40f9:	48 83 c4 20          	add    $0x20,%rsp
    40fd:	5d                   	pop    %rbp
    40fe:	c3                   	ret

00000000000040ff <pdsp_df22>:
    40ff:	55                   	push   %rbp
    4100:	48 89 e5             	mov    %rsp,%rbp
    4103:	48 83 ec 20          	sub    $0x20,%rsp
    4107:	48 89 4d 10          	mov    %rcx,0x10(%rbp)
    410b:	48 89 55 18          	mov    %rdx,0x18(%rbp)
    410f:	f3 0f 11 55 20       	movss  %xmm2,0x20(%rbp)
    4114:	48 83 7d 10 00       	cmpq   $0x0,0x10(%rbp)
    4119:	74 07                	je     4122 <pdsp_df22+0x23>
    411b:	48 83 7d 18 00       	cmpq   $0x0,0x18(%rbp)
    4120:	75 1f                	jne    4141 <pdsp_df22+0x42>
    4122:	41 b8 fc 05 00 00    	mov    $0x5fc,%r8d
    4128:	48 8d 05 20 00 00 00 	lea    0x20(%rip),%rax        # 414f <pdsp_df22+0x50>
    412f:	48 89 c2             	mov    %rax,%rdx
    4132:	48 8d 05 27 00 00 00 	lea    0x27(%rip),%rax        # 4160 <pdsp_df22+0x61>
    4139:	48 89 c1             	mov    %rax,%rcx
    413c:	e8 bf be ff ff       	call   0 <printf>
    4141:	48 8b 45 10          	mov    0x10(%rbp),%rax
    4145:	f3 0f 10 00          	movss  (%rax),%xmm0
    4149:	0f 28 c8             	movaps %xmm0,%xmm1
    414c:	f3 0f 59 4d 20       	mulss  0x20(%rbp),%xmm1
    4151:	48 8b 45 18          	mov    0x18(%rbp),%rax
    4155:	f3 0f 10 00          	movss  (%rax),%xmm0
    4159:	f3 0f 58 c1          	addss  %xmm1,%xmm0
    415d:	48 8b 45 18          	mov    0x18(%rbp),%rax
    4161:	f3 0f 11 40 08       	movss  %xmm0,0x8(%rax)
    4166:	48 8b 45 10          	mov    0x10(%rbp),%rax
    416a:	f3 0f 10 40 04       	movss  0x4(%rax),%xmm0
    416f:	0f 28 c8             	movaps %xmm0,%xmm1
    4172:	f3 0f 59 4d 20       	mulss  0x20(%rbp),%xmm1
    4177:	48 8b 45 18          	mov    0x18(%rbp),%rax
    417b:	f3 0f 10 50 08       	movss  0x8(%rax),%xmm2
    4180:	48 8b 45 10          	mov    0x10(%rbp),%rax
    4184:	f3 0f 10 40 0c       	movss  0xc(%rax),%xmm0
    4189:	f3 0f 59 c2          	mulss  %xmm2,%xmm0
    418d:	f3 0f 58 c8          	addss  %xmm0,%xmm1
    4191:	48 8b 45 18          	mov    0x18(%rbp),%rax
    4195:	f3 0f 10 40 04       	movss  0x4(%rax),%xmm0
    419a:	f3 0f 58 c1          	addss  %xmm1,%xmm0
    419e:	48 8b 45 18          	mov    0x18(%rbp),%rax
    41a2:	f3 0f 11 00          	movss  %xmm0,(%rax)
    41a6:	48 8b 45 10          	mov    0x10(%rbp),%rax
    41aa:	f3 0f 10 40 08       	movss  0x8(%rax),%xmm0
    41af:	0f 28 c8             	movaps %xmm0,%xmm1
    41b2:	f3 0f 59 4d 20       	mulss  0x20(%rbp),%xmm1
    41b7:	48 8b 45 18          	mov    0x18(%rbp),%rax
    41bb:	f3 0f 10 50 08       	movss  0x8(%rax),%xmm2
    41c0:	48 8b 45 10          	mov    0x10(%rbp),%rax
    41c4:	f3 0f 10 40 10       	movss  0x10(%rax),%xmm0
    41c9:	f3 0f 59 c2          	mulss  %xmm2,%xmm0
    41cd:	f3 0f 58 c1          	addss  %xmm1,%xmm0
    41d1:	48 8b 45 18          	mov    0x18(%rbp),%rax
    41d5:	f3 0f 11 40 04       	movss  %xmm0,0x4(%rax)
    41da:	48 8b 45 18          	mov    0x18(%rbp),%rax
    41de:	f3 0f 10 40 08       	movss  0x8(%rax),%xmm0
    41e3:	48 83 c4 20          	add    $0x20,%rsp
    41e7:	5d                   	pop    %rbp
    41e8:	c3                   	ret

00000000000041e9 <pdsp_df22_pre>:
    41e9:	55                   	push   %rbp
    41ea:	48 89 e5             	mov    %rsp,%rbp
    41ed:	48 83 ec 20          	sub    $0x20,%rsp
    41f1:	48 89 4d 10          	mov    %rcx,0x10(%rbp)
    41f5:	48 89 55 18          	mov    %rdx,0x18(%rbp)
    41f9:	f3 0f 11 55 20       	movss  %xmm2,0x20(%rbp)
    41fe:	48 83 7d 10 00       	cmpq   $0x0,0x10(%rbp)
    4203:	74 07                	je     420c <pdsp_df22_pre+0x23>
    4205:	48 83 7d 18 00       	cmpq   $0x0,0x18(%rbp)
    420a:	75 1f                	jne    422b <pdsp_df22_pre+0x42>
    420c:	41 b8 08 06 00 00    	mov    $0x608,%r8d
    4212:	48 8d 05 20 00 00 00 	lea    0x20(%rip),%rax        # 4239 <pdsp_df22_pre+0x50>
    4219:	48 89 c2             	mov    %rax,%rdx
    421c:	48 8d 05 27 00 00 00 	lea    0x27(%rip),%rax        # 424a <pdsp_df22_pre+0x61>
    4223:	48 89 c1             	mov    %rax,%rcx
    4226:	e8 d5 bd ff ff       	call   0 <printf>
    422b:	48 8b 45 10          	mov    0x10(%rbp),%rax
    422f:	f3 0f 10 00          	movss  (%rax),%xmm0
    4233:	0f 28 c8             	movaps %xmm0,%xmm1
    4236:	f3 0f 59 4d 20       	mulss  0x20(%rbp),%xmm1
    423b:	48 8b 45 18          	mov    0x18(%rbp),%rax
    423f:	f3 0f 10 00          	movss  (%rax),%xmm0
    4243:	f3 0f 58 c1          	addss  %xmm1,%xmm0
    4247:	48 8b 45 18          	mov    0x18(%rbp),%rax
    424b:	f3 0f 11 40 08       	movss  %xmm0,0x8(%rax)
    4250:	48 8b 45 18          	mov    0x18(%rbp),%rax
    4254:	f3 0f 10 40 08       	movss  0x8(%rax),%xmm0
    4259:	48 83 c4 20          	add    $0x20,%rsp
    425d:	5d                   	pop    %rbp
    425e:	c3                   	ret

000000000000425f <pdsp_df22_post>:
    425f:	55                   	push   %rbp
    4260:	48 89 e5             	mov    %rsp,%rbp
    4263:	48 83 ec 20          	sub    $0x20,%rsp
    4267:	48 89 4d 10          	mov    %rcx,0x10(%rbp)
    426b:	48 89 55 18          	mov    %rdx,0x18(%rbp)
    426f:	f3 0f 11 55 20       	movss  %xmm2,0x20(%rbp)
    4274:	48 83 7d 10 00       	cmpq   $0x0,0x10(%rbp)
    4279:	74 07                	je     4282 <pdsp_df22_post+0x23>
    427b:	48 83 7d 18 00       	cmpq   $0x0,0x18(%rbp)
    4280:	75 1f                	jne    42a1 <pdsp_df22_post+0x42>
    4282:	41 b8 10 06 00 00    	mov    $0x610,%r8d
    4288:	48 8d 05 20 00 00 00 	lea    0x20(%rip),%rax        # 42af <pdsp_df22_post+0x50>
    428f:	48 89 c2             	mov    %rax,%rdx
    4292:	48 8d 05 27 00 00 00 	lea    0x27(%rip),%rax        # 42c0 <pdsp_df22_post+0x61>
    4299:	48 89 c1             	mov    %rax,%rcx
    429c:	e8 5f bd ff ff       	call   0 <printf>
    42a1:	48 8b 45 10          	mov    0x10(%rbp),%rax
    42a5:	f3 0f 10 40 04       	movss  0x4(%rax),%xmm0
    42aa:	0f 28 c8             	movaps %xmm0,%xmm1
    42ad:	f3 0f 59 4d 20       	mulss  0x20(%rbp),%xmm1
    42b2:	48 8b 45 18          	mov    0x18(%rbp),%rax
    42b6:	f3 0f 10 50 08       	movss  0x8(%rax),%xmm2
    42bb:	48 8b 45 10          	mov    0x10(%rbp),%rax
    42bf:	f3 0f 10 40 0c       	movss  0xc(%rax),%xmm0
    42c4:	f3 0f 59 c2          	mulss  %xmm2,%xmm0
    42c8:	f3 0f 58 c8          	addss  %xmm0,%xmm1
    42cc:	48 8b 45 18          	mov    0x18(%rbp),%rax
    42d0:	f3 0f 10 40 04       	movss  0x4(%rax),%xmm0
    42d5:	f3 0f 58 c1          	addss  %xmm1,%xmm0
    42d9:	48 8b 45 18          	mov    0x18(%rbp),%rax
    42dd:	f3 0f 11 00          	movss  %xmm0,(%rax)
    42e1:	48 8b 45 10          	mov    0x10(%rbp),%rax
    42e5:	f3 0f 10 40 08       	movss  0x8(%rax),%xmm0
    42ea:	0f 28 c8             	movaps %xmm0,%xmm1
    42ed:	f3 0f 59 4d 20       	mulss  0x20(%rbp),%xmm1
    42f2:	48 8b 45 18          	mov    0x18(%rbp),%rax
    42f6:	f3 0f 10 50 08       	movss  0x8(%rax),%xmm2
    42fb:	48 8b 45 10          	mov    0x10(%rbp),%rax
    42ff:	f3 0f 10 40 10       	movss  0x10(%rax),%xmm0
    4304:	f3 0f 59 c2          	mulss  %xmm2,%xmm0
    4308:	f3 0f 58 c1          	addss  %xmm1,%xmm0
    430c:	48 8b 45 18          	mov    0x18(%rbp),%rax
    4310:	f3 0f 11 40 04       	movss  %xmm0,0x4(%rax)
    4315:	90                   	nop
    4316:	48 83 c4 20          	add    $0x20,%rsp
    431a:	5d                   	pop    %rbp
    431b:	c3                   	ret

000000000000431c <pdsp_df23_clear>:
    431c:	55                   	push   %rbp
    431d:	48 89 e5             	mov    %rsp,%rbp
    4320:	48 83 ec 20          	sub    $0x20,%rsp
    4324:	48 89 4d 10          	mov    %rcx,0x10(%rbp)
    4328:	48 83 7d 10 00       	cmpq   $0x0,0x10(%rbp)
    432d:	75 1f                	jne    434e <pdsp_df23_clear+0x32>
    432f:	41 b8 19 06 00 00    	mov    $0x619,%r8d
    4335:	48 8d 05 20 00 00 00 	lea    0x20(%rip),%rax        # 435c <pdsp_df23_clear+0x40>
    433c:	48 89 c2             	mov    %rax,%rdx
    433f:	48 8d 05 27 00 00 00 	lea    0x27(%rip),%rax        # 436d <pdsp_df23_clear+0x51>
    4346:	48 89 c1             	mov    %rax,%rcx
    4349:	e8 b2 bc ff ff       	call   0 <printf>
    434e:	48 8b 45 10          	mov    0x10(%rbp),%rax
    4352:	66 0f ef c0          	pxor   %xmm0,%xmm0
    4356:	f3 0f 11 00          	movss  %xmm0,(%rax)
    435a:	48 8b 45 10          	mov    0x10(%rbp),%rax
    435e:	66 0f ef c0          	pxor   %xmm0,%xmm0
    4362:	f3 0f 11 40 04       	movss  %xmm0,0x4(%rax)
    4367:	48 8b 45 10          	mov    0x10(%rbp),%rax
    436b:	66 0f ef c0          	pxor   %xmm0,%xmm0
    436f:	f3 0f 11 40 08       	movss  %xmm0,0x8(%rax)
    4374:	90                   	nop
    4375:	48 83 c4 20          	add    $0x20,%rsp
    4379:	5d                   	pop    %rbp
    437a:	c3                   	ret

000000000000437b <pdsp_df23>:
    437b:	55                   	push   %rbp
    437c:	48 89 e5             	mov    %rsp,%rbp
    437f:	48 83 ec 20          	sub    $0x20,%rsp
    4383:	48 89 4d 10          	mov    %rcx,0x10(%rbp)
    4387:	48 89 55 18          	mov    %rdx,0x18(%rbp)
    438b:	f3 0f 11 55 20       	movss  %xmm2,0x20(%rbp)
    4390:	48 83 7d 10 00       	cmpq   $0x0,0x10(%rbp)
    4395:	74 07                	je     439e <pdsp_df23+0x23>
    4397:	48 83 7d 18 00       	cmpq   $0x0,0x18(%rbp)
    439c:	75 1f                	jne    43bd <pdsp_df23+0x42>
    439e:	41 b8 22 06 00 00    	mov    $0x622,%r8d
    43a4:	48 8d 05 20 00 00 00 	lea    0x20(%rip),%rax        # 43cb <pdsp_df23+0x50>
    43ab:	48 89 c2             	mov    %rax,%rdx
    43ae:	48 8d 05 27 00 00 00 	lea    0x27(%rip),%rax        # 43dc <pdsp_df23+0x61>
    43b5:	48 89 c1             	mov    %rax,%rcx
    43b8:	e8 43 bc ff ff       	call   0 <printf>
    43bd:	48 8b 45 10          	mov    0x10(%rbp),%rax
    43c1:	f3 0f 10 00          	movss  (%rax),%xmm0
    43c5:	0f 28 c8             	movaps %xmm0,%xmm1
    43c8:	f3 0f 59 4d 20       	mulss  0x20(%rbp),%xmm1
    43cd:	48 8b 45 18          	mov    0x18(%rbp),%rax
    43d1:	f3 0f 10 00          	movss  (%rax),%xmm0
    43d5:	f3 0f 58 c1          	addss  %xmm1,%xmm0
    43d9:	48 8b 45 18          	mov    0x18(%rbp),%rax
    43dd:	f3 0f 11 40 0c       	movss  %xmm0,0xc(%rax)
    43e2:	48 8b 45 10          	mov    0x10(%rbp),%rax
    43e6:	f3 0f 10 40 04       	movss  0x4(%rax),%xmm0
    43eb:	0f 28 c8             	movaps %xmm0,%xmm1
    43ee:	f3 0f 59 4d 20       	mulss  0x20(%rbp),%xmm1
    43f3:	48 8b 45 18          	mov    0x18(%rbp),%rax
    43f7:	f3 0f 10 50 0c       	movss  0xc(%rax),%xmm2
    43fc:	48 8b 45 10          	mov    0x10(%rbp),%rax
    4400:	f3 0f 10 40 10       	movss  0x10(%rax),%xmm0
    4405:	f3 0f 59 c2          	mulss  %xmm2,%xmm0
    4409:	f3 0f 58 c8          	addss  %xmm0,%xmm1
    440d:	48 8b 45 18          	mov    0x18(%rbp),%rax
    4411:	f3 0f 10 40 04       	movss  0x4(%rax),%xmm0
    4416:	f3 0f 58 c1          	addss  %xmm1,%xmm0
    441a:	48 8b 45 18          	mov    0x18(%rbp),%rax
    441e:	f3 0f 11 00          	movss  %xmm0,(%rax)
    4422:	48 8b 45 10          	mov    0x10(%rbp),%rax
    4426:	f3 0f 10 40 08       	movss  0x8(%rax),%xmm0
    442b:	0f 28 c8             	movaps %xmm0,%xmm1
    442e:	f3 0f 59 4d 20       	mulss  0x20(%rbp),%xmm1
    4433:	48 8b 45 18          	mov    0x18(%rbp),%rax
    4437:	f3 0f 10 50 0c       	movss  0xc(%rax),%xmm2
    443c:	48 8b 45 10          	mov    0x10(%rbp),%rax
    4440:	f3 0f 10 40 14       	movss  0x14(%rax),%xmm0
    4445:	f3 0f 59 c2          	mulss  %xmm2,%xmm0
    4449:	f3 0f 58 c8          	addss  %xmm0,%xmm1
    444d:	48 8b 45 18          	mov    0x18(%rbp),%rax
    4451:	f3 0f 10 40 08       	movss  0x8(%rax),%xmm0
    4456:	f3 0f 58 c1          	addss  %xmm1,%xmm0
    445a:	48 8b 45 18          	mov    0x18(%rbp),%rax
    445e:	f3 0f 11 40 04       	movss  %xmm0,0x4(%rax)
    4463:	48 8b 45 10          	mov    0x10(%rbp),%rax
    4467:	f3 0f 10 40 0c       	movss  0xc(%rax),%xmm0
    446c:	0f 28 c8             	movaps %xmm0,%xmm1
    446f:	f3 0f 59 4d 20       	mulss  0x20(%rbp),%xmm1
    4474:	48 8b 45 18          	mov    0x18(%rbp),%rax
    4478:	f3 0f 10 50 0c       	movss  0xc(%rax),%xmm2
    447d:	48 8b 45 10          	mov    0x10(%rbp),%rax
    4481:	f3 0f 10 40 18       	movss  0x18(%rax),%xmm0
    4486:	f3 0f 59 c2          	mulss  %xmm2,%xmm0
    448a:	f3 0f 58 c1          	addss  %xmm1,%xmm0
    448e:	48 8b 45 18          	mov    0x18(%rbp),%rax
    4492:	f3 0f 11 40 08       	movss  %xmm0,0x8(%rax)
    4497:	48 8b 45 18          	mov    0x18(%rbp),%rax
    449b:	f3 0f 10 40 0c       	movss  0xc(%rax),%xmm0
    44a0:	48 83 c4 20          	add    $0x20,%rsp
    44a4:	5d                   	pop    %rbp
    44a5:	c3                   	ret

00000000000044a6 <pdsp_df23_pre>:
    44a6:	55                   	push   %rbp
    44a7:	48 89 e5             	mov    %rsp,%rbp
    44aa:	48 83 ec 20          	sub    $0x20,%rsp
    44ae:	48 89 4d 10          	mov    %rcx,0x10(%rbp)
    44b2:	48 89 55 18          	mov    %rdx,0x18(%rbp)
    44b6:	f3 0f 11 55 20       	movss  %xmm2,0x20(%rbp)
    44bb:	48 83 7d 10 00       	cmpq   $0x0,0x10(%rbp)
    44c0:	74 07                	je     44c9 <pdsp_df23_pre+0x23>
    44c2:	48 83 7d 18 00       	cmpq   $0x0,0x18(%rbp)
    44c7:	75 1f                	jne    44e8 <pdsp_df23_pre+0x42>
    44c9:	41 b8 30 06 00 00    	mov    $0x630,%r8d
    44cf:	48 8d 05 20 00 00 00 	lea    0x20(%rip),%rax        # 44f6 <pdsp_df23_pre+0x50>
    44d6:	48 89 c2             	mov    %rax,%rdx
    44d9:	48 8d 05 27 00 00 00 	lea    0x27(%rip),%rax        # 4507 <pdsp_df23_pre+0x61>
    44e0:	48 89 c1             	mov    %rax,%rcx
    44e3:	e8 18 bb ff ff       	call   0 <printf>
    44e8:	48 8b 45 10          	mov    0x10(%rbp),%rax
    44ec:	f3 0f 10 00          	movss  (%rax),%xmm0
    44f0:	0f 28 c8             	movaps %xmm0,%xmm1
    44f3:	f3 0f 59 4d 20       	mulss  0x20(%rbp),%xmm1
    44f8:	48 8b 45 18          	mov    0x18(%rbp),%rax
    44fc:	f3 0f 10 00          	movss  (%rax),%xmm0
    4500:	f3 0f 58 c1          	addss  %xmm1,%xmm0
    4504:	48 8b 45 18          	mov    0x18(%rbp),%rax
    4508:	f3 0f 11 40 0c       	movss  %xmm0,0xc(%rax)
    450d:	48 8b 45 18          	mov    0x18(%rbp),%rax
    4511:	f3 0f 10 40 0c       	movss  0xc(%rax),%xmm0
    4516:	48 83 c4 20          	add    $0x20,%rsp
    451a:	5d                   	pop    %rbp
    451b:	c3                   	ret

000000000000451c <pdsp_df23_post>:
    451c:	55                   	push   %rbp
    451d:	48 89 e5             	mov    %rsp,%rbp
    4520:	48 83 ec 20          	sub    $0x20,%rsp
    4524:	48 89 4d 10          	mov    %rcx,0x10(%rbp)
    4528:	48 89 55 18          	mov    %rdx,0x18(%rbp)
    452c:	f3 0f 11 55 20       	movss  %xmm2,0x20(%rbp)
    4531:	48 83 7d 10 00       	cmpq   $0x0,0x10(%rbp)
    4536:	74 07                	je     453f <pdsp_df23_post+0x23>
    4538:	48 83 7d 18 00       	cmpq   $0x0,0x18(%rbp)
    453d:	75 1f                	jne    455e <pdsp_df23_post+0x42>
    453f:	41 b8 38 06 00 00    	mov    $0x638,%r8d
    4545:	48 8d 05 20 00 00 00 	lea    0x20(%rip),%rax        # 456c <pdsp_df23_post+0x50>
    454c:	48 89 c2             	mov    %rax,%rdx
    454f:	48 8d 05 27 00 00 00 	lea    0x27(%rip),%rax        # 457d <pdsp_df23_post+0x61>
    4556:	48 89 c1             	mov    %rax,%rcx
    4559:	e8 a2 ba ff ff       	call   0 <printf>
    455e:	48 8b 45 10          	mov    0x10(%rbp),%rax
    4562:	f3 0f 10 40 04       	movss  0x4(%rax),%xmm0
    4567:	0f 28 c8             	movaps %xmm0,%xmm1
    456a:	f3 0f 59 4d 20       	mulss  0x20(%rbp),%xmm1
    456f:	48 8b 45 18          	mov    0x18(%rbp),%rax
    4573:	f3 0f 10 50 0c       	movss  0xc(%rax),%xmm2
    4578:	48 8b 45 10          	mov    0x10(%rbp),%rax
    457c:	f3 0f 10 40 10       	movss  0x10(%rax),%xmm0
    4581:	f3 0f 59 c2          	mulss  %xmm2,%xmm0
    4585:	f3 0f 58 c8          	addss  %xmm0,%xmm1
    4589:	48 8b 45 18          	mov    0x18(%rbp),%rax
    458d:	f3 0f 10 40 04       	movss  0x4(%rax),%xmm0
    4592:	f3 0f 58 c1          	addss  %xmm1,%xmm0
    4596:	48 8b 45 18          	mov    0x18(%rbp),%rax
    459a:	f3 0f 11 00          	movss  %xmm0,(%rax)
    459e:	48 8b 45 10          	mov    0x10(%rbp),%rax
    45a2:	f3 0f 10 40 08       	movss  0x8(%rax),%xmm0
    45a7:	0f 28 c8             	movaps %xmm0,%xmm1
    45aa:	f3 0f 59 4d 20       	mulss  0x20(%rbp),%xmm1
    45af:	48 8b 45 18          	mov    0x18(%rbp),%rax
    45b3:	f3 0f 10 50 0c       	movss  0xc(%rax),%xmm2
    45b8:	48 8b 45 10          	mov    0x10(%rbp),%rax
    45bc:	f3 0f 10 40 14       	movss  0x14(%rax),%xmm0
    45c1:	f3 0f 59 c2          	mulss  %xmm2,%xmm0
    45c5:	f3 0f 58 c8          	addss  %xmm0,%xmm1
    45c9:	48 8b 45 18          	mov    0x18(%rbp),%rax
    45cd:	f3 0f 10 40 08       	movss  0x8(%rax),%xmm0
    45d2:	f3 0f 58 c1          	addss  %xmm1,%xmm0
    45d6:	48 8b 45 18          	mov    0x18(%rbp),%rax
    45da:	f3 0f 11 40 04       	movss  %xmm0,0x4(%rax)
    45df:	48 8b 45 10          	mov    0x10(%rbp),%rax
    45e3:	f3 0f 10 40 0c       	movss  0xc(%rax),%xmm0
    45e8:	0f 28 c8             	movaps %xmm0,%xmm1
    45eb:	f3 0f 59 4d 20       	mulss  0x20(%rbp),%xmm1
    45f0:	48 8b 45 18          	mov    0x18(%rbp),%rax
    45f4:	f3 0f 10 50 0c       	movss  0xc(%rax),%xmm2
    45f9:	48 8b 45 10          	mov    0x10(%rbp),%rax
    45fd:	f3 0f 10 40 18       	movss  0x18(%rax),%xmm0
    4602:	f3 0f 59 c2          	mulss  %xmm2,%xmm0
    4606:	f3 0f 58 c1          	addss  %xmm1,%xmm0
    460a:	48 8b 45 18          	mov    0x18(%rbp),%rax
    460e:	f3 0f 11 40 08       	movss  %xmm0,0x8(%rax)
    4613:	90                   	nop
    4614:	48 83 c4 20          	add    $0x20,%rsp
    4618:	5d                   	pop    %rbp
    4619:	c3                   	ret

000000000000461a <pdsp_med3_clear>:
    461a:	55                   	push   %rbp
    461b:	48 89 e5             	mov    %rsp,%rbp
    461e:	48 83 ec 20          	sub    $0x20,%rsp
    4622:	48 89 4d 10          	mov    %rcx,0x10(%rbp)
    4626:	48 83 7d 10 00       	cmpq   $0x0,0x10(%rbp)
    462b:	75 1f                	jne    464c <pdsp_med3_clear+0x32>
    462d:	41 b8 43 06 00 00    	mov    $0x643,%r8d
    4633:	48 8d 05 20 00 00 00 	lea    0x20(%rip),%rax        # 465a <pdsp_med3_clear+0x40>
    463a:	48 89 c2             	mov    %rax,%rdx
    463d:	48 8d 05 27 00 00 00 	lea    0x27(%rip),%rax        # 466b <pdsp_med3_clear+0x51>
    4644:	48 89 c1             	mov    %rax,%rcx
    4647:	e8 b4 b9 ff ff       	call   0 <printf>
    464c:	48 8b 45 10          	mov    0x10(%rbp),%rax
    4650:	66 0f ef c0          	pxor   %xmm0,%xmm0
    4654:	f3 0f 11 00          	movss  %xmm0,(%rax)
    4658:	48 8b 45 10          	mov    0x10(%rbp),%rax
    465c:	66 0f ef c0          	pxor   %xmm0,%xmm0
    4660:	f3 0f 11 40 04       	movss  %xmm0,0x4(%rax)
    4665:	90                   	nop
    4666:	48 83 c4 20          	add    $0x20,%rsp
    466a:	5d                   	pop    %rbp
    466b:	c3                   	ret

000000000000466c <pdsp_med3>:
    466c:	55                   	push   %rbp
    466d:	53                   	push   %rbx
    466e:	48 83 ec 28          	sub    $0x28,%rsp
    4672:	48 8d 6c 24 20       	lea    0x20(%rsp),%rbp
    4677:	48 89 4d 20          	mov    %rcx,0x20(%rbp)
    467b:	f3 0f 11 4d 28       	movss  %xmm1,0x28(%rbp)
    4680:	48 83 7d 20 00       	cmpq   $0x0,0x20(%rbp)
    4685:	75 1f                	jne    46a6 <pdsp_med3+0x3a>
    4687:	41 b8 4b 06 00 00    	mov    $0x64b,%r8d
    468d:	48 8d 05 20 00 00 00 	lea    0x20(%rip),%rax        # 46b4 <pdsp_med3+0x48>
    4694:	48 89 c2             	mov    %rax,%rdx
    4697:	48 8d 05 27 00 00 00 	lea    0x27(%rip),%rax        # 46c5 <pdsp_med3+0x59>
    469e:	48 89 c1             	mov    %rax,%rcx
    46a1:	e8 5a b9 ff ff       	call   0 <printf>
    46a6:	48 8b 45 20          	mov    0x20(%rbp),%rax
    46aa:	8b 00                	mov    (%rax),%eax
    46ac:	48 8b 55 20          	mov    0x20(%rbp),%rdx
    46b0:	f3 0f 10 42 04       	movss  0x4(%rdx),%xmm0
    46b5:	0f 28 c8             	movaps %xmm0,%xmm1
    46b8:	66 0f 6e c0          	movd   %eax,%xmm0
    46bc:	e8 00 00 00 00       	call   46c1 <pdsp_med3+0x55>
    46c1:	66 0f 7e c2          	movd   %xmm0,%edx
    46c5:	8b 45 28             	mov    0x28(%rbp),%eax
    46c8:	66 0f 6e ca          	movd   %edx,%xmm1
    46cc:	66 0f 6e c0          	movd   %eax,%xmm0
    46d0:	e8 00 00 00 00       	call   46d5 <pdsp_med3+0x69>
    46d5:	66 0f 7e c3          	movd   %xmm0,%ebx
    46d9:	48 8b 45 20          	mov    0x20(%rbp),%rax
    46dd:	8b 00                	mov    (%rax),%eax
    46df:	48 8b 55 20          	mov    0x20(%rbp),%rdx
    46e3:	f3 0f 10 42 04       	movss  0x4(%rdx),%xmm0
    46e8:	0f 28 c8             	movaps %xmm0,%xmm1
    46eb:	66 0f 6e c0          	movd   %eax,%xmm0
    46ef:	e8 00 00 00 00       	call   46f4 <pdsp_med3+0x88>
    46f4:	66 0f 7e c0          	movd   %xmm0,%eax
    46f8:	66 0f 6e c8          	movd   %eax,%xmm1
    46fc:	66 0f 6e c3          	movd   %ebx,%xmm0
    4700:	e8 00 00 00 00       	call   4705 <pdsp_med3+0x99>
    4705:	66 0f 7e c0          	movd   %xmm0,%eax
    4709:	89 05 04 00 00 00    	mov    %eax,0x4(%rip)        # 4713 <pdsp_med3+0xa7>
    470f:	48 8b 45 20          	mov    0x20(%rbp),%rax
    4713:	f3 0f 10 00          	movss  (%rax),%xmm0
    4717:	48 8b 45 20          	mov    0x20(%rbp),%rax
    471b:	f3 0f 11 40 04       	movss  %xmm0,0x4(%rax)
    4720:	48 8b 45 20          	mov    0x20(%rbp),%rax
    4724:	f3 0f 10 45 28       	movss  0x28(%rbp),%xmm0
    4729:	f3 0f 11 00          	movss  %xmm0,(%rax)
    472d:	f3 0f 10 05 04 00 00 	movss  0x4(%rip),%xmm0        # 4739 <pdsp_med3+0xcd>
    4734:	00 
    4735:	48 83 c4 28          	add    $0x28,%rsp
    4739:	5b                   	pop    %rbx
    473a:	5d                   	pop    %rbp
    473b:	c3                   	ret

000000000000473c <pdsp_rollsum_init>:
    473c:	55                   	push   %rbp
    473d:	48 89 e5             	mov    %rsp,%rbp
    4740:	48 83 ec 20          	sub    $0x20,%rsp
    4744:	48 89 4d 10          	mov    %rcx,0x10(%rbp)
    4748:	89 d0                	mov    %edx,%eax
    474a:	66 89 45 18          	mov    %ax,0x18(%rbp)
    474e:	48 83 7d 10 00       	cmpq   $0x0,0x10(%rbp)
    4753:	75 1f                	jne    4774 <pdsp_rollsum_init+0x38>
    4755:	41 b8 60 06 00 00    	mov    $0x660,%r8d
    475b:	48 8d 05 20 00 00 00 	lea    0x20(%rip),%rax        # 4782 <pdsp_rollsum_init+0x46>
    4762:	48 89 c2             	mov    %rax,%rdx
    4765:	48 8d 05 27 00 00 00 	lea    0x27(%rip),%rax        # 4793 <pdsp_rollsum_init+0x57>
    476c:	48 89 c1             	mov    %rax,%rcx
    476f:	e8 8c b8 ff ff       	call   0 <printf>
    4774:	48 8b 45 10          	mov    0x10(%rbp),%rax
    4778:	48 8b 40 08          	mov    0x8(%rax),%rax
    477c:	48 89 05 08 00 00 00 	mov    %rax,0x8(%rip)        # 478b <pdsp_rollsum_init+0x4f>
    4783:	48 8b 05 08 00 00 00 	mov    0x8(%rip),%rax        # 4792 <pdsp_rollsum_init+0x56>
    478a:	48 8b 00             	mov    (%rax),%rax
    478d:	48 89 05 10 00 00 00 	mov    %rax,0x10(%rip)        # 47a4 <pdsp_rollsum_init+0x68>
    4794:	48 8b 45 10          	mov    0x10(%rbp),%rax
    4798:	48 8b 00             	mov    (%rax),%rax
    479b:	48 89 05 18 00 00 00 	mov    %rax,0x18(%rip)        # 47ba <pdsp_rollsum_init+0x7e>
    47a2:	48 8b 05 18 00 00 00 	mov    0x18(%rip),%rax        # 47c1 <pdsp_rollsum_init+0x85>
    47a9:	66 0f ef c0          	pxor   %xmm0,%xmm0
    47ad:	f3 0f 11 00          	movss  %xmm0,(%rax)
    47b1:	48 8b 15 08 00 00 00 	mov    0x8(%rip),%rdx        # 47c0 <pdsp_rollsum_init+0x84>
    47b8:	48 8b 05 10 00 00 00 	mov    0x10(%rip),%rax        # 47cf <pdsp_rollsum_init+0x93>
    47bf:	0f b7 52 10          	movzwl 0x10(%rdx),%edx
    47c3:	66 89 50 04          	mov    %dx,0x4(%rax)
    47c7:	48 8b 05 08 00 00 00 	mov    0x8(%rip),%rax        # 47d6 <pdsp_rollsum_init+0x9a>
    47ce:	0f b7 40 10          	movzwl 0x10(%rax),%eax
    47d2:	8d 50 ff             	lea    -0x1(%rax),%edx
    47d5:	48 8b 05 10 00 00 00 	mov    0x10(%rip),%rax        # 47ec <pdsp_rollsum_init+0xb0>
    47dc:	66 89 10             	mov    %dx,(%rax)
    47df:	48 8b 05 08 00 00 00 	mov    0x8(%rip),%rax        # 47ee <pdsp_rollsum_init+0xb2>
    47e6:	0f b7 40 10          	movzwl 0x10(%rax),%eax
    47ea:	66 39 45 18          	cmp    %ax,0x18(%rbp)
    47ee:	7f 44                	jg     4834 <pdsp_rollsum_init+0xf8>
    47f0:	48 8b 05 08 00 00 00 	mov    0x8(%rip),%rax        # 47ff <pdsp_rollsum_init+0xc3>
    47f7:	0f b7 40 10          	movzwl 0x10(%rax),%eax
    47fb:	89 c2                	mov    %eax,%edx
    47fd:	0f b7 45 18          	movzwl 0x18(%rbp),%eax
    4801:	29 c2                	sub    %eax,%edx
    4803:	48 8b 05 10 00 00 00 	mov    0x10(%rip),%rax        # 481a <pdsp_rollsum_init+0xde>
    480a:	66 89 50 02          	mov    %dx,0x2(%rax)
    480e:	0f bf 45 18          	movswl 0x18(%rbp),%eax
    4812:	66 0f ef c9          	pxor   %xmm1,%xmm1
    4816:	f3 0f 2a c8          	cvtsi2ss %eax,%xmm1
    481a:	48 8b 05 18 00 00 00 	mov    0x18(%rip),%rax        # 4839 <pdsp_rollsum_init+0xfd>
    4821:	f3 0f 10 05 44 00 00 	movss  0x44(%rip),%xmm0        # 486d <pdsp_rollsum_init+0x131>
    4828:	00 
    4829:	f3 0f 5e c1          	divss  %xmm1,%xmm0
    482d:	f3 0f 11 40 04       	movss  %xmm0,0x4(%rax)
    4832:	eb 39                	jmp    486d <pdsp_rollsum_init+0x131>
    4834:	48 8b 05 10 00 00 00 	mov    0x10(%rip),%rax        # 484b <pdsp_rollsum_init+0x10f>
    483b:	66 c7 40 02 00 00    	movw   $0x0,0x2(%rax)
    4841:	48 8b 05 08 00 00 00 	mov    0x8(%rip),%rax        # 4850 <pdsp_rollsum_init+0x114>
    4848:	0f b7 40 10          	movzwl 0x10(%rax),%eax
    484c:	98                   	cwtl
    484d:	66 0f ef c9          	pxor   %xmm1,%xmm1
    4851:	f3 0f 2a c8          	cvtsi2ss %eax,%xmm1
    4855:	48 8b 05 18 00 00 00 	mov    0x18(%rip),%rax        # 4874 <pdsp_rollsum_init+0x138>
    485c:	f3 0f 10 05 44 00 00 	movss  0x44(%rip),%xmm0        # 48a8 <pdsp_rollsum+0xe>
    4863:	00 
    4864:	f3 0f 5e c1          	divss  %xmm1,%xmm0
    4868:	f3 0f 11 40 04       	movss  %xmm0,0x4(%rax)
    486d:	48 8b 05 08 00 00 00 	mov    0x8(%rip),%rax        # 487c <pdsp_rollsum_init+0x140>
    4874:	0f b7 40 10          	movzwl 0x10(%rax),%eax
    4878:	48 0f bf d0          	movswq %ax,%rdx
    487c:	48 8b 05 08 00 00 00 	mov    0x8(%rip),%rax        # 488b <pdsp_rollsum_init+0x14f>
    4883:	48 8b 40 08          	mov    0x8(%rax),%rax
    4887:	66 0f ef d2          	pxor   %xmm2,%xmm2
    488b:	48 89 c1             	mov    %rax,%rcx
    488e:	e8 63 c9 ff ff       	call   11f6 <pdsp_array_set_f32>
    4893:	90                   	nop
    4894:	48 83 c4 20          	add    $0x20,%rsp
    4898:	5d                   	pop    %rbp
    4899:	c3                   	ret

000000000000489a <pdsp_rollsum>:
    489a:	55                   	push   %rbp
    489b:	48 89 e5             	mov    %rsp,%rbp
    489e:	48 83 ec 20          	sub    $0x20,%rsp
    48a2:	48 89 4d 10          	mov    %rcx,0x10(%rbp)
    48a6:	f3 0f 11 4d 18       	movss  %xmm1,0x18(%rbp)
    48ab:	48 83 7d 10 00       	cmpq   $0x0,0x10(%rbp)
    48b0:	75 1f                	jne    48d1 <pdsp_rollsum+0x37>
    48b2:	41 b8 7a 06 00 00    	mov    $0x67a,%r8d
    48b8:	48 8d 05 20 00 00 00 	lea    0x20(%rip),%rax        # 48df <pdsp_rollsum+0x45>
    48bf:	48 89 c2             	mov    %rax,%rdx
    48c2:	48 8d 05 27 00 00 00 	lea    0x27(%rip),%rax        # 48f0 <pdsp_rollsum+0x56>
    48c9:	48 89 c1             	mov    %rax,%rcx
    48cc:	e8 2f b7 ff ff       	call   0 <printf>
    48d1:	48 8b 45 10          	mov    0x10(%rbp),%rax
    48d5:	48 8b 40 08          	mov    0x8(%rax),%rax
    48d9:	48 89 c1             	mov    %rax,%rcx
    48dc:	e8 65 e7 ff ff       	call   3046 <pdsp_queue_pop_f32>
    48e1:	0f 28 c8             	movaps %xmm0,%xmm1
    48e4:	48 8b 45 10          	mov    0x10(%rbp),%rax
    48e8:	48 8b 00             	mov    (%rax),%rax
    48eb:	f3 0f 10 00          	movss  (%rax),%xmm0
    48ef:	48 8b 45 10          	mov    0x10(%rbp),%rax
    48f3:	48 8b 00             	mov    (%rax),%rax
    48f6:	f3 0f 5c c1          	subss  %xmm1,%xmm0
    48fa:	f3 0f 11 00          	movss  %xmm0,(%rax)
    48fe:	48 8b 45 10          	mov    0x10(%rbp),%rax
    4902:	48 8b 00             	mov    (%rax),%rax
    4905:	f3 0f 10 00          	movss  (%rax),%xmm0
    4909:	48 8b 45 10          	mov    0x10(%rbp),%rax
    490d:	48 8b 00             	mov    (%rax),%rax
    4910:	f3 0f 58 45 18       	addss  0x18(%rbp),%xmm0
    4915:	f3 0f 11 00          	movss  %xmm0,(%rax)
    4919:	48 8b 45 10          	mov    0x10(%rbp),%rax
    491d:	48 8b 40 08          	mov    0x8(%rax),%rax
    4921:	f3 0f 10 45 18       	movss  0x18(%rbp),%xmm0
    4926:	0f 28 c8             	movaps %xmm0,%xmm1
    4929:	48 89 c1             	mov    %rax,%rcx
    492c:	e8 fa e4 ff ff       	call   2e2b <pdsp_queue_push_f32>
    4931:	48 8b 45 10          	mov    0x10(%rbp),%rax
    4935:	48 8b 00             	mov    (%rax),%rax
    4938:	f3 0f 10 00          	movss  (%rax),%xmm0
    493c:	48 83 c4 20          	add    $0x20,%rsp
    4940:	5d                   	pop    %rbp
    4941:	c3                   	ret

0000000000004942 <pdsp_rollavg_init>:
    4942:	55                   	push   %rbp
    4943:	48 89 e5             	mov    %rsp,%rbp
    4946:	48 83 ec 20          	sub    $0x20,%rsp
    494a:	48 89 4d 10          	mov    %rcx,0x10(%rbp)
    494e:	89 d0                	mov    %edx,%eax
    4950:	66 89 45 18          	mov    %ax,0x18(%rbp)
    4954:	48 83 7d 10 00       	cmpq   $0x0,0x10(%rbp)
    4959:	75 1f                	jne    497a <pdsp_rollavg_init+0x38>
    495b:	41 b8 87 06 00 00    	mov    $0x687,%r8d
    4961:	48 8d 05 20 00 00 00 	lea    0x20(%rip),%rax        # 4988 <pdsp_rollavg_init+0x46>
    4968:	48 89 c2             	mov    %rax,%rdx
    496b:	48 8d 05 27 00 00 00 	lea    0x27(%rip),%rax        # 4999 <pdsp_rollavg+0x8>
    4972:	48 89 c1             	mov    %rax,%rcx
    4975:	e8 86 b6 ff ff       	call   0 <printf>
    497a:	0f bf 55 18          	movswl 0x18(%rbp),%edx
    497e:	48 8b 45 10          	mov    0x10(%rbp),%rax
    4982:	48 89 c1             	mov    %rax,%rcx
    4985:	e8 b2 fd ff ff       	call   473c <pdsp_rollsum_init>
    498a:	90                   	nop
    498b:	48 83 c4 20          	add    $0x20,%rsp
    498f:	5d                   	pop    %rbp
    4990:	c3                   	ret

0000000000004991 <pdsp_rollavg>:
    4991:	55                   	push   %rbp
    4992:	48 89 e5             	mov    %rsp,%rbp
    4995:	48 83 ec 20          	sub    $0x20,%rsp
    4999:	48 89 4d 10          	mov    %rcx,0x10(%rbp)
    499d:	f3 0f 11 4d 18       	movss  %xmm1,0x18(%rbp)
    49a2:	48 83 7d 10 00       	cmpq   $0x0,0x10(%rbp)
    49a7:	75 1f                	jne    49c8 <pdsp_rollavg+0x37>
    49a9:	41 b8 8e 06 00 00    	mov    $0x68e,%r8d
    49af:	48 8d 05 20 00 00 00 	lea    0x20(%rip),%rax        # 49d6 <pdsp_rollavg+0x45>
    49b6:	48 89 c2             	mov    %rax,%rdx
    49b9:	48 8d 05 27 00 00 00 	lea    0x27(%rip),%rax        # 49e7 <pdsp_rollavg+0x56>
    49c0:	48 89 c1             	mov    %rax,%rcx
    49c3:	e8 38 b6 ff ff       	call   0 <printf>
    49c8:	48 8b 45 10          	mov    0x10(%rbp),%rax
    49cc:	48 8b 00             	mov    (%rax),%rax
    49cf:	f3 0f 10 40 04       	movss  0x4(%rax),%xmm0
    49d4:	f3 0f 59 45 18       	mulss  0x18(%rbp),%xmm0
    49d9:	48 8b 45 10          	mov    0x10(%rbp),%rax
    49dd:	0f 28 c8             	movaps %xmm0,%xmm1
    49e0:	48 89 c1             	mov    %rax,%rcx
    49e3:	e8 b2 fe ff ff       	call   489a <pdsp_rollsum>
    49e8:	48 83 c4 20          	add    $0x20,%rsp
    49ec:	5d                   	pop    %rbp
    49ed:	c3                   	ret

00000000000049ee <pdsp_rollrms_init>:
    49ee:	55                   	push   %rbp
    49ef:	48 89 e5             	mov    %rsp,%rbp
    49f2:	48 83 ec 20          	sub    $0x20,%rsp
    49f6:	48 89 4d 10          	mov    %rcx,0x10(%rbp)
    49fa:	89 d0                	mov    %edx,%eax
    49fc:	66 89 45 18          	mov    %ax,0x18(%rbp)
    4a00:	48 83 7d 10 00       	cmpq   $0x0,0x10(%rbp)
    4a05:	75 1f                	jne    4a26 <pdsp_rollrms_init+0x38>
    4a07:	41 b8 95 06 00 00    	mov    $0x695,%r8d
    4a0d:	48 8d 05 20 00 00 00 	lea    0x20(%rip),%rax        # 4a34 <pdsp_rollrms_init+0x46>
    4a14:	48 89 c2             	mov    %rax,%rdx
    4a17:	48 8d 05 27 00 00 00 	lea    0x27(%rip),%rax        # 4a45 <pdsp_rollrms+0x8>
    4a1e:	48 89 c1             	mov    %rax,%rcx
    4a21:	e8 da b5 ff ff       	call   0 <printf>
    4a26:	0f bf 55 18          	movswl 0x18(%rbp),%edx
    4a2a:	48 8b 45 10          	mov    0x10(%rbp),%rax
    4a2e:	48 89 c1             	mov    %rax,%rcx
    4a31:	e8 06 fd ff ff       	call   473c <pdsp_rollsum_init>
    4a36:	90                   	nop
    4a37:	48 83 c4 20          	add    $0x20,%rsp
    4a3b:	5d                   	pop    %rbp
    4a3c:	c3                   	ret

0000000000004a3d <pdsp_rollrms>:
    4a3d:	55                   	push   %rbp
    4a3e:	48 89 e5             	mov    %rsp,%rbp
    4a41:	48 83 ec 20          	sub    $0x20,%rsp
    4a45:	48 89 4d 10          	mov    %rcx,0x10(%rbp)
    4a49:	f3 0f 11 4d 18       	movss  %xmm1,0x18(%rbp)
    4a4e:	48 83 7d 10 00       	cmpq   $0x0,0x10(%rbp)
    4a53:	75 1f                	jne    4a74 <pdsp_rollrms+0x37>
    4a55:	41 b8 9c 06 00 00    	mov    $0x69c,%r8d
    4a5b:	48 8d 05 20 00 00 00 	lea    0x20(%rip),%rax        # 4a82 <pdsp_rollrms+0x45>
    4a62:	48 89 c2             	mov    %rax,%rdx
    4a65:	48 8d 05 27 00 00 00 	lea    0x27(%rip),%rax        # 4a93 <pdsp_rollrms+0x56>
    4a6c:	48 89 c1             	mov    %rax,%rcx
    4a6f:	e8 8c b5 ff ff       	call   0 <printf>
    4a74:	f3 0f 10 45 18       	movss  0x18(%rbp),%xmm0
    4a79:	0f 28 c8             	movaps %xmm0,%xmm1
    4a7c:	f3 0f 59 c8          	mulss  %xmm0,%xmm1
    4a80:	48 8b 45 10          	mov    0x10(%rbp),%rax
    4a84:	48 8b 00             	mov    (%rax),%rax
    4a87:	f3 0f 10 40 04       	movss  0x4(%rax),%xmm0
    4a8c:	f3 0f 59 c1          	mulss  %xmm1,%xmm0
    4a90:	48 8b 45 10          	mov    0x10(%rbp),%rax
    4a94:	0f 28 c8             	movaps %xmm0,%xmm1
    4a97:	48 89 c1             	mov    %rax,%rcx
    4a9a:	e8 fb fd ff ff       	call   489a <pdsp_rollsum>
    4a9f:	66 0f 7e c0          	movd   %xmm0,%eax
    4aa3:	66 0f 6e c0          	movd   %eax,%xmm0
    4aa7:	e8 00 00 00 00       	call   4aac <pdsp_rollrms+0x6f>
    4aac:	48 83 c4 20          	add    $0x20,%rsp
    4ab0:	5d                   	pop    %rbp
    4ab1:	c3                   	ret

0000000000004ab2 <pdsp_delayrf_bool_clear>:
    4ab2:	55                   	push   %rbp
    4ab3:	48 89 e5             	mov    %rsp,%rbp
    4ab6:	48 83 ec 20          	sub    $0x20,%rsp
    4aba:	48 89 4d 10          	mov    %rcx,0x10(%rbp)
    4abe:	48 83 7d 10 00       	cmpq   $0x0,0x10(%rbp)
    4ac3:	75 1f                	jne    4ae4 <pdsp_delayrf_bool_clear+0x32>
    4ac5:	41 b8 a3 06 00 00    	mov    $0x6a3,%r8d
    4acb:	48 8d 05 20 00 00 00 	lea    0x20(%rip),%rax        # 4af2 <pdsp_delayrf_bool_clear+0x40>
    4ad2:	48 89 c2             	mov    %rax,%rdx
    4ad5:	48 8d 05 27 00 00 00 	lea    0x27(%rip),%rax        # 4b03 <pdsp_delayrf_bool+0x1>
    4adc:	48 89 c1             	mov    %rax,%rcx
    4adf:	e8 1c b5 ff ff       	call   0 <printf>
    4ae4:	48 8b 45 10          	mov    0x10(%rbp),%rax
    4ae8:	48 8b 00             	mov    (%rax),%rax
    4aeb:	c6 00 00             	movb   $0x0,(%rax)
    4aee:	48 8b 45 10          	mov    0x10(%rbp),%rax
    4af2:	48 8b 00             	mov    (%rax),%rax
    4af5:	66 c7 40 02 00 00    	movw   $0x0,0x2(%rax)
    4afb:	90                   	nop
    4afc:	48 83 c4 20          	add    $0x20,%rsp
    4b00:	5d                   	pop    %rbp
    4b01:	c3                   	ret

0000000000004b02 <pdsp_delayrf_bool>:
    4b02:	55                   	push   %rbp
    4b03:	48 89 e5             	mov    %rsp,%rbp
    4b06:	48 83 ec 20          	sub    $0x20,%rsp
    4b0a:	48 89 4d 10          	mov    %rcx,0x10(%rbp)
    4b0e:	89 d0                	mov    %edx,%eax
    4b10:	88 45 18             	mov    %al,0x18(%rbp)
    4b13:	48 83 7d 10 00       	cmpq   $0x0,0x10(%rbp)
    4b18:	74 0c                	je     4b26 <pdsp_delayrf_bool+0x24>
    4b1a:	48 8b 45 10          	mov    0x10(%rbp),%rax
    4b1e:	48 8b 00             	mov    (%rax),%rax
    4b21:	48 85 c0             	test   %rax,%rax
    4b24:	75 1f                	jne    4b45 <pdsp_delayrf_bool+0x43>
    4b26:	41 b8 ac 06 00 00    	mov    $0x6ac,%r8d
    4b2c:	48 8d 05 20 00 00 00 	lea    0x20(%rip),%rax        # 4b53 <pdsp_delayrf_bool+0x51>
    4b33:	48 89 c2             	mov    %rax,%rdx
    4b36:	48 8d 05 27 00 00 00 	lea    0x27(%rip),%rax        # 4b64 <pdsp_delayrf_bool+0x62>
    4b3d:	48 89 c1             	mov    %rax,%rcx
    4b40:	e8 bb b4 ff ff       	call   0 <printf>
    4b45:	48 8b 45 10          	mov    0x10(%rbp),%rax
    4b49:	48 8b 00             	mov    (%rax),%rax
    4b4c:	48 89 05 20 00 00 00 	mov    %rax,0x20(%rip)        # 4b73 <pdsp_delayrf_bool+0x71>
    4b53:	48 8b 05 20 00 00 00 	mov    0x20(%rip),%rax        # 4b7a <pdsp_delayrf_bool+0x78>
    4b5a:	0f b6 00             	movzbl (%rax),%eax
    4b5d:	83 f0 01             	xor    $0x1,%eax
    4b60:	84 c0                	test   %al,%al
    4b62:	74 4d                	je     4bb1 <pdsp_delayrf_bool+0xaf>
    4b64:	80 7d 18 00          	cmpb   $0x0,0x18(%rbp)
    4b68:	74 47                	je     4bb1 <pdsp_delayrf_bool+0xaf>
    4b6a:	48 8b 05 20 00 00 00 	mov    0x20(%rip),%rax        # 4b91 <pdsp_delayrf_bool+0x8f>
    4b71:	0f b7 50 02          	movzwl 0x2(%rax),%edx
    4b75:	83 c2 01             	add    $0x1,%edx
    4b78:	66 89 50 02          	mov    %dx,0x2(%rax)
    4b7c:	48 8b 05 20 00 00 00 	mov    0x20(%rip),%rax        # 4ba3 <pdsp_delayrf_bool+0xa1>
    4b83:	0f b7 50 02          	movzwl 0x2(%rax),%edx
    4b87:	48 8b 45 10          	mov    0x10(%rbp),%rax
    4b8b:	0f b7 40 08          	movzwl 0x8(%rax),%eax
    4b8f:	66 39 d0             	cmp    %dx,%ax
    4b92:	0f 83 82 00 00 00    	jae    4c1a <pdsp_delayrf_bool+0x118>
    4b98:	48 8b 05 20 00 00 00 	mov    0x20(%rip),%rax        # 4bbf <pdsp_delayrf_bool+0xbd>
    4b9f:	c6 00 01             	movb   $0x1,(%rax)
    4ba2:	48 8b 05 20 00 00 00 	mov    0x20(%rip),%rax        # 4bc9 <pdsp_delayrf_bool+0xc7>
    4ba9:	66 c7 40 02 00 00    	movw   $0x0,0x2(%rax)
    4baf:	eb 69                	jmp    4c1a <pdsp_delayrf_bool+0x118>
    4bb1:	48 8b 05 20 00 00 00 	mov    0x20(%rip),%rax        # 4bd8 <pdsp_delayrf_bool+0xd6>
    4bb8:	0f b6 00             	movzbl (%rax),%eax
    4bbb:	84 c0                	test   %al,%al
    4bbd:	74 4e                	je     4c0d <pdsp_delayrf_bool+0x10b>
    4bbf:	0f b6 45 18          	movzbl 0x18(%rbp),%eax
    4bc3:	83 f0 01             	xor    $0x1,%eax
    4bc6:	84 c0                	test   %al,%al
    4bc8:	74 43                	je     4c0d <pdsp_delayrf_bool+0x10b>
    4bca:	48 8b 05 20 00 00 00 	mov    0x20(%rip),%rax        # 4bf1 <pdsp_delayrf_bool+0xef>
    4bd1:	0f b7 50 02          	movzwl 0x2(%rax),%edx
    4bd5:	83 c2 01             	add    $0x1,%edx
    4bd8:	66 89 50 02          	mov    %dx,0x2(%rax)
    4bdc:	48 8b 05 20 00 00 00 	mov    0x20(%rip),%rax        # 4c03 <pdsp_delayrf_bool+0x101>
    4be3:	0f b7 50 02          	movzwl 0x2(%rax),%edx
    4be7:	48 8b 45 10          	mov    0x10(%rbp),%rax
    4beb:	0f b7 40 0a          	movzwl 0xa(%rax),%eax
    4bef:	66 39 d0             	cmp    %dx,%ax
    4bf2:	73 26                	jae    4c1a <pdsp_delayrf_bool+0x118>
    4bf4:	48 8b 05 20 00 00 00 	mov    0x20(%rip),%rax        # 4c1b <pdsp_delayrf_bool+0x119>
    4bfb:	c6 00 00             	movb   $0x0,(%rax)
    4bfe:	48 8b 05 20 00 00 00 	mov    0x20(%rip),%rax        # 4c25 <pdsp_delayrf_bool+0x123>
    4c05:	66 c7 40 02 00 00    	movw   $0x0,0x2(%rax)
    4c0b:	eb 0d                	jmp    4c1a <pdsp_delayrf_bool+0x118>
    4c0d:	48 8b 05 20 00 00 00 	mov    0x20(%rip),%rax        # 4c34 <pdsp_abc_dq_clear+0xa>
    4c14:	66 c7 40 02 00 00    	movw   $0x0,0x2(%rax)
    4c1a:	48 8b 05 20 00 00 00 	mov    0x20(%rip),%rax        # 4c41 <pdsp_abc_dq_clear+0x17>
    4c21:	0f b6 00             	movzbl (%rax),%eax
    4c24:	48 83 c4 20          	add    $0x20,%rsp
    4c28:	5d                   	pop    %rbp
    4c29:	c3                   	ret

0000000000004c2a <pdsp_abc_dq_clear>:
    4c2a:	55                   	push   %rbp
    4c2b:	48 89 e5             	mov    %rsp,%rbp
    4c2e:	48 83 ec 20          	sub    $0x20,%rsp
    4c32:	48 89 4d 10          	mov    %rcx,0x10(%rbp)
    4c36:	48 83 7d 10 00       	cmpq   $0x0,0x10(%rbp)
    4c3b:	75 1f                	jne    4c5c <pdsp_abc_dq_clear+0x32>
    4c3d:	41 b8 d0 06 00 00    	mov    $0x6d0,%r8d
    4c43:	48 8d 05 20 00 00 00 	lea    0x20(%rip),%rax        # 4c6a <pdsp_abc_dq_clear+0x40>
    4c4a:	48 89 c2             	mov    %rax,%rdx
    4c4d:	48 8d 05 27 00 00 00 	lea    0x27(%rip),%rax        # 4c7b <pdsp_abc_dq_clear+0x51>
    4c54:	48 89 c1             	mov    %rax,%rcx
    4c57:	e8 a4 b3 ff ff       	call   0 <printf>
    4c5c:	48 8b 45 10          	mov    0x10(%rbp),%rax
    4c60:	66 0f ef c0          	pxor   %xmm0,%xmm0
    4c64:	f3 0f 11 00          	movss  %xmm0,(%rax)
    4c68:	48 8b 45 10          	mov    0x10(%rbp),%rax
    4c6c:	66 0f ef c0          	pxor   %xmm0,%xmm0
    4c70:	f3 0f 11 40 04       	movss  %xmm0,0x4(%rax)
    4c75:	48 8b 45 10          	mov    0x10(%rbp),%rax
    4c79:	66 0f ef c0          	pxor   %xmm0,%xmm0
    4c7d:	f3 0f 11 40 08       	movss  %xmm0,0x8(%rax)
    4c82:	48 8b 45 10          	mov    0x10(%rbp),%rax
    4c86:	66 0f ef c0          	pxor   %xmm0,%xmm0
    4c8a:	f3 0f 11 40 0c       	movss  %xmm0,0xc(%rax)
    4c8f:	48 8b 45 10          	mov    0x10(%rbp),%rax
    4c93:	66 0f ef c0          	pxor   %xmm0,%xmm0
    4c97:	f3 0f 11 40 10       	movss  %xmm0,0x10(%rax)
    4c9c:	90                   	nop
    4c9d:	48 83 c4 20          	add    $0x20,%rsp
    4ca1:	5d                   	pop    %rbp
    4ca2:	c3                   	ret

0000000000004ca3 <pdsp_abc_dq_pos>:
    4ca3:	55                   	push   %rbp
    4ca4:	48 89 e5             	mov    %rsp,%rbp
    4ca7:	48 83 ec 20          	sub    $0x20,%rsp
    4cab:	48 89 4d 10          	mov    %rcx,0x10(%rbp)
    4caf:	f3 0f 11 4d 18       	movss  %xmm1,0x18(%rbp)
    4cb4:	f3 0f 11 55 20       	movss  %xmm2,0x20(%rbp)
    4cb9:	f3 0f 11 5d 28       	movss  %xmm3,0x28(%rbp)
    4cbe:	48 83 7d 10 00       	cmpq   $0x0,0x10(%rbp)
    4cc3:	75 1f                	jne    4ce4 <pdsp_abc_dq_pos+0x41>
    4cc5:	41 b8 dc 06 00 00    	mov    $0x6dc,%r8d
    4ccb:	48 8d 05 20 00 00 00 	lea    0x20(%rip),%rax        # 4cf2 <pdsp_abc_dq_pos+0x4f>
    4cd2:	48 89 c2             	mov    %rax,%rdx
    4cd5:	48 8d 05 27 00 00 00 	lea    0x27(%rip),%rax        # 4d03 <pdsp_abc_dq_pos+0x60>
    4cdc:	48 89 c1             	mov    %rax,%rcx
    4cdf:	e8 1c b3 ff ff       	call   0 <printf>
    4ce4:	f3 0f 10 45 20       	movss  0x20(%rbp),%xmm0
    4ce9:	0f 28 c8             	movaps %xmm0,%xmm1
    4cec:	f3 0f 58 4d 28       	addss  0x28(%rbp),%xmm1
    4cf1:	f3 0f 10 05 40 00 00 	movss  0x40(%rip),%xmm0        # 4d39 <pdsp_abc_dq_pos+0x96>
    4cf8:	00 
    4cf9:	0f 28 d1             	movaps %xmm1,%xmm2
    4cfc:	f3 0f 59 d0          	mulss  %xmm0,%xmm2
    4d00:	f3 0f 10 45 18       	movss  0x18(%rbp),%xmm0
    4d05:	0f 28 c8             	movaps %xmm0,%xmm1
    4d08:	f3 0f 5c ca          	subss  %xmm2,%xmm1
    4d0c:	f3 0f 10 05 6c 00 00 	movss  0x6c(%rip),%xmm0        # 4d80 <pdsp_abc_dq_pos+0xdd>
    4d13:	00 
    4d14:	f3 0f 59 c1          	mulss  %xmm1,%xmm0
    4d18:	48 8b 45 10          	mov    0x10(%rbp),%rax
    4d1c:	f3 0f 11 00          	movss  %xmm0,(%rax)
    4d20:	f3 0f 10 45 20       	movss  0x20(%rbp),%xmm0
    4d25:	0f 28 c8             	movaps %xmm0,%xmm1
    4d28:	f3 0f 5c 4d 28       	subss  0x28(%rbp),%xmm1
    4d2d:	f3 0f 10 05 70 00 00 	movss  0x70(%rip),%xmm0        # 4da5 <pdsp_abc_dq_pos+0x102>
    4d34:	00 
    4d35:	f3 0f 59 c1          	mulss  %xmm1,%xmm0
    4d39:	48 8b 45 10          	mov    0x10(%rbp),%rax
    4d3d:	f3 0f 11 40 04       	movss  %xmm0,0x4(%rax)
    4d42:	f3 0f 10 45 18       	movss  0x18(%rbp),%xmm0
    4d47:	f3 0f 58 45 20       	addss  0x20(%rbp),%xmm0
    4d4c:	0f 28 c8             	movaps %xmm0,%xmm1
    4d4f:	f3 0f 58 4d 28       	addss  0x28(%rbp),%xmm1
    4d54:	f3 0f 10 05 70 00 00 	movss  0x70(%rip),%xmm0        # 4dcc <pdsp_abc_dq_pos+0x129>
    4d5b:	00 
    4d5c:	f3 0f 59 c1          	mulss  %xmm1,%xmm0
    4d60:	48 8b 45 10          	mov    0x10(%rbp),%rax
    4d64:	f3 0f 11 40 10       	movss  %xmm0,0x10(%rax)
    4d69:	48 8b 45 10          	mov    0x10(%rbp),%rax
    4d6d:	f3 0f 10 00          	movss  (%rax),%xmm0
    4d71:	0f 28 c8             	movaps %xmm0,%xmm1
    4d74:	f3 0f 59 4d 38       	mulss  0x38(%rbp),%xmm1
    4d79:	48 8b 45 10          	mov    0x10(%rbp),%rax
    4d7d:	f3 0f 10 40 04       	movss  0x4(%rax),%xmm0
    4d82:	f3 0f 59 45 30       	mulss  0x30(%rbp),%xmm0
    4d87:	f3 0f 58 c1          	addss  %xmm1,%xmm0
    4d8b:	48 8b 45 10          	mov    0x10(%rbp),%rax
    4d8f:	f3 0f 11 40 08       	movss  %xmm0,0x8(%rax)
    4d94:	48 8b 45 10          	mov    0x10(%rbp),%rax
    4d98:	f3 0f 10 00          	movss  (%rax),%xmm0
    4d9c:	f3 0f 10 0d 80 00 00 	movss  0x80(%rip),%xmm1        # 4e24 <pdsp_abc_dq_neg+0x53>
    4da3:	00 
    4da4:	0f 57 c1             	xorps  %xmm1,%xmm0
    4da7:	0f 28 c8             	movaps %xmm0,%xmm1
    4daa:	f3 0f 59 4d 30       	mulss  0x30(%rbp),%xmm1
    4daf:	48 8b 45 10          	mov    0x10(%rbp),%rax
    4db3:	f3 0f 10 40 04       	movss  0x4(%rax),%xmm0
    4db8:	f3 0f 59 45 38       	mulss  0x38(%rbp),%xmm0
    4dbd:	f3 0f 58 c1          	addss  %xmm1,%xmm0
    4dc1:	48 8b 45 10          	mov    0x10(%rbp),%rax
    4dc5:	f3 0f 11 40 0c       	movss  %xmm0,0xc(%rax)
    4dca:	90                   	nop
    4dcb:	48 83 c4 20          	add    $0x20,%rsp
    4dcf:	5d                   	pop    %rbp
    4dd0:	c3                   	ret

0000000000004dd1 <pdsp_abc_dq_neg>:
    4dd1:	55                   	push   %rbp
    4dd2:	48 89 e5             	mov    %rsp,%rbp
    4dd5:	48 83 ec 20          	sub    $0x20,%rsp
    4dd9:	48 89 4d 10          	mov    %rcx,0x10(%rbp)
    4ddd:	f3 0f 11 4d 18       	movss  %xmm1,0x18(%rbp)
    4de2:	f3 0f 11 55 20       	movss  %xmm2,0x20(%rbp)
    4de7:	f3 0f 11 5d 28       	movss  %xmm3,0x28(%rbp)
    4dec:	48 83 7d 10 00       	cmpq   $0x0,0x10(%rbp)
    4df1:	75 1f                	jne    4e12 <pdsp_abc_dq_neg+0x41>
    4df3:	41 b8 ea 06 00 00    	mov    $0x6ea,%r8d
    4df9:	48 8d 05 20 00 00 00 	lea    0x20(%rip),%rax        # 4e20 <pdsp_abc_dq_neg+0x4f>
    4e00:	48 89 c2             	mov    %rax,%rdx
    4e03:	48 8d 05 27 00 00 00 	lea    0x27(%rip),%rax        # 4e31 <pdsp_abc_dq_neg+0x60>
    4e0a:	48 89 c1             	mov    %rax,%rcx
    4e0d:	e8 ee b1 ff ff       	call   0 <printf>
    4e12:	f3 0f 10 45 20       	movss  0x20(%rbp),%xmm0
    4e17:	0f 28 c8             	movaps %xmm0,%xmm1
    4e1a:	f3 0f 58 4d 28       	addss  0x28(%rbp),%xmm1
    4e1f:	f3 0f 10 05 40 00 00 	movss  0x40(%rip),%xmm0        # 4e67 <pdsp_abc_dq_neg+0x96>
    4e26:	00 
    4e27:	0f 28 d1             	movaps %xmm1,%xmm2
    4e2a:	f3 0f 59 d0          	mulss  %xmm0,%xmm2
    4e2e:	f3 0f 10 45 18       	movss  0x18(%rbp),%xmm0
    4e33:	0f 28 c8             	movaps %xmm0,%xmm1
    4e36:	f3 0f 5c ca          	subss  %xmm2,%xmm1
    4e3a:	f3 0f 10 05 6c 00 00 	movss  0x6c(%rip),%xmm0        # 4eae <pdsp_abc_dq_neg+0xdd>
    4e41:	00 
    4e42:	f3 0f 59 c1          	mulss  %xmm1,%xmm0
    4e46:	48 8b 45 10          	mov    0x10(%rbp),%rax
    4e4a:	f3 0f 11 00          	movss  %xmm0,(%rax)
    4e4e:	f3 0f 10 45 20       	movss  0x20(%rbp),%xmm0
    4e53:	0f 28 c8             	movaps %xmm0,%xmm1
    4e56:	f3 0f 5c 4d 28       	subss  0x28(%rbp),%xmm1
    4e5b:	f3 0f 10 05 70 00 00 	movss  0x70(%rip),%xmm0        # 4ed3 <pdsp_abc_dq_neg+0x102>
    4e62:	00 
    4e63:	f3 0f 59 c1          	mulss  %xmm1,%xmm0
    4e67:	48 8b 45 10          	mov    0x10(%rbp),%rax
    4e6b:	f3 0f 11 40 04       	movss  %xmm0,0x4(%rax)
    4e70:	f3 0f 10 45 18       	movss  0x18(%rbp),%xmm0
    4e75:	f3 0f 58 45 20       	addss  0x20(%rbp),%xmm0
    4e7a:	0f 28 c8             	movaps %xmm0,%xmm1
    4e7d:	f3 0f 58 4d 28       	addss  0x28(%rbp),%xmm1
    4e82:	f3 0f 10 05 70 00 00 	movss  0x70(%rip),%xmm0        # 4efa <pdsp_dq0_abc_init+0x9>
    4e89:	00 
    4e8a:	f3 0f 59 c1          	mulss  %xmm1,%xmm0
    4e8e:	48 8b 45 10          	mov    0x10(%rbp),%rax
    4e92:	f3 0f 11 40 10       	movss  %xmm0,0x10(%rax)
    4e97:	48 8b 45 10          	mov    0x10(%rbp),%rax
    4e9b:	f3 0f 10 00          	movss  (%rax),%xmm0
    4e9f:	f3 0f 59 45 38       	mulss  0x38(%rbp),%xmm0
    4ea4:	48 8b 45 10          	mov    0x10(%rbp),%rax
    4ea8:	f3 0f 10 48 04       	movss  0x4(%rax),%xmm1
    4ead:	f3 0f 59 4d 30       	mulss  0x30(%rbp),%xmm1
    4eb2:	f3 0f 5c c1          	subss  %xmm1,%xmm0
    4eb6:	48 8b 45 10          	mov    0x10(%rbp),%rax
    4eba:	f3 0f 11 40 08       	movss  %xmm0,0x8(%rax)
    4ebf:	48 8b 45 10          	mov    0x10(%rbp),%rax
    4ec3:	f3 0f 10 00          	movss  (%rax),%xmm0
    4ec7:	0f 28 c8             	movaps %xmm0,%xmm1
    4eca:	f3 0f 59 4d 30       	mulss  0x30(%rbp),%xmm1
    4ecf:	48 8b 45 10          	mov    0x10(%rbp),%rax
    4ed3:	f3 0f 10 40 04       	movss  0x4(%rax),%xmm0
    4ed8:	f3 0f 59 45 38       	mulss  0x38(%rbp),%xmm0
    4edd:	f3 0f 58 c1          	addss  %xmm1,%xmm0
    4ee1:	48 8b 45 10          	mov    0x10(%rbp),%rax
    4ee5:	f3 0f 11 40 0c       	movss  %xmm0,0xc(%rax)
    4eea:	90                   	nop
    4eeb:	48 83 c4 20          	add    $0x20,%rsp
    4eef:	5d                   	pop    %rbp
    4ef0:	c3                   	ret

0000000000004ef1 <pdsp_dq0_abc_init>:
    4ef1:	55                   	push   %rbp
    4ef2:	48 89 e5             	mov    %rsp,%rbp
    4ef5:	48 83 ec 20          	sub    $0x20,%rsp
    4ef9:	48 89 4d 10          	mov    %rcx,0x10(%rbp)
    4efd:	48 83 7d 10 00       	cmpq   $0x0,0x10(%rbp)
    4f02:	75 1f                	jne    4f23 <pdsp_dq0_abc_init+0x32>
    4f04:	41 b8 f6 06 00 00    	mov    $0x6f6,%r8d
    4f0a:	48 8d 05 20 00 00 00 	lea    0x20(%rip),%rax        # 4f31 <pdsp_dq0_abc_init+0x40>
    4f11:	48 89 c2             	mov    %rax,%rdx
    4f14:	48 8d 05 27 00 00 00 	lea    0x27(%rip),%rax        # 4f42 <pdsp_dq0_abc_init+0x51>
    4f1b:	48 89 c1             	mov    %rax,%rcx
    4f1e:	e8 dd b0 ff ff       	call   0 <printf>
    4f23:	48 8b 45 10          	mov    0x10(%rbp),%rax
    4f27:	66 0f ef c0          	pxor   %xmm0,%xmm0
    4f2b:	f3 0f 11 00          	movss  %xmm0,(%rax)
    4f2f:	48 8b 45 10          	mov    0x10(%rbp),%rax
    4f33:	66 0f ef c0          	pxor   %xmm0,%xmm0
    4f37:	f3 0f 11 40 04       	movss  %xmm0,0x4(%rax)
    4f3c:	48 8b 45 10          	mov    0x10(%rbp),%rax
    4f40:	66 0f ef c0          	pxor   %xmm0,%xmm0
    4f44:	f3 0f 11 40 08       	movss  %xmm0,0x8(%rax)
    4f49:	48 8b 45 10          	mov    0x10(%rbp),%rax
    4f4d:	66 0f ef c0          	pxor   %xmm0,%xmm0
    4f51:	f3 0f 11 40 0c       	movss  %xmm0,0xc(%rax)
    4f56:	48 8b 45 10          	mov    0x10(%rbp),%rax
    4f5a:	66 0f ef c0          	pxor   %xmm0,%xmm0
    4f5e:	f3 0f 11 40 10       	movss  %xmm0,0x10(%rax)
    4f63:	90                   	nop
    4f64:	48 83 c4 20          	add    $0x20,%rsp
    4f68:	5d                   	pop    %rbp
    4f69:	c3                   	ret

0000000000004f6a <pdsp_dq0_abc>:
    4f6a:	55                   	push   %rbp
    4f6b:	48 89 e5             	mov    %rsp,%rbp
    4f6e:	48 83 ec 20          	sub    $0x20,%rsp
    4f72:	48 89 4d 10          	mov    %rcx,0x10(%rbp)
    4f76:	f3 0f 11 4d 18       	movss  %xmm1,0x18(%rbp)
    4f7b:	f3 0f 11 55 20       	movss  %xmm2,0x20(%rbp)
    4f80:	f3 0f 11 5d 28       	movss  %xmm3,0x28(%rbp)
    4f85:	48 83 7d 10 00       	cmpq   $0x0,0x10(%rbp)
    4f8a:	75 1f                	jne    4fab <pdsp_dq0_abc+0x41>
    4f8c:	41 b8 02 07 00 00    	mov    $0x702,%r8d
    4f92:	48 8d 05 20 00 00 00 	lea    0x20(%rip),%rax        # 4fb9 <pdsp_dq0_abc+0x4f>
    4f99:	48 89 c2             	mov    %rax,%rdx
    4f9c:	48 8d 05 27 00 00 00 	lea    0x27(%rip),%rax        # 4fca <pdsp_dq0_abc+0x60>
    4fa3:	48 89 c1             	mov    %rax,%rcx
    4fa6:	e8 55 b0 ff ff       	call   0 <printf>
    4fab:	f3 0f 10 45 18       	movss  0x18(%rbp),%xmm0
    4fb0:	f3 0f 59 45 38       	mulss  0x38(%rbp),%xmm0
    4fb5:	f3 0f 10 4d 20       	movss  0x20(%rbp),%xmm1
    4fba:	f3 0f 59 4d 30       	mulss  0x30(%rbp),%xmm1
    4fbf:	f3 0f 5c c1          	subss  %xmm1,%xmm0
    4fc3:	48 8b 45 10          	mov    0x10(%rbp),%rax
    4fc7:	f3 0f 11 00          	movss  %xmm0,(%rax)
    4fcb:	f3 0f 10 45 18       	movss  0x18(%rbp),%xmm0
    4fd0:	0f 28 c8             	movaps %xmm0,%xmm1
    4fd3:	f3 0f 59 4d 30       	mulss  0x30(%rbp),%xmm1
    4fd8:	f3 0f 10 45 20       	movss  0x20(%rbp),%xmm0
    4fdd:	f3 0f 59 45 38       	mulss  0x38(%rbp),%xmm0
    4fe2:	f3 0f 58 c1          	addss  %xmm1,%xmm0
    4fe6:	48 8b 45 10          	mov    0x10(%rbp),%rax
    4fea:	f3 0f 11 40 04       	movss  %xmm0,0x4(%rax)
    4fef:	48 8b 45 10          	mov    0x10(%rbp),%rax
    4ff3:	f3 0f 10 08          	movss  (%rax),%xmm1
    4ff7:	f3 0f 10 55 28       	movss  0x28(%rbp),%xmm2
    4ffc:	f3 0f 10 05 40 00 00 	movss  0x40(%rip),%xmm0        # 5044 <pdsp_dq0_abc+0xda>
    5003:	00 
    5004:	f3 0f 59 c2          	mulss  %xmm2,%xmm0
    5008:	f3 0f 58 c1          	addss  %xmm1,%xmm0
    500c:	48 8b 45 10          	mov    0x10(%rbp),%rax
    5010:	f3 0f 11 40 08       	movss  %xmm0,0x8(%rax)
    5015:	48 8b 45 10          	mov    0x10(%rbp),%rax
    5019:	f3 0f 10 08          	movss  (%rax),%xmm1
    501d:	f3 0f 10 05 90 00 00 	movss  0x90(%rip),%xmm0        # 50b5 <pdsp_1p1z_pi_c2d>
    5024:	00 
    5025:	f3 0f 59 c8          	mulss  %xmm0,%xmm1
    5029:	48 8b 45 10          	mov    0x10(%rbp),%rax
    502d:	f3 0f 10 50 04       	movss  0x4(%rax),%xmm2
    5032:	f3 0f 10 05 94 00 00 	movss  0x94(%rip),%xmm0        # 50ce <pdsp_1p1z_pi_c2d+0x19>
    5039:	00 
    503a:	f3 0f 59 c2          	mulss  %xmm2,%xmm0
    503e:	f3 0f 58 c8          	addss  %xmm0,%xmm1
    5042:	f3 0f 10 55 28       	movss  0x28(%rbp),%xmm2
    5047:	f3 0f 10 05 40 00 00 	movss  0x40(%rip),%xmm0        # 508f <pdsp_dq0_abc+0x125>
    504e:	00 
    504f:	f3 0f 59 c2          	mulss  %xmm2,%xmm0
    5053:	f3 0f 58 c1          	addss  %xmm1,%xmm0
    5057:	48 8b 45 10          	mov    0x10(%rbp),%rax
    505b:	f3 0f 11 40 0c       	movss  %xmm0,0xc(%rax)
    5060:	48 8b 45 10          	mov    0x10(%rbp),%rax
    5064:	f3 0f 10 08          	movss  (%rax),%xmm1
    5068:	f3 0f 10 05 90 00 00 	movss  0x90(%rip),%xmm0        # 5100 <pdsp_1p1z_pi_c2d+0x4b>
    506f:	00 
    5070:	f3 0f 59 c1          	mulss  %xmm1,%xmm0
    5074:	48 8b 45 10          	mov    0x10(%rbp),%rax
    5078:	f3 0f 10 50 04       	movss  0x4(%rax),%xmm2
    507d:	f3 0f 10 0d 94 00 00 	movss  0x94(%rip),%xmm1        # 5119 <pdsp_1p1z_pi_c2d+0x64>
    5084:	00 
    5085:	f3 0f 59 d1          	mulss  %xmm1,%xmm2
    5089:	0f 28 c8             	movaps %xmm0,%xmm1
    508c:	f3 0f 5c ca          	subss  %xmm2,%xmm1
    5090:	f3 0f 10 55 28       	movss  0x28(%rbp),%xmm2
    5095:	f3 0f 10 05 40 00 00 	movss  0x40(%rip),%xmm0        # 50dd <pdsp_1p1z_pi_c2d+0x28>
    509c:	00 
    509d:	f3 0f 59 c2          	mulss  %xmm2,%xmm0
    50a1:	f3 0f 58 c1          	addss  %xmm1,%xmm0
    50a5:	48 8b 45 10          	mov    0x10(%rbp),%rax
    50a9:	f3 0f 11 40 10       	movss  %xmm0,0x10(%rax)
    50ae:	90                   	nop
    50af:	48 83 c4 20          	add    $0x20,%rsp
    50b3:	5d                   	pop    %rbp
    50b4:	c3                   	ret

00000000000050b5 <pdsp_1p1z_pi_c2d>:
    50b5:	55                   	push   %rbp
    50b6:	48 89 e5             	mov    %rsp,%rbp
    50b9:	48 83 ec 30          	sub    $0x30,%rsp
    50bd:	f3 0f 11 45 10       	movss  %xmm0,0x10(%rbp)
    50c2:	f3 0f 11 4d 18       	movss  %xmm1,0x18(%rbp)
    50c7:	4c 89 45 20          	mov    %r8,0x20(%rbp)
    50cb:	f3 0f 11 5d 28       	movss  %xmm3,0x28(%rbp)
    50d0:	48 83 7d 20 00       	cmpq   $0x0,0x20(%rbp)
    50d5:	75 1f                	jne    50f6 <pdsp_1p1z_pi_c2d+0x41>
    50d7:	41 b8 10 07 00 00    	mov    $0x710,%r8d
    50dd:	48 8d 05 20 00 00 00 	lea    0x20(%rip),%rax        # 5104 <pdsp_1p1z_pi_c2d+0x4f>
    50e4:	48 89 c2             	mov    %rax,%rdx
    50e7:	48 8d 05 27 00 00 00 	lea    0x27(%rip),%rax        # 5115 <pdsp_1p1z_pi_c2d+0x60>
    50ee:	48 89 c1             	mov    %rax,%rcx
    50f1:	e8 0a af ff ff       	call   0 <printf>
    50f6:	f3 0f 10 45 10       	movss  0x10(%rbp),%xmm0
    50fb:	f3 0f 59 45 18       	mulss  0x18(%rbp),%xmm0
    5100:	f3 0f 11 45 f0       	movss  %xmm0,-0x10(%rbp)
    5105:	f3 0f 10 45 10       	movss  0x10(%rbp),%xmm0
    510a:	f3 0f 11 45 f4       	movss  %xmm0,-0xc(%rbp)
    510f:	66 0f ef c0          	pxor   %xmm0,%xmm0
    5113:	f3 0f 11 45 f8       	movss  %xmm0,-0x8(%rbp)
    5118:	f3 0f 10 05 44 00 00 	movss  0x44(%rip),%xmm0        # 5164 <pdsp_pi_b2d+0x20>
    511f:	00 
    5120:	f3 0f 11 45 fc       	movss  %xmm0,-0x4(%rbp)
    5125:	f3 0f 10 45 28       	movss  0x28(%rbp),%xmm0
    512a:	48 8b 55 20          	mov    0x20(%rbp),%rdx
    512e:	48 8d 45 f0          	lea    -0x10(%rbp),%rax
    5132:	0f 28 d0             	movaps %xmm0,%xmm2
    5135:	48 89 c1             	mov    %rax,%rcx
    5138:	e8 9b e7 ff ff       	call   38d8 <pdsp_1p1z_c2d>
    513d:	90                   	nop
    513e:	48 83 c4 30          	add    $0x30,%rsp
    5142:	5d                   	pop    %rbp
    5143:	c3                   	ret

0000000000005144 <pdsp_pi_b2d>:
    5144:	55                   	push   %rbp
    5145:	48 89 e5             	mov    %rsp,%rbp
    5148:	48 83 ec 20          	sub    $0x20,%rsp
    514c:	f3 0f 11 45 10       	movss  %xmm0,0x10(%rbp)
    5151:	f3 0f 11 4d 18       	movss  %xmm1,0x18(%rbp)
    5156:	f3 0f 11 55 20       	movss  %xmm2,0x20(%rbp)
    515b:	f3 0f 11 5d 28       	movss  %xmm3,0x28(%rbp)
    5160:	48 83 7d 30 00       	cmpq   $0x0,0x30(%rbp)
    5165:	75 1f                	jne    5186 <pdsp_pi_b2d+0x42>
    5167:	41 b8 1b 07 00 00    	mov    $0x71b,%r8d
    516d:	48 8d 05 20 00 00 00 	lea    0x20(%rip),%rax        # 5194 <pdsp_pi_b2d+0x50>
    5174:	48 89 c2             	mov    %rax,%rdx
    5177:	48 8d 05 27 00 00 00 	lea    0x27(%rip),%rax        # 51a5 <pdsp_pi_b2d+0x61>
    517e:	48 89 c1             	mov    %rax,%rcx
    5181:	e8 7a ae ff ff       	call   0 <printf>
    5186:	48 8b 45 30          	mov    0x30(%rbp),%rax
    518a:	f3 0f 10 45 10       	movss  0x10(%rbp),%xmm0
    518f:	f3 0f 11 00          	movss  %xmm0,(%rax)
    5193:	f3 0f 10 45 18       	movss  0x18(%rbp),%xmm0
    5198:	f3 0f 59 45 10       	mulss  0x10(%rbp),%xmm0
    519d:	f3 0f 59 45 38       	mulss  0x38(%rbp),%xmm0
    51a2:	48 8b 45 30          	mov    0x30(%rbp),%rax
    51a6:	f3 0f 11 40 04       	movss  %xmm0,0x4(%rax)
    51ab:	f3 0f 10 45 10       	movss  0x10(%rbp),%xmm0
    51b0:	f3 0f 59 45 20       	mulss  0x20(%rbp),%xmm0
    51b5:	48 8b 45 30          	mov    0x30(%rbp),%rax
    51b9:	f3 0f 11 40 08       	movss  %xmm0,0x8(%rax)
    51be:	f3 0f 10 45 10       	movss  0x10(%rbp),%xmm0
    51c3:	f3 0f 59 45 28       	mulss  0x28(%rbp),%xmm0
    51c8:	48 8b 45 30          	mov    0x30(%rbp),%rax
    51cc:	f3 0f 11 40 0c       	movss  %xmm0,0xc(%rax)
    51d1:	90                   	nop
    51d2:	48 83 c4 20          	add    $0x20,%rsp
    51d6:	5d                   	pop    %rbp
    51d7:	c3                   	ret

00000000000051d8 <pdsp_pi_clear>:
    51d8:	55                   	push   %rbp
    51d9:	48 89 e5             	mov    %rsp,%rbp
    51dc:	48 83 ec 20          	sub    $0x20,%rsp
    51e0:	48 89 4d 10          	mov    %rcx,0x10(%rbp)
    51e4:	48 83 7d 10 00       	cmpq   $0x0,0x10(%rbp)
    51e9:	75 1f                	jne    520a <pdsp_pi_clear+0x32>
    51eb:	41 b8 25 07 00 00    	mov    $0x725,%r8d
    51f1:	48 8d 05 20 00 00 00 	lea    0x20(%rip),%rax        # 5218 <pdsp_pi_clear+0x40>
    51f8:	48 89 c2             	mov    %rax,%rdx
    51fb:	48 8d 05 27 00 00 00 	lea    0x27(%rip),%rax        # 5229 <pdsp_pi_clear+0x51>
    5202:	48 89 c1             	mov    %rax,%rcx
    5205:	e8 f6 ad ff ff       	call   0 <printf>
    520a:	48 8b 45 10          	mov    0x10(%rbp),%rax
    520e:	48 8b 40 10          	mov    0x10(%rax),%rax
    5212:	48 89 05 28 00 00 00 	mov    %rax,0x28(%rip)        # 5241 <pdsp_pi_clear+0x69>
    5219:	48 8b 05 28 00 00 00 	mov    0x28(%rip),%rax        # 5248 <pdsp_pi_clear+0x70>
    5220:	66 c7 00 00 00       	movw   $0x0,(%rax)
    5225:	48 8b 05 28 00 00 00 	mov    0x28(%rip),%rax        # 5254 <pdsp_pi_clear+0x7c>
    522c:	66 c7 40 02 00 00    	movw   $0x0,0x2(%rax)
    5232:	48 8b 05 28 00 00 00 	mov    0x28(%rip),%rax        # 5261 <pdsp_pi+0x8>
    5239:	66 0f ef c0          	pxor   %xmm0,%xmm0
    523d:	f3 0f 11 40 04       	movss  %xmm0,0x4(%rax)
    5242:	48 8b 05 28 00 00 00 	mov    0x28(%rip),%rax        # 5271 <pdsp_pi+0x18>
    5249:	66 0f ef c0          	pxor   %xmm0,%xmm0
    524d:	f3 0f 11 40 08       	movss  %xmm0,0x8(%rax)
    5252:	90                   	nop
    5253:	48 83 c4 20          	add    $0x20,%rsp
    5257:	5d                   	pop    %rbp
    5258:	c3                   	ret

0000000000005259 <pdsp_pi>:
    5259:	55                   	push   %rbp
    525a:	48 89 e5             	mov    %rsp,%rbp
    525d:	48 83 ec 20          	sub    $0x20,%rsp
    5261:	48 89 4d 10          	mov    %rcx,0x10(%rbp)
    5265:	f3 0f 11 4d 18       	movss  %xmm1,0x18(%rbp)
    526a:	48 83 7d 10 00       	cmpq   $0x0,0x10(%rbp)
    526f:	74 19                	je     528a <pdsp_pi+0x31>
    5271:	48 8b 45 10          	mov    0x10(%rbp),%rax
    5275:	48 8b 40 10          	mov    0x10(%rax),%rax
    5279:	48 85 c0             	test   %rax,%rax
    527c:	74 0c                	je     528a <pdsp_pi+0x31>
    527e:	48 8b 45 10          	mov    0x10(%rbp),%rax
    5282:	48 8b 00             	mov    (%rax),%rax
    5285:	48 85 c0             	test   %rax,%rax
    5288:	75 1f                	jne    52a9 <pdsp_pi+0x50>
    528a:	41 b8 33 07 00 00    	mov    $0x733,%r8d
    5290:	48 8d 05 20 00 00 00 	lea    0x20(%rip),%rax        # 52b7 <pdsp_pi+0x5e>
    5297:	48 89 c2             	mov    %rax,%rdx
    529a:	48 8d 05 27 00 00 00 	lea    0x27(%rip),%rax        # 52c8 <pdsp_pi+0x6f>
    52a1:	48 89 c1             	mov    %rax,%rcx
    52a4:	e8 57 ad ff ff       	call   0 <printf>
    52a9:	48 8b 45 10          	mov    0x10(%rbp),%rax
    52ad:	48 8b 40 10          	mov    0x10(%rax),%rax
    52b1:	48 89 05 30 00 00 00 	mov    %rax,0x30(%rip)        # 52e8 <pdsp_pi+0x8f>
    52b8:	48 8b 45 10          	mov    0x10(%rbp),%rax
    52bc:	48 8b 10             	mov    (%rax),%rdx
    52bf:	48 8b 05 30 00 00 00 	mov    0x30(%rip),%rax        # 52f6 <pdsp_pi+0x9d>
    52c6:	0f b7 40 02          	movzwl 0x2(%rax),%eax
    52ca:	48 0f bf c0          	movswq %ax,%rax
    52ce:	48 c1 e0 04          	shl    $0x4,%rax
    52d2:	48 01 d0             	add    %rdx,%rax
    52d5:	48 89 05 38 00 00 00 	mov    %rax,0x38(%rip)        # 5314 <pdsp_pi+0xbb>
    52dc:	48 8b 05 30 00 00 00 	mov    0x30(%rip),%rax        # 5313 <pdsp_pi+0xba>
    52e3:	f3 0f 10 48 04       	movss  0x4(%rax),%xmm1
    52e8:	48 8b 05 38 00 00 00 	mov    0x38(%rip),%rax        # 5327 <pdsp_pi+0xce>
    52ef:	f3 0f 10 40 04       	movss  0x4(%rax),%xmm0
    52f4:	0f 28 d0             	movaps %xmm0,%xmm2
    52f7:	f3 0f 59 55 18       	mulss  0x18(%rbp),%xmm2
    52fc:	48 8b 05 30 00 00 00 	mov    0x30(%rip),%rax        # 5333 <pdsp_pi+0xda>
    5303:	f3 0f 10 58 08       	movss  0x8(%rax),%xmm3
    5308:	48 8b 05 38 00 00 00 	mov    0x38(%rip),%rax        # 5347 <pdsp_pi+0xee>
    530f:	f3 0f 10 40 08       	movss  0x8(%rax),%xmm0
    5314:	f3 0f 59 c3          	mulss  %xmm3,%xmm0
    5318:	f3 0f 58 c2          	addss  %xmm2,%xmm0
    531c:	48 8b 05 30 00 00 00 	mov    0x30(%rip),%rax        # 5353 <pdsp_pi+0xfa>
    5323:	f3 0f 58 c1          	addss  %xmm1,%xmm0
    5327:	f3 0f 11 40 04       	movss  %xmm0,0x4(%rax)
    532c:	48 8b 05 38 00 00 00 	mov    0x38(%rip),%rax        # 536b <pdsp_pi+0x112>
    5333:	f3 0f 10 00          	movss  (%rax),%xmm0
    5337:	0f 28 c8             	movaps %xmm0,%xmm1
    533a:	f3 0f 59 4d 18       	mulss  0x18(%rbp),%xmm1
    533f:	48 8b 05 30 00 00 00 	mov    0x30(%rip),%rax        # 5376 <pdsp_pi+0x11d>
    5346:	f3 0f 10 40 04       	movss  0x4(%rax),%xmm0
    534b:	f3 0f 58 c1          	addss  %xmm1,%xmm0
    534f:	f3 0f 11 05 40 00 00 	movss  %xmm0,0x40(%rip)        # 5397 <pdsp_pi+0x13e>
    5356:	00 
    5357:	8b 05 40 00 00 00    	mov    0x40(%rip),%eax        # 539d <pdsp_pi+0x144>
    535d:	48 8b 55 10          	mov    0x10(%rbp),%rdx
    5361:	f3 0f 10 42 18       	movss  0x18(%rdx),%xmm0
    5366:	0f 28 c8             	movaps %xmm0,%xmm1
    5369:	66 0f 6e c0          	movd   %eax,%xmm0
    536d:	e8 00 00 00 00       	call   5372 <pdsp_pi+0x119>
    5372:	66 0f 7e c0          	movd   %xmm0,%eax
    5376:	48 8b 55 10          	mov    0x10(%rbp),%rdx
    537a:	f3 0f 10 42 1c       	movss  0x1c(%rdx),%xmm0
    537f:	0f 28 c8             	movaps %xmm0,%xmm1
    5382:	66 0f 6e c0          	movd   %eax,%xmm0
    5386:	e8 00 00 00 00       	call   538b <pdsp_pi+0x132>
    538b:	66 0f 7e c0          	movd   %xmm0,%eax
    538f:	89 05 44 00 00 00    	mov    %eax,0x44(%rip)        # 53d9 <pdsp_pi2+0x16>
    5395:	f3 0f 10 05 44 00 00 	movss  0x44(%rip),%xmm0        # 53e1 <pdsp_pi2+0x1e>
    539c:	00 
    539d:	f3 0f 10 0d 40 00 00 	movss  0x40(%rip),%xmm1        # 53e5 <pdsp_pi2+0x22>
    53a4:	00 
    53a5:	48 8b 05 30 00 00 00 	mov    0x30(%rip),%rax        # 53dc <pdsp_pi2+0x19>
    53ac:	f3 0f 5c c1          	subss  %xmm1,%xmm0
    53b0:	f3 0f 11 40 08       	movss  %xmm0,0x8(%rax)
    53b5:	f3 0f 10 05 44 00 00 	movss  0x44(%rip),%xmm0        # 5401 <pdsp_pi2+0x3e>
    53bc:	00 
    53bd:	48 83 c4 20          	add    $0x20,%rsp
    53c1:	5d                   	pop    %rbp
    53c2:	c3                   	ret

00000000000053c3 <pdsp_pi2>:
    53c3:	55                   	push   %rbp
    53c4:	48 89 e5             	mov    %rsp,%rbp
    53c7:	48 83 ec 20          	sub    $0x20,%rsp
    53cb:	48 89 4d 10          	mov    %rcx,0x10(%rbp)
    53cf:	48 89 55 18          	mov    %rdx,0x18(%rbp)
    53d3:	48 83 7d 10 00       	cmpq   $0x0,0x10(%rbp)
    53d8:	74 19                	je     53f3 <pdsp_pi2+0x30>
    53da:	48 8b 45 10          	mov    0x10(%rbp),%rax
    53de:	48 8b 40 10          	mov    0x10(%rax),%rax
    53e2:	48 85 c0             	test   %rax,%rax
    53e5:	74 0c                	je     53f3 <pdsp_pi2+0x30>
    53e7:	48 8b 45 10          	mov    0x10(%rbp),%rax
    53eb:	48 8b 00             	mov    (%rax),%rax
    53ee:	48 85 c0             	test   %rax,%rax
    53f1:	75 1f                	jne    5412 <pdsp_pi2+0x4f>
    53f3:	41 b8 49 07 00 00    	mov    $0x749,%r8d
    53f9:	48 8d 05 20 00 00 00 	lea    0x20(%rip),%rax        # 5420 <pdsp_pi2+0x5d>
    5400:	48 89 c2             	mov    %rax,%rdx
    5403:	48 8d 05 27 00 00 00 	lea    0x27(%rip),%rax        # 5431 <pdsp_pi2+0x6e>
    540a:	48 89 c1             	mov    %rax,%rcx
    540d:	e8 ee ab ff ff       	call   0 <printf>
    5412:	48 8b 45 10          	mov    0x10(%rbp),%rax
    5416:	48 8b 40 10          	mov    0x10(%rax),%rax
    541a:	48 89 05 48 00 00 00 	mov    %rax,0x48(%rip)        # 5469 <pdsp_pi2+0xa6>
    5421:	48 8b 45 10          	mov    0x10(%rbp),%rax
    5425:	48 8b 10             	mov    (%rax),%rdx
    5428:	48 8b 05 48 00 00 00 	mov    0x48(%rip),%rax        # 5477 <pdsp_pi2+0xb4>
    542f:	0f b7 40 02          	movzwl 0x2(%rax),%eax
    5433:	48 0f bf c0          	movswq %ax,%rax
    5437:	48 c1 e0 04          	shl    $0x4,%rax
    543b:	48 01 d0             	add    %rdx,%rax
    543e:	48 89 05 50 00 00 00 	mov    %rax,0x50(%rip)        # 5495 <pdsp_pi2+0xd2>
    5445:	48 8b 05 48 00 00 00 	mov    0x48(%rip),%rax        # 5494 <pdsp_pi2+0xd1>
    544c:	66 c7 00 00 00       	movw   $0x0,(%rax)
    5451:	48 8b 05 48 00 00 00 	mov    0x48(%rip),%rax        # 54a0 <pdsp_pi2+0xdd>
    5458:	0f b7 00             	movzwl (%rax),%eax
    545b:	89 c2                	mov    %eax,%edx
    545d:	48 8b 45 18          	mov    0x18(%rbp),%rax
    5461:	f3 0f 10 08          	movss  (%rax),%xmm1
    5465:	48 8b 05 50 00 00 00 	mov    0x50(%rip),%rax        # 54bc <pdsp_pi2+0xf9>
    546c:	f3 0f 10 40 0c       	movss  0xc(%rax),%xmm0
    5471:	f3 0f 59 c1          	mulss  %xmm1,%xmm0
    5475:	48 8b 45 18          	mov    0x18(%rbp),%rax
    5479:	48 83 c0 04          	add    $0x4,%rax
    547d:	f3 0f 10 10          	movss  (%rax),%xmm2
    5481:	48 8b 05 50 00 00 00 	mov    0x50(%rip),%rax        # 54d8 <pdsp_pi2+0x115>
    5488:	48 83 c0 10          	add    $0x10,%rax
    548c:	f3 0f 10 48 0c       	movss  0xc(%rax),%xmm1
    5491:	f3 0f 59 ca          	mulss  %xmm2,%xmm1
    5495:	0f 2f c1             	comiss %xmm1,%xmm0
    5498:	0f 97 c0             	seta   %al
    549b:	0f b6 c0             	movzbl %al,%eax
    549e:	01 c2                	add    %eax,%edx
    54a0:	48 8b 05 48 00 00 00 	mov    0x48(%rip),%rax        # 54ef <pdsp_pi2+0x12c>
    54a7:	66 89 10             	mov    %dx,(%rax)
    54aa:	48 8b 05 48 00 00 00 	mov    0x48(%rip),%rax        # 54f9 <pdsp_pi2+0x136>
    54b1:	f3 0f 10 48 04       	movss  0x4(%rax),%xmm1
    54b6:	48 8b 05 48 00 00 00 	mov    0x48(%rip),%rax        # 5505 <pdsp_pi2+0x142>
    54bd:	0f b7 00             	movzwl (%rax),%eax
    54c0:	48 0f bf c0          	movswq %ax,%rax
    54c4:	48 8d 14 85 00 00 00 	lea    0x0(,%rax,4),%rdx
    54cb:	00 
    54cc:	48 8b 45 18          	mov    0x18(%rbp),%rax
    54d0:	48 01 d0             	add    %rdx,%rax
    54d3:	f3 0f 10 10          	movss  (%rax),%xmm2
    54d7:	48 8b 15 50 00 00 00 	mov    0x50(%rip),%rdx        # 552e <pdsp_pi2+0x16b>
    54de:	48 8b 05 48 00 00 00 	mov    0x48(%rip),%rax        # 552d <pdsp_pi2+0x16a>
    54e5:	0f b7 00             	movzwl (%rax),%eax
    54e8:	48 0f bf c0          	movswq %ax,%rax
    54ec:	48 c1 e0 04          	shl    $0x4,%rax
    54f0:	48 01 d0             	add    %rdx,%rax
    54f3:	f3 0f 10 40 04       	movss  0x4(%rax),%xmm0
    54f8:	f3 0f 59 d0          	mulss  %xmm0,%xmm2
    54fc:	48 8b 05 48 00 00 00 	mov    0x48(%rip),%rax        # 554b <pdsp_pi2+0x188>
    5503:	f3 0f 10 58 08       	movss  0x8(%rax),%xmm3
    5508:	48 8b 15 50 00 00 00 	mov    0x50(%rip),%rdx        # 555f <pdsp_pi2+0x19c>
    550f:	48 8b 05 48 00 00 00 	mov    0x48(%rip),%rax        # 555e <pdsp_pi2+0x19b>
    5516:	0f b7 00             	movzwl (%rax),%eax
    5519:	48 0f bf c0          	movswq %ax,%rax
    551d:	48 c1 e0 04          	shl    $0x4,%rax
    5521:	48 01 d0             	add    %rdx,%rax
    5524:	f3 0f 10 40 08       	movss  0x8(%rax),%xmm0
    5529:	f3 0f 59 c3          	mulss  %xmm3,%xmm0
    552d:	f3 0f 58 c2          	addss  %xmm2,%xmm0
    5531:	48 8b 05 48 00 00 00 	mov    0x48(%rip),%rax        # 5580 <pdsp_pi2+0x1bd>
    5538:	f3 0f 58 c1          	addss  %xmm1,%xmm0
    553c:	f3 0f 11 40 04       	movss  %xmm0,0x4(%rax)
    5541:	48 8b 05 48 00 00 00 	mov    0x48(%rip),%rax        # 5590 <pdsp_pi2+0x1cd>
    5548:	0f b7 00             	movzwl (%rax),%eax
    554b:	48 0f bf c0          	movswq %ax,%rax
    554f:	48 8d 14 85 00 00 00 	lea    0x0(,%rax,4),%rdx
    5556:	00 
    5557:	48 8b 45 18          	mov    0x18(%rbp),%rax
    555b:	48 01 d0             	add    %rdx,%rax
    555e:	f3 0f 10 08          	movss  (%rax),%xmm1
    5562:	48 8b 15 50 00 00 00 	mov    0x50(%rip),%rdx        # 55b9 <pdsp_pi2+0x1f6>
    5569:	48 8b 05 48 00 00 00 	mov    0x48(%rip),%rax        # 55b8 <pdsp_pi2+0x1f5>
    5570:	0f b7 00             	movzwl (%rax),%eax
    5573:	48 0f bf c0          	movswq %ax,%rax
    5577:	48 c1 e0 04          	shl    $0x4,%rax
    557b:	48 01 d0             	add    %rdx,%rax
    557e:	f3 0f 10 00          	movss  (%rax),%xmm0
    5582:	f3 0f 59 c8          	mulss  %xmm0,%xmm1
    5586:	48 8b 05 48 00 00 00 	mov    0x48(%rip),%rax        # 55d5 <pdsp_pi2+0x212>
    558d:	f3 0f 10 40 04       	movss  0x4(%rax),%xmm0
    5592:	f3 0f 58 c1          	addss  %xmm1,%xmm0
    5596:	f3 0f 11 05 58 00 00 	movss  %xmm0,0x58(%rip)        # 55f6 <pdsp_pi2+0x233>
    559d:	00 
    559e:	8b 05 58 00 00 00    	mov    0x58(%rip),%eax        # 55fc <pdsp_pi2+0x239>
    55a4:	48 8b 55 10          	mov    0x10(%rbp),%rdx
    55a8:	f3 0f 10 42 18       	movss  0x18(%rdx),%xmm0
    55ad:	0f 28 c8             	movaps %xmm0,%xmm1
    55b0:	66 0f 6e c0          	movd   %eax,%xmm0
    55b4:	e8 00 00 00 00       	call   55b9 <pdsp_pi2+0x1f6>
    55b9:	66 0f 7e c0          	movd   %xmm0,%eax
    55bd:	48 8b 55 10          	mov    0x10(%rbp),%rdx
    55c1:	f3 0f 10 42 1c       	movss  0x1c(%rdx),%xmm0
    55c6:	0f 28 c8             	movaps %xmm0,%xmm1
    55c9:	66 0f 6e c0          	movd   %eax,%xmm0
    55cd:	e8 00 00 00 00       	call   55d2 <pdsp_pi2+0x20f>
    55d2:	66 0f 7e c0          	movd   %xmm0,%eax
    55d6:	89 05 5c 00 00 00    	mov    %eax,0x5c(%rip)        # 5638 <pdsp_pi4+0x2e>
    55dc:	f3 0f 10 05 5c 00 00 	movss  0x5c(%rip),%xmm0        # 5640 <pdsp_pi4+0x36>
    55e3:	00 
    55e4:	f3 0f 10 0d 58 00 00 	movss  0x58(%rip),%xmm1        # 5644 <pdsp_pi4+0x3a>
    55eb:	00 
    55ec:	48 8b 05 48 00 00 00 	mov    0x48(%rip),%rax        # 563b <pdsp_pi4+0x31>
    55f3:	f3 0f 5c c1          	subss  %xmm1,%xmm0
    55f7:	f3 0f 11 40 08       	movss  %xmm0,0x8(%rax)
    55fc:	f3 0f 10 05 5c 00 00 	movss  0x5c(%rip),%xmm0        # 5660 <pdsp_pi4+0x56>
    5603:	00 
    5604:	48 83 c4 20          	add    $0x20,%rsp
    5608:	5d                   	pop    %rbp
    5609:	c3                   	ret

000000000000560a <pdsp_pi4>:
    560a:	55                   	push   %rbp
    560b:	48 89 e5             	mov    %rsp,%rbp
    560e:	48 83 ec 20          	sub    $0x20,%rsp
    5612:	48 89 4d 10          	mov    %rcx,0x10(%rbp)
    5616:	48 89 55 18          	mov    %rdx,0x18(%rbp)
    561a:	48 83 7d 10 00       	cmpq   $0x0,0x10(%rbp)
    561f:	74 19                	je     563a <pdsp_pi4+0x30>
    5621:	48 8b 45 10          	mov    0x10(%rbp),%rax
    5625:	48 8b 40 10          	mov    0x10(%rax),%rax
    5629:	48 85 c0             	test   %rax,%rax
    562c:	74 0c                	je     563a <pdsp_pi4+0x30>
    562e:	48 8b 45 10          	mov    0x10(%rbp),%rax
    5632:	48 8b 00             	mov    (%rax),%rax
    5635:	48 85 c0             	test   %rax,%rax
    5638:	75 1f                	jne    5659 <pdsp_pi4+0x4f>
    563a:	41 b8 66 07 00 00    	mov    $0x766,%r8d
    5640:	48 8d 05 20 00 00 00 	lea    0x20(%rip),%rax        # 5667 <pdsp_pi4+0x5d>
    5647:	48 89 c2             	mov    %rax,%rdx
    564a:	48 8d 05 27 00 00 00 	lea    0x27(%rip),%rax        # 5678 <pdsp_pi4+0x6e>
    5651:	48 89 c1             	mov    %rax,%rcx
    5654:	e8 a7 a9 ff ff       	call   0 <printf>
    5659:	48 8b 45 10          	mov    0x10(%rbp),%rax
    565d:	48 8b 40 10          	mov    0x10(%rax),%rax
    5661:	48 89 05 60 00 00 00 	mov    %rax,0x60(%rip)        # 56c8 <pdsp_pi4+0xbe>
    5668:	48 8b 45 10          	mov    0x10(%rbp),%rax
    566c:	48 8b 10             	mov    (%rax),%rdx
    566f:	48 8b 05 60 00 00 00 	mov    0x60(%rip),%rax        # 56d6 <pdsp_pi4+0xcc>
    5676:	0f b7 40 02          	movzwl 0x2(%rax),%eax
    567a:	48 0f bf c0          	movswq %ax,%rax
    567e:	48 c1 e0 04          	shl    $0x4,%rax
    5682:	48 01 d0             	add    %rdx,%rax
    5685:	48 89 05 68 00 00 00 	mov    %rax,0x68(%rip)        # 56f4 <pdsp_pi4+0xea>
    568c:	48 8b 05 60 00 00 00 	mov    0x60(%rip),%rax        # 56f3 <pdsp_pi4+0xe9>
    5693:	66 c7 00 00 00       	movw   $0x0,(%rax)
    5698:	48 8b 05 60 00 00 00 	mov    0x60(%rip),%rax        # 56ff <pdsp_pi4+0xf5>
    569f:	0f b7 00             	movzwl (%rax),%eax
    56a2:	89 c2                	mov    %eax,%edx
    56a4:	48 8b 45 18          	mov    0x18(%rbp),%rax
    56a8:	f3 0f 10 08          	movss  (%rax),%xmm1
    56ac:	48 8b 05 68 00 00 00 	mov    0x68(%rip),%rax        # 571b <pdsp_pi4+0x111>
    56b3:	f3 0f 10 40 0c       	movss  0xc(%rax),%xmm0
    56b8:	f3 0f 59 c1          	mulss  %xmm1,%xmm0
    56bc:	48 8b 45 18          	mov    0x18(%rbp),%rax
    56c0:	48 83 c0 04          	add    $0x4,%rax
    56c4:	f3 0f 10 10          	movss  (%rax),%xmm2
    56c8:	48 8b 05 68 00 00 00 	mov    0x68(%rip),%rax        # 5737 <pdsp_pi4+0x12d>
    56cf:	48 83 c0 10          	add    $0x10,%rax
    56d3:	f3 0f 10 48 0c       	movss  0xc(%rax),%xmm1
    56d8:	f3 0f 59 ca          	mulss  %xmm2,%xmm1
    56dc:	0f 2f c1             	comiss %xmm1,%xmm0
    56df:	0f 97 c0             	seta   %al
    56e2:	0f b6 c0             	movzbl %al,%eax
    56e5:	01 c2                	add    %eax,%edx
    56e7:	48 8b 05 60 00 00 00 	mov    0x60(%rip),%rax        # 574e <pdsp_pi4+0x144>
    56ee:	66 89 10             	mov    %dx,(%rax)
    56f1:	48 8b 05 60 00 00 00 	mov    0x60(%rip),%rax        # 5758 <pdsp_pi4+0x14e>
    56f8:	0f b7 00             	movzwl (%rax),%eax
    56fb:	89 c2                	mov    %eax,%edx
    56fd:	48 8b 45 18          	mov    0x18(%rbp),%rax
    5701:	48 83 c0 04          	add    $0x4,%rax
    5705:	f3 0f 10 08          	movss  (%rax),%xmm1
    5709:	48 8b 05 68 00 00 00 	mov    0x68(%rip),%rax        # 5778 <pdsp_pi4+0x16e>
    5710:	48 83 c0 10          	add    $0x10,%rax
    5714:	f3 0f 10 40 0c       	movss  0xc(%rax),%xmm0
    5719:	f3 0f 59 c1          	mulss  %xmm1,%xmm0
    571d:	48 8b 45 18          	mov    0x18(%rbp),%rax
    5721:	48 83 c0 08          	add    $0x8,%rax
    5725:	f3 0f 10 10          	movss  (%rax),%xmm2
    5729:	48 8b 05 68 00 00 00 	mov    0x68(%rip),%rax        # 5798 <pdsp_pi4+0x18e>
    5730:	48 83 c0 20          	add    $0x20,%rax
    5734:	f3 0f 10 48 0c       	movss  0xc(%rax),%xmm1
    5739:	f3 0f 59 ca          	mulss  %xmm2,%xmm1
    573d:	0f 2f c1             	comiss %xmm1,%xmm0
    5740:	0f 97 c0             	seta   %al
    5743:	0f b6 c0             	movzbl %al,%eax
    5746:	01 c2                	add    %eax,%edx
    5748:	48 8b 05 60 00 00 00 	mov    0x60(%rip),%rax        # 57af <pdsp_pi4+0x1a5>
    574f:	66 89 10             	mov    %dx,(%rax)
    5752:	48 8b 05 60 00 00 00 	mov    0x60(%rip),%rax        # 57b9 <pdsp_pi4+0x1af>
    5759:	0f b7 00             	movzwl (%rax),%eax
    575c:	89 c2                	mov    %eax,%edx
    575e:	48 8b 45 18          	mov    0x18(%rbp),%rax
    5762:	48 83 c0 08          	add    $0x8,%rax
    5766:	f3 0f 10 08          	movss  (%rax),%xmm1
    576a:	48 8b 05 68 00 00 00 	mov    0x68(%rip),%rax        # 57d9 <pdsp_pi4+0x1cf>
    5771:	48 83 c0 20          	add    $0x20,%rax
    5775:	f3 0f 10 40 0c       	movss  0xc(%rax),%xmm0
    577a:	f3 0f 59 c1          	mulss  %xmm1,%xmm0
    577e:	48 8b 45 18          	mov    0x18(%rbp),%rax
    5782:	48 83 c0 0c          	add    $0xc,%rax
    5786:	f3 0f 10 10          	movss  (%rax),%xmm2
    578a:	48 8b 05 68 00 00 00 	mov    0x68(%rip),%rax        # 57f9 <pdsp_pi4+0x1ef>
    5791:	48 83 c0 30          	add    $0x30,%rax
    5795:	f3 0f 10 48 0c       	movss  0xc(%rax),%xmm1
    579a:	f3 0f 59 ca          	mulss  %xmm2,%xmm1
    579e:	0f 2f c1             	comiss %xmm1,%xmm0
    57a1:	0f 97 c0             	seta   %al
    57a4:	0f b6 c0             	movzbl %al,%eax
    57a7:	01 c2                	add    %eax,%edx
    57a9:	48 8b 05 60 00 00 00 	mov    0x60(%rip),%rax        # 5810 <pdsp_pi4+0x206>
    57b0:	66 89 10             	mov    %dx,(%rax)
    57b3:	48 8b 05 60 00 00 00 	mov    0x60(%rip),%rax        # 581a <pdsp_pi4+0x210>
    57ba:	f3 0f 10 48 04       	movss  0x4(%rax),%xmm1
    57bf:	48 8b 05 60 00 00 00 	mov    0x60(%rip),%rax        # 5826 <pdsp_pi4+0x21c>
    57c6:	0f b7 00             	movzwl (%rax),%eax
    57c9:	48 0f bf c0          	movswq %ax,%rax
    57cd:	48 8d 14 85 00 00 00 	lea    0x0(,%rax,4),%rdx
    57d4:	00 
    57d5:	48 8b 45 18          	mov    0x18(%rbp),%rax
    57d9:	48 01 d0             	add    %rdx,%rax
    57dc:	f3 0f 10 10          	movss  (%rax),%xmm2
    57e0:	48 8b 15 68 00 00 00 	mov    0x68(%rip),%rdx        # 584f <pdsp_pi4+0x245>
    57e7:	48 8b 05 60 00 00 00 	mov    0x60(%rip),%rax        # 584e <pdsp_pi4+0x244>
    57ee:	0f b7 00             	movzwl (%rax),%eax
    57f1:	48 0f bf c0          	movswq %ax,%rax
    57f5:	48 c1 e0 04          	shl    $0x4,%rax
    57f9:	48 01 d0             	add    %rdx,%rax
    57fc:	f3 0f 10 40 04       	movss  0x4(%rax),%xmm0
    5801:	f3 0f 59 d0          	mulss  %xmm0,%xmm2
    5805:	48 8b 05 60 00 00 00 	mov    0x60(%rip),%rax        # 586c <pdsp_pi4+0x262>
    580c:	f3 0f 10 58 08       	movss  0x8(%rax),%xmm3
    5811:	48 8b 15 68 00 00 00 	mov    0x68(%rip),%rdx        # 5880 <pdsp_pi4+0x276>
    5818:	48 8b 05 60 00 00 00 	mov    0x60(%rip),%rax        # 587f <pdsp_pi4+0x275>
    581f:	0f b7 00             	movzwl (%rax),%eax
    5822:	48 0f bf c0          	movswq %ax,%rax
    5826:	48 c1 e0 04          	shl    $0x4,%rax
    582a:	48 01 d0             	add    %rdx,%rax
    582d:	f3 0f 10 40 08       	movss  0x8(%rax),%xmm0
    5832:	f3 0f 59 c3          	mulss  %xmm3,%xmm0
    5836:	f3 0f 58 c2          	addss  %xmm2,%xmm0
    583a:	48 8b 05 60 00 00 00 	mov    0x60(%rip),%rax        # 58a1 <pdsp_pi4+0x297>
    5841:	f3 0f 58 c1          	addss  %xmm1,%xmm0
    5845:	f3 0f 11 40 04       	movss  %xmm0,0x4(%rax)
    584a:	48 8b 05 60 00 00 00 	mov    0x60(%rip),%rax        # 58b1 <pdsp_pi4+0x2a7>
    5851:	0f b7 00             	movzwl (%rax),%eax
    5854:	48 0f bf c0          	movswq %ax,%rax
    5858:	48 8d 14 85 00 00 00 	lea    0x0(,%rax,4),%rdx
    585f:	00 
    5860:	48 8b 45 18          	mov    0x18(%rbp),%rax
    5864:	48 01 d0             	add    %rdx,%rax
    5867:	f3 0f 10 08          	movss  (%rax),%xmm1
    586b:	48 8b 15 68 00 00 00 	mov    0x68(%rip),%rdx        # 58da <pdsp_pi4+0x2d0>
    5872:	48 8b 05 60 00 00 00 	mov    0x60(%rip),%rax        # 58d9 <pdsp_pi4+0x2cf>
    5879:	0f b7 00             	movzwl (%rax),%eax
    587c:	48 0f bf c0          	movswq %ax,%rax
    5880:	48 c1 e0 04          	shl    $0x4,%rax
    5884:	48 01 d0             	add    %rdx,%rax
    5887:	f3 0f 10 00          	movss  (%rax),%xmm0
    588b:	f3 0f 59 c8          	mulss  %xmm0,%xmm1
    588f:	48 8b 05 60 00 00 00 	mov    0x60(%rip),%rax        # 58f6 <pdsp_pi4+0x2ec>
    5896:	f3 0f 10 40 04       	movss  0x4(%rax),%xmm0
    589b:	f3 0f 58 c1          	addss  %xmm1,%xmm0
    589f:	f3 0f 11 05 70 00 00 	movss  %xmm0,0x70(%rip)        # 5917 <pdsp_pi_set+0x4>
    58a6:	00 
    58a7:	8b 05 70 00 00 00    	mov    0x70(%rip),%eax        # 591d <pdsp_pi_set+0xa>
    58ad:	48 8b 55 10          	mov    0x10(%rbp),%rdx
    58b1:	f3 0f 10 42 18       	movss  0x18(%rdx),%xmm0
    58b6:	0f 28 c8             	movaps %xmm0,%xmm1
    58b9:	66 0f 6e c0          	movd   %eax,%xmm0
    58bd:	e8 00 00 00 00       	call   58c2 <pdsp_pi4+0x2b8>
    58c2:	66 0f 7e c0          	movd   %xmm0,%eax
    58c6:	48 8b 55 10          	mov    0x10(%rbp),%rdx
    58ca:	f3 0f 10 42 1c       	movss  0x1c(%rdx),%xmm0
    58cf:	0f 28 c8             	movaps %xmm0,%xmm1
    58d2:	66 0f 6e c0          	movd   %eax,%xmm0
    58d6:	e8 00 00 00 00       	call   58db <pdsp_pi4+0x2d1>
    58db:	66 0f 7e c0          	movd   %xmm0,%eax
    58df:	89 05 74 00 00 00    	mov    %eax,0x74(%rip)        # 5959 <pdsp_pi_set+0x46>
    58e5:	f3 0f 10 05 74 00 00 	movss  0x74(%rip),%xmm0        # 5961 <pdsp_pi_set+0x4e>
    58ec:	00 
    58ed:	f3 0f 10 0d 70 00 00 	movss  0x70(%rip),%xmm1        # 5965 <pdsp_pi_set+0x52>
    58f4:	00 
    58f5:	48 8b 05 60 00 00 00 	mov    0x60(%rip),%rax        # 595c <pdsp_pi_set+0x49>
    58fc:	f3 0f 5c c1          	subss  %xmm1,%xmm0
    5900:	f3 0f 11 40 08       	movss  %xmm0,0x8(%rax)
    5905:	f3 0f 10 05 74 00 00 	movss  0x74(%rip),%xmm0        # 5981 <pdsp_pi_set+0x6e>
    590c:	00 
    590d:	48 83 c4 20          	add    $0x20,%rsp
    5911:	5d                   	pop    %rbp
    5912:	c3                   	ret

0000000000005913 <pdsp_pi_set>:
    5913:	55                   	push   %rbp
    5914:	53                   	push   %rbx
    5915:	48 83 ec 28          	sub    $0x28,%rsp
    5919:	48 8d 6c 24 20       	lea    0x20(%rsp),%rbp
    591e:	48 89 4d 20          	mov    %rcx,0x20(%rbp)
    5922:	f3 0f 11 4d 28       	movss  %xmm1,0x28(%rbp)
    5927:	48 83 7d 20 00       	cmpq   $0x0,0x20(%rbp)
    592c:	74 0d                	je     593b <pdsp_pi_set+0x28>
    592e:	48 8b 45 20          	mov    0x20(%rbp),%rax
    5932:	48 8b 40 10          	mov    0x10(%rax),%rax
    5936:	48 85 c0             	test   %rax,%rax
    5939:	75 1f                	jne    595a <pdsp_pi_set+0x47>
    593b:	41 b8 83 07 00 00    	mov    $0x783,%r8d
    5941:	48 8d 05 20 00 00 00 	lea    0x20(%rip),%rax        # 5968 <pdsp_pi_set+0x55>
    5948:	48 89 c2             	mov    %rax,%rdx
    594b:	48 8d 05 27 00 00 00 	lea    0x27(%rip),%rax        # 5979 <pdsp_pi_set+0x66>
    5952:	48 89 c1             	mov    %rax,%rcx
    5955:	e8 a6 a6 ff ff       	call   0 <printf>
    595a:	48 8b 45 20          	mov    0x20(%rbp),%rax
    595e:	f3 0f 10 40 18       	movss  0x18(%rax),%xmm0
    5963:	8b 45 28             	mov    0x28(%rbp),%eax
    5966:	0f 28 c8             	movaps %xmm0,%xmm1
    5969:	66 0f 6e c0          	movd   %eax,%xmm0
    596d:	e8 00 00 00 00       	call   5972 <pdsp_pi_set+0x5f>
    5972:	66 0f 7e c0          	movd   %xmm0,%eax
    5976:	48 8b 55 20          	mov    0x20(%rbp),%rdx
    597a:	f3 0f 10 42 1c       	movss  0x1c(%rdx),%xmm0
    597f:	48 8b 55 20          	mov    0x20(%rbp),%rdx
    5983:	48 8b 5a 10          	mov    0x10(%rdx),%rbx
    5987:	0f 28 c8             	movaps %xmm0,%xmm1
    598a:	66 0f 6e c0          	movd   %eax,%xmm0
    598e:	e8 00 00 00 00       	call   5993 <pdsp_pi_set+0x80>
    5993:	66 0f 7e c0          	movd   %xmm0,%eax
    5997:	89 43 04             	mov    %eax,0x4(%rbx)
    599a:	48 8b 45 20          	mov    0x20(%rbp),%rax
    599e:	48 8b 40 10          	mov    0x10(%rax),%rax
    59a2:	66 0f ef c0          	pxor   %xmm0,%xmm0
    59a6:	f3 0f 11 40 08       	movss  %xmm0,0x8(%rax)
    59ab:	90                   	nop
    59ac:	48 83 c4 28          	add    $0x28,%rsp
    59b0:	5b                   	pop    %rbx
    59b1:	5d                   	pop    %rbp
    59b2:	c3                   	ret

00000000000059b3 <pdsp_setp_init>:
    59b3:	55                   	push   %rbp
    59b4:	48 89 e5             	mov    %rsp,%rbp
    59b7:	48 83 ec 20          	sub    $0x20,%rsp
    59bb:	48 89 4d 10          	mov    %rcx,0x10(%rbp)
    59bf:	48 83 7d 10 00       	cmpq   $0x0,0x10(%rbp)
    59c4:	74 0c                	je     59d2 <pdsp_setp_init+0x1f>
    59c6:	48 8b 45 10          	mov    0x10(%rbp),%rax
    59ca:	48 8b 00             	mov    (%rax),%rax
    59cd:	48 85 c0             	test   %rax,%rax
    59d0:	75 1f                	jne    59f1 <pdsp_setp_init+0x3e>
    59d2:	41 b8 8d 07 00 00    	mov    $0x78d,%r8d
    59d8:	48 8d 05 20 00 00 00 	lea    0x20(%rip),%rax        # 59ff <pdsp_setp_init+0x4c>
    59df:	48 89 c2             	mov    %rax,%rdx
    59e2:	48 8d 05 27 00 00 00 	lea    0x27(%rip),%rax        # 5a10 <pdsp_setp_init+0x5d>
    59e9:	48 89 c1             	mov    %rax,%rcx
    59ec:	e8 0f a6 ff ff       	call   0 <printf>
    59f1:	48 8b 45 10          	mov    0x10(%rbp),%rax
    59f5:	48 8b 00             	mov    (%rax),%rax
    59f8:	66 0f ef c0          	pxor   %xmm0,%xmm0
    59fc:	f3 0f 11 00          	movss  %xmm0,(%rax)
    5a00:	48 8b 45 10          	mov    0x10(%rbp),%rax
    5a04:	48 8b 00             	mov    (%rax),%rax
    5a07:	66 0f ef c0          	pxor   %xmm0,%xmm0
    5a0b:	f3 0f 11 40 04       	movss  %xmm0,0x4(%rax)
    5a10:	90                   	nop
    5a11:	48 83 c4 20          	add    $0x20,%rsp
    5a15:	5d                   	pop    %rbp
    5a16:	c3                   	ret

0000000000005a17 <pdsp_setp_ramp>:
    5a17:	55                   	push   %rbp
    5a18:	53                   	push   %rbx
    5a19:	48 83 ec 38          	sub    $0x38,%rsp
    5a1d:	48 8d 6c 24 20       	lea    0x20(%rsp),%rbp
    5a22:	0f 11 75 00          	movups %xmm6,0x0(%rbp)
    5a26:	48 89 4d 30          	mov    %rcx,0x30(%rbp)
    5a2a:	48 83 7d 30 00       	cmpq   $0x0,0x30(%rbp)
    5a2f:	74 0c                	je     5a3d <pdsp_setp_ramp+0x26>
    5a31:	48 8b 45 30          	mov    0x30(%rbp),%rax
    5a35:	48 8b 00             	mov    (%rax),%rax
    5a38:	48 85 c0             	test   %rax,%rax
    5a3b:	75 1f                	jne    5a5c <pdsp_setp_ramp+0x45>
    5a3d:	41 b8 95 07 00 00    	mov    $0x795,%r8d
    5a43:	48 8d 05 20 00 00 00 	lea    0x20(%rip),%rax        # 5a6a <pdsp_setp_ramp+0x53>
    5a4a:	48 89 c2             	mov    %rax,%rdx
    5a4d:	48 8d 05 27 00 00 00 	lea    0x27(%rip),%rax        # 5a7b <pdsp_setp_ramp+0x64>
    5a54:	48 89 c1             	mov    %rax,%rcx
    5a57:	e8 a4 a5 ff ff       	call   0 <printf>
    5a5c:	48 8b 45 30          	mov    0x30(%rbp),%rax
    5a60:	48 8b 00             	mov    (%rax),%rax
    5a63:	48 89 05 78 00 00 00 	mov    %rax,0x78(%rip)        # 5ae2 <pdsp_setp_ramp+0xcb>
    5a6a:	48 8b 05 78 00 00 00 	mov    0x78(%rip),%rax        # 5ae9 <pdsp_setp_ramp+0xd2>
    5a71:	f3 0f 10 30          	movss  (%rax),%xmm6
    5a75:	48 8b 45 30          	mov    0x30(%rbp),%rax
    5a79:	f3 0f 10 40 10       	movss  0x10(%rax),%xmm0
    5a7e:	f3 0f 10 0d 80 00 00 	movss  0x80(%rip),%xmm1        # 5b06 <pdsp_setp_exp+0x15>
    5a85:	00 
    5a86:	0f 57 c1             	xorps  %xmm1,%xmm0
    5a89:	66 0f 7e c3          	movd   %xmm0,%ebx
    5a8d:	48 8b 45 30          	mov    0x30(%rbp),%rax
    5a91:	8b 40 10             	mov    0x10(%rax),%eax
    5a94:	48 8b 15 78 00 00 00 	mov    0x78(%rip),%rdx        # 5b13 <pdsp_setp_exp+0x22>
    5a9b:	f3 0f 10 42 04       	movss  0x4(%rdx),%xmm0
    5aa0:	48 8b 15 78 00 00 00 	mov    0x78(%rip),%rdx        # 5b1f <pdsp_setp_exp+0x2e>
    5aa7:	f3 0f 10 0a          	movss  (%rdx),%xmm1
    5aab:	f3 0f 5c c1          	subss  %xmm1,%xmm0
    5aaf:	0f 28 c8             	movaps %xmm0,%xmm1
    5ab2:	66 0f 6e c0          	movd   %eax,%xmm0
    5ab6:	e8 00 00 00 00       	call   5abb <pdsp_setp_ramp+0xa4>
    5abb:	66 0f 7e c0          	movd   %xmm0,%eax
    5abf:	66 0f 6e c8          	movd   %eax,%xmm1
    5ac3:	66 0f 6e c3          	movd   %ebx,%xmm0
    5ac7:	e8 00 00 00 00       	call   5acc <pdsp_setp_ramp+0xb5>
    5acc:	48 8b 05 78 00 00 00 	mov    0x78(%rip),%rax        # 5b4b <pdsp_setp_exp+0x5a>
    5ad3:	f3 0f 58 c6          	addss  %xmm6,%xmm0
    5ad7:	f3 0f 11 00          	movss  %xmm0,(%rax)
    5adb:	48 8b 05 78 00 00 00 	mov    0x78(%rip),%rax        # 5b5a <pdsp_setp_exp+0x69>
    5ae2:	f3 0f 10 00          	movss  (%rax),%xmm0
    5ae6:	0f 10 75 00          	movups 0x0(%rbp),%xmm6
    5aea:	48 83 c4 38          	add    $0x38,%rsp
    5aee:	5b                   	pop    %rbx
    5aef:	5d                   	pop    %rbp
    5af0:	c3                   	ret

0000000000005af1 <pdsp_setp_exp>:
    5af1:	55                   	push   %rbp
    5af2:	48 89 e5             	mov    %rsp,%rbp
    5af5:	48 83 ec 20          	sub    $0x20,%rsp
    5af9:	48 89 4d 10          	mov    %rcx,0x10(%rbp)
    5afd:	48 83 7d 10 00       	cmpq   $0x0,0x10(%rbp)
    5b02:	74 0c                	je     5b10 <pdsp_setp_exp+0x1f>
    5b04:	48 8b 45 10          	mov    0x10(%rbp),%rax
    5b08:	48 8b 00             	mov    (%rax),%rax
    5b0b:	48 85 c0             	test   %rax,%rax
    5b0e:	75 1f                	jne    5b2f <pdsp_setp_exp+0x3e>
    5b10:	41 b8 a1 07 00 00    	mov    $0x7a1,%r8d
    5b16:	48 8d 05 20 00 00 00 	lea    0x20(%rip),%rax        # 5b3d <pdsp_setp_exp+0x4c>
    5b1d:	48 89 c2             	mov    %rax,%rdx
    5b20:	48 8d 05 27 00 00 00 	lea    0x27(%rip),%rax        # 5b4e <pdsp_setp_exp+0x5d>
    5b27:	48 89 c1             	mov    %rax,%rcx
    5b2a:	e8 d1 a4 ff ff       	call   0 <printf>
    5b2f:	48 8b 45 10          	mov    0x10(%rbp),%rax
    5b33:	48 8b 00             	mov    (%rax),%rax
    5b36:	48 89 05 80 00 00 00 	mov    %rax,0x80(%rip)        # 5bbd <pdsp_setp_set_dest+0x2d>
    5b3d:	48 8b 05 80 00 00 00 	mov    0x80(%rip),%rax        # 5bc4 <pdsp_setp_set_dest+0x34>
    5b44:	f3 0f 10 08          	movss  (%rax),%xmm1
    5b48:	48 8b 45 10          	mov    0x10(%rbp),%rax
    5b4c:	f3 0f 10 50 10       	movss  0x10(%rax),%xmm2
    5b51:	48 8b 05 80 00 00 00 	mov    0x80(%rip),%rax        # 5bd8 <pdsp_setp_set_dest+0x48>
    5b58:	f3 0f 10 40 04       	movss  0x4(%rax),%xmm0
    5b5d:	48 8b 05 80 00 00 00 	mov    0x80(%rip),%rax        # 5be4 <pdsp_setp_set_dest+0x54>
    5b64:	f3 0f 10 18          	movss  (%rax),%xmm3
    5b68:	f3 0f 5c c3          	subss  %xmm3,%xmm0
    5b6c:	f3 0f 59 c2          	mulss  %xmm2,%xmm0
    5b70:	48 8b 05 80 00 00 00 	mov    0x80(%rip),%rax        # 5bf7 <pdsp_setp_set_dest+0x67>
    5b77:	f3 0f 58 c1          	addss  %xmm1,%xmm0
    5b7b:	f3 0f 11 00          	movss  %xmm0,(%rax)
    5b7f:	48 8b 05 80 00 00 00 	mov    0x80(%rip),%rax        # 5c06 <pdsp_setp_set_dest+0x76>
    5b86:	f3 0f 10 00          	movss  (%rax),%xmm0
    5b8a:	48 83 c4 20          	add    $0x20,%rsp
    5b8e:	5d                   	pop    %rbp
    5b8f:	c3                   	ret

0000000000005b90 <pdsp_setp_set_dest>:
    5b90:	55                   	push   %rbp
    5b91:	56                   	push   %rsi
    5b92:	53                   	push   %rbx
    5b93:	48 83 ec 20          	sub    $0x20,%rsp
    5b97:	48 8d 6c 24 20       	lea    0x20(%rsp),%rbp
    5b9c:	48 89 4d 20          	mov    %rcx,0x20(%rbp)
    5ba0:	f3 0f 11 4d 28       	movss  %xmm1,0x28(%rbp)
    5ba5:	48 83 7d 20 00       	cmpq   $0x0,0x20(%rbp)
    5baa:	74 0c                	je     5bb8 <pdsp_setp_set_dest+0x28>
    5bac:	48 8b 45 20          	mov    0x20(%rbp),%rax
    5bb0:	48 8b 00             	mov    (%rax),%rax
    5bb3:	48 85 c0             	test   %rax,%rax
    5bb6:	75 1f                	jne    5bd7 <pdsp_setp_set_dest+0x47>
    5bb8:	41 b8 ab 07 00 00    	mov    $0x7ab,%r8d
    5bbe:	48 8d 05 20 00 00 00 	lea    0x20(%rip),%rax        # 5be5 <pdsp_setp_set_dest+0x55>
    5bc5:	48 89 c2             	mov    %rax,%rdx
    5bc8:	48 8d 05 27 00 00 00 	lea    0x27(%rip),%rax        # 5bf6 <pdsp_setp_set_dest+0x66>
    5bcf:	48 89 c1             	mov    %rax,%rcx
    5bd2:	e8 29 a4 ff ff       	call   0 <printf>
    5bd7:	48 8b 45 20          	mov    0x20(%rbp),%rax
    5bdb:	8b 58 08             	mov    0x8(%rax),%ebx
    5bde:	48 8b 45 20          	mov    0x20(%rbp),%rax
    5be2:	f3 0f 10 40 0c       	movss  0xc(%rax),%xmm0
    5be7:	8b 45 28             	mov    0x28(%rbp),%eax
    5bea:	0f 28 c8             	movaps %xmm0,%xmm1
    5bed:	66 0f 6e c0          	movd   %eax,%xmm0
    5bf1:	e8 00 00 00 00       	call   5bf6 <pdsp_setp_set_dest+0x66>
    5bf6:	66 0f 7e c2          	movd   %xmm0,%edx
    5bfa:	48 8b 45 20          	mov    0x20(%rbp),%rax
    5bfe:	48 8b 30             	mov    (%rax),%rsi
    5c01:	66 0f 6e ca          	movd   %edx,%xmm1
    5c05:	66 0f 6e c3          	movd   %ebx,%xmm0
    5c09:	e8 00 00 00 00       	call   5c0e <pdsp_setp_set_dest+0x7e>
    5c0e:	66 0f 7e c0          	movd   %xmm0,%eax
    5c12:	89 46 04             	mov    %eax,0x4(%rsi)
    5c15:	b8 00 00 00 00       	mov    $0x0,%eax
    5c1a:	48 83 c4 20          	add    $0x20,%rsp
    5c1e:	5b                   	pop    %rbx
    5c1f:	5e                   	pop    %rsi
    5c20:	5d                   	pop    %rbp
    5c21:	c3                   	ret

0000000000005c22 <pdsp_setp_step>:
    5c22:	55                   	push   %rbp
    5c23:	48 89 e5             	mov    %rsp,%rbp
    5c26:	48 83 ec 20          	sub    $0x20,%rsp
    5c2a:	48 89 4d 10          	mov    %rcx,0x10(%rbp)
    5c2e:	48 83 7d 10 00       	cmpq   $0x0,0x10(%rbp)
    5c33:	74 0c                	je     5c41 <pdsp_setp_step+0x1f>
    5c35:	48 8b 45 10          	mov    0x10(%rbp),%rax
    5c39:	48 8b 00             	mov    (%rax),%rax
    5c3c:	48 85 c0             	test   %rax,%rax
    5c3f:	75 1f                	jne    5c60 <pdsp_setp_step+0x3e>
    5c41:	41 b8 b3 07 00 00    	mov    $0x7b3,%r8d
    5c47:	48 8d 05 20 00 00 00 	lea    0x20(%rip),%rax        # 5c6e <pdsp_setp_step+0x4c>
    5c4e:	48 89 c2             	mov    %rax,%rdx
    5c51:	48 8d 05 27 00 00 00 	lea    0x27(%rip),%rax        # 5c7f <pdsp_setp_step+0x5d>
    5c58:	48 89 c1             	mov    %rax,%rcx
    5c5b:	e8 a0 a3 ff ff       	call   0 <printf>
    5c60:	48 8b 45 10          	mov    0x10(%rbp),%rax
    5c64:	48 8b 10             	mov    (%rax),%rdx
    5c67:	48 8b 45 10          	mov    0x10(%rbp),%rax
    5c6b:	48 8b 00             	mov    (%rax),%rax
    5c6e:	f3 0f 10 42 04       	movss  0x4(%rdx),%xmm0
    5c73:	f3 0f 11 00          	movss  %xmm0,(%rax)
    5c77:	48 8b 45 10          	mov    0x10(%rbp),%rax
    5c7b:	48 8b 00             	mov    (%rax),%rax
    5c7e:	f3 0f 10 00          	movss  (%rax),%xmm0
    5c82:	48 83 c4 20          	add    $0x20,%rsp
    5c86:	5d                   	pop    %rbp
    5c87:	c3                   	ret

0000000000005c88 <pdsp_setp_reset>:
    5c88:	55                   	push   %rbp
    5c89:	56                   	push   %rsi
    5c8a:	53                   	push   %rbx
    5c8b:	48 83 ec 20          	sub    $0x20,%rsp
    5c8f:	48 8d 6c 24 20       	lea    0x20(%rsp),%rbp
    5c94:	48 89 4d 20          	mov    %rcx,0x20(%rbp)
    5c98:	f3 0f 11 4d 28       	movss  %xmm1,0x28(%rbp)
    5c9d:	48 83 7d 20 00       	cmpq   $0x0,0x20(%rbp)
    5ca2:	74 0c                	je     5cb0 <pdsp_setp_reset+0x28>
    5ca4:	48 8b 45 20          	mov    0x20(%rbp),%rax
    5ca8:	48 8b 00             	mov    (%rax),%rax
    5cab:	48 85 c0             	test   %rax,%rax
    5cae:	75 1f                	jne    5ccf <pdsp_setp_reset+0x47>
    5cb0:	41 b8 bb 07 00 00    	mov    $0x7bb,%r8d
    5cb6:	48 8d 05 20 00 00 00 	lea    0x20(%rip),%rax        # 5cdd <pdsp_setp_reset+0x55>
    5cbd:	48 89 c2             	mov    %rax,%rdx
    5cc0:	48 8d 05 27 00 00 00 	lea    0x27(%rip),%rax        # 5cee <pdsp_setp_reset+0x66>
    5cc7:	48 89 c1             	mov    %rax,%rcx
    5cca:	e8 31 a3 ff ff       	call   0 <printf>
    5ccf:	48 8b 45 20          	mov    0x20(%rbp),%rax
    5cd3:	8b 58 08             	mov    0x8(%rax),%ebx
    5cd6:	48 8b 45 20          	mov    0x20(%rbp),%rax
    5cda:	f3 0f 10 40 0c       	movss  0xc(%rax),%xmm0
    5cdf:	8b 45 28             	mov    0x28(%rbp),%eax
    5ce2:	0f 28 c8             	movaps %xmm0,%xmm1
    5ce5:	66 0f 6e c0          	movd   %eax,%xmm0
    5ce9:	e8 00 00 00 00       	call   5cee <pdsp_setp_reset+0x66>
    5cee:	66 0f 7e c2          	movd   %xmm0,%edx
    5cf2:	48 8b 45 20          	mov    0x20(%rbp),%rax
    5cf6:	48 8b 30             	mov    (%rax),%rsi
    5cf9:	66 0f 6e ca          	movd   %edx,%xmm1
    5cfd:	66 0f 6e c3          	movd   %ebx,%xmm0
    5d01:	e8 00 00 00 00       	call   5d06 <pdsp_setp_reset+0x7e>
    5d06:	66 0f 7e c0          	movd   %xmm0,%eax
    5d0a:	89 06                	mov    %eax,(%rsi)
    5d0c:	48 8b 45 20          	mov    0x20(%rbp),%rax
    5d10:	48 8b 00             	mov    (%rax),%rax
    5d13:	f3 0f 10 00          	movss  (%rax),%xmm0
    5d17:	48 83 c4 20          	add    $0x20,%rsp
    5d1b:	5b                   	pop    %rbx
    5d1c:	5e                   	pop    %rsi
    5d1d:	5d                   	pop    %rbp
    5d1e:	c3                   	ret

0000000000005d1f <pdsp_setp_reached>:
    5d1f:	55                   	push   %rbp
    5d20:	48 89 e5             	mov    %rsp,%rbp
    5d23:	48 83 ec 20          	sub    $0x20,%rsp
    5d27:	48 89 4d 10          	mov    %rcx,0x10(%rbp)
    5d2b:	f3 0f 11 4d 18       	movss  %xmm1,0x18(%rbp)
    5d30:	48 83 7d 10 00       	cmpq   $0x0,0x10(%rbp)
    5d35:	74 0c                	je     5d43 <pdsp_setp_reached+0x24>
    5d37:	48 8b 45 10          	mov    0x10(%rbp),%rax
    5d3b:	48 8b 00             	mov    (%rax),%rax
    5d3e:	48 85 c0             	test   %rax,%rax
    5d41:	75 1f                	jne    5d62 <pdsp_setp_reached+0x43>
    5d43:	41 b8 c4 07 00 00    	mov    $0x7c4,%r8d
    5d49:	48 8d 05 20 00 00 00 	lea    0x20(%rip),%rax        # 5d70 <pdsp_setp_reached+0x51>
    5d50:	48 89 c2             	mov    %rax,%rdx
    5d53:	48 8d 05 27 00 00 00 	lea    0x27(%rip),%rax        # 5d81 <pdsp_setp_reached+0x62>
    5d5a:	48 89 c1             	mov    %rax,%rcx
    5d5d:	e8 9e a2 ff ff       	call   0 <printf>
    5d62:	48 8b 45 10          	mov    0x10(%rbp),%rax
    5d66:	48 8b 00             	mov    (%rax),%rax
    5d69:	f3 0f 10 00          	movss  (%rax),%xmm0
    5d6d:	48 8b 45 10          	mov    0x10(%rbp),%rax
    5d71:	48 8b 00             	mov    (%rax),%rax
    5d74:	f3 0f 10 48 04       	movss  0x4(%rax),%xmm1
    5d79:	f3 0f 5c c1          	subss  %xmm1,%xmm0
    5d7d:	f3 0f 10 0d a0 00 00 	movss  0xa0(%rip),%xmm1        # 5e25 <pdsp_setp_smooth_init+0x8c>
    5d84:	00 
    5d85:	0f 54 c8             	andps  %xmm0,%xmm1
    5d88:	f3 0f 10 45 18       	movss  0x18(%rbp),%xmm0
    5d8d:	0f 2f c1             	comiss %xmm1,%xmm0
    5d90:	0f 97 c0             	seta   %al
    5d93:	48 83 c4 20          	add    $0x20,%rsp
    5d97:	5d                   	pop    %rbp
    5d98:	c3                   	ret

0000000000005d99 <pdsp_setp_smooth_init>:
    5d99:	55                   	push   %rbp
    5d9a:	48 89 e5             	mov    %rsp,%rbp
    5d9d:	48 83 ec 20          	sub    $0x20,%rsp
    5da1:	48 89 4d 10          	mov    %rcx,0x10(%rbp)
    5da5:	48 83 7d 10 00       	cmpq   $0x0,0x10(%rbp)
    5daa:	74 0c                	je     5db8 <pdsp_setp_smooth_init+0x1f>
    5dac:	48 8b 45 10          	mov    0x10(%rbp),%rax
    5db0:	48 8b 00             	mov    (%rax),%rax
    5db3:	48 85 c0             	test   %rax,%rax
    5db6:	75 1f                	jne    5dd7 <pdsp_setp_smooth_init+0x3e>
    5db8:	41 b8 cb 07 00 00    	mov    $0x7cb,%r8d
    5dbe:	48 8d 05 20 00 00 00 	lea    0x20(%rip),%rax        # 5de5 <pdsp_setp_smooth_init+0x4c>
    5dc5:	48 89 c2             	mov    %rax,%rdx
    5dc8:	48 8d 05 27 00 00 00 	lea    0x27(%rip),%rax        # 5df6 <pdsp_setp_smooth_init+0x5d>
    5dcf:	48 89 c1             	mov    %rax,%rcx
    5dd2:	e8 29 a2 ff ff       	call   0 <printf>
    5dd7:	48 8b 45 10          	mov    0x10(%rbp),%rax
    5ddb:	48 8b 00             	mov    (%rax),%rax
    5dde:	f3 0f 10 05 44 00 00 	movss  0x44(%rip),%xmm0        # 5e2a <pdsp_setp_smooth_init+0x91>
    5de5:	00 
    5de6:	f3 0f 11 00          	movss  %xmm0,(%rax)
    5dea:	48 8b 45 10          	mov    0x10(%rbp),%rax
    5dee:	48 8b 00             	mov    (%rax),%rax
    5df1:	f3 0f 10 05 b0 00 00 	movss  0xb0(%rip),%xmm0        # 5ea9 <pdsp_setp_smooth+0x64>
    5df8:	00 
    5df9:	f3 0f 11 40 04       	movss  %xmm0,0x4(%rax)
    5dfe:	48 8b 45 10          	mov    0x10(%rbp),%rax
    5e02:	48 8b 00             	mov    (%rax),%rax
    5e05:	66 0f ef c0          	pxor   %xmm0,%xmm0
    5e09:	f3 0f 11 40 08       	movss  %xmm0,0x8(%rax)
    5e0e:	48 8b 45 10          	mov    0x10(%rbp),%rax
    5e12:	48 8b 00             	mov    (%rax),%rax
    5e15:	66 0f ef c0          	pxor   %xmm0,%xmm0
    5e19:	f3 0f 11 40 0c       	movss  %xmm0,0xc(%rax)
    5e1e:	48 8b 45 10          	mov    0x10(%rbp),%rax
    5e22:	48 8b 00             	mov    (%rax),%rax
    5e25:	66 0f ef c0          	pxor   %xmm0,%xmm0
    5e29:	f3 0f 11 40 10       	movss  %xmm0,0x10(%rax)
    5e2e:	48 8b 45 10          	mov    0x10(%rbp),%rax
    5e32:	48 8b 00             	mov    (%rax),%rax
    5e35:	66 0f ef c0          	pxor   %xmm0,%xmm0
    5e39:	f3 0f 11 40 14       	movss  %xmm0,0x14(%rax)
    5e3e:	90                   	nop
    5e3f:	48 83 c4 20          	add    $0x20,%rsp
    5e43:	5d                   	pop    %rbp
    5e44:	c3                   	ret

0000000000005e45 <pdsp_setp_smooth>:
    5e45:	55                   	push   %rbp
    5e46:	48 89 e5             	mov    %rsp,%rbp
    5e49:	48 83 ec 20          	sub    $0x20,%rsp
    5e4d:	48 89 4d 10          	mov    %rcx,0x10(%rbp)
    5e51:	48 83 7d 10 00       	cmpq   $0x0,0x10(%rbp)
    5e56:	74 0c                	je     5e64 <pdsp_setp_smooth+0x1f>
    5e58:	48 8b 45 10          	mov    0x10(%rbp),%rax
    5e5c:	48 8b 00             	mov    (%rax),%rax
    5e5f:	48 85 c0             	test   %rax,%rax
    5e62:	75 1f                	jne    5e83 <pdsp_setp_smooth+0x3e>
    5e64:	41 b8 d7 07 00 00    	mov    $0x7d7,%r8d
    5e6a:	48 8d 05 20 00 00 00 	lea    0x20(%rip),%rax        # 5e91 <pdsp_setp_smooth+0x4c>
    5e71:	48 89 c2             	mov    %rax,%rdx
    5e74:	48 8d 05 27 00 00 00 	lea    0x27(%rip),%rax        # 5ea2 <pdsp_setp_smooth+0x5d>
    5e7b:	48 89 c1             	mov    %rax,%rcx
    5e7e:	e8 7d a1 ff ff       	call   0 <printf>
    5e83:	48 8b 45 10          	mov    0x10(%rbp),%rax
    5e87:	48 8b 00             	mov    (%rax),%rax
    5e8a:	48 89 05 88 00 00 00 	mov    %rax,0x88(%rip)        # 5f19 <pdsp_setp_smooth+0xd4>
    5e91:	48 8b 05 88 00 00 00 	mov    0x88(%rip),%rax        # 5f20 <pdsp_setp_smooth+0xdb>
    5e98:	f3 0f 10 00          	movss  (%rax),%xmm0
    5e9c:	f3 0f 10 0d 44 00 00 	movss  0x44(%rip),%xmm1        # 5ee8 <pdsp_setp_smooth+0xa3>
    5ea3:	00 
    5ea4:	0f 2e c1             	ucomiss %xmm1,%xmm0
    5ea7:	7a 6e                	jp     5f17 <pdsp_setp_smooth+0xd2>
    5ea9:	f3 0f 10 0d 44 00 00 	movss  0x44(%rip),%xmm1        # 5ef5 <pdsp_setp_smooth+0xb0>
    5eb0:	00 
    5eb1:	0f 2e c1             	ucomiss %xmm1,%xmm0
    5eb4:	75 61                	jne    5f17 <pdsp_setp_smooth+0xd2>
    5eb6:	48 8b 05 88 00 00 00 	mov    0x88(%rip),%rax        # 5f45 <pdsp_setp_smooth+0x100>
    5ebd:	f3 0f 10 40 10       	movss  0x10(%rax),%xmm0
    5ec2:	48 8b 05 88 00 00 00 	mov    0x88(%rip),%rax        # 5f51 <pdsp_setp_smooth+0x10c>
    5ec9:	f3 0f 10 48 14       	movss  0x14(%rax),%xmm1
    5ece:	0f 2e c1             	ucomiss %xmm1,%xmm0
    5ed1:	7a 05                	jp     5ed8 <pdsp_setp_smooth+0x93>
    5ed3:	0f 2e c1             	ucomiss %xmm1,%xmm0
    5ed6:	74 3f                	je     5f17 <pdsp_setp_smooth+0xd2>
    5ed8:	48 8b 05 88 00 00 00 	mov    0x88(%rip),%rax        # 5f67 <pdsp_setp_smooth+0x122>
    5edf:	66 0f ef c0          	pxor   %xmm0,%xmm0
    5ee3:	f3 0f 11 00          	movss  %xmm0,(%rax)
    5ee7:	48 8b 15 88 00 00 00 	mov    0x88(%rip),%rdx        # 5f76 <pdsp_setp_smooth+0x131>
    5eee:	48 8b 05 88 00 00 00 	mov    0x88(%rip),%rax        # 5f7d <pdsp_setp_smooth+0x138>
    5ef5:	f3 0f 10 42 10       	movss  0x10(%rdx),%xmm0
    5efa:	f3 0f 11 40 0c       	movss  %xmm0,0xc(%rax)
    5eff:	48 8b 15 88 00 00 00 	mov    0x88(%rip),%rdx        # 5f8e <pdsp_setp_smooth+0x149>
    5f06:	48 8b 05 88 00 00 00 	mov    0x88(%rip),%rax        # 5f95 <pdsp_setp_smooth+0x150>
    5f0d:	f3 0f 10 42 14       	movss  0x14(%rdx),%xmm0
    5f12:	f3 0f 11 40 10       	movss  %xmm0,0x10(%rax)
    5f17:	48 8b 05 88 00 00 00 	mov    0x88(%rip),%rax        # 5fa6 <pdsp_setp_smooth+0x161>
    5f1e:	f3 0f 10 08          	movss  (%rax),%xmm1
    5f22:	48 8b 05 88 00 00 00 	mov    0x88(%rip),%rax        # 5fb1 <pdsp_setp_smooth+0x16c>
    5f29:	f3 0f 10 00          	movss  (%rax),%xmm0
    5f2d:	f3 0f 59 c8          	mulss  %xmm0,%xmm1
    5f31:	48 8b 05 88 00 00 00 	mov    0x88(%rip),%rax        # 5fc0 <pdsp_setp_smooth+0x17b>
    5f38:	f3 0f 10 00          	movss  (%rax),%xmm0
    5f3c:	0f 28 d0             	movaps %xmm0,%xmm2
    5f3f:	f3 0f 58 d0          	addss  %xmm0,%xmm2
    5f43:	f3 0f 10 05 60 00 00 	movss  0x60(%rip),%xmm0        # 5fab <pdsp_setp_smooth+0x166>
    5f4a:	00 
    5f4b:	f3 0f 5c c2          	subss  %xmm2,%xmm0
    5f4f:	48 8b 05 88 00 00 00 	mov    0x88(%rip),%rax        # 5fde <pdsp_setp_smooth+0x199>
    5f56:	f3 0f 59 c1          	mulss  %xmm1,%xmm0
    5f5a:	f3 0f 11 40 08       	movss  %xmm0,0x8(%rax)
    5f5f:	48 8b 05 88 00 00 00 	mov    0x88(%rip),%rax        # 5fee <pdsp_setp_smooth+0x1a9>
    5f66:	f3 0f 10 08          	movss  (%rax),%xmm1
    5f6a:	48 8b 05 88 00 00 00 	mov    0x88(%rip),%rax        # 5ff9 <pdsp_setp_smooth+0x1b4>
    5f71:	f3 0f 10 40 04       	movss  0x4(%rax),%xmm0
    5f76:	f3 0f 58 c1          	addss  %xmm1,%xmm0
    5f7a:	66 0f ef db          	pxor   %xmm3,%xmm3
    5f7e:	f3 0f 5a d8          	cvtss2sd %xmm0,%xmm3
    5f82:	66 48 0f 7e d8       	movq   %xmm3,%rax
    5f87:	66 0f ef c9          	pxor   %xmm1,%xmm1
    5f8b:	66 48 0f 6e c0       	movq   %rax,%xmm0
    5f90:	e8 00 00 00 00       	call   5f95 <pdsp_setp_smooth+0x150>
    5f95:	66 48 0f 7e c0       	movq   %xmm0,%rax
    5f9a:	f2 0f 10 05 b8 00 00 	movsd  0xb8(%rip),%xmm0        # 605a <pdsp_setp_smooth_set_dest+0x49>
    5fa1:	00 
    5fa2:	66 0f 28 c8          	movapd %xmm0,%xmm1
    5fa6:	66 48 0f 6e c0       	movq   %rax,%xmm0
    5fab:	e8 00 00 00 00       	call   5fb0 <pdsp_setp_smooth+0x16b>
    5fb0:	48 8b 05 88 00 00 00 	mov    0x88(%rip),%rax        # 603f <pdsp_setp_smooth_set_dest+0x2e>
    5fb7:	f2 0f 5a c0          	cvtsd2ss %xmm0,%xmm0
    5fbb:	f3 0f 11 00          	movss  %xmm0,(%rax)
    5fbf:	48 8b 05 88 00 00 00 	mov    0x88(%rip),%rax        # 604e <pdsp_setp_smooth_set_dest+0x3d>
    5fc6:	f3 0f 10 48 0c       	movss  0xc(%rax),%xmm1
    5fcb:	48 8b 05 88 00 00 00 	mov    0x88(%rip),%rax        # 605a <pdsp_setp_smooth_set_dest+0x49>
    5fd2:	f3 0f 10 50 08       	movss  0x8(%rax),%xmm2
    5fd7:	48 8b 05 88 00 00 00 	mov    0x88(%rip),%rax        # 6066 <pdsp_setp_smooth_set_dest+0x55>
    5fde:	f3 0f 10 40 10       	movss  0x10(%rax),%xmm0
    5fe3:	f3 0f 59 c2          	mulss  %xmm2,%xmm0
    5fe7:	f3 0f 58 c1          	addss  %xmm1,%xmm0
    5feb:	48 8b 05 88 00 00 00 	mov    0x88(%rip),%rax        # 607a <pdsp_setp_smooth_set_dest+0x69>
    5ff2:	f3 0f 10 50 08       	movss  0x8(%rax),%xmm2
    5ff7:	48 8b 05 88 00 00 00 	mov    0x88(%rip),%rax        # 6086 <pdsp_setp_smooth_set_dest+0x75>
    5ffe:	f3 0f 10 48 0c       	movss  0xc(%rax),%xmm1
    6003:	f3 0f 59 ca          	mulss  %xmm2,%xmm1
    6007:	f3 0f 5c c1          	subss  %xmm1,%xmm0
    600b:	48 83 c4 20          	add    $0x20,%rsp
    600f:	5d                   	pop    %rbp
    6010:	c3                   	ret

0000000000006011 <pdsp_setp_smooth_set_dest>:
    6011:	55                   	push   %rbp
    6012:	56                   	push   %rsi
    6013:	53                   	push   %rbx
    6014:	48 83 ec 20          	sub    $0x20,%rsp
    6018:	48 8d 6c 24 20       	lea    0x20(%rsp),%rbp
    601d:	48 89 4d 20          	mov    %rcx,0x20(%rbp)
    6021:	f3 0f 11 4d 28       	movss  %xmm1,0x28(%rbp)
    6026:	48 83 7d 20 00       	cmpq   $0x0,0x20(%rbp)
    602b:	74 0c                	je     6039 <pdsp_setp_smooth_set_dest+0x28>
    602d:	48 8b 45 20          	mov    0x20(%rbp),%rax
    6031:	48 8b 00             	mov    (%rax),%rax
    6034:	48 85 c0             	test   %rax,%rax
    6037:	75 1f                	jne    6058 <pdsp_setp_smooth_set_dest+0x47>
    6039:	41 b8 ea 07 00 00    	mov    $0x7ea,%r8d
    603f:	48 8d 05 20 00 00 00 	lea    0x20(%rip),%rax        # 6066 <pdsp_setp_smooth_set_dest+0x55>
    6046:	48 89 c2             	mov    %rax,%rdx
    6049:	48 8d 05 27 00 00 00 	lea    0x27(%rip),%rax        # 6077 <pdsp_setp_smooth_set_dest+0x66>
    6050:	48 89 c1             	mov    %rax,%rcx
    6053:	e8 a8 9f ff ff       	call   0 <printf>
    6058:	48 8b 45 20          	mov    0x20(%rbp),%rax
    605c:	8b 58 08             	mov    0x8(%rax),%ebx
    605f:	48 8b 45 20          	mov    0x20(%rbp),%rax
    6063:	f3 0f 10 40 0c       	movss  0xc(%rax),%xmm0
    6068:	8b 45 28             	mov    0x28(%rbp),%eax
    606b:	0f 28 c8             	movaps %xmm0,%xmm1
    606e:	66 0f 6e c0          	movd   %eax,%xmm0
    6072:	e8 00 00 00 00       	call   6077 <pdsp_setp_smooth_set_dest+0x66>
    6077:	66 0f 7e c2          	movd   %xmm0,%edx
    607b:	48 8b 45 20          	mov    0x20(%rbp),%rax
    607f:	48 8b 30             	mov    (%rax),%rsi
    6082:	66 0f 6e ca          	movd   %edx,%xmm1
    6086:	66 0f 6e c3          	movd   %ebx,%xmm0
    608a:	e8 00 00 00 00       	call   608f <pdsp_setp_smooth_set_dest+0x7e>
    608f:	66 0f 7e c0          	movd   %xmm0,%eax
    6093:	89 46 14             	mov    %eax,0x14(%rsi)
    6096:	b8 00 00 00 00       	mov    $0x0,%eax
    609b:	48 83 c4 20          	add    $0x20,%rsp
    609f:	5b                   	pop    %rbx
    60a0:	5e                   	pop    %rsi
    60a1:	5d                   	pop    %rbp
    60a2:	c3                   	ret

00000000000060a3 <pdsp_setp_smooth_set_time>:
    60a3:	55                   	push   %rbp
    60a4:	48 83 ec 30          	sub    $0x30,%rsp
    60a8:	48 8d 6c 24 20       	lea    0x20(%rsp),%rbp
    60ad:	0f 11 75 00          	movups %xmm6,0x0(%rbp)
    60b1:	48 89 4d 20          	mov    %rcx,0x20(%rbp)
    60b5:	f3 0f 11 4d 28       	movss  %xmm1,0x28(%rbp)
    60ba:	48 83 7d 20 00       	cmpq   $0x0,0x20(%rbp)
    60bf:	74 0c                	je     60cd <pdsp_setp_smooth_set_time+0x2a>
    60c1:	48 8b 45 20          	mov    0x20(%rbp),%rax
    60c5:	48 8b 00             	mov    (%rax),%rax
    60c8:	48 85 c0             	test   %rax,%rax
    60cb:	75 1f                	jne    60ec <pdsp_setp_smooth_set_time+0x49>
    60cd:	41 b8 f3 07 00 00    	mov    $0x7f3,%r8d
    60d3:	48 8d 05 20 00 00 00 	lea    0x20(%rip),%rax        # 60fa <pdsp_setp_smooth_set_time+0x57>
    60da:	48 89 c2             	mov    %rax,%rdx
    60dd:	48 8d 05 27 00 00 00 	lea    0x27(%rip),%rax        # 610b <pdsp_setp_smooth_set_time+0x68>
    60e4:	48 89 c1             	mov    %rax,%rcx
    60e7:	e8 14 9f ff ff       	call   0 <printf>
    60ec:	48 8b 45 20          	mov    0x20(%rbp),%rax
    60f0:	f3 0f 10 40 10       	movss  0x10(%rax),%xmm0
    60f5:	66 0f ef f6          	pxor   %xmm6,%xmm6
    60f9:	f3 0f 5a f0          	cvtss2sd %xmm0,%xmm6
    60fd:	48 8b 45 20          	mov    0x20(%rbp),%rax
    6101:	f3 0f 10 40 10       	movss  0x10(%rax),%xmm0
    6106:	66 0f ef d2          	pxor   %xmm2,%xmm2
    610a:	f3 0f 5a d0          	cvtss2sd %xmm0,%xmm2
    610e:	66 48 0f 7e d0       	movq   %xmm2,%rax
    6113:	66 0f ef c0          	pxor   %xmm0,%xmm0
    6117:	f3 0f 5a 45 28       	cvtss2sd 0x28(%rbp),%xmm0
    611c:	66 0f 28 c8          	movapd %xmm0,%xmm1
    6120:	66 48 0f 6e c0       	movq   %rax,%xmm0
    6125:	e8 00 00 00 00       	call   612a <pdsp_setp_smooth_set_time+0x87>
    612a:	f2 0f 5e f0          	divsd  %xmm0,%xmm6
    612e:	66 0f 28 ce          	movapd %xmm6,%xmm1
    6132:	48 8b 45 20          	mov    0x20(%rbp),%rax
    6136:	48 8b 00             	mov    (%rax),%rax
    6139:	66 0f ef c0          	pxor   %xmm0,%xmm0
    613d:	f2 0f 5a c1          	cvtsd2ss %xmm1,%xmm0
    6141:	f3 0f 11 40 04       	movss  %xmm0,0x4(%rax)
    6146:	b8 00 00 00 00       	mov    $0x0,%eax
    614b:	0f 10 75 00          	movups 0x0(%rbp),%xmm6
    614f:	48 83 c4 30          	add    $0x30,%rsp
    6153:	5d                   	pop    %rbp
    6154:	c3                   	ret

0000000000006155 <pdsp_setp_smooth_reached>:
    6155:	55                   	push   %rbp
    6156:	48 89 e5             	mov    %rsp,%rbp
    6159:	48 83 ec 20          	sub    $0x20,%rsp
    615d:	48 89 4d 10          	mov    %rcx,0x10(%rbp)
    6161:	f3 0f 11 4d 18       	movss  %xmm1,0x18(%rbp)
    6166:	48 83 7d 10 00       	cmpq   $0x0,0x10(%rbp)
    616b:	74 0c                	je     6179 <pdsp_setp_smooth_reached+0x24>
    616d:	48 8b 45 10          	mov    0x10(%rbp),%rax
    6171:	48 8b 00             	mov    (%rax),%rax
    6174:	48 85 c0             	test   %rax,%rax
    6177:	75 1f                	jne    6198 <pdsp_setp_smooth_reached+0x43>
    6179:	41 b8 fc 07 00 00    	mov    $0x7fc,%r8d
    617f:	48 8d 05 20 00 00 00 	lea    0x20(%rip),%rax        # 61a6 <pdsp_setp_smooth_reached+0x51>
    6186:	48 89 c2             	mov    %rax,%rdx
    6189:	48 8d 05 27 00 00 00 	lea    0x27(%rip),%rax        # 61b7 <pdsp_setp_smooth_reached+0x62>
    6190:	48 89 c1             	mov    %rax,%rcx
    6193:	e8 68 9e ff ff       	call   0 <printf>
    6198:	48 8b 45 10          	mov    0x10(%rbp),%rax
    619c:	48 8b 00             	mov    (%rax),%rax
    619f:	f3 0f 10 00          	movss  (%rax),%xmm0
    61a3:	f3 0f 10 0d 44 00 00 	movss  0x44(%rip),%xmm1        # 61ef <pdsp_saw_init+0x24>
    61aa:	00 
    61ab:	f3 0f 5c c1          	subss  %xmm1,%xmm0
    61af:	f3 0f 10 0d a0 00 00 	movss  0xa0(%rip),%xmm1        # 6257 <pdsp_saw+0x43>
    61b6:	00 
    61b7:	0f 54 c8             	andps  %xmm0,%xmm1
    61ba:	f3 0f 10 45 18       	movss  0x18(%rbp),%xmm0
    61bf:	0f 2f c1             	comiss %xmm1,%xmm0
    61c2:	0f 97 c0             	seta   %al
    61c5:	48 83 c4 20          	add    $0x20,%rsp
    61c9:	5d                   	pop    %rbp
    61ca:	c3                   	ret

00000000000061cb <pdsp_saw_init>:
    61cb:	55                   	push   %rbp
    61cc:	48 89 e5             	mov    %rsp,%rbp
    61cf:	48 83 ec 20          	sub    $0x20,%rsp
    61d3:	48 89 4d 10          	mov    %rcx,0x10(%rbp)
    61d7:	48 83 7d 10 00       	cmpq   $0x0,0x10(%rbp)
    61dc:	75 1f                	jne    61fd <pdsp_saw_init+0x32>
    61de:	41 b8 02 08 00 00    	mov    $0x802,%r8d
    61e4:	48 8d 05 20 00 00 00 	lea    0x20(%rip),%rax        # 620b <pdsp_saw_init+0x40>
    61eb:	48 89 c2             	mov    %rax,%rdx
    61ee:	48 8d 05 27 00 00 00 	lea    0x27(%rip),%rax        # 621c <pdsp_saw+0x8>
    61f5:	48 89 c1             	mov    %rax,%rcx
    61f8:	e8 03 9e ff ff       	call   0 <printf>
    61fd:	48 8b 45 10          	mov    0x10(%rbp),%rax
    6201:	66 0f ef c0          	pxor   %xmm0,%xmm0
    6205:	f3 0f 11 00          	movss  %xmm0,(%rax)
    6209:	b8 00 00 00 00       	mov    $0x0,%eax
    620e:	48 83 c4 20          	add    $0x20,%rsp
    6212:	5d                   	pop    %rbp
    6213:	c3                   	ret

0000000000006214 <pdsp_saw>:
    6214:	55                   	push   %rbp
    6215:	48 89 e5             	mov    %rsp,%rbp
    6218:	48 83 ec 20          	sub    $0x20,%rsp
    621c:	48 89 4d 10          	mov    %rcx,0x10(%rbp)
    6220:	48 89 55 18          	mov    %rdx,0x18(%rbp)
    6224:	48 83 7d 10 00       	cmpq   $0x0,0x10(%rbp)
    6229:	74 07                	je     6232 <pdsp_saw+0x1e>
    622b:	48 83 7d 18 00       	cmpq   $0x0,0x18(%rbp)
    6230:	75 1f                	jne    6251 <pdsp_saw+0x3d>
    6232:	41 b8 0a 08 00 00    	mov    $0x80a,%r8d
    6238:	48 8d 05 20 00 00 00 	lea    0x20(%rip),%rax        # 625f <pdsp_saw+0x4b>
    623f:	48 89 c2             	mov    %rax,%rdx
    6242:	48 8d 05 27 00 00 00 	lea    0x27(%rip),%rax        # 6270 <pdsp_saw+0x5c>
    6249:	48 89 c1             	mov    %rax,%rcx
    624c:	e8 af 9d ff ff       	call   0 <printf>
    6251:	48 8b 45 10          	mov    0x10(%rbp),%rax
    6255:	f3 0f 10 08          	movss  (%rax),%xmm1
    6259:	48 8b 45 18          	mov    0x18(%rbp),%rax
    625d:	f3 0f 10 00          	movss  (%rax),%xmm0
    6261:	f3 0f 58 c1          	addss  %xmm1,%xmm0
    6265:	48 8b 45 10          	mov    0x10(%rbp),%rax
    6269:	f3 0f 11 00          	movss  %xmm0,(%rax)
    626d:	48 8b 45 10          	mov    0x10(%rbp),%rax
    6271:	f3 0f 10 00          	movss  (%rax),%xmm0
    6275:	48 8b 45 18          	mov    0x18(%rbp),%rax
    6279:	f3 0f 10 48 08       	movss  0x8(%rax),%xmm1
    627e:	0f 2f c1             	comiss %xmm1,%xmm0
    6281:	76 12                	jbe    6295 <pdsp_saw+0x81>
    6283:	48 8b 45 10          	mov    0x10(%rbp),%rax
    6287:	66 0f ef c0          	pxor   %xmm0,%xmm0
    628b:	f3 0f 11 00          	movss  %xmm0,(%rax)
    628f:	66 0f ef c0          	pxor   %xmm0,%xmm0
    6293:	eb 08                	jmp    629d <pdsp_saw+0x89>
    6295:	48 8b 45 10          	mov    0x10(%rbp),%rax
    6299:	f3 0f 10 00          	movss  (%rax),%xmm0
    629d:	48 83 c4 20          	add    $0x20,%rsp
    62a1:	5d                   	pop    %rbp
    62a2:	c3                   	ret

00000000000062a3 <pdsp_saw_shift>:
    62a3:	55                   	push   %rbp
    62a4:	48 89 e5             	mov    %rsp,%rbp
    62a7:	48 83 ec 20          	sub    $0x20,%rsp
    62ab:	f3 0f 11 45 10       	movss  %xmm0,0x10(%rbp)
    62b0:	48 89 55 18          	mov    %rdx,0x18(%rbp)
    62b4:	f3 0f 11 55 20       	movss  %xmm2,0x20(%rbp)
    62b9:	48 83 7d 18 00       	cmpq   $0x0,0x18(%rbp)
    62be:	75 1f                	jne    62df <pdsp_saw_shift+0x3c>
    62c0:	41 b8 1b 08 00 00    	mov    $0x81b,%r8d
    62c6:	48 8d 05 20 00 00 00 	lea    0x20(%rip),%rax        # 62ed <pdsp_saw_shift+0x4a>
    62cd:	48 89 c2             	mov    %rax,%rdx
    62d0:	48 8d 05 27 00 00 00 	lea    0x27(%rip),%rax        # 62fe <pdsp_saw_shift+0x5b>
    62d7:	48 89 c1             	mov    %rax,%rcx
    62da:	e8 21 9d ff ff       	call   0 <printf>
    62df:	f3 0f 10 45 10       	movss  0x10(%rbp),%xmm0
    62e4:	f3 0f 58 45 20       	addss  0x20(%rbp),%xmm0
    62e9:	f3 0f 11 45 10       	movss  %xmm0,0x10(%rbp)
    62ee:	48 8b 45 18          	mov    0x18(%rbp),%rax
    62f2:	f3 0f 10 48 08       	movss  0x8(%rax),%xmm1
    62f7:	f3 0f 10 45 10       	movss  0x10(%rbp),%xmm0
    62fc:	0f 2f c1             	comiss %xmm1,%xmm0
    62ff:	76 1e                	jbe    631f <pdsp_saw_shift+0x7c>
    6301:	48 8b 45 18          	mov    0x18(%rbp),%rax
    6305:	f3 0f 10 48 08       	movss  0x8(%rax),%xmm1
    630a:	f3 0f 10 45 10       	movss  0x10(%rbp),%xmm0
    630f:	f3 0f 5c c1          	subss  %xmm1,%xmm0
    6313:	f3 0f 11 45 10       	movss  %xmm0,0x10(%rbp)
    6318:	f3 0f 10 45 10       	movss  0x10(%rbp),%xmm0
    631d:	eb 05                	jmp    6324 <pdsp_saw_shift+0x81>
    631f:	f3 0f 10 45 10       	movss  0x10(%rbp),%xmm0
    6324:	48 83 c4 20          	add    $0x20,%rsp
    6328:	5d                   	pop    %rbp
    6329:	c3                   	ret

000000000000632a <pdsp_dpll_1ph_notch_init>:
    632a:	55                   	push   %rbp
    632b:	48 89 e5             	mov    %rsp,%rbp
    632e:	48 83 ec 20          	sub    $0x20,%rsp
    6332:	48 89 4d 10          	mov    %rcx,0x10(%rbp)
    6336:	48 83 7d 10 00       	cmpq   $0x0,0x10(%rbp)
    633b:	75 1f                	jne    635c <pdsp_dpll_1ph_notch_init+0x32>
    633d:	41 b8 2b 08 00 00    	mov    $0x82b,%r8d
    6343:	48 8d 05 20 00 00 00 	lea    0x20(%rip),%rax        # 636a <pdsp_dpll_1ph_notch_init+0x40>
    634a:	48 89 c2             	mov    %rax,%rdx
    634d:	48 8d 05 27 00 00 00 	lea    0x27(%rip),%rax        # 637b <pdsp_dpll_1ph_notch_init+0x51>
    6354:	48 89 c1             	mov    %rax,%rcx
    6357:	e8 a4 9c ff ff       	call   0 <printf>
    635c:	48 8b 45 10          	mov    0x10(%rbp),%rax
    6360:	66 0f ef c0          	pxor   %xmm0,%xmm0
    6364:	f3 0f 11 00          	movss  %xmm0,(%rax)
    6368:	48 8b 45 10          	mov    0x10(%rbp),%rax
    636c:	66 0f ef c0          	pxor   %xmm0,%xmm0
    6370:	f3 0f 11 40 04       	movss  %xmm0,0x4(%rax)
    6375:	48 8b 45 10          	mov    0x10(%rbp),%rax
    6379:	66 0f ef c0          	pxor   %xmm0,%xmm0
    637d:	f3 0f 11 40 08       	movss  %xmm0,0x8(%rax)
    6382:	48 8b 45 10          	mov    0x10(%rbp),%rax
    6386:	66 0f ef c0          	pxor   %xmm0,%xmm0
    638a:	f3 0f 11 40 0c       	movss  %xmm0,0xc(%rax)
    638f:	48 8b 45 10          	mov    0x10(%rbp),%rax
    6393:	66 0f ef c0          	pxor   %xmm0,%xmm0
    6397:	f3 0f 11 40 10       	movss  %xmm0,0x10(%rax)
    639c:	48 8b 45 10          	mov    0x10(%rbp),%rax
    63a0:	66 0f ef c0          	pxor   %xmm0,%xmm0
    63a4:	f3 0f 11 40 14       	movss  %xmm0,0x14(%rax)
    63a9:	48 8b 45 10          	mov    0x10(%rbp),%rax
    63ad:	66 0f ef c0          	pxor   %xmm0,%xmm0
    63b1:	f3 0f 11 40 18       	movss  %xmm0,0x18(%rax)
    63b6:	48 8b 45 10          	mov    0x10(%rbp),%rax
    63ba:	66 0f ef c0          	pxor   %xmm0,%xmm0
    63be:	f3 0f 11 40 1c       	movss  %xmm0,0x1c(%rax)
    63c3:	48 8b 45 10          	mov    0x10(%rbp),%rax
    63c7:	66 0f ef c0          	pxor   %xmm0,%xmm0
    63cb:	f3 0f 11 40 20       	movss  %xmm0,0x20(%rax)
    63d0:	48 8b 45 10          	mov    0x10(%rbp),%rax
    63d4:	66 0f ef c0          	pxor   %xmm0,%xmm0
    63d8:	f3 0f 11 40 24       	movss  %xmm0,0x24(%rax)
    63dd:	48 8b 45 10          	mov    0x10(%rbp),%rax
    63e1:	66 0f ef c0          	pxor   %xmm0,%xmm0
    63e5:	f3 0f 11 40 28       	movss  %xmm0,0x28(%rax)
    63ea:	48 8b 45 10          	mov    0x10(%rbp),%rax
    63ee:	66 0f ef c0          	pxor   %xmm0,%xmm0
    63f2:	f3 0f 11 40 2c       	movss  %xmm0,0x2c(%rax)
    63f7:	48 8b 45 10          	mov    0x10(%rbp),%rax
    63fb:	66 0f ef c0          	pxor   %xmm0,%xmm0
    63ff:	f3 0f 11 40 30       	movss  %xmm0,0x30(%rax)
    6404:	48 8b 45 10          	mov    0x10(%rbp),%rax
    6408:	66 0f ef c0          	pxor   %xmm0,%xmm0
    640c:	f3 0f 11 40 34       	movss  %xmm0,0x34(%rax)
    6411:	48 8b 45 10          	mov    0x10(%rbp),%rax
    6415:	66 0f ef c0          	pxor   %xmm0,%xmm0
    6419:	f3 0f 11 40 38       	movss  %xmm0,0x38(%rax)
    641e:	48 8b 45 10          	mov    0x10(%rbp),%rax
    6422:	66 0f ef c0          	pxor   %xmm0,%xmm0
    6426:	f3 0f 11 40 3c       	movss  %xmm0,0x3c(%rax)
    642b:	48 8b 45 10          	mov    0x10(%rbp),%rax
    642f:	66 0f ef c0          	pxor   %xmm0,%xmm0
    6433:	f3 0f 11 40 40       	movss  %xmm0,0x40(%rax)
    6438:	b8 00 00 00 00       	mov    $0x0,%eax
    643d:	48 83 c4 20          	add    $0x20,%rsp
    6441:	5d                   	pop    %rbp
    6442:	c3                   	ret

0000000000006443 <pdsp_dpll_1ph_notch>:
    6443:	55                   	push   %rbp
    6444:	48 89 e5             	mov    %rsp,%rbp
    6447:	48 83 ec 20          	sub    $0x20,%rsp
    644b:	48 89 4d 10          	mov    %rcx,0x10(%rbp)
    644f:	f3 0f 11 4d 18       	movss  %xmm1,0x18(%rbp)
    6454:	48 83 7d 10 00       	cmpq   $0x0,0x10(%rbp)
    6459:	75 1f                	jne    647a <pdsp_dpll_1ph_notch+0x37>
    645b:	41 b8 44 08 00 00    	mov    $0x844,%r8d
    6461:	48 8d 05 20 00 00 00 	lea    0x20(%rip),%rax        # 6488 <pdsp_dpll_1ph_notch+0x45>
    6468:	48 89 c2             	mov    %rax,%rdx
    646b:	48 8d 05 27 00 00 00 	lea    0x27(%rip),%rax        # 6499 <pdsp_dpll_1ph_notch+0x56>
    6472:	48 89 c1             	mov    %rax,%rcx
    6475:	e8 86 9b ff ff       	call   0 <printf>
    647a:	48 8b 45 10          	mov    0x10(%rbp),%rax
    647e:	f3 0f 10 40 38       	movss  0x38(%rax),%xmm0
    6483:	f3 0f 59 45 18       	mulss  0x18(%rbp),%xmm0
    6488:	48 8b 45 10          	mov    0x10(%rbp),%rax
    648c:	f3 0f 11 00          	movss  %xmm0,(%rax)
    6490:	48 8b 45 10          	mov    0x10(%rbp),%rax
    6494:	f3 0f 10 40 10       	movss  0x10(%rax),%xmm0
    6499:	f3 0f 10 0d 80 00 00 	movss  0x80(%rip),%xmm1        # 6521 <pdsp_dpll_1ph_notch+0xde>
    64a0:	00 
    64a1:	0f 57 c8             	xorps  %xmm0,%xmm1
    64a4:	48 8b 45 10          	mov    0x10(%rbp),%rax
    64a8:	f3 0f 10 40 50       	movss  0x50(%rax),%xmm0
    64ad:	f3 0f 59 c1          	mulss  %xmm1,%xmm0
    64b1:	48 8b 45 10          	mov    0x10(%rbp),%rax
    64b5:	f3 0f 10 50 14       	movss  0x14(%rax),%xmm2
    64ba:	48 8b 45 10          	mov    0x10(%rbp),%rax
    64be:	f3 0f 10 48 54       	movss  0x54(%rax),%xmm1
    64c3:	f3 0f 59 d1          	mulss  %xmm1,%xmm2
    64c7:	0f 28 c8             	movaps %xmm0,%xmm1
    64ca:	f3 0f 5c ca          	subss  %xmm2,%xmm1
    64ce:	48 8b 45 10          	mov    0x10(%rbp),%rax
    64d2:	f3 0f 10 10          	movss  (%rax),%xmm2
    64d6:	48 8b 45 10          	mov    0x10(%rbp),%rax
    64da:	f3 0f 10 40 44       	movss  0x44(%rax),%xmm0
    64df:	f3 0f 59 c2          	mulss  %xmm2,%xmm0
    64e3:	f3 0f 58 c8          	addss  %xmm0,%xmm1
    64e7:	48 8b 45 10          	mov    0x10(%rbp),%rax
    64eb:	f3 0f 10 50 04       	movss  0x4(%rax),%xmm2
    64f0:	48 8b 45 10          	mov    0x10(%rbp),%rax
    64f4:	f3 0f 10 40 48       	movss  0x48(%rax),%xmm0
    64f9:	f3 0f 59 c2          	mulss  %xmm2,%xmm0
    64fd:	f3 0f 58 c8          	addss  %xmm0,%xmm1
    6501:	48 8b 45 10          	mov    0x10(%rbp),%rax
    6505:	f3 0f 10 50 08       	movss  0x8(%rax),%xmm2
    650a:	48 8b 45 10          	mov    0x10(%rbp),%rax
    650e:	f3 0f 10 40 4c       	movss  0x4c(%rax),%xmm0
    6513:	f3 0f 59 c2          	mulss  %xmm2,%xmm0
    6517:	f3 0f 58 c1          	addss  %xmm1,%xmm0
    651b:	48 8b 45 10          	mov    0x10(%rbp),%rax
    651f:	f3 0f 11 40 0c       	movss  %xmm0,0xc(%rax)
    6524:	48 8b 45 10          	mov    0x10(%rbp),%rax
    6528:	f3 0f 10 40 1c       	movss  0x1c(%rax),%xmm0
    652d:	f3 0f 10 0d 80 00 00 	movss  0x80(%rip),%xmm1        # 65b5 <pdsp_dpll_1ph_notch+0x172>
    6534:	00 
    6535:	0f 57 c8             	xorps  %xmm0,%xmm1
    6538:	48 8b 45 10          	mov    0x10(%rbp),%rax
    653c:	f3 0f 10 40 50       	movss  0x50(%rax),%xmm0
    6541:	f3 0f 59 c1          	mulss  %xmm1,%xmm0
    6545:	48 8b 45 10          	mov    0x10(%rbp),%rax
    6549:	f3 0f 10 50 20       	movss  0x20(%rax),%xmm2
    654e:	48 8b 45 10          	mov    0x10(%rbp),%rax
    6552:	f3 0f 10 48 54       	movss  0x54(%rax),%xmm1
    6557:	f3 0f 59 d1          	mulss  %xmm1,%xmm2
    655b:	0f 28 c8             	movaps %xmm0,%xmm1
    655e:	f3 0f 5c ca          	subss  %xmm2,%xmm1
    6562:	48 8b 45 10          	mov    0x10(%rbp),%rax
    6566:	f3 0f 10 50 0c       	movss  0xc(%rax),%xmm2
    656b:	48 8b 45 10          	mov    0x10(%rbp),%rax
    656f:	f3 0f 10 40 44       	movss  0x44(%rax),%xmm0
    6574:	f3 0f 59 c2          	mulss  %xmm2,%xmm0
    6578:	f3 0f 58 c8          	addss  %xmm0,%xmm1
    657c:	48 8b 45 10          	mov    0x10(%rbp),%rax
    6580:	f3 0f 10 50 10       	movss  0x10(%rax),%xmm2
    6585:	48 8b 45 10          	mov    0x10(%rbp),%rax
    6589:	f3 0f 10 40 48       	movss  0x48(%rax),%xmm0
    658e:	f3 0f 59 c2          	mulss  %xmm2,%xmm0
    6592:	f3 0f 58 c8          	addss  %xmm0,%xmm1
    6596:	48 8b 45 10          	mov    0x10(%rbp),%rax
    659a:	f3 0f 10 50 14       	movss  0x14(%rax),%xmm2
    659f:	48 8b 45 10          	mov    0x10(%rbp),%rax
    65a3:	f3 0f 10 40 4c       	movss  0x4c(%rax),%xmm0
    65a8:	f3 0f 59 c2          	mulss  %xmm2,%xmm0
    65ac:	f3 0f 58 c1          	addss  %xmm1,%xmm0
    65b0:	48 8b 45 10          	mov    0x10(%rbp),%rax
    65b4:	f3 0f 11 40 18       	movss  %xmm0,0x18(%rax)
    65b9:	48 8b 45 10          	mov    0x10(%rbp),%rax
    65bd:	f3 0f 10 48 28       	movss  0x28(%rax),%xmm1
    65c2:	48 8b 45 10          	mov    0x10(%rbp),%rax
    65c6:	f3 0f 10 50 58       	movss  0x58(%rax),%xmm2
    65cb:	48 8b 45 10          	mov    0x10(%rbp),%rax
    65cf:	f3 0f 10 40 18       	movss  0x18(%rax),%xmm0
    65d4:	f3 0f 59 c2          	mulss  %xmm2,%xmm0
    65d8:	f3 0f 58 c8          	addss  %xmm0,%xmm1
    65dc:	48 8b 45 10          	mov    0x10(%rbp),%rax
    65e0:	f3 0f 10 50 5c       	movss  0x5c(%rax),%xmm2
    65e5:	48 8b 45 10          	mov    0x10(%rbp),%rax
    65e9:	f3 0f 10 40 1c       	movss  0x1c(%rax),%xmm0
    65ee:	f3 0f 59 c2          	mulss  %xmm2,%xmm0
    65f2:	f3 0f 58 c1          	addss  %xmm1,%xmm0
    65f6:	48 8b 45 10          	mov    0x10(%rbp),%rax
    65fa:	f3 0f 11 40 24       	movss  %xmm0,0x24(%rax)
    65ff:	48 8b 45 10          	mov    0x10(%rbp),%rax
    6603:	f3 0f 10 40 04       	movss  0x4(%rax),%xmm0
    6608:	48 8b 45 10          	mov    0x10(%rbp),%rax
    660c:	f3 0f 11 40 08       	movss  %xmm0,0x8(%rax)
    6611:	48 8b 45 10          	mov    0x10(%rbp),%rax
    6615:	f3 0f 10 00          	movss  (%rax),%xmm0
    6619:	48 8b 45 10          	mov    0x10(%rbp),%rax
    661d:	f3 0f 11 40 04       	movss  %xmm0,0x4(%rax)
    6622:	48 8b 45 10          	mov    0x10(%rbp),%rax
    6626:	f3 0f 10 40 10       	movss  0x10(%rax),%xmm0
    662b:	48 8b 45 10          	mov    0x10(%rbp),%rax
    662f:	f3 0f 11 40 14       	movss  %xmm0,0x14(%rax)
    6634:	48 8b 45 10          	mov    0x10(%rbp),%rax
    6638:	f3 0f 10 40 0c       	movss  0xc(%rax),%xmm0
    663d:	48 8b 45 10          	mov    0x10(%rbp),%rax
    6641:	f3 0f 11 40 10       	movss  %xmm0,0x10(%rax)
    6646:	48 8b 45 10          	mov    0x10(%rbp),%rax
    664a:	f3 0f 10 40 1c       	movss  0x1c(%rax),%xmm0
    664f:	48 8b 45 10          	mov    0x10(%rbp),%rax
    6653:	f3 0f 11 40 20       	movss  %xmm0,0x20(%rax)
    6658:	48 8b 45 10          	mov    0x10(%rbp),%rax
    665c:	f3 0f 10 40 18       	movss  0x18(%rax),%xmm0
    6661:	48 8b 45 10          	mov    0x10(%rbp),%rax
    6665:	f3 0f 11 40 1c       	movss  %xmm0,0x1c(%rax)
    666a:	48 8b 45 10          	mov    0x10(%rbp),%rax
    666e:	f3 0f 10 40 24       	movss  0x24(%rax),%xmm0
    6673:	48 8b 45 10          	mov    0x10(%rbp),%rax
    6677:	f3 0f 11 40 28       	movss  %xmm0,0x28(%rax)
    667c:	48 8b 45 10          	mov    0x10(%rbp),%rax
    6680:	f3 0f 10 48 30       	movss  0x30(%rax),%xmm1
    6685:	48 8b 45 10          	mov    0x10(%rbp),%rax
    6689:	f3 0f 10 40 24       	movss  0x24(%rax),%xmm0
    668e:	f3 0f 58 c1          	addss  %xmm1,%xmm0
    6692:	48 8b 45 10          	mov    0x10(%rbp),%rax
    6696:	f3 0f 11 40 2c       	movss  %xmm0,0x2c(%rax)
    669b:	48 8b 45 10          	mov    0x10(%rbp),%rax
    669f:	f3 0f 10 48 34       	movss  0x34(%rax),%xmm1
    66a4:	48 8b 45 10          	mov    0x10(%rbp),%rax
    66a8:	f3 0f 10 50 2c       	movss  0x2c(%rax),%xmm2
    66ad:	48 8b 45 10          	mov    0x10(%rbp),%rax
    66b1:	f3 0f 10 40 40       	movss  0x40(%rax),%xmm0
    66b6:	f3 0f 59 d0          	mulss  %xmm0,%xmm2
    66ba:	f3 0f 10 05 c0 00 00 	movss  0xc0(%rip),%xmm0        # 6782 <pdsp_dpll_1ph_sogi_init+0x3e>
    66c1:	00 
    66c2:	f3 0f 59 c2          	mulss  %xmm2,%xmm0
    66c6:	f3 0f 58 c1          	addss  %xmm1,%xmm0
    66ca:	48 8b 45 10          	mov    0x10(%rbp),%rax
    66ce:	f3 0f 11 40 34       	movss  %xmm0,0x34(%rax)
    66d3:	48 8b 45 10          	mov    0x10(%rbp),%rax
    66d7:	f3 0f 10 40 34       	movss  0x34(%rax),%xmm0
    66dc:	0f 2f 05 c0 00 00 00 	comiss 0xc0(%rip),%xmm0        # 67a3 <pdsp_dpll_1ph_sogi_init+0x5f>
    66e3:	76 1e                	jbe    6703 <pdsp_dpll_1ph_notch+0x2c0>
    66e5:	48 8b 45 10          	mov    0x10(%rbp),%rax
    66e9:	f3 0f 10 40 34       	movss  0x34(%rax),%xmm0
    66ee:	f3 0f 10 0d c0 00 00 	movss  0xc0(%rip),%xmm1        # 67b6 <pdsp_dpll_1ph_sogi_init+0x72>
    66f5:	00 
    66f6:	f3 0f 5c c1          	subss  %xmm1,%xmm0
    66fa:	48 8b 45 10          	mov    0x10(%rbp),%rax
    66fe:	f3 0f 11 40 34       	movss  %xmm0,0x34(%rax)
    6703:	48 8b 45 10          	mov    0x10(%rbp),%rax
    6707:	8b 40 34             	mov    0x34(%rax),%eax
    670a:	66 0f 6e c0          	movd   %eax,%xmm0
    670e:	e8 00 00 00 00       	call   6713 <pdsp_dpll_1ph_notch+0x2d0>
    6713:	66 0f 7e c0          	movd   %xmm0,%eax
    6717:	48 8b 55 10          	mov    0x10(%rbp),%rdx
    671b:	89 42 3c             	mov    %eax,0x3c(%rdx)
    671e:	48 8b 45 10          	mov    0x10(%rbp),%rax
    6722:	8b 40 34             	mov    0x34(%rax),%eax
    6725:	66 0f 6e c0          	movd   %eax,%xmm0
    6729:	e8 00 00 00 00       	call   672e <pdsp_dpll_1ph_notch+0x2eb>
    672e:	66 0f 7e c0          	movd   %xmm0,%eax
    6732:	48 8b 55 10          	mov    0x10(%rbp),%rdx
    6736:	89 42 38             	mov    %eax,0x38(%rdx)
    6739:	b8 00 00 00 00       	mov    $0x0,%eax
    673e:	48 83 c4 20          	add    $0x20,%rsp
    6742:	5d                   	pop    %rbp
    6743:	c3                   	ret

0000000000006744 <pdsp_dpll_1ph_sogi_init>:
    6744:	55                   	push   %rbp
    6745:	48 89 e5             	mov    %rsp,%rbp
    6748:	48 83 ec 20          	sub    $0x20,%rsp
    674c:	48 89 4d 10          	mov    %rcx,0x10(%rbp)
    6750:	48 83 7d 10 00       	cmpq   $0x0,0x10(%rbp)
    6755:	75 1f                	jne    6776 <pdsp_dpll_1ph_sogi_init+0x32>
    6757:	41 b8 73 08 00 00    	mov    $0x873,%r8d
    675d:	48 8d 05 20 00 00 00 	lea    0x20(%rip),%rax        # 6784 <pdsp_dpll_1ph_sogi_init+0x40>
    6764:	48 89 c2             	mov    %rax,%rdx
    6767:	48 8d 05 27 00 00 00 	lea    0x27(%rip),%rax        # 6795 <pdsp_dpll_1ph_sogi_init+0x51>
    676e:	48 89 c1             	mov    %rax,%rcx
    6771:	e8 8a 98 ff ff       	call   0 <printf>
    6776:	48 8b 45 10          	mov    0x10(%rbp),%rax
    677a:	66 0f ef c0          	pxor   %xmm0,%xmm0
    677e:	f3 0f 11 00          	movss  %xmm0,(%rax)
    6782:	48 8b 45 10          	mov    0x10(%rbp),%rax
    6786:	66 0f ef c0          	pxor   %xmm0,%xmm0
    678a:	f3 0f 11 40 04       	movss  %xmm0,0x4(%rax)
    678f:	48 8b 45 10          	mov    0x10(%rbp),%rax
    6793:	66 0f ef c0          	pxor   %xmm0,%xmm0
    6797:	f3 0f 11 40 08       	movss  %xmm0,0x8(%rax)
    679c:	48 8b 45 10          	mov    0x10(%rbp),%rax
    67a0:	66 0f ef c0          	pxor   %xmm0,%xmm0
    67a4:	f3 0f 11 40 0c       	movss  %xmm0,0xc(%rax)
    67a9:	48 8b 45 10          	mov    0x10(%rbp),%rax
    67ad:	66 0f ef c0          	pxor   %xmm0,%xmm0
    67b1:	f3 0f 11 40 10       	movss  %xmm0,0x10(%rax)
    67b6:	48 8b 45 10          	mov    0x10(%rbp),%rax
    67ba:	66 0f ef c0          	pxor   %xmm0,%xmm0
    67be:	f3 0f 11 40 14       	movss  %xmm0,0x14(%rax)
    67c3:	48 8b 45 10          	mov    0x10(%rbp),%rax
    67c7:	66 0f ef c0          	pxor   %xmm0,%xmm0
    67cb:	f3 0f 11 40 18       	movss  %xmm0,0x18(%rax)
    67d0:	48 8b 45 10          	mov    0x10(%rbp),%rax
    67d4:	66 0f ef c0          	pxor   %xmm0,%xmm0
    67d8:	f3 0f 11 40 1c       	movss  %xmm0,0x1c(%rax)
    67dd:	48 8b 45 10          	mov    0x10(%rbp),%rax
    67e1:	66 0f ef c0          	pxor   %xmm0,%xmm0
    67e5:	f3 0f 11 40 20       	movss  %xmm0,0x20(%rax)
    67ea:	48 8b 45 10          	mov    0x10(%rbp),%rax
    67ee:	66 0f ef c0          	pxor   %xmm0,%xmm0
    67f2:	f3 0f 11 40 24       	movss  %xmm0,0x24(%rax)
    67f7:	48 8b 45 10          	mov    0x10(%rbp),%rax
    67fb:	66 0f ef c0          	pxor   %xmm0,%xmm0
    67ff:	f3 0f 11 40 28       	movss  %xmm0,0x28(%rax)
    6804:	48 8b 45 10          	mov    0x10(%rbp),%rax
    6808:	66 0f ef c0          	pxor   %xmm0,%xmm0
    680c:	f3 0f 11 40 2c       	movss  %xmm0,0x2c(%rax)
    6811:	48 8b 45 10          	mov    0x10(%rbp),%rax
    6815:	66 0f ef c0          	pxor   %xmm0,%xmm0
    6819:	f3 0f 11 40 30       	movss  %xmm0,0x30(%rax)
    681e:	48 8b 45 10          	mov    0x10(%rbp),%rax
    6822:	66 0f ef c0          	pxor   %xmm0,%xmm0
    6826:	f3 0f 11 40 34       	movss  %xmm0,0x34(%rax)
    682b:	48 8b 45 10          	mov    0x10(%rbp),%rax
    682f:	66 0f ef c0          	pxor   %xmm0,%xmm0
    6833:	f3 0f 11 40 38       	movss  %xmm0,0x38(%rax)
    6838:	48 8b 45 10          	mov    0x10(%rbp),%rax
    683c:	66 0f ef c0          	pxor   %xmm0,%xmm0
    6840:	f3 0f 11 40 3c       	movss  %xmm0,0x3c(%rax)
    6845:	48 8b 45 10          	mov    0x10(%rbp),%rax
    6849:	66 0f ef c0          	pxor   %xmm0,%xmm0
    684d:	f3 0f 11 40 40       	movss  %xmm0,0x40(%rax)
    6852:	48 8b 45 10          	mov    0x10(%rbp),%rax
    6856:	66 0f ef c0          	pxor   %xmm0,%xmm0
    685a:	f3 0f 11 40 44       	movss  %xmm0,0x44(%rax)
    685f:	48 8b 45 10          	mov    0x10(%rbp),%rax
    6863:	66 0f ef c0          	pxor   %xmm0,%xmm0
    6867:	f3 0f 11 40 48       	movss  %xmm0,0x48(%rax)
    686c:	48 8b 45 10          	mov    0x10(%rbp),%rax
    6870:	66 0f ef c0          	pxor   %xmm0,%xmm0
    6874:	f3 0f 11 40 4c       	movss  %xmm0,0x4c(%rax)
    6879:	48 8b 45 10          	mov    0x10(%rbp),%rax
    687d:	66 0f ef c0          	pxor   %xmm0,%xmm0
    6881:	f3 0f 11 40 50       	movss  %xmm0,0x50(%rax)
    6886:	b8 00 00 00 00       	mov    $0x0,%eax
    688b:	48 83 c4 20          	add    $0x20,%rsp
    688f:	5d                   	pop    %rbp
    6890:	c3                   	ret

0000000000006891 <pdsp_dpll_1ph_sogi>:
    6891:	55                   	push   %rbp
    6892:	48 89 e5             	mov    %rsp,%rbp
    6895:	48 83 ec 20          	sub    $0x20,%rsp
    6899:	48 89 4d 10          	mov    %rcx,0x10(%rbp)
    689d:	f3 0f 11 4d 18       	movss  %xmm1,0x18(%rbp)
    68a2:	48 83 7d 10 00       	cmpq   $0x0,0x10(%rbp)
    68a7:	75 1f                	jne    68c8 <pdsp_dpll_1ph_sogi+0x37>
    68a9:	41 b8 90 08 00 00    	mov    $0x890,%r8d
    68af:	48 8d 05 20 00 00 00 	lea    0x20(%rip),%rax        # 68d6 <pdsp_dpll_1ph_sogi+0x45>
    68b6:	48 89 c2             	mov    %rax,%rdx
    68b9:	48 8d 05 27 00 00 00 	lea    0x27(%rip),%rax        # 68e7 <pdsp_dpll_1ph_sogi+0x56>
    68c0:	48 89 c1             	mov    %rax,%rcx
    68c3:	e8 38 97 ff ff       	call   0 <printf>
    68c8:	48 8b 45 10          	mov    0x10(%rbp),%rax
    68cc:	f3 0f 10 45 18       	movss  0x18(%rbp),%xmm0
    68d1:	f3 0f 11 00          	movss  %xmm0,(%rax)
    68d5:	48 8b 45 10          	mov    0x10(%rbp),%rax
    68d9:	f3 0f 10 48 60       	movss  0x60(%rax),%xmm1
    68de:	48 8b 45 10          	mov    0x10(%rbp),%rax
    68e2:	f3 0f 10 00          	movss  (%rax),%xmm0
    68e6:	48 8b 45 10          	mov    0x10(%rbp),%rax
    68ea:	f3 0f 10 50 08       	movss  0x8(%rax),%xmm2
    68ef:	f3 0f 5c c2          	subss  %xmm2,%xmm0
    68f3:	f3 0f 59 c8          	mulss  %xmm0,%xmm1
    68f7:	48 8b 45 10          	mov    0x10(%rbp),%rax
    68fb:	f3 0f 10 50 68       	movss  0x68(%rax),%xmm2
    6900:	48 8b 45 10          	mov    0x10(%rbp),%rax
    6904:	f3 0f 10 40 10       	movss  0x10(%rax),%xmm0
    6909:	f3 0f 59 c2          	mulss  %xmm2,%xmm0
    690d:	f3 0f 58 c8          	addss  %xmm0,%xmm1
    6911:	48 8b 45 10          	mov    0x10(%rbp),%rax
    6915:	f3 0f 10 50 6c       	movss  0x6c(%rax),%xmm2
    691a:	48 8b 45 10          	mov    0x10(%rbp),%rax
    691e:	f3 0f 10 40 14       	movss  0x14(%rax),%xmm0
    6923:	f3 0f 59 c2          	mulss  %xmm2,%xmm0
    6927:	f3 0f 58 c1          	addss  %xmm1,%xmm0
    692b:	48 8b 45 10          	mov    0x10(%rbp),%rax
    692f:	f3 0f 11 40 0c       	movss  %xmm0,0xc(%rax)
    6934:	48 8b 45 10          	mov    0x10(%rbp),%rax
    6938:	f3 0f 10 40 10       	movss  0x10(%rax),%xmm0
    693d:	48 8b 45 10          	mov    0x10(%rbp),%rax
    6941:	f3 0f 11 40 14       	movss  %xmm0,0x14(%rax)
    6946:	48 8b 45 10          	mov    0x10(%rbp),%rax
    694a:	f3 0f 10 40 0c       	movss  0xc(%rax),%xmm0
    694f:	48 8b 45 10          	mov    0x10(%rbp),%rax
    6953:	f3 0f 11 40 10       	movss  %xmm0,0x10(%rax)
    6958:	48 8b 45 10          	mov    0x10(%rbp),%rax
    695c:	f3 0f 10 48 70       	movss  0x70(%rax),%xmm1
    6961:	48 8b 45 10          	mov    0x10(%rbp),%rax
    6965:	f3 0f 10 00          	movss  (%rax),%xmm0
    6969:	f3 0f 59 c8          	mulss  %xmm0,%xmm1
    696d:	48 8b 45 10          	mov    0x10(%rbp),%rax
    6971:	f3 0f 10 50 74       	movss  0x74(%rax),%xmm2
    6976:	48 8b 45 10          	mov    0x10(%rbp),%rax
    697a:	f3 0f 10 40 04       	movss  0x4(%rax),%xmm0
    697f:	f3 0f 59 c2          	mulss  %xmm2,%xmm0
    6983:	f3 0f 58 c8          	addss  %xmm0,%xmm1
    6987:	48 8b 45 10          	mov    0x10(%rbp),%rax
    698b:	f3 0f 10 50 78       	movss  0x78(%rax),%xmm2
    6990:	48 8b 45 10          	mov    0x10(%rbp),%rax
    6994:	f3 0f 10 40 08       	movss  0x8(%rax),%xmm0
    6999:	f3 0f 59 c2          	mulss  %xmm2,%xmm0
    699d:	f3 0f 58 c8          	addss  %xmm0,%xmm1
    69a1:	48 8b 45 10          	mov    0x10(%rbp),%rax
    69a5:	f3 0f 10 50 68       	movss  0x68(%rax),%xmm2
    69aa:	48 8b 45 10          	mov    0x10(%rbp),%rax
    69ae:	f3 0f 10 40 1c       	movss  0x1c(%rax),%xmm0
    69b3:	f3 0f 59 c2          	mulss  %xmm2,%xmm0
    69b7:	f3 0f 58 c8          	addss  %xmm0,%xmm1
    69bb:	48 8b 45 10          	mov    0x10(%rbp),%rax
    69bf:	f3 0f 10 50 6c       	movss  0x6c(%rax),%xmm2
    69c4:	48 8b 45 10          	mov    0x10(%rbp),%rax
    69c8:	f3 0f 10 40 20       	movss  0x20(%rax),%xmm0
    69cd:	f3 0f 59 c2          	mulss  %xmm2,%xmm0
    69d1:	f3 0f 58 c1          	addss  %xmm1,%xmm0
    69d5:	48 8b 45 10          	mov    0x10(%rbp),%rax
    69d9:	f3 0f 11 40 18       	movss  %xmm0,0x18(%rax)
    69de:	48 8b 45 10          	mov    0x10(%rbp),%rax
    69e2:	f3 0f 10 40 1c       	movss  0x1c(%rax),%xmm0
    69e7:	48 8b 45 10          	mov    0x10(%rbp),%rax
    69eb:	f3 0f 11 40 20       	movss  %xmm0,0x20(%rax)
    69f0:	48 8b 45 10          	mov    0x10(%rbp),%rax
    69f4:	f3 0f 10 40 18       	movss  0x18(%rax),%xmm0
    69f9:	48 8b 45 10          	mov    0x10(%rbp),%rax
    69fd:	f3 0f 11 40 1c       	movss  %xmm0,0x1c(%rax)
    6a02:	48 8b 45 10          	mov    0x10(%rbp),%rax
    6a06:	f3 0f 10 40 04       	movss  0x4(%rax),%xmm0
    6a0b:	48 8b 45 10          	mov    0x10(%rbp),%rax
    6a0f:	f3 0f 11 40 08       	movss  %xmm0,0x8(%rax)
    6a14:	48 8b 45 10          	mov    0x10(%rbp),%rax
    6a18:	f3 0f 10 00          	movss  (%rax),%xmm0
    6a1c:	48 8b 45 10          	mov    0x10(%rbp),%rax
    6a20:	f3 0f 11 40 04       	movss  %xmm0,0x4(%rax)
    6a25:	48 8b 45 10          	mov    0x10(%rbp),%rax
    6a29:	f3 0f 10 48 48       	movss  0x48(%rax),%xmm1
    6a2e:	48 8b 45 10          	mov    0x10(%rbp),%rax
    6a32:	f3 0f 10 40 0c       	movss  0xc(%rax),%xmm0
    6a37:	f3 0f 59 c8          	mulss  %xmm0,%xmm1
    6a3b:	48 8b 45 10          	mov    0x10(%rbp),%rax
    6a3f:	f3 0f 10 50 4c       	movss  0x4c(%rax),%xmm2
    6a44:	48 8b 45 10          	mov    0x10(%rbp),%rax
    6a48:	f3 0f 10 40 18       	movss  0x18(%rax),%xmm0
    6a4d:	f3 0f 59 c2          	mulss  %xmm2,%xmm0
    6a51:	f3 0f 58 c1          	addss  %xmm1,%xmm0
    6a55:	48 8b 45 10          	mov    0x10(%rbp),%rax
    6a59:	f3 0f 11 40 24       	movss  %xmm0,0x24(%rax)
    6a5e:	48 8b 45 10          	mov    0x10(%rbp),%rax
    6a62:	f3 0f 10 48 48       	movss  0x48(%rax),%xmm1
    6a67:	48 8b 45 10          	mov    0x10(%rbp),%rax
    6a6b:	f3 0f 10 40 18       	movss  0x18(%rax),%xmm0
    6a70:	f3 0f 59 c1          	mulss  %xmm1,%xmm0
    6a74:	48 8b 45 10          	mov    0x10(%rbp),%rax
    6a78:	f3 0f 10 50 4c       	movss  0x4c(%rax),%xmm2
    6a7d:	48 8b 45 10          	mov    0x10(%rbp),%rax
    6a81:	f3 0f 10 48 0c       	movss  0xc(%rax),%xmm1
    6a86:	f3 0f 59 ca          	mulss  %xmm2,%xmm1
    6a8a:	f3 0f 5c c1          	subss  %xmm1,%xmm0
    6a8e:	48 8b 45 10          	mov    0x10(%rbp),%rax
    6a92:	f3 0f 11 40 2c       	movss  %xmm0,0x2c(%rax)
    6a97:	48 8b 45 10          	mov    0x10(%rbp),%rax
    6a9b:	f3 0f 10 48 38       	movss  0x38(%rax),%xmm1
    6aa0:	48 8b 45 10          	mov    0x10(%rbp),%rax
    6aa4:	f3 0f 10 50 7c       	movss  0x7c(%rax),%xmm2
    6aa9:	48 8b 45 10          	mov    0x10(%rbp),%rax
    6aad:	f3 0f 10 40 24       	movss  0x24(%rax),%xmm0
    6ab2:	f3 0f 59 c2          	mulss  %xmm2,%xmm0
    6ab6:	f3 0f 58 c8          	addss  %xmm0,%xmm1
    6aba:	48 8b 45 10          	mov    0x10(%rbp),%rax
    6abe:	f3 0f 10 90 80 00 00 	movss  0x80(%rax),%xmm2
    6ac5:	00 
    6ac6:	48 8b 45 10          	mov    0x10(%rbp),%rax
    6aca:	f3 0f 10 40 28       	movss  0x28(%rax),%xmm0
    6acf:	f3 0f 59 c2          	mulss  %xmm2,%xmm0
    6ad3:	f3 0f 58 c1          	addss  %xmm1,%xmm0
    6ad7:	48 8b 45 10          	mov    0x10(%rbp),%rax
    6adb:	f3 0f 11 40 34       	movss  %xmm0,0x34(%rax)
    6ae0:	48 8b 45 10          	mov    0x10(%rbp),%rax
    6ae4:	f3 0f 10 40 34       	movss  0x34(%rax),%xmm0
    6ae9:	48 8b 45 10          	mov    0x10(%rbp),%rax
    6aed:	f3 0f 11 40 38       	movss  %xmm0,0x38(%rax)
    6af2:	48 8b 45 10          	mov    0x10(%rbp),%rax
    6af6:	f3 0f 10 40 24       	movss  0x24(%rax),%xmm0
    6afb:	48 8b 45 10          	mov    0x10(%rbp),%rax
    6aff:	f3 0f 11 40 28       	movss  %xmm0,0x28(%rax)
    6b04:	48 8b 45 10          	mov    0x10(%rbp),%rax
    6b08:	f3 0f 10 48 40       	movss  0x40(%rax),%xmm1
    6b0d:	48 8b 45 10          	mov    0x10(%rbp),%rax
    6b11:	f3 0f 10 40 34       	movss  0x34(%rax),%xmm0
    6b16:	f3 0f 58 c1          	addss  %xmm1,%xmm0
    6b1a:	48 8b 45 10          	mov    0x10(%rbp),%rax
    6b1e:	f3 0f 11 40 3c       	movss  %xmm0,0x3c(%rax)
    6b23:	48 8b 45 10          	mov    0x10(%rbp),%rax
    6b27:	f3 0f 10 48 44       	movss  0x44(%rax),%xmm1
    6b2c:	48 8b 45 10          	mov    0x10(%rbp),%rax
    6b30:	f3 0f 10 50 3c       	movss  0x3c(%rax),%xmm2
    6b35:	48 8b 45 10          	mov    0x10(%rbp),%rax
    6b39:	f3 0f 10 40 50       	movss  0x50(%rax),%xmm0
    6b3e:	f3 0f 59 d0          	mulss  %xmm0,%xmm2
    6b42:	f3 0f 10 05 c0 00 00 	movss  0xc0(%rip),%xmm0        # 6c0a <pdsp_dpll_1ph_sogi_fll_init+0x3e>
    6b49:	00 
    6b4a:	f3 0f 59 c2          	mulss  %xmm2,%xmm0
    6b4e:	f3 0f 58 c1          	addss  %xmm1,%xmm0
    6b52:	48 8b 45 10          	mov    0x10(%rbp),%rax
    6b56:	f3 0f 11 40 44       	movss  %xmm0,0x44(%rax)
    6b5b:	48 8b 45 10          	mov    0x10(%rbp),%rax
    6b5f:	f3 0f 10 40 44       	movss  0x44(%rax),%xmm0
    6b64:	0f 2f 05 c0 00 00 00 	comiss 0xc0(%rip),%xmm0        # 6c2b <pdsp_dpll_1ph_sogi_fll_init+0x5f>
    6b6b:	76 1e                	jbe    6b8b <pdsp_dpll_1ph_sogi+0x2fa>
    6b6d:	48 8b 45 10          	mov    0x10(%rbp),%rax
    6b71:	f3 0f 10 40 44       	movss  0x44(%rax),%xmm0
    6b76:	f3 0f 10 0d c0 00 00 	movss  0xc0(%rip),%xmm1        # 6c3e <pdsp_dpll_1ph_sogi_fll_init+0x72>
    6b7d:	00 
    6b7e:	f3 0f 5c c1          	subss  %xmm1,%xmm0
    6b82:	48 8b 45 10          	mov    0x10(%rbp),%rax
    6b86:	f3 0f 11 40 44       	movss  %xmm0,0x44(%rax)
    6b8b:	48 8b 45 10          	mov    0x10(%rbp),%rax
    6b8f:	8b 40 44             	mov    0x44(%rax),%eax
    6b92:	66 0f 6e c0          	movd   %eax,%xmm0
    6b96:	e8 00 00 00 00       	call   6b9b <pdsp_dpll_1ph_sogi+0x30a>
    6b9b:	66 0f 7e c0          	movd   %xmm0,%eax
    6b9f:	48 8b 55 10          	mov    0x10(%rbp),%rdx
    6ba3:	89 42 4c             	mov    %eax,0x4c(%rdx)
    6ba6:	48 8b 45 10          	mov    0x10(%rbp),%rax
    6baa:	8b 40 44             	mov    0x44(%rax),%eax
    6bad:	66 0f 6e c0          	movd   %eax,%xmm0
    6bb1:	e8 00 00 00 00       	call   6bb6 <pdsp_dpll_1ph_sogi+0x325>
    6bb6:	66 0f 7e c0          	movd   %xmm0,%eax
    6bba:	48 8b 55 10          	mov    0x10(%rbp),%rdx
    6bbe:	89 42 48             	mov    %eax,0x48(%rdx)
    6bc1:	b8 00 00 00 00       	mov    $0x0,%eax
    6bc6:	48 83 c4 20          	add    $0x20,%rsp
    6bca:	5d                   	pop    %rbp
    6bcb:	c3                   	ret

0000000000006bcc <pdsp_dpll_1ph_sogi_fll_init>:
    6bcc:	55                   	push   %rbp
    6bcd:	48 89 e5             	mov    %rsp,%rbp
    6bd0:	48 83 ec 20          	sub    $0x20,%rsp
    6bd4:	48 89 4d 10          	mov    %rcx,0x10(%rbp)
    6bd8:	48 83 7d 10 00       	cmpq   $0x0,0x10(%rbp)
    6bdd:	75 1f                	jne    6bfe <pdsp_dpll_1ph_sogi_fll_init+0x32>
    6bdf:	41 b8 bf 08 00 00    	mov    $0x8bf,%r8d
    6be5:	48 8d 05 20 00 00 00 	lea    0x20(%rip),%rax        # 6c0c <pdsp_dpll_1ph_sogi_fll_init+0x40>
    6bec:	48 89 c2             	mov    %rax,%rdx
    6bef:	48 8d 05 27 00 00 00 	lea    0x27(%rip),%rax        # 6c1d <pdsp_dpll_1ph_sogi_fll_init+0x51>
    6bf6:	48 89 c1             	mov    %rax,%rcx
    6bf9:	e8 02 94 ff ff       	call   0 <printf>
    6bfe:	48 8b 45 10          	mov    0x10(%rbp),%rax
    6c02:	66 0f ef c0          	pxor   %xmm0,%xmm0
    6c06:	f3 0f 11 00          	movss  %xmm0,(%rax)
    6c0a:	48 8b 45 10          	mov    0x10(%rbp),%rax
    6c0e:	66 0f ef c0          	pxor   %xmm0,%xmm0
    6c12:	f3 0f 11 40 04       	movss  %xmm0,0x4(%rax)
    6c17:	48 8b 45 10          	mov    0x10(%rbp),%rax
    6c1b:	66 0f ef c0          	pxor   %xmm0,%xmm0
    6c1f:	f3 0f 11 40 08       	movss  %xmm0,0x8(%rax)
    6c24:	48 8b 45 10          	mov    0x10(%rbp),%rax
    6c28:	66 0f ef c0          	pxor   %xmm0,%xmm0
    6c2c:	f3 0f 11 40 0c       	movss  %xmm0,0xc(%rax)
    6c31:	48 8b 45 10          	mov    0x10(%rbp),%rax
    6c35:	66 0f ef c0          	pxor   %xmm0,%xmm0
    6c39:	f3 0f 11 40 10       	movss  %xmm0,0x10(%rax)
    6c3e:	48 8b 45 10          	mov    0x10(%rbp),%rax
    6c42:	66 0f ef c0          	pxor   %xmm0,%xmm0
    6c46:	f3 0f 11 40 14       	movss  %xmm0,0x14(%rax)
    6c4b:	48 8b 45 10          	mov    0x10(%rbp),%rax
    6c4f:	66 0f ef c0          	pxor   %xmm0,%xmm0
    6c53:	f3 0f 11 40 18       	movss  %xmm0,0x18(%rax)
    6c58:	48 8b 45 10          	mov    0x10(%rbp),%rax
    6c5c:	66 0f ef c0          	pxor   %xmm0,%xmm0
    6c60:	f3 0f 11 40 1c       	movss  %xmm0,0x1c(%rax)
    6c65:	48 8b 45 10          	mov    0x10(%rbp),%rax
    6c69:	66 0f ef c0          	pxor   %xmm0,%xmm0
    6c6d:	f3 0f 11 40 20       	movss  %xmm0,0x20(%rax)
    6c72:	48 8b 45 10          	mov    0x10(%rbp),%rax
    6c76:	66 0f ef c0          	pxor   %xmm0,%xmm0
    6c7a:	f3 0f 11 40 24       	movss  %xmm0,0x24(%rax)
    6c7f:	48 8b 45 10          	mov    0x10(%rbp),%rax
    6c83:	66 0f ef c0          	pxor   %xmm0,%xmm0
    6c87:	f3 0f 11 40 28       	movss  %xmm0,0x28(%rax)
    6c8c:	48 8b 45 10          	mov    0x10(%rbp),%rax
    6c90:	66 0f ef c0          	pxor   %xmm0,%xmm0
    6c94:	f3 0f 11 40 2c       	movss  %xmm0,0x2c(%rax)
    6c99:	48 8b 45 10          	mov    0x10(%rbp),%rax
    6c9d:	66 0f ef c0          	pxor   %xmm0,%xmm0
    6ca1:	f3 0f 11 40 30       	movss  %xmm0,0x30(%rax)
    6ca6:	48 8b 45 10          	mov    0x10(%rbp),%rax
    6caa:	66 0f ef c0          	pxor   %xmm0,%xmm0
    6cae:	f3 0f 11 40 34       	movss  %xmm0,0x34(%rax)
    6cb3:	48 8b 45 10          	mov    0x10(%rbp),%rax
    6cb7:	66 0f ef c0          	pxor   %xmm0,%xmm0
    6cbb:	f3 0f 11 40 38       	movss  %xmm0,0x38(%rax)
    6cc0:	48 8b 45 10          	mov    0x10(%rbp),%rax
    6cc4:	66 0f ef c0          	pxor   %xmm0,%xmm0
    6cc8:	f3 0f 11 40 3c       	movss  %xmm0,0x3c(%rax)
    6ccd:	48 8b 45 10          	mov    0x10(%rbp),%rax
    6cd1:	66 0f ef c0          	pxor   %xmm0,%xmm0
    6cd5:	f3 0f 11 40 40       	movss  %xmm0,0x40(%rax)
    6cda:	48 8b 45 10          	mov    0x10(%rbp),%rax
    6cde:	66 0f ef c0          	pxor   %xmm0,%xmm0
    6ce2:	f3 0f 11 40 44       	movss  %xmm0,0x44(%rax)
    6ce7:	48 8b 45 10          	mov    0x10(%rbp),%rax
    6ceb:	66 0f ef c0          	pxor   %xmm0,%xmm0
    6cef:	f3 0f 11 40 48       	movss  %xmm0,0x48(%rax)
    6cf4:	48 8b 45 10          	mov    0x10(%rbp),%rax
    6cf8:	66 0f ef c0          	pxor   %xmm0,%xmm0
    6cfc:	f3 0f 11 40 4c       	movss  %xmm0,0x4c(%rax)
    6d01:	48 8b 45 10          	mov    0x10(%rbp),%rax
    6d05:	66 0f ef c0          	pxor   %xmm0,%xmm0
    6d09:	f3 0f 11 40 50       	movss  %xmm0,0x50(%rax)
    6d0e:	48 8b 45 10          	mov    0x10(%rbp),%rax
    6d12:	66 0f ef c0          	pxor   %xmm0,%xmm0
    6d16:	f3 0f 11 40 54       	movss  %xmm0,0x54(%rax)
    6d1b:	48 8b 45 10          	mov    0x10(%rbp),%rax
    6d1f:	66 0f ef c0          	pxor   %xmm0,%xmm0
    6d23:	f3 0f 11 40 58       	movss  %xmm0,0x58(%rax)
    6d28:	48 8b 45 10          	mov    0x10(%rbp),%rax
    6d2c:	66 0f ef c0          	pxor   %xmm0,%xmm0
    6d30:	f3 0f 11 40 5c       	movss  %xmm0,0x5c(%rax)
    6d35:	48 8b 45 10          	mov    0x10(%rbp),%rax
    6d39:	66 0f ef c0          	pxor   %xmm0,%xmm0
    6d3d:	f3 0f 11 40 60       	movss  %xmm0,0x60(%rax)
    6d42:	48 8b 45 10          	mov    0x10(%rbp),%rax
    6d46:	66 0f ef c0          	pxor   %xmm0,%xmm0
    6d4a:	f3 0f 11 40 64       	movss  %xmm0,0x64(%rax)
    6d4f:	48 8b 45 10          	mov    0x10(%rbp),%rax
    6d53:	66 0f ef c0          	pxor   %xmm0,%xmm0
    6d57:	f3 0f 11 40 68       	movss  %xmm0,0x68(%rax)
    6d5c:	48 8b 45 10          	mov    0x10(%rbp),%rax
    6d60:	66 0f ef c0          	pxor   %xmm0,%xmm0
    6d64:	f3 0f 11 40 6c       	movss  %xmm0,0x6c(%rax)
    6d69:	b8 00 00 00 00       	mov    $0x0,%eax
    6d6e:	48 83 c4 20          	add    $0x20,%rsp
    6d72:	5d                   	pop    %rbp
    6d73:	c3                   	ret

0000000000006d74 <pdsp_dpll_1ph_sogi_fll>:
    6d74:	55                   	push   %rbp
    6d75:	48 89 e5             	mov    %rsp,%rbp
    6d78:	48 83 ec 30          	sub    $0x30,%rsp
    6d7c:	48 89 4d 10          	mov    %rcx,0x10(%rbp)
    6d80:	f3 0f 11 4d 18       	movss  %xmm1,0x18(%rbp)
    6d85:	48 83 7d 10 00       	cmpq   $0x0,0x10(%rbp)
    6d8a:	75 1f                	jne    6dab <pdsp_dpll_1ph_sogi_fll+0x37>
    6d8c:	41 b8 e4 08 00 00    	mov    $0x8e4,%r8d
    6d92:	48 8d 05 20 00 00 00 	lea    0x20(%rip),%rax        # 6db9 <pdsp_dpll_1ph_sogi_fll+0x45>
    6d99:	48 89 c2             	mov    %rax,%rdx
    6d9c:	48 8d 05 27 00 00 00 	lea    0x27(%rip),%rax        # 6dca <pdsp_dpll_1ph_sogi_fll+0x56>
    6da3:	48 89 c1             	mov    %rax,%rcx
    6da6:	e8 55 92 ff ff       	call   0 <printf>
    6dab:	48 8b 45 10          	mov    0x10(%rbp),%rax
    6daf:	f3 0f 10 45 18       	movss  0x18(%rbp),%xmm0
    6db4:	f3 0f 11 00          	movss  %xmm0,(%rax)
    6db8:	48 8b 45 10          	mov    0x10(%rbp),%rax
    6dbc:	f3 0f 10 48 7c       	movss  0x7c(%rax),%xmm1
    6dc1:	48 8b 45 10          	mov    0x10(%rbp),%rax
    6dc5:	f3 0f 10 00          	movss  (%rax),%xmm0
    6dc9:	48 8b 45 10          	mov    0x10(%rbp),%rax
    6dcd:	f3 0f 10 50 08       	movss  0x8(%rax),%xmm2
    6dd2:	f3 0f 5c c2          	subss  %xmm2,%xmm0
    6dd6:	f3 0f 59 c8          	mulss  %xmm0,%xmm1
    6dda:	48 8b 45 10          	mov    0x10(%rbp),%rax
    6dde:	f3 0f 10 90 84 00 00 	movss  0x84(%rax),%xmm2
    6de5:	00 
    6de6:	48 8b 45 10          	mov    0x10(%rbp),%rax
    6dea:	f3 0f 10 40 10       	movss  0x10(%rax),%xmm0
    6def:	f3 0f 59 c2          	mulss  %xmm2,%xmm0
    6df3:	f3 0f 58 c8          	addss  %xmm0,%xmm1
    6df7:	48 8b 45 10          	mov    0x10(%rbp),%rax
    6dfb:	f3 0f 10 90 88 00 00 	movss  0x88(%rax),%xmm2
    6e02:	00 
    6e03:	48 8b 45 10          	mov    0x10(%rbp),%rax
    6e07:	f3 0f 10 40 14       	movss  0x14(%rax),%xmm0
    6e0c:	f3 0f 59 c2          	mulss  %xmm2,%xmm0
    6e10:	f3 0f 58 c1          	addss  %xmm1,%xmm0
    6e14:	48 8b 45 10          	mov    0x10(%rbp),%rax
    6e18:	f3 0f 11 40 0c       	movss  %xmm0,0xc(%rax)
    6e1d:	48 8b 45 10          	mov    0x10(%rbp),%rax
    6e21:	f3 0f 10 40 10       	movss  0x10(%rax),%xmm0
    6e26:	48 8b 45 10          	mov    0x10(%rbp),%rax
    6e2a:	f3 0f 11 40 14       	movss  %xmm0,0x14(%rax)
    6e2f:	48 8b 45 10          	mov    0x10(%rbp),%rax
    6e33:	f3 0f 10 40 0c       	movss  0xc(%rax),%xmm0
    6e38:	48 8b 45 10          	mov    0x10(%rbp),%rax
    6e3c:	f3 0f 11 40 10       	movss  %xmm0,0x10(%rax)
    6e41:	48 8b 45 10          	mov    0x10(%rbp),%rax
    6e45:	f3 0f 10 88 8c 00 00 	movss  0x8c(%rax),%xmm1
    6e4c:	00 
    6e4d:	48 8b 45 10          	mov    0x10(%rbp),%rax
    6e51:	f3 0f 10 00          	movss  (%rax),%xmm0
    6e55:	f3 0f 59 c8          	mulss  %xmm0,%xmm1
    6e59:	48 8b 45 10          	mov    0x10(%rbp),%rax
    6e5d:	f3 0f 10 90 90 00 00 	movss  0x90(%rax),%xmm2
    6e64:	00 
    6e65:	48 8b 45 10          	mov    0x10(%rbp),%rax
    6e69:	f3 0f 10 40 04       	movss  0x4(%rax),%xmm0
    6e6e:	f3 0f 59 c2          	mulss  %xmm2,%xmm0
    6e72:	f3 0f 58 c8          	addss  %xmm0,%xmm1
    6e76:	48 8b 45 10          	mov    0x10(%rbp),%rax
    6e7a:	f3 0f 10 90 94 00 00 	movss  0x94(%rax),%xmm2
    6e81:	00 
    6e82:	48 8b 45 10          	mov    0x10(%rbp),%rax
    6e86:	f3 0f 10 40 08       	movss  0x8(%rax),%xmm0
    6e8b:	f3 0f 59 c2          	mulss  %xmm2,%xmm0
    6e8f:	f3 0f 58 c8          	addss  %xmm0,%xmm1
    6e93:	48 8b 45 10          	mov    0x10(%rbp),%rax
    6e97:	f3 0f 10 90 84 00 00 	movss  0x84(%rax),%xmm2
    6e9e:	00 
    6e9f:	48 8b 45 10          	mov    0x10(%rbp),%rax
    6ea3:	f3 0f 10 40 1c       	movss  0x1c(%rax),%xmm0
    6ea8:	f3 0f 59 c2          	mulss  %xmm2,%xmm0
    6eac:	f3 0f 58 c8          	addss  %xmm0,%xmm1
    6eb0:	48 8b 45 10          	mov    0x10(%rbp),%rax
    6eb4:	f3 0f 10 90 88 00 00 	movss  0x88(%rax),%xmm2
    6ebb:	00 
    6ebc:	48 8b 45 10          	mov    0x10(%rbp),%rax
    6ec0:	f3 0f 10 40 20       	movss  0x20(%rax),%xmm0
    6ec5:	f3 0f 59 c2          	mulss  %xmm2,%xmm0
    6ec9:	f3 0f 58 c1          	addss  %xmm1,%xmm0
    6ecd:	48 8b 45 10          	mov    0x10(%rbp),%rax
    6ed1:	f3 0f 11 40 18       	movss  %xmm0,0x18(%rax)
    6ed6:	48 8b 45 10          	mov    0x10(%rbp),%rax
    6eda:	f3 0f 10 40 1c       	movss  0x1c(%rax),%xmm0
    6edf:	48 8b 45 10          	mov    0x10(%rbp),%rax
    6ee3:	f3 0f 11 40 20       	movss  %xmm0,0x20(%rax)
    6ee8:	48 8b 45 10          	mov    0x10(%rbp),%rax
    6eec:	f3 0f 10 40 18       	movss  0x18(%rax),%xmm0
    6ef1:	48 8b 45 10          	mov    0x10(%rbp),%rax
    6ef5:	f3 0f 11 40 1c       	movss  %xmm0,0x1c(%rax)
    6efa:	48 8b 45 10          	mov    0x10(%rbp),%rax
    6efe:	f3 0f 10 40 04       	movss  0x4(%rax),%xmm0
    6f03:	48 8b 45 10          	mov    0x10(%rbp),%rax
    6f07:	f3 0f 11 40 08       	movss  %xmm0,0x8(%rax)
    6f0c:	48 8b 45 10          	mov    0x10(%rbp),%rax
    6f10:	f3 0f 10 00          	movss  (%rax),%xmm0
    6f14:	48 8b 45 10          	mov    0x10(%rbp),%rax
    6f18:	f3 0f 11 40 04       	movss  %xmm0,0x4(%rax)
    6f1d:	48 8b 45 10          	mov    0x10(%rbp),%rax
    6f21:	f3 0f 10 48 4c       	movss  0x4c(%rax),%xmm1
    6f26:	48 8b 45 10          	mov    0x10(%rbp),%rax
    6f2a:	f3 0f 10 40 0c       	movss  0xc(%rax),%xmm0
    6f2f:	f3 0f 59 c8          	mulss  %xmm0,%xmm1
    6f33:	48 8b 45 10          	mov    0x10(%rbp),%rax
    6f37:	f3 0f 10 50 50       	movss  0x50(%rax),%xmm2
    6f3c:	48 8b 45 10          	mov    0x10(%rbp),%rax
    6f40:	f3 0f 10 40 18       	movss  0x18(%rax),%xmm0
    6f45:	f3 0f 59 c2          	mulss  %xmm2,%xmm0
    6f49:	f3 0f 58 c1          	addss  %xmm1,%xmm0
    6f4d:	48 8b 45 10          	mov    0x10(%rbp),%rax
    6f51:	f3 0f 11 40 24       	movss  %xmm0,0x24(%rax)
    6f56:	48 8b 45 10          	mov    0x10(%rbp),%rax
    6f5a:	f3 0f 10 48 4c       	movss  0x4c(%rax),%xmm1
    6f5f:	48 8b 45 10          	mov    0x10(%rbp),%rax
    6f63:	f3 0f 10 40 18       	movss  0x18(%rax),%xmm0
    6f68:	f3 0f 59 c1          	mulss  %xmm1,%xmm0
    6f6c:	48 8b 45 10          	mov    0x10(%rbp),%rax
    6f70:	f3 0f 10 50 50       	movss  0x50(%rax),%xmm2
    6f75:	48 8b 45 10          	mov    0x10(%rbp),%rax
    6f79:	f3 0f 10 48 0c       	movss  0xc(%rax),%xmm1
    6f7e:	f3 0f 59 ca          	mulss  %xmm2,%xmm1
    6f82:	f3 0f 5c c1          	subss  %xmm1,%xmm0
    6f86:	48 8b 45 10          	mov    0x10(%rbp),%rax
    6f8a:	f3 0f 11 40 2c       	movss  %xmm0,0x2c(%rax)
    6f8f:	48 8b 45 10          	mov    0x10(%rbp),%rax
    6f93:	f3 0f 10 48 38       	movss  0x38(%rax),%xmm1
    6f98:	48 8b 45 10          	mov    0x10(%rbp),%rax
    6f9c:	f3 0f 10 90 98 00 00 	movss  0x98(%rax),%xmm2
    6fa3:	00 
    6fa4:	48 8b 45 10          	mov    0x10(%rbp),%rax
    6fa8:	f3 0f 10 40 24       	movss  0x24(%rax),%xmm0
    6fad:	f3 0f 59 c2          	mulss  %xmm2,%xmm0
    6fb1:	f3 0f 58 c8          	addss  %xmm0,%xmm1
    6fb5:	48 8b 45 10          	mov    0x10(%rbp),%rax
    6fb9:	f3 0f 10 90 9c 00 00 	movss  0x9c(%rax),%xmm2
    6fc0:	00 
    6fc1:	48 8b 45 10          	mov    0x10(%rbp),%rax
    6fc5:	f3 0f 10 40 28       	movss  0x28(%rax),%xmm0
    6fca:	f3 0f 59 c2          	mulss  %xmm2,%xmm0
    6fce:	f3 0f 58 c1          	addss  %xmm1,%xmm0
    6fd2:	48 8b 45 10          	mov    0x10(%rbp),%rax
    6fd6:	f3 0f 11 40 34       	movss  %xmm0,0x34(%rax)
    6fdb:	48 8b 45 10          	mov    0x10(%rbp),%rax
    6fdf:	f3 0f 10 40 34       	movss  0x34(%rax),%xmm0
    6fe4:	48 8b 45 10          	mov    0x10(%rbp),%rax
    6fe8:	f3 0f 11 40 38       	movss  %xmm0,0x38(%rax)
    6fed:	48 8b 45 10          	mov    0x10(%rbp),%rax
    6ff1:	f3 0f 10 40 24       	movss  0x24(%rax),%xmm0
    6ff6:	48 8b 45 10          	mov    0x10(%rbp),%rax
    6ffa:	f3 0f 11 40 28       	movss  %xmm0,0x28(%rax)
    6fff:	48 8b 45 10          	mov    0x10(%rbp),%rax
    7003:	f3 0f 10 48 40       	movss  0x40(%rax),%xmm1
    7008:	48 8b 45 10          	mov    0x10(%rbp),%rax
    700c:	f3 0f 10 40 34       	movss  0x34(%rax),%xmm0
    7011:	f3 0f 58 c1          	addss  %xmm1,%xmm0
    7015:	48 8b 45 10          	mov    0x10(%rbp),%rax
    7019:	f3 0f 11 40 3c       	movss  %xmm0,0x3c(%rax)
    701e:	48 8b 45 10          	mov    0x10(%rbp),%rax
    7022:	f3 0f 10 48 48       	movss  0x48(%rax),%xmm1
    7027:	48 8b 45 10          	mov    0x10(%rbp),%rax
    702b:	f3 0f 10 50 3c       	movss  0x3c(%rax),%xmm2
    7030:	48 8b 45 10          	mov    0x10(%rbp),%rax
    7034:	f3 0f 10 40 54       	movss  0x54(%rax),%xmm0
    7039:	f3 0f 59 d0          	mulss  %xmm0,%xmm2
    703d:	f3 0f 10 05 c0 00 00 	movss  0xc0(%rip),%xmm0        # 7105 <pdsp_dpll_1ph_sogi_fll+0x391>
    7044:	00 
    7045:	f3 0f 59 c2          	mulss  %xmm2,%xmm0
    7049:	f3 0f 58 c1          	addss  %xmm1,%xmm0
    704d:	48 8b 45 10          	mov    0x10(%rbp),%rax
    7051:	f3 0f 11 40 48       	movss  %xmm0,0x48(%rax)
    7056:	48 8b 45 10          	mov    0x10(%rbp),%rax
    705a:	f3 0f 10 40 48       	movss  0x48(%rax),%xmm0
    705f:	0f 2f 05 c0 00 00 00 	comiss 0xc0(%rip),%xmm0        # 7126 <pdsp_dpll_1ph_sogi_fll+0x3b2>
    7066:	76 1e                	jbe    7086 <pdsp_dpll_1ph_sogi_fll+0x312>
    7068:	48 8b 45 10          	mov    0x10(%rbp),%rax
    706c:	f3 0f 10 40 48       	movss  0x48(%rax),%xmm0
    7071:	f3 0f 10 0d c0 00 00 	movss  0xc0(%rip),%xmm1        # 7139 <pdsp_dpll_1ph_sogi_fll+0x3c5>
    7078:	00 
    7079:	f3 0f 5c c1          	subss  %xmm1,%xmm0
    707d:	48 8b 45 10          	mov    0x10(%rbp),%rax
    7081:	f3 0f 11 40 48       	movss  %xmm0,0x48(%rax)
    7086:	48 8b 45 10          	mov    0x10(%rbp),%rax
    708a:	8b 40 48             	mov    0x48(%rax),%eax
    708d:	66 0f 6e c0          	movd   %eax,%xmm0
    7091:	e8 00 00 00 00       	call   7096 <pdsp_dpll_1ph_sogi_fll+0x322>
    7096:	66 0f 7e c0          	movd   %xmm0,%eax
    709a:	48 8b 55 10          	mov    0x10(%rbp),%rdx
    709e:	89 42 50             	mov    %eax,0x50(%rdx)
    70a1:	48 8b 45 10          	mov    0x10(%rbp),%rax
    70a5:	8b 40 48             	mov    0x48(%rax),%eax
    70a8:	66 0f 6e c0          	movd   %eax,%xmm0
    70ac:	e8 00 00 00 00       	call   70b1 <pdsp_dpll_1ph_sogi_fll+0x33d>
    70b1:	66 0f 7e c0          	movd   %xmm0,%eax
    70b5:	48 8b 55 10          	mov    0x10(%rbp),%rdx
    70b9:	89 42 4c             	mov    %eax,0x4c(%rdx)
    70bc:	48 8b 45 10          	mov    0x10(%rbp),%rax
    70c0:	f3 0f 10 00          	movss  (%rax),%xmm0
    70c4:	48 8b 45 10          	mov    0x10(%rbp),%rax
    70c8:	f3 0f 10 50 0c       	movss  0xc(%rax),%xmm2
    70cd:	0f 28 c8             	movaps %xmm0,%xmm1
    70d0:	f3 0f 5c ca          	subss  %xmm2,%xmm1
    70d4:	48 8b 45 10          	mov    0x10(%rbp),%rax
    70d8:	f3 0f 10 40 18       	movss  0x18(%rax),%xmm0
    70dd:	f3 0f 59 c8          	mulss  %xmm0,%xmm1
    70e1:	48 8b 45 10          	mov    0x10(%rbp),%rax
    70e5:	f3 0f 10 40 68       	movss  0x68(%rax),%xmm0
    70ea:	f3 0f 59 c8          	mulss  %xmm0,%xmm1
    70ee:	48 8b 45 10          	mov    0x10(%rbp),%rax
    70f2:	f3 0f 10 40 54       	movss  0x54(%rax),%xmm0
    70f7:	f3 0f 59 c1          	mulss  %xmm1,%xmm0
    70fb:	f3 0f 10 0d 80 00 00 	movss  0x80(%rip),%xmm1        # 7183 <pdsp_dpll_1ph_sogi_fll+0x40f>
    7102:	00 
    7103:	0f 57 c1             	xorps  %xmm1,%xmm0
    7106:	48 8b 45 10          	mov    0x10(%rbp),%rax
    710a:	f3 0f 11 40 58       	movss  %xmm0,0x58(%rax)
    710f:	48 8b 45 10          	mov    0x10(%rbp),%rax
    7113:	f3 0f 10 48 60       	movss  0x60(%rax),%xmm1
    7118:	48 8b 45 10          	mov    0x10(%rbp),%rax
    711c:	f3 0f 10 40 58       	movss  0x58(%rax),%xmm0
    7121:	f3 0f 58 c1          	addss  %xmm1,%xmm0
    7125:	48 8b 45 10          	mov    0x10(%rbp),%rax
    7129:	f3 0f 11 40 5c       	movss  %xmm0,0x5c(%rax)
    712e:	48 8b 45 10          	mov    0x10(%rbp),%rax
    7132:	f3 0f 10 40 5c       	movss  0x5c(%rax),%xmm0
    7137:	48 8b 45 10          	mov    0x10(%rbp),%rax
    713b:	f3 0f 11 40 60       	movss  %xmm0,0x60(%rax)
    7140:	48 8b 45 10          	mov    0x10(%rbp),%rax
    7144:	f3 0f 10 48 44       	movss  0x44(%rax),%xmm1
    7149:	48 8b 45 10          	mov    0x10(%rbp),%rax
    714d:	f3 0f 10 40 5c       	movss  0x5c(%rax),%xmm0
    7152:	f3 0f 58 c1          	addss  %xmm1,%xmm0
    7156:	48 8b 45 10          	mov    0x10(%rbp),%rax
    715a:	f3 0f 11 40 64       	movss  %xmm0,0x64(%rax)
    715f:	48 8b 45 10          	mov    0x10(%rbp),%rax
    7163:	f3 0f 10 48 64       	movss  0x64(%rax),%xmm1
    7168:	f3 0f 10 05 c4 00 00 	movss  0xc4(%rip),%xmm0        # 7234 <pdsp_dpll_1ph_sogi_fll+0x4c0>
    716f:	00 
    7170:	f3 0f 59 c1          	mulss  %xmm1,%xmm0
    7174:	48 8b 45 10          	mov    0x10(%rbp),%rax
    7178:	f3 0f 11 40 40       	movss  %xmm0,0x40(%rax)
    717d:	48 8b 45 10          	mov    0x10(%rbp),%rax
    7181:	f3 0f 10 40 6c       	movss  0x6c(%rax),%xmm0
    7186:	0f 28 c8             	movaps %xmm0,%xmm1
    7189:	f3 0f 58 c8          	addss  %xmm0,%xmm1
    718d:	48 8b 45 10          	mov    0x10(%rbp),%rax
    7191:	f3 0f 10 40 64       	movss  0x64(%rax),%xmm0
    7196:	f3 0f 59 c8          	mulss  %xmm0,%xmm1
    719a:	48 8b 45 10          	mov    0x10(%rbp),%rax
    719e:	f3 0f 10 40 54       	movss  0x54(%rax),%xmm0
    71a3:	f3 0f 59 c1          	mulss  %xmm1,%xmm0
    71a7:	f3 0f 11 45 fc       	movss  %xmm0,-0x4(%rbp)
    71ac:	48 8b 45 10          	mov    0x10(%rbp),%rax
    71b0:	f3 0f 10 48 64       	movss  0x64(%rax),%xmm1
    71b5:	48 8b 45 10          	mov    0x10(%rbp),%rax
    71b9:	f3 0f 10 40 54       	movss  0x54(%rax),%xmm0
    71be:	f3 0f 59 c8          	mulss  %xmm0,%xmm1
    71c2:	48 8b 45 10          	mov    0x10(%rbp),%rax
    71c6:	f3 0f 10 40 64       	movss  0x64(%rax),%xmm0
    71cb:	f3 0f 59 c8          	mulss  %xmm0,%xmm1
    71cf:	48 8b 45 10          	mov    0x10(%rbp),%rax
    71d3:	f3 0f 10 40 54       	movss  0x54(%rax),%xmm0
    71d8:	f3 0f 59 c1          	mulss  %xmm1,%xmm0
    71dc:	f3 0f 11 45 f8       	movss  %xmm0,-0x8(%rbp)
    71e1:	f3 0f 10 45 fc       	movss  -0x4(%rbp),%xmm0
    71e6:	0f 28 c8             	movaps %xmm0,%xmm1
    71e9:	f3 0f 58 4d f8       	addss  -0x8(%rbp),%xmm1
    71ee:	f3 0f 10 05 c8 00 00 	movss  0xc8(%rip),%xmm0        # 72be <pdsp_dpll_1ph_sogi_fll+0x54a>
    71f5:	00 
    71f6:	f3 0f 58 c8          	addss  %xmm0,%xmm1
    71fa:	f3 0f 10 05 44 00 00 	movss  0x44(%rip),%xmm0        # 7246 <pdsp_dpll_1ph_sogi_fll+0x4d2>
    7201:	00 
    7202:	f3 0f 5e c1          	divss  %xmm1,%xmm0
    7206:	f3 0f 11 45 f4       	movss  %xmm0,-0xc(%rbp)
    720b:	f3 0f 10 45 fc       	movss  -0x4(%rbp),%xmm0
    7210:	f3 0f 59 45 f4       	mulss  -0xc(%rbp),%xmm0
    7215:	48 8b 45 10          	mov    0x10(%rbp),%rax
    7219:	f3 0f 11 40 7c       	movss  %xmm0,0x7c(%rax)
    721e:	48 8b 45 10          	mov    0x10(%rbp),%rax
    7222:	f3 0f 10 40 7c       	movss  0x7c(%rax),%xmm0
    7227:	f3 0f 10 0d 80 00 00 	movss  0x80(%rip),%xmm1        # 72af <pdsp_dpll_1ph_sogi_fll+0x53b>
    722e:	00 
    722f:	0f 57 c1             	xorps  %xmm1,%xmm0
    7232:	48 8b 45 10          	mov    0x10(%rbp),%rax
    7236:	f3 0f 11 80 80 00 00 	movss  %xmm0,0x80(%rax)
    723d:	00 
    723e:	f3 0f 10 05 c8 00 00 	movss  0xc8(%rip),%xmm0        # 730e <pdsp_dpll_3ph_ddsrf_init+0x29>
    7245:	00 
    7246:	f3 0f 5c 45 f8       	subss  -0x8(%rbp),%xmm0
    724b:	f3 0f 58 c0          	addss  %xmm0,%xmm0
    724f:	f3 0f 59 45 f4       	mulss  -0xc(%rbp),%xmm0
    7254:	48 8b 45 10          	mov    0x10(%rbp),%rax
    7258:	f3 0f 11 80 84 00 00 	movss  %xmm0,0x84(%rax)
    725f:	00 
    7260:	f3 0f 10 45 fc       	movss  -0x4(%rbp),%xmm0
    7265:	f3 0f 5c 45 f8       	subss  -0x8(%rbp),%xmm0
    726a:	f3 0f 10 0d c8 00 00 	movss  0xc8(%rip),%xmm1        # 733a <pdsp_dpll_3ph_ddsrf_init+0x55>
    7271:	00 
    7272:	f3 0f 5c c1          	subss  %xmm1,%xmm0
    7276:	f3 0f 59 45 f4       	mulss  -0xc(%rbp),%xmm0
    727b:	48 8b 45 10          	mov    0x10(%rbp),%rax
    727f:	f3 0f 11 80 88 00 00 	movss  %xmm0,0x88(%rax)
    7286:	00 
    7287:	48 8b 45 10          	mov    0x10(%rbp),%rax
    728b:	f3 0f 10 40 6c       	movss  0x6c(%rax),%xmm0
    7290:	f3 0f 59 45 f8       	mulss  -0x8(%rbp),%xmm0
    7295:	f3 0f 59 45 f4       	mulss  -0xc(%rbp),%xmm0
    729a:	48 8b 45 10          	mov    0x10(%rbp),%rax
    729e:	f3 0f 11 80 8c 00 00 	movss  %xmm0,0x8c(%rax)
    72a5:	00 
    72a6:	48 8b 45 10          	mov    0x10(%rbp),%rax
    72aa:	f3 0f 10 80 8c 00 00 	movss  0x8c(%rax),%xmm0
    72b1:	00 
    72b2:	f3 0f 58 c0          	addss  %xmm0,%xmm0
    72b6:	48 8b 45 10          	mov    0x10(%rbp),%rax
    72ba:	f3 0f 11 80 90 00 00 	movss  %xmm0,0x90(%rax)
    72c1:	00 
    72c2:	48 8b 45 10          	mov    0x10(%rbp),%rax
    72c6:	f3 0f 10 80 8c 00 00 	movss  0x8c(%rax),%xmm0
    72cd:	00 
    72ce:	48 8b 45 10          	mov    0x10(%rbp),%rax
    72d2:	f3 0f 11 80 94 00 00 	movss  %xmm0,0x94(%rax)
    72d9:	00 
    72da:	b8 00 00 00 00       	mov    $0x0,%eax
    72df:	48 83 c4 30          	add    $0x30,%rsp
    72e3:	5d                   	pop    %rbp
    72e4:	c3                   	ret

00000000000072e5 <pdsp_dpll_3ph_ddsrf_init>:
    72e5:	55                   	push   %rbp
    72e6:	48 89 e5             	mov    %rsp,%rbp
    72e9:	48 83 ec 20          	sub    $0x20,%rsp
    72ed:	48 89 4d 10          	mov    %rcx,0x10(%rbp)
    72f1:	48 83 7d 10 00       	cmpq   $0x0,0x10(%rbp)
    72f6:	75 1f                	jne    7317 <pdsp_dpll_3ph_ddsrf_init+0x32>
    72f8:	41 b8 2a 09 00 00    	mov    $0x92a,%r8d
    72fe:	48 8d 05 20 00 00 00 	lea    0x20(%rip),%rax        # 7325 <pdsp_dpll_3ph_ddsrf_init+0x40>
    7305:	48 89 c2             	mov    %rax,%rdx
    7308:	48 8d 05 27 00 00 00 	lea    0x27(%rip),%rax        # 7336 <pdsp_dpll_3ph_ddsrf_init+0x51>
    730f:	48 89 c1             	mov    %rax,%rcx
    7312:	e8 e9 8c ff ff       	call   0 <printf>
    7317:	48 8b 45 10          	mov    0x10(%rbp),%rax
    731b:	66 0f ef c0          	pxor   %xmm0,%xmm0
    731f:	f3 0f 11 00          	movss  %xmm0,(%rax)
    7323:	48 8b 45 10          	mov    0x10(%rbp),%rax
    7327:	66 0f ef c0          	pxor   %xmm0,%xmm0
    732b:	f3 0f 11 40 04       	movss  %xmm0,0x4(%rax)
    7330:	48 8b 45 10          	mov    0x10(%rbp),%rax
    7334:	66 0f ef c0          	pxor   %xmm0,%xmm0
    7338:	f3 0f 11 40 08       	movss  %xmm0,0x8(%rax)
    733d:	48 8b 45 10          	mov    0x10(%rbp),%rax
    7341:	66 0f ef c0          	pxor   %xmm0,%xmm0
    7345:	f3 0f 11 40 0c       	movss  %xmm0,0xc(%rax)
    734a:	48 8b 45 10          	mov    0x10(%rbp),%rax
    734e:	66 0f ef c0          	pxor   %xmm0,%xmm0
    7352:	f3 0f 11 40 10       	movss  %xmm0,0x10(%rax)
    7357:	48 8b 45 10          	mov    0x10(%rbp),%rax
    735b:	66 0f ef c0          	pxor   %xmm0,%xmm0
    735f:	f3 0f 11 40 14       	movss  %xmm0,0x14(%rax)
    7364:	48 8b 45 10          	mov    0x10(%rbp),%rax
    7368:	66 0f ef c0          	pxor   %xmm0,%xmm0
    736c:	f3 0f 11 40 18       	movss  %xmm0,0x18(%rax)
    7371:	48 8b 45 10          	mov    0x10(%rbp),%rax
    7375:	66 0f ef c0          	pxor   %xmm0,%xmm0
    7379:	f3 0f 11 40 1c       	movss  %xmm0,0x1c(%rax)
    737e:	48 8b 45 10          	mov    0x10(%rbp),%rax
    7382:	66 0f ef c0          	pxor   %xmm0,%xmm0
    7386:	f3 0f 11 40 20       	movss  %xmm0,0x20(%rax)
    738b:	48 8b 45 10          	mov    0x10(%rbp),%rax
    738f:	66 0f ef c0          	pxor   %xmm0,%xmm0
    7393:	f3 0f 11 40 24       	movss  %xmm0,0x24(%rax)
    7398:	48 8b 45 10          	mov    0x10(%rbp),%rax
    739c:	66 0f ef c0          	pxor   %xmm0,%xmm0
    73a0:	f3 0f 11 40 28       	movss  %xmm0,0x28(%rax)
    73a5:	48 8b 45 10          	mov    0x10(%rbp),%rax
    73a9:	66 0f ef c0          	pxor   %xmm0,%xmm0
    73ad:	f3 0f 11 40 2c       	movss  %xmm0,0x2c(%rax)
    73b2:	48 8b 45 10          	mov    0x10(%rbp),%rax
    73b6:	66 0f ef c0          	pxor   %xmm0,%xmm0
    73ba:	f3 0f 11 40 30       	movss  %xmm0,0x30(%rax)
    73bf:	48 8b 45 10          	mov    0x10(%rbp),%rax
    73c3:	66 0f ef c0          	pxor   %xmm0,%xmm0
    73c7:	f3 0f 11 40 34       	movss  %xmm0,0x34(%rax)
    73cc:	48 8b 45 10          	mov    0x10(%rbp),%rax
    73d0:	66 0f ef c0          	pxor   %xmm0,%xmm0
    73d4:	f3 0f 11 40 38       	movss  %xmm0,0x38(%rax)
    73d9:	48 8b 45 10          	mov    0x10(%rbp),%rax
    73dd:	66 0f ef c0          	pxor   %xmm0,%xmm0
    73e1:	f3 0f 11 40 3c       	movss  %xmm0,0x3c(%rax)
    73e6:	48 8b 45 10          	mov    0x10(%rbp),%rax
    73ea:	66 0f ef c0          	pxor   %xmm0,%xmm0
    73ee:	f3 0f 11 40 40       	movss  %xmm0,0x40(%rax)
    73f3:	48 8b 45 10          	mov    0x10(%rbp),%rax
    73f7:	66 0f ef c0          	pxor   %xmm0,%xmm0
    73fb:	f3 0f 11 40 44       	movss  %xmm0,0x44(%rax)
    7400:	48 8b 45 10          	mov    0x10(%rbp),%rax
    7404:	66 0f ef c0          	pxor   %xmm0,%xmm0
    7408:	f3 0f 11 40 48       	movss  %xmm0,0x48(%rax)
    740d:	48 8b 45 10          	mov    0x10(%rbp),%rax
    7411:	66 0f ef c0          	pxor   %xmm0,%xmm0
    7415:	f3 0f 11 40 4c       	movss  %xmm0,0x4c(%rax)
    741a:	48 8b 45 10          	mov    0x10(%rbp),%rax
    741e:	66 0f ef c0          	pxor   %xmm0,%xmm0
    7422:	f3 0f 11 40 50       	movss  %xmm0,0x50(%rax)
    7427:	48 8b 45 10          	mov    0x10(%rbp),%rax
    742b:	66 0f ef c0          	pxor   %xmm0,%xmm0
    742f:	f3 0f 11 40 54       	movss  %xmm0,0x54(%rax)
    7434:	48 8b 45 10          	mov    0x10(%rbp),%rax
    7438:	66 0f ef c0          	pxor   %xmm0,%xmm0
    743c:	f3 0f 11 40 58       	movss  %xmm0,0x58(%rax)
    7441:	48 8b 45 10          	mov    0x10(%rbp),%rax
    7445:	66 0f ef c0          	pxor   %xmm0,%xmm0
    7449:	f3 0f 11 40 5c       	movss  %xmm0,0x5c(%rax)
    744e:	48 8b 45 10          	mov    0x10(%rbp),%rax
    7452:	66 0f ef c0          	pxor   %xmm0,%xmm0
    7456:	f3 0f 11 40 60       	movss  %xmm0,0x60(%rax)
    745b:	48 8b 45 10          	mov    0x10(%rbp),%rax
    745f:	66 0f ef c0          	pxor   %xmm0,%xmm0
    7463:	f3 0f 11 40 64       	movss  %xmm0,0x64(%rax)
    7468:	48 8b 45 10          	mov    0x10(%rbp),%rax
    746c:	66 0f ef c0          	pxor   %xmm0,%xmm0
    7470:	f3 0f 11 40 68       	movss  %xmm0,0x68(%rax)
    7475:	48 8b 45 10          	mov    0x10(%rbp),%rax
    7479:	66 0f ef c0          	pxor   %xmm0,%xmm0
    747d:	f3 0f 11 40 6c       	movss  %xmm0,0x6c(%rax)
    7482:	48 8b 45 10          	mov    0x10(%rbp),%rax
    7486:	66 0f ef c0          	pxor   %xmm0,%xmm0
    748a:	f3 0f 11 40 70       	movss  %xmm0,0x70(%rax)
    748f:	b8 00 00 00 00       	mov    $0x0,%eax
    7494:	48 83 c4 20          	add    $0x20,%rsp
    7498:	5d                   	pop    %rbp
    7499:	c3                   	ret

000000000000749a <pdsp_dpll_3ph_ddsrf>:
    749a:	55                   	push   %rbp
    749b:	48 89 e5             	mov    %rsp,%rbp
    749e:	48 83 ec 20          	sub    $0x20,%rsp
    74a2:	48 89 4d 10          	mov    %rcx,0x10(%rbp)
    74a6:	f3 0f 11 4d 18       	movss  %xmm1,0x18(%rbp)
    74ab:	f3 0f 11 55 20       	movss  %xmm2,0x20(%rbp)
    74b0:	f3 0f 11 5d 28       	movss  %xmm3,0x28(%rbp)
    74b5:	48 83 7d 10 00       	cmpq   $0x0,0x10(%rbp)
    74ba:	75 1f                	jne    74db <pdsp_dpll_3ph_ddsrf+0x41>
    74bc:	41 b8 50 09 00 00    	mov    $0x950,%r8d
    74c2:	48 8d 05 20 00 00 00 	lea    0x20(%rip),%rax        # 74e9 <pdsp_dpll_3ph_ddsrf+0x4f>
    74c9:	48 89 c2             	mov    %rax,%rdx
    74cc:	48 8d 05 27 00 00 00 	lea    0x27(%rip),%rax        # 74fa <pdsp_dpll_3ph_ddsrf+0x60>
    74d3:	48 89 c1             	mov    %rax,%rcx
    74d6:	e8 25 8b ff ff       	call   0 <printf>
    74db:	48 8b 45 10          	mov    0x10(%rbp),%rax
    74df:	f3 0f 10 48 44       	movss  0x44(%rax),%xmm1
    74e4:	48 8b 45 10          	mov    0x10(%rbp),%rax
    74e8:	f3 0f 10 40 10       	movss  0x10(%rax),%xmm0
    74ed:	f3 0f 59 c8          	mulss  %xmm0,%xmm1
    74f1:	f3 0f 10 45 18       	movss  0x18(%rbp),%xmm0
    74f6:	f3 0f 5c c1          	subss  %xmm1,%xmm0
    74fa:	48 8b 45 10          	mov    0x10(%rbp),%rax
    74fe:	f3 0f 10 50 0c       	movss  0xc(%rax),%xmm2
    7503:	48 8b 45 10          	mov    0x10(%rbp),%rax
    7507:	f3 0f 10 48 14       	movss  0x14(%rax),%xmm1
    750c:	f3 0f 59 ca          	mulss  %xmm2,%xmm1
    7510:	f3 0f 5c c1          	subss  %xmm1,%xmm0
    7514:	48 8b 45 10          	mov    0x10(%rbp),%rax
    7518:	f3 0f 11 00          	movss  %xmm0,(%rax)
    751c:	48 8b 45 10          	mov    0x10(%rbp),%rax
    7520:	f3 0f 10 48 44       	movss  0x44(%rax),%xmm1
    7525:	48 8b 45 10          	mov    0x10(%rbp),%rax
    7529:	f3 0f 10 40 14       	movss  0x14(%rax),%xmm0
    752e:	f3 0f 59 c1          	mulss  %xmm1,%xmm0
    7532:	f3 0f 58 45 28       	addss  0x28(%rbp),%xmm0
    7537:	48 8b 45 10          	mov    0x10(%rbp),%rax
    753b:	f3 0f 10 50 0c       	movss  0xc(%rax),%xmm2
    7540:	48 8b 45 10          	mov    0x10(%rbp),%rax
    7544:	f3 0f 10 48 10       	movss  0x10(%rax),%xmm1
    7549:	f3 0f 59 ca          	mulss  %xmm2,%xmm1
    754d:	f3 0f 5c c1          	subss  %xmm1,%xmm0
    7551:	48 8b 45 10          	mov    0x10(%rbp),%rax
    7555:	f3 0f 11 40 08       	movss  %xmm0,0x8(%rax)
    755a:	48 8b 45 10          	mov    0x10(%rbp),%rax
    755e:	f3 0f 10 48 40       	movss  0x40(%rax),%xmm1
    7563:	48 8b 45 10          	mov    0x10(%rbp),%rax
    7567:	f3 0f 10 40 10       	movss  0x10(%rax),%xmm0
    756c:	0f 28 d1             	movaps %xmm1,%xmm2
    756f:	f3 0f 59 d0          	mulss  %xmm0,%xmm2
    7573:	f3 0f 10 45 20       	movss  0x20(%rbp),%xmm0
    7578:	0f 28 c8             	movaps %xmm0,%xmm1
    757b:	f3 0f 5c ca          	subss  %xmm2,%xmm1
    757f:	48 8b 45 10          	mov    0x10(%rbp),%rax
    7583:	f3 0f 10 50 08       	movss  0x8(%rax),%xmm2
    7588:	48 8b 45 10          	mov    0x10(%rbp),%rax
    758c:	f3 0f 10 40 14       	movss  0x14(%rax),%xmm0
    7591:	f3 0f 59 c2          	mulss  %xmm2,%xmm0
    7595:	f3 0f 58 c1          	addss  %xmm1,%xmm0
    7599:	48 8b 45 10          	mov    0x10(%rbp),%rax
    759d:	f3 0f 11 40 04       	movss  %xmm0,0x4(%rax)
    75a2:	48 8b 45 10          	mov    0x10(%rbp),%rax
    75a6:	f3 0f 10 48 40       	movss  0x40(%rax),%xmm1
    75ab:	48 8b 45 10          	mov    0x10(%rbp),%rax
    75af:	f3 0f 10 40 14       	movss  0x14(%rax),%xmm0
    75b4:	f3 0f 59 c8          	mulss  %xmm0,%xmm1
    75b8:	f3 0f 10 45 30       	movss  0x30(%rbp),%xmm0
    75bd:	f3 0f 5c c1          	subss  %xmm1,%xmm0
    75c1:	48 8b 45 10          	mov    0x10(%rbp),%rax
    75c5:	f3 0f 10 50 08       	movss  0x8(%rax),%xmm2
    75ca:	48 8b 45 10          	mov    0x10(%rbp),%rax
    75ce:	f3 0f 10 48 10       	movss  0x10(%rax),%xmm1
    75d3:	f3 0f 59 ca          	mulss  %xmm2,%xmm1
    75d7:	f3 0f 5c c1          	subss  %xmm1,%xmm0
    75db:	48 8b 45 10          	mov    0x10(%rbp),%rax
    75df:	f3 0f 11 40 0c       	movss  %xmm0,0xc(%rax)
    75e4:	48 8b 45 10          	mov    0x10(%rbp),%rax
    75e8:	f3 0f 10 08          	movss  (%rax),%xmm1
    75ec:	48 8b 45 10          	mov    0x10(%rbp),%rax
    75f0:	f3 0f 10 40 38       	movss  0x38(%rax),%xmm0
    75f5:	f3 0f 59 c1          	mulss  %xmm1,%xmm0
    75f9:	48 8b 45 10          	mov    0x10(%rbp),%rax
    75fd:	f3 0f 10 50 18       	movss  0x18(%rax),%xmm2
    7602:	48 8b 45 10          	mov    0x10(%rbp),%rax
    7606:	f3 0f 10 48 3c       	movss  0x3c(%rax),%xmm1
    760b:	f3 0f 59 ca          	mulss  %xmm2,%xmm1
    760f:	f3 0f 5c c1          	subss  %xmm1,%xmm0
    7613:	48 8b 45 10          	mov    0x10(%rbp),%rax
    7617:	f3 0f 11 40 1c       	movss  %xmm0,0x1c(%rax)
    761c:	48 8b 45 10          	mov    0x10(%rbp),%rax
    7620:	f3 0f 10 48 1c       	movss  0x1c(%rax),%xmm1
    7625:	48 8b 45 10          	mov    0x10(%rbp),%rax
    7629:	f3 0f 10 40 18       	movss  0x18(%rax),%xmm0
    762e:	f3 0f 58 c1          	addss  %xmm1,%xmm0
    7632:	48 8b 45 10          	mov    0x10(%rbp),%rax
    7636:	f3 0f 11 40 40       	movss  %xmm0,0x40(%rax)
    763b:	48 8b 45 10          	mov    0x10(%rbp),%rax
    763f:	f3 0f 10 40 1c       	movss  0x1c(%rax),%xmm0
    7644:	48 8b 45 10          	mov    0x10(%rbp),%rax
    7648:	f3 0f 11 40 18       	movss  %xmm0,0x18(%rax)
    764d:	48 8b 45 10          	mov    0x10(%rbp),%rax
    7651:	f3 0f 10 48 08       	movss  0x8(%rax),%xmm1
    7656:	48 8b 45 10          	mov    0x10(%rbp),%rax
    765a:	f3 0f 10 40 38       	movss  0x38(%rax),%xmm0
    765f:	f3 0f 59 c1          	mulss  %xmm1,%xmm0
    7663:	48 8b 45 10          	mov    0x10(%rbp),%rax
    7667:	f3 0f 10 50 20       	movss  0x20(%rax),%xmm2
    766c:	48 8b 45 10          	mov    0x10(%rbp),%rax
    7670:	f3 0f 10 48 3c       	movss  0x3c(%rax),%xmm1
    7675:	f3 0f 59 ca          	mulss  %xmm2,%xmm1
    7679:	f3 0f 5c c1          	subss  %xmm1,%xmm0
    767d:	48 8b 45 10          	mov    0x10(%rbp),%rax
    7681:	f3 0f 11 40 24       	movss  %xmm0,0x24(%rax)
    7686:	48 8b 45 10          	mov    0x10(%rbp),%rax
    768a:	f3 0f 10 48 24       	movss  0x24(%rax),%xmm1
    768f:	48 8b 45 10          	mov    0x10(%rbp),%rax
    7693:	f3 0f 10 40 20       	movss  0x20(%rax),%xmm0
    7698:	f3 0f 58 c1          	addss  %xmm1,%xmm0
    769c:	48 8b 45 10          	mov    0x10(%rbp),%rax
    76a0:	f3 0f 11 40 48       	movss  %xmm0,0x48(%rax)
    76a5:	48 8b 45 10          	mov    0x10(%rbp),%rax
    76a9:	f3 0f 10 40 24       	movss  0x24(%rax),%xmm0
    76ae:	48 8b 45 10          	mov    0x10(%rbp),%rax
    76b2:	f3 0f 11 40 20       	movss  %xmm0,0x20(%rax)
    76b7:	48 8b 45 10          	mov    0x10(%rbp),%rax
    76bb:	f3 0f 10 48 04       	movss  0x4(%rax),%xmm1
    76c0:	48 8b 45 10          	mov    0x10(%rbp),%rax
    76c4:	f3 0f 10 40 38       	movss  0x38(%rax),%xmm0
    76c9:	f3 0f 59 c1          	mulss  %xmm1,%xmm0
    76cd:	48 8b 45 10          	mov    0x10(%rbp),%rax
    76d1:	f3 0f 10 50 28       	movss  0x28(%rax),%xmm2
    76d6:	48 8b 45 10          	mov    0x10(%rbp),%rax
    76da:	f3 0f 10 48 3c       	movss  0x3c(%rax),%xmm1
    76df:	f3 0f 59 ca          	mulss  %xmm2,%xmm1
    76e3:	f3 0f 5c c1          	subss  %xmm1,%xmm0
    76e7:	48 8b 45 10          	mov    0x10(%rbp),%rax
    76eb:	f3 0f 11 40 2c       	movss  %xmm0,0x2c(%rax)
    76f0:	48 8b 45 10          	mov    0x10(%rbp),%rax
    76f4:	f3 0f 10 48 2c       	movss  0x2c(%rax),%xmm1
    76f9:	48 8b 45 10          	mov    0x10(%rbp),%rax
    76fd:	f3 0f 10 40 28       	movss  0x28(%rax),%xmm0
    7702:	f3 0f 58 c1          	addss  %xmm1,%xmm0
    7706:	48 8b 45 10          	mov    0x10(%rbp),%rax
    770a:	f3 0f 11 40 44       	movss  %xmm0,0x44(%rax)
    770f:	48 8b 45 10          	mov    0x10(%rbp),%rax
    7713:	f3 0f 10 40 2c       	movss  0x2c(%rax),%xmm0
    7718:	48 8b 45 10          	mov    0x10(%rbp),%rax
    771c:	f3 0f 11 40 28       	movss  %xmm0,0x28(%rax)
    7721:	48 8b 45 10          	mov    0x10(%rbp),%rax
    7725:	f3 0f 10 48 0c       	movss  0xc(%rax),%xmm1
    772a:	48 8b 45 10          	mov    0x10(%rbp),%rax
    772e:	f3 0f 10 40 38       	movss  0x38(%rax),%xmm0
    7733:	f3 0f 59 c1          	mulss  %xmm1,%xmm0
    7737:	48 8b 45 10          	mov    0x10(%rbp),%rax
    773b:	f3 0f 10 50 30       	movss  0x30(%rax),%xmm2
    7740:	48 8b 45 10          	mov    0x10(%rbp),%rax
    7744:	f3 0f 10 48 3c       	movss  0x3c(%rax),%xmm1
    7749:	f3 0f 59 ca          	mulss  %xmm2,%xmm1
    774d:	f3 0f 5c c1          	subss  %xmm1,%xmm0
    7751:	48 8b 45 10          	mov    0x10(%rbp),%rax
    7755:	f3 0f 11 40 34       	movss  %xmm0,0x34(%rax)
    775a:	48 8b 45 10          	mov    0x10(%rbp),%rax
    775e:	f3 0f 10 48 34       	movss  0x34(%rax),%xmm1
    7763:	48 8b 45 10          	mov    0x10(%rbp),%rax
    7767:	f3 0f 10 40 30       	movss  0x30(%rax),%xmm0
    776c:	f3 0f 58 c1          	addss  %xmm1,%xmm0
    7770:	48 8b 45 10          	mov    0x10(%rbp),%rax
    7774:	f3 0f 11 40 4c       	movss  %xmm0,0x4c(%rax)
    7779:	48 8b 45 10          	mov    0x10(%rbp),%rax
    777d:	f3 0f 10 40 34       	movss  0x34(%rax),%xmm0
    7782:	48 8b 45 10          	mov    0x10(%rbp),%rax
    7786:	f3 0f 11 40 30       	movss  %xmm0,0x30(%rax)
    778b:	48 8b 45 10          	mov    0x10(%rbp),%rax
    778f:	f3 0f 10 40 08       	movss  0x8(%rax),%xmm0
    7794:	48 8b 45 10          	mov    0x10(%rbp),%rax
    7798:	f3 0f 11 40 50       	movss  %xmm0,0x50(%rax)
    779d:	48 8b 45 10          	mov    0x10(%rbp),%rax
    77a1:	f3 0f 10 48 64       	movss  0x64(%rax),%xmm1
    77a6:	48 8b 45 10          	mov    0x10(%rbp),%rax
    77aa:	f3 0f 10 50 74       	movss  0x74(%rax),%xmm2
    77af:	48 8b 45 10          	mov    0x10(%rbp),%rax
    77b3:	f3 0f 10 40 50       	movss  0x50(%rax),%xmm0
    77b8:	f3 0f 59 c2          	mulss  %xmm2,%xmm0
    77bc:	f3 0f 58 c8          	addss  %xmm0,%xmm1
    77c0:	48 8b 45 10          	mov    0x10(%rbp),%rax
    77c4:	f3 0f 10 50 78       	movss  0x78(%rax),%xmm2
    77c9:	48 8b 45 10          	mov    0x10(%rbp),%rax
    77cd:	f3 0f 10 40 54       	movss  0x54(%rax),%xmm0
    77d2:	f3 0f 59 c2          	mulss  %xmm2,%xmm0
    77d6:	f3 0f 58 c1          	addss  %xmm1,%xmm0
    77da:	48 8b 45 10          	mov    0x10(%rbp),%rax
    77de:	f3 0f 11 40 60       	movss  %xmm0,0x60(%rax)
    77e3:	48 8b 45 10          	mov    0x10(%rbp),%rax
    77e7:	f3 0f 10 40 60       	movss  0x60(%rax),%xmm0
    77ec:	48 8b 45 10          	mov    0x10(%rbp),%rax
    77f0:	f3 0f 11 40 64       	movss  %xmm0,0x64(%rax)
    77f5:	48 8b 45 10          	mov    0x10(%rbp),%rax
    77f9:	f3 0f 10 40 50       	movss  0x50(%rax),%xmm0
    77fe:	48 8b 45 10          	mov    0x10(%rbp),%rax
    7802:	f3 0f 11 40 54       	movss  %xmm0,0x54(%rax)
    7807:	48 8b 45 10          	mov    0x10(%rbp),%rax
    780b:	f3 0f 10 48 6c       	movss  0x6c(%rax),%xmm1
    7810:	48 8b 45 10          	mov    0x10(%rbp),%rax
    7814:	f3 0f 10 40 60       	movss  0x60(%rax),%xmm0
    7819:	f3 0f 58 c1          	addss  %xmm1,%xmm0
    781d:	48 8b 45 10          	mov    0x10(%rbp),%rax
    7821:	f3 0f 11 40 68       	movss  %xmm0,0x68(%rax)
    7826:	48 8b 45 10          	mov    0x10(%rbp),%rax
    782a:	f3 0f 10 48 5c       	movss  0x5c(%rax),%xmm1
    782f:	48 8b 45 10          	mov    0x10(%rbp),%rax
    7833:	f3 0f 10 50 68       	movss  0x68(%rax),%xmm2
    7838:	48 8b 45 10          	mov    0x10(%rbp),%rax
    783c:	f3 0f 10 40 70       	movss  0x70(%rax),%xmm0
    7841:	f3 0f 59 d0          	mulss  %xmm0,%xmm2
    7845:	f3 0f 10 05 cc 00 00 	movss  0xcc(%rip),%xmm0        # 7919 <pdsp_dpll_3ph_srf_init+0x24>
    784c:	00 
    784d:	f3 0f 59 c2          	mulss  %xmm2,%xmm0
    7851:	f3 0f 58 c1          	addss  %xmm1,%xmm0
    7855:	48 8b 45 10          	mov    0x10(%rbp),%rax
    7859:	f3 0f 11 40 58       	movss  %xmm0,0x58(%rax)
    785e:	48 8b 45 10          	mov    0x10(%rbp),%rax
    7862:	f3 0f 10 40 58       	movss  0x58(%rax),%xmm0
    7867:	0f 2f 05 cc 00 00 00 	comiss 0xcc(%rip),%xmm0        # 793a <pdsp_dpll_3ph_srf_init+0x45>
    786e:	76 1e                	jbe    788e <pdsp_dpll_3ph_ddsrf+0x3f4>
    7870:	48 8b 45 10          	mov    0x10(%rbp),%rax
    7874:	f3 0f 10 40 58       	movss  0x58(%rax),%xmm0
    7879:	f3 0f 10 0d cc 00 00 	movss  0xcc(%rip),%xmm1        # 794d <pdsp_dpll_3ph_srf_init+0x58>
    7880:	00 
    7881:	f3 0f 5c c1          	subss  %xmm1,%xmm0
    7885:	48 8b 45 10          	mov    0x10(%rbp),%rax
    7889:	f3 0f 11 40 58       	movss  %xmm0,0x58(%rax)
    788e:	48 8b 45 10          	mov    0x10(%rbp),%rax
    7892:	f3 0f 10 40 58       	movss  0x58(%rax),%xmm0
    7897:	48 8b 45 10          	mov    0x10(%rbp),%rax
    789b:	f3 0f 11 40 5c       	movss  %xmm0,0x5c(%rax)
    78a0:	48 8b 45 10          	mov    0x10(%rbp),%rax
    78a4:	f3 0f 10 40 5c       	movss  0x5c(%rax),%xmm0
    78a9:	f3 0f 58 c0          	addss  %xmm0,%xmm0
    78ad:	66 0f 7e c0          	movd   %xmm0,%eax
    78b1:	66 0f 6e c0          	movd   %eax,%xmm0
    78b5:	e8 00 00 00 00       	call   78ba <pdsp_dpll_3ph_ddsrf+0x420>
    78ba:	66 0f 7e c0          	movd   %xmm0,%eax
    78be:	48 8b 55 10          	mov    0x10(%rbp),%rdx
    78c2:	89 42 10             	mov    %eax,0x10(%rdx)
    78c5:	48 8b 45 10          	mov    0x10(%rbp),%rax
    78c9:	f3 0f 10 40 5c       	movss  0x5c(%rax),%xmm0
    78ce:	f3 0f 58 c0          	addss  %xmm0,%xmm0
    78d2:	66 0f 7e c0          	movd   %xmm0,%eax
    78d6:	66 0f 6e c0          	movd   %eax,%xmm0
    78da:	e8 00 00 00 00       	call   78df <pdsp_dpll_3ph_ddsrf+0x445>
    78df:	66 0f 7e c0          	movd   %xmm0,%eax
    78e3:	48 8b 55 10          	mov    0x10(%rbp),%rdx
    78e7:	89 42 14             	mov    %eax,0x14(%rdx)
    78ea:	b8 00 00 00 00       	mov    $0x0,%eax
    78ef:	48 83 c4 20          	add    $0x20,%rsp
    78f3:	5d                   	pop    %rbp
    78f4:	c3                   	ret

00000000000078f5 <pdsp_dpll_3ph_srf_init>:
    78f5:	55                   	push   %rbp
    78f6:	48 89 e5             	mov    %rsp,%rbp
    78f9:	48 83 ec 20          	sub    $0x20,%rsp
    78fd:	48 89 4d 10          	mov    %rcx,0x10(%rbp)
    7901:	48 83 7d 10 00       	cmpq   $0x0,0x10(%rbp)
    7906:	75 1f                	jne    7927 <pdsp_dpll_3ph_srf_init+0x32>
    7908:	41 b8 8e 09 00 00    	mov    $0x98e,%r8d
    790e:	48 8d 05 20 00 00 00 	lea    0x20(%rip),%rax        # 7935 <pdsp_dpll_3ph_srf_init+0x40>
    7915:	48 89 c2             	mov    %rax,%rdx
    7918:	48 8d 05 27 00 00 00 	lea    0x27(%rip),%rax        # 7946 <pdsp_dpll_3ph_srf_init+0x51>
    791f:	48 89 c1             	mov    %rax,%rcx
    7922:	e8 d9 86 ff ff       	call   0 <printf>
    7927:	48 8b 45 10          	mov    0x10(%rbp),%rax
    792b:	66 0f ef c0          	pxor   %xmm0,%xmm0
    792f:	f3 0f 11 00          	movss  %xmm0,(%rax)
    7933:	48 8b 45 10          	mov    0x10(%rbp),%rax
    7937:	66 0f ef c0          	pxor   %xmm0,%xmm0
    793b:	f3 0f 11 40 04       	movss  %xmm0,0x4(%rax)
    7940:	48 8b 45 10          	mov    0x10(%rbp),%rax
    7944:	66 0f ef c0          	pxor   %xmm0,%xmm0
    7948:	f3 0f 11 40 08       	movss  %xmm0,0x8(%rax)
    794d:	48 8b 45 10          	mov    0x10(%rbp),%rax
    7951:	66 0f ef c0          	pxor   %xmm0,%xmm0
    7955:	f3 0f 11 40 0c       	movss  %xmm0,0xc(%rax)
    795a:	48 8b 45 10          	mov    0x10(%rbp),%rax
    795e:	66 0f ef c0          	pxor   %xmm0,%xmm0
    7962:	f3 0f 11 40 10       	movss  %xmm0,0x10(%rax)
    7967:	48 8b 45 10          	mov    0x10(%rbp),%rax
    796b:	66 0f ef c0          	pxor   %xmm0,%xmm0
    796f:	f3 0f 11 40 14       	movss  %xmm0,0x14(%rax)
    7974:	48 8b 45 10          	mov    0x10(%rbp),%rax
    7978:	66 0f ef c0          	pxor   %xmm0,%xmm0
    797c:	f3 0f 11 40 18       	movss  %xmm0,0x18(%rax)
    7981:	48 8b 45 10          	mov    0x10(%rbp),%rax
    7985:	66 0f ef c0          	pxor   %xmm0,%xmm0
    7989:	f3 0f 11 40 1c       	movss  %xmm0,0x1c(%rax)
    798e:	48 8b 45 10          	mov    0x10(%rbp),%rax
    7992:	66 0f ef c0          	pxor   %xmm0,%xmm0
    7996:	f3 0f 11 40 20       	movss  %xmm0,0x20(%rax)
    799b:	b8 00 00 00 00       	mov    $0x0,%eax
    79a0:	48 83 c4 20          	add    $0x20,%rsp
    79a4:	5d                   	pop    %rbp
    79a5:	c3                   	ret

00000000000079a6 <pdsp_dpll_3ph_srf>:
    79a6:	55                   	push   %rbp
    79a7:	48 89 e5             	mov    %rsp,%rbp
    79aa:	48 83 ec 20          	sub    $0x20,%rsp
    79ae:	48 89 4d 10          	mov    %rcx,0x10(%rbp)
    79b2:	f3 0f 11 4d 18       	movss  %xmm1,0x18(%rbp)
    79b7:	48 83 7d 10 00       	cmpq   $0x0,0x10(%rbp)
    79bc:	75 1f                	jne    79dd <pdsp_dpll_3ph_srf+0x37>
    79be:	41 b8 9f 09 00 00    	mov    $0x99f,%r8d
    79c4:	48 8d 05 20 00 00 00 	lea    0x20(%rip),%rax        # 79eb <pdsp_dpll_3ph_srf+0x45>
    79cb:	48 89 c2             	mov    %rax,%rdx
    79ce:	48 8d 05 27 00 00 00 	lea    0x27(%rip),%rax        # 79fc <pdsp_dpll_3ph_srf+0x56>
    79d5:	48 89 c1             	mov    %rax,%rcx
    79d8:	e8 23 86 ff ff       	call   0 <printf>
    79dd:	48 8b 45 10          	mov    0x10(%rbp),%rax
    79e1:	f3 0f 10 45 18       	movss  0x18(%rbp),%xmm0
    79e6:	f3 0f 11 00          	movss  %xmm0,(%rax)
    79ea:	48 8b 45 10          	mov    0x10(%rbp),%rax
    79ee:	f3 0f 10 48 0c       	movss  0xc(%rax),%xmm1
    79f3:	48 8b 45 10          	mov    0x10(%rbp),%rax
    79f7:	f3 0f 10 50 24       	movss  0x24(%rax),%xmm2
    79fc:	48 8b 45 10          	mov    0x10(%rbp),%rax
    7a00:	f3 0f 10 00          	movss  (%rax),%xmm0
    7a04:	f3 0f 59 c2          	mulss  %xmm2,%xmm0
    7a08:	f3 0f 58 c8          	addss  %xmm0,%xmm1
    7a0c:	48 8b 45 10          	mov    0x10(%rbp),%rax
    7a10:	f3 0f 10 50 28       	movss  0x28(%rax),%xmm2
    7a15:	48 8b 45 10          	mov    0x10(%rbp),%rax
    7a19:	f3 0f 10 40 04       	movss  0x4(%rax),%xmm0
    7a1e:	f3 0f 59 c2          	mulss  %xmm2,%xmm0
    7a22:	f3 0f 58 c1          	addss  %xmm1,%xmm0
    7a26:	48 8b 45 10          	mov    0x10(%rbp),%rax
    7a2a:	f3 0f 11 40 08       	movss  %xmm0,0x8(%rax)
    7a2f:	48 8b 45 10          	mov    0x10(%rbp),%rax
    7a33:	f3 0f 10 40 08       	movss  0x8(%rax),%xmm0
    7a38:	48 8b 45 10          	mov    0x10(%rbp),%rax
    7a3c:	f3 0f 11 40 0c       	movss  %xmm0,0xc(%rax)
    7a41:	48 8b 45 10          	mov    0x10(%rbp),%rax
    7a45:	f3 0f 10 00          	movss  (%rax),%xmm0
    7a49:	48 8b 45 10          	mov    0x10(%rbp),%rax
    7a4d:	f3 0f 11 40 04       	movss  %xmm0,0x4(%rax)
    7a52:	48 8b 45 10          	mov    0x10(%rbp),%rax
    7a56:	f3 0f 10 40 08       	movss  0x8(%rax),%xmm0
    7a5b:	0f 2f 05 d0 00 00 00 	comiss 0xd0(%rip),%xmm0        # 7b32 <pdsp_sfra_clear+0xe>
    7a62:	76 0a                	jbe    7a6e <pdsp_dpll_3ph_srf+0xc8>
    7a64:	f3 0f 10 05 d0 00 00 	movss  0xd0(%rip),%xmm0        # 7b3c <pdsp_sfra_clear+0x18>
    7a6b:	00 
    7a6c:	eb 09                	jmp    7a77 <pdsp_dpll_3ph_srf+0xd1>
    7a6e:	48 8b 45 10          	mov    0x10(%rbp),%rax
    7a72:	f3 0f 10 40 08       	movss  0x8(%rax),%xmm0
    7a77:	48 8b 45 10          	mov    0x10(%rbp),%rax
    7a7b:	f3 0f 11 40 08       	movss  %xmm0,0x8(%rax)
    7a80:	48 8b 45 10          	mov    0x10(%rbp),%rax
    7a84:	f3 0f 10 48 14       	movss  0x14(%rax),%xmm1
    7a89:	48 8b 45 10          	mov    0x10(%rbp),%rax
    7a8d:	f3 0f 10 40 08       	movss  0x8(%rax),%xmm0
    7a92:	f3 0f 58 c1          	addss  %xmm1,%xmm0
    7a96:	48 8b 45 10          	mov    0x10(%rbp),%rax
    7a9a:	f3 0f 11 40 10       	movss  %xmm0,0x10(%rax)
    7a9f:	48 8b 45 10          	mov    0x10(%rbp),%rax
    7aa3:	f3 0f 10 48 1c       	movss  0x1c(%rax),%xmm1
    7aa8:	48 8b 45 10          	mov    0x10(%rbp),%rax
    7aac:	f3 0f 10 50 10       	movss  0x10(%rax),%xmm2
    7ab1:	48 8b 45 10          	mov    0x10(%rbp),%rax
    7ab5:	f3 0f 10 40 20       	movss  0x20(%rax),%xmm0
    7aba:	f3 0f 59 d0          	mulss  %xmm0,%xmm2
    7abe:	f3 0f 10 05 cc 00 00 	movss  0xcc(%rip),%xmm0        # 7b92 <pdsp_sfra_clear+0x6e>
    7ac5:	00 
    7ac6:	f3 0f 59 c2          	mulss  %xmm2,%xmm0
    7aca:	f3 0f 58 c1          	addss  %xmm1,%xmm0
    7ace:	48 8b 45 10          	mov    0x10(%rbp),%rax
    7ad2:	f3 0f 11 40 18       	movss  %xmm0,0x18(%rax)
    7ad7:	48 8b 45 10          	mov    0x10(%rbp),%rax
    7adb:	f3 0f 10 40 18       	movss  0x18(%rax),%xmm0
    7ae0:	0f 2f 05 cc 00 00 00 	comiss 0xcc(%rip),%xmm0        # 7bb3 <pdsp_sfra_clear+0x8f>
    7ae7:	76 1e                	jbe    7b07 <pdsp_dpll_3ph_srf+0x161>
    7ae9:	48 8b 45 10          	mov    0x10(%rbp),%rax
    7aed:	f3 0f 10 40 18       	movss  0x18(%rax),%xmm0
    7af2:	f3 0f 10 0d cc 00 00 	movss  0xcc(%rip),%xmm1        # 7bc6 <pdsp_sfra_clear+0xa2>
    7af9:	00 
    7afa:	f3 0f 5c c1          	subss  %xmm1,%xmm0
    7afe:	48 8b 45 10          	mov    0x10(%rbp),%rax
    7b02:	f3 0f 11 40 18       	movss  %xmm0,0x18(%rax)
    7b07:	48 8b 45 10          	mov    0x10(%rbp),%rax
    7b0b:	f3 0f 10 40 18       	movss  0x18(%rax),%xmm0
    7b10:	48 8b 45 10          	mov    0x10(%rbp),%rax
    7b14:	f3 0f 11 40 1c       	movss  %xmm0,0x1c(%rax)
    7b19:	b8 00 00 00 00       	mov    $0x0,%eax
    7b1e:	48 83 c4 20          	add    $0x20,%rsp
    7b22:	5d                   	pop    %rbp
    7b23:	c3                   	ret

0000000000007b24 <pdsp_sfra_clear>:
    7b24:	55                   	push   %rbp
    7b25:	48 89 e5             	mov    %rsp,%rbp
    7b28:	48 83 ec 20          	sub    $0x20,%rsp
    7b2c:	48 89 4d 10          	mov    %rcx,0x10(%rbp)
    7b30:	48 83 7d 10 00       	cmpq   $0x0,0x10(%rbp)
    7b35:	74 0c                	je     7b43 <pdsp_sfra_clear+0x1f>
    7b37:	48 8b 45 10          	mov    0x10(%rbp),%rax
    7b3b:	48 8b 00             	mov    (%rax),%rax
    7b3e:	48 85 c0             	test   %rax,%rax
    7b41:	75 1f                	jne    7b62 <pdsp_sfra_clear+0x3e>
    7b43:	41 b8 ba 09 00 00    	mov    $0x9ba,%r8d
    7b49:	48 8d 05 20 00 00 00 	lea    0x20(%rip),%rax        # 7b70 <pdsp_sfra_clear+0x4c>
    7b50:	48 89 c2             	mov    %rax,%rdx
    7b53:	48 8d 05 27 00 00 00 	lea    0x27(%rip),%rax        # 7b81 <pdsp_sfra_clear+0x5d>
    7b5a:	48 89 c1             	mov    %rax,%rcx
    7b5d:	e8 9e 84 ff ff       	call   0 <printf>
    7b62:	48 8b 45 10          	mov    0x10(%rbp),%rax
    7b66:	48 8b 00             	mov    (%rax),%rax
    7b69:	c6 00 00             	movb   $0x0,(%rax)
    7b6c:	48 8b 45 10          	mov    0x10(%rbp),%rax
    7b70:	48 8b 00             	mov    (%rax),%rax
    7b73:	66 0f ef c0          	pxor   %xmm0,%xmm0
    7b77:	f3 0f 11 40 08       	movss  %xmm0,0x8(%rax)
    7b7c:	48 8b 45 10          	mov    0x10(%rbp),%rax
    7b80:	48 8b 00             	mov    (%rax),%rax
    7b83:	66 0f ef c0          	pxor   %xmm0,%xmm0
    7b87:	f3 0f 11 40 0c       	movss  %xmm0,0xc(%rax)
    7b8c:	48 8b 45 10          	mov    0x10(%rbp),%rax
    7b90:	48 8b 00             	mov    (%rax),%rax
    7b93:	66 0f ef c0          	pxor   %xmm0,%xmm0
    7b97:	f3 0f 11 40 10       	movss  %xmm0,0x10(%rax)
    7b9c:	48 8b 45 10          	mov    0x10(%rbp),%rax
    7ba0:	48 8b 00             	mov    (%rax),%rax
    7ba3:	66 0f ef c0          	pxor   %xmm0,%xmm0
    7ba7:	f3 0f 11 40 14       	movss  %xmm0,0x14(%rax)
    7bac:	48 8b 45 10          	mov    0x10(%rbp),%rax
    7bb0:	48 8b 00             	mov    (%rax),%rax
    7bb3:	66 c7 40 18 00 00    	movw   $0x0,0x18(%rax)
    7bb9:	48 8b 45 10          	mov    0x10(%rbp),%rax
    7bbd:	48 8b 00             	mov    (%rax),%rax
    7bc0:	66 c7 40 1a 00 00    	movw   $0x0,0x1a(%rax)
    7bc6:	48 8b 45 10          	mov    0x10(%rbp),%rax
    7bca:	48 8b 00             	mov    (%rax),%rax
    7bcd:	66 0f ef c0          	pxor   %xmm0,%xmm0
    7bd1:	f3 0f 11 40 1c       	movss  %xmm0,0x1c(%rax)
    7bd6:	48 8b 45 10          	mov    0x10(%rbp),%rax
    7bda:	48 8b 00             	mov    (%rax),%rax
    7bdd:	66 0f ef c0          	pxor   %xmm0,%xmm0
    7be1:	f3 0f 11 40 20       	movss  %xmm0,0x20(%rax)
    7be6:	48 8b 45 10          	mov    0x10(%rbp),%rax
    7bea:	48 8b 00             	mov    (%rax),%rax
    7bed:	66 0f ef c0          	pxor   %xmm0,%xmm0
    7bf1:	f3 0f 11 40 24       	movss  %xmm0,0x24(%rax)
    7bf6:	48 8b 45 10          	mov    0x10(%rbp),%rax
    7bfa:	48 8b 00             	mov    (%rax),%rax
    7bfd:	66 0f ef c0          	pxor   %xmm0,%xmm0
    7c01:	f3 0f 11 40 28       	movss  %xmm0,0x28(%rax)
    7c06:	48 8b 45 10          	mov    0x10(%rbp),%rax
    7c0a:	48 8b 00             	mov    (%rax),%rax
    7c0d:	66 0f ef c0          	pxor   %xmm0,%xmm0
    7c11:	f3 0f 11 40 2c       	movss  %xmm0,0x2c(%rax)
    7c16:	90                   	nop
    7c17:	48 83 c4 20          	add    $0x20,%rsp
    7c1b:	5d                   	pop    %rbp
    7c1c:	c3                   	ret

0000000000007c1d <pdsp_sfra_start>:
    7c1d:	55                   	push   %rbp
    7c1e:	48 89 e5             	mov    %rsp,%rbp
    7c21:	48 83 ec 20          	sub    $0x20,%rsp
    7c25:	48 89 4d 10          	mov    %rcx,0x10(%rbp)
    7c29:	48 83 7d 10 00       	cmpq   $0x0,0x10(%rbp)
    7c2e:	74 0c                	je     7c3c <pdsp_sfra_start+0x1f>
    7c30:	48 8b 45 10          	mov    0x10(%rbp),%rax
    7c34:	48 8b 00             	mov    (%rax),%rax
    7c37:	48 85 c0             	test   %rax,%rax
    7c3a:	75 1f                	jne    7c5b <pdsp_sfra_start+0x3e>
    7c3c:	41 b8 cb 09 00 00    	mov    $0x9cb,%r8d
    7c42:	48 8d 05 20 00 00 00 	lea    0x20(%rip),%rax        # 7c69 <pdsp_sfra_start+0x4c>
    7c49:	48 89 c2             	mov    %rax,%rdx
    7c4c:	48 8d 05 27 00 00 00 	lea    0x27(%rip),%rax        # 7c7a <pdsp_sfra_running+0x2>
    7c53:	48 89 c1             	mov    %rax,%rcx
    7c56:	e8 a5 83 ff ff       	call   0 <printf>
    7c5b:	48 8b 45 10          	mov    0x10(%rbp),%rax
    7c5f:	48 89 c1             	mov    %rax,%rcx
    7c62:	e8 bd fe ff ff       	call   7b24 <pdsp_sfra_clear>
    7c67:	48 8b 45 10          	mov    0x10(%rbp),%rax
    7c6b:	48 8b 00             	mov    (%rax),%rax
    7c6e:	c6 00 01             	movb   $0x1,(%rax)
    7c71:	90                   	nop
    7c72:	48 83 c4 20          	add    $0x20,%rsp
    7c76:	5d                   	pop    %rbp
    7c77:	c3                   	ret

0000000000007c78 <pdsp_sfra_running>:
    7c78:	55                   	push   %rbp
    7c79:	48 89 e5             	mov    %rsp,%rbp
    7c7c:	48 83 ec 20          	sub    $0x20,%rsp
    7c80:	48 89 4d 10          	mov    %rcx,0x10(%rbp)
    7c84:	48 83 7d 10 00       	cmpq   $0x0,0x10(%rbp)
    7c89:	74 0c                	je     7c97 <pdsp_sfra_running+0x1f>
    7c8b:	48 8b 45 10          	mov    0x10(%rbp),%rax
    7c8f:	48 8b 00             	mov    (%rax),%rax
    7c92:	48 85 c0             	test   %rax,%rax
    7c95:	75 1f                	jne    7cb6 <pdsp_sfra_running+0x3e>
    7c97:	41 b8 d2 09 00 00    	mov    $0x9d2,%r8d
    7c9d:	48 8d 05 20 00 00 00 	lea    0x20(%rip),%rax        # 7cc4 <pdsp_sfra_running+0x4c>
    7ca4:	48 89 c2             	mov    %rax,%rdx
    7ca7:	48 8d 05 27 00 00 00 	lea    0x27(%rip),%rax        # 7cd5 <pdsp_sfra_inject+0xf>
    7cae:	48 89 c1             	mov    %rax,%rcx
    7cb1:	e8 4a 83 ff ff       	call   0 <printf>
    7cb6:	48 8b 45 10          	mov    0x10(%rbp),%rax
    7cba:	48 8b 00             	mov    (%rax),%rax
    7cbd:	0f b6 00             	movzbl (%rax),%eax
    7cc0:	48 83 c4 20          	add    $0x20,%rsp
    7cc4:	5d                   	pop    %rbp
    7cc5:	c3                   	ret

0000000000007cc6 <pdsp_sfra_inject>:
    7cc6:	55                   	push   %rbp
    7cc7:	48 89 e5             	mov    %rsp,%rbp
    7cca:	48 83 ec 20          	sub    $0x20,%rsp
    7cce:	48 89 4d 10          	mov    %rcx,0x10(%rbp)
    7cd2:	48 83 7d 10 00       	cmpq   $0x0,0x10(%rbp)
    7cd7:	74 0c                	je     7ce5 <pdsp_sfra_inject+0x1f>
    7cd9:	48 8b 45 10          	mov    0x10(%rbp),%rax
    7cdd:	48 8b 00             	mov    (%rax),%rax
    7ce0:	48 85 c0             	test   %rax,%rax
    7ce3:	75 1f                	jne    7d04 <pdsp_sfra_inject+0x3e>
    7ce5:	41 b8 d8 09 00 00    	mov    $0x9d8,%r8d
    7ceb:	48 8d 05 20 00 00 00 	lea    0x20(%rip),%rax        # 7d12 <pdsp_sfra_inject+0x4c>
    7cf2:	48 89 c2             	mov    %rax,%rdx
    7cf5:	48 8d 05 27 00 00 00 	lea    0x27(%rip),%rax        # 7d23 <pdsp_sfra_inject+0x5d>
    7cfc:	48 89 c1             	mov    %rax,%rcx
    7cff:	e8 fc 82 ff ff       	call   0 <printf>
    7d04:	48 8b 45 10          	mov    0x10(%rbp),%rax
    7d08:	48 8b 40 10          	mov    0x10(%rax),%rax
    7d0c:	f3 0f 10 08          	movss  (%rax),%xmm1
    7d10:	48 8b 45 10          	mov    0x10(%rbp),%rax
    7d14:	48 8b 00             	mov    (%rax),%rax
    7d17:	f3 0f 10 50 08       	movss  0x8(%rax),%xmm2
    7d1c:	48 8b 45 10          	mov    0x10(%rbp),%rax
    7d20:	48 8b 00             	mov    (%rax),%rax
    7d23:	f3 0f 10 40 04       	movss  0x4(%rax),%xmm0
    7d28:	f3 0f 59 c2          	mulss  %xmm2,%xmm0
    7d2c:	48 8b 45 10          	mov    0x10(%rbp),%rax
    7d30:	48 8b 40 10          	mov    0x10(%rax),%rax
    7d34:	f3 0f 58 c1          	addss  %xmm1,%xmm0
    7d38:	f3 0f 11 00          	movss  %xmm0,(%rax)
    7d3c:	90                   	nop
    7d3d:	48 83 c4 20          	add    $0x20,%rsp
    7d41:	5d                   	pop    %rbp
    7d42:	c3                   	ret

0000000000007d43 <pdsp_sfra_process>:
    7d43:	55                   	push   %rbp
    7d44:	48 89 e5             	mov    %rsp,%rbp
    7d47:	48 83 ec 30          	sub    $0x30,%rsp
    7d4b:	48 89 4d 10          	mov    %rcx,0x10(%rbp)
    7d4f:	48 83 7d 10 00       	cmpq   $0x0,0x10(%rbp)
    7d54:	74 0c                	je     7d62 <pdsp_sfra_process+0x1f>
    7d56:	48 8b 45 10          	mov    0x10(%rbp),%rax
    7d5a:	48 8b 00             	mov    (%rax),%rax
    7d5d:	48 85 c0             	test   %rax,%rax
    7d60:	75 1f                	jne    7d81 <pdsp_sfra_process+0x3e>
    7d62:	41 b8 e0 09 00 00    	mov    $0x9e0,%r8d
    7d68:	48 8d 05 20 00 00 00 	lea    0x20(%rip),%rax        # 7d8f <pdsp_sfra_process+0x4c>
    7d6f:	48 89 c2             	mov    %rax,%rdx
    7d72:	48 8d 05 27 00 00 00 	lea    0x27(%rip),%rax        # 7da0 <pdsp_sfra_process+0x5d>
    7d79:	48 89 c1             	mov    %rax,%rcx
    7d7c:	e8 7f 82 ff ff       	call   0 <printf>
    7d81:	48 8b 45 10          	mov    0x10(%rbp),%rax
    7d85:	48 8b 00             	mov    (%rax),%rax
    7d88:	48 89 45 f8          	mov    %rax,-0x8(%rbp)
    7d8c:	48 8b 45 f8          	mov    -0x8(%rbp),%rax
    7d90:	f3 0f 10 48 20       	movss  0x20(%rax),%xmm1
    7d95:	48 8b 45 f8          	mov    -0x8(%rbp),%rax
    7d99:	f3 0f 10 50 1c       	movss  0x1c(%rax),%xmm2
    7d9e:	48 8b 45 10          	mov    0x10(%rbp),%rax
    7da2:	48 8b 40 18          	mov    0x18(%rax),%rax
    7da6:	f3 0f 10 18          	movss  (%rax),%xmm3
    7daa:	48 8b 45 f8          	mov    -0x8(%rbp),%rax
    7dae:	f3 0f 10 40 08       	movss  0x8(%rax),%xmm0
    7db3:	f3 0f 59 c3          	mulss  %xmm3,%xmm0
    7db7:	48 8b 45 f8          	mov    -0x8(%rbp),%rax
    7dbb:	f3 0f 10 58 20       	movss  0x20(%rax),%xmm3
    7dc0:	f3 0f 5c c3          	subss  %xmm3,%xmm0
    7dc4:	f3 0f 59 c2          	mulss  %xmm2,%xmm0
    7dc8:	f3 0f 58 c1          	addss  %xmm1,%xmm0
    7dcc:	48 8b 45 f8          	mov    -0x8(%rbp),%rax
    7dd0:	f3 0f 11 40 20       	movss  %xmm0,0x20(%rax)
    7dd5:	48 8b 45 f8          	mov    -0x8(%rbp),%rax
    7dd9:	f3 0f 10 48 24       	movss  0x24(%rax),%xmm1
    7dde:	48 8b 45 f8          	mov    -0x8(%rbp),%rax
    7de2:	f3 0f 10 50 1c       	movss  0x1c(%rax),%xmm2
    7de7:	48 8b 45 10          	mov    0x10(%rbp),%rax
    7deb:	48 8b 40 18          	mov    0x18(%rax),%rax
    7def:	f3 0f 10 18          	movss  (%rax),%xmm3
    7df3:	48 8b 45 f8          	mov    -0x8(%rbp),%rax
    7df7:	f3 0f 10 40 0c       	movss  0xc(%rax),%xmm0
    7dfc:	f3 0f 59 c3          	mulss  %xmm3,%xmm0
    7e00:	48 8b 45 f8          	mov    -0x8(%rbp),%rax
    7e04:	f3 0f 10 58 24       	movss  0x24(%rax),%xmm3
    7e09:	f3 0f 5c c3          	subss  %xmm3,%xmm0
    7e0d:	f3 0f 59 c2          	mulss  %xmm2,%xmm0
    7e11:	f3 0f 58 c1          	addss  %xmm1,%xmm0
    7e15:	48 8b 45 f8          	mov    -0x8(%rbp),%rax
    7e19:	f3 0f 11 40 24       	movss  %xmm0,0x24(%rax)
    7e1e:	48 8b 45 f8          	mov    -0x8(%rbp),%rax
    7e22:	f3 0f 10 48 28       	movss  0x28(%rax),%xmm1
    7e27:	48 8b 45 f8          	mov    -0x8(%rbp),%rax
    7e2b:	f3 0f 10 50 1c       	movss  0x1c(%rax),%xmm2
    7e30:	48 8b 45 10          	mov    0x10(%rbp),%rax
    7e34:	48 8b 40 20          	mov    0x20(%rax),%rax
    7e38:	f3 0f 10 18          	movss  (%rax),%xmm3
    7e3c:	48 8b 45 f8          	mov    -0x8(%rbp),%rax
    7e40:	f3 0f 10 40 08       	movss  0x8(%rax),%xmm0
    7e45:	f3 0f 59 c3          	mulss  %xmm3,%xmm0
    7e49:	48 8b 45 f8          	mov    -0x8(%rbp),%rax
    7e4d:	f3 0f 10 58 20       	movss  0x20(%rax),%xmm3
    7e52:	f3 0f 5c c3          	subss  %xmm3,%xmm0
    7e56:	f3 0f 59 c2          	mulss  %xmm2,%xmm0
    7e5a:	f3 0f 58 c1          	addss  %xmm1,%xmm0
    7e5e:	48 8b 45 f8          	mov    -0x8(%rbp),%rax
    7e62:	f3 0f 11 40 28       	movss  %xmm0,0x28(%rax)
    7e67:	48 8b 45 f8          	mov    -0x8(%rbp),%rax
    7e6b:	f3 0f 10 48 2c       	movss  0x2c(%rax),%xmm1
    7e70:	48 8b 45 f8          	mov    -0x8(%rbp),%rax
    7e74:	f3 0f 10 50 1c       	movss  0x1c(%rax),%xmm2
    7e79:	48 8b 45 10          	mov    0x10(%rbp),%rax
    7e7d:	48 8b 40 20          	mov    0x20(%rax),%rax
    7e81:	f3 0f 10 18          	movss  (%rax),%xmm3
    7e85:	48 8b 45 f8          	mov    -0x8(%rbp),%rax
    7e89:	f3 0f 10 40 0c       	movss  0xc(%rax),%xmm0
    7e8e:	f3 0f 59 c3          	mulss  %xmm3,%xmm0
    7e92:	48 8b 45 f8          	mov    -0x8(%rbp),%rax
    7e96:	f3 0f 10 58 24       	movss  0x24(%rax),%xmm3
    7e9b:	f3 0f 5c c3          	subss  %xmm3,%xmm0
    7e9f:	f3 0f 59 c2          	mulss  %xmm2,%xmm0
    7ea3:	f3 0f 58 c1          	addss  %xmm1,%xmm0
    7ea7:	48 8b 45 f8          	mov    -0x8(%rbp),%rax
    7eab:	f3 0f 11 40 2c       	movss  %xmm0,0x2c(%rax)
    7eb0:	48 8b 45 f8          	mov    -0x8(%rbp),%rax
    7eb4:	8b 40 10             	mov    0x10(%rax),%eax
    7eb7:	66 0f 6e c0          	movd   %eax,%xmm0
    7ebb:	e8 00 00 00 00       	call   7ec0 <pdsp_sfra_process+0x17d>
    7ec0:	66 0f 7e c0          	movd   %xmm0,%eax
    7ec4:	48 8b 55 f8          	mov    -0x8(%rbp),%rdx
    7ec8:	89 42 08             	mov    %eax,0x8(%rdx)
    7ecb:	48 8b 45 f8          	mov    -0x8(%rbp),%rax
    7ecf:	8b 40 10             	mov    0x10(%rax),%eax
    7ed2:	66 0f 6e c0          	movd   %eax,%xmm0
    7ed6:	e8 00 00 00 00       	call   7edb <pdsp_sfra_process+0x198>
    7edb:	66 0f 7e c0          	movd   %xmm0,%eax
    7edf:	48 8b 55 f8          	mov    -0x8(%rbp),%rdx
    7ee3:	89 42 0c             	mov    %eax,0xc(%rdx)
    7ee6:	48 8b 45 f8          	mov    -0x8(%rbp),%rax
    7eea:	f3 0f 10 48 10       	movss  0x10(%rax),%xmm1
    7eef:	48 8b 45 f8          	mov    -0x8(%rbp),%rax
    7ef3:	f3 0f 10 40 14       	movss  0x14(%rax),%xmm0
    7ef8:	f3 0f 58 c1          	addss  %xmm1,%xmm0
    7efc:	48 8b 45 f8          	mov    -0x8(%rbp),%rax
    7f00:	f3 0f 11 40 10       	movss  %xmm0,0x10(%rax)
    7f05:	48 8b 45 f8          	mov    -0x8(%rbp),%rax
    7f09:	f3 0f 10 40 10       	movss  0x10(%rax),%xmm0
    7f0e:	0f 2f 05 c0 00 00 00 	comiss 0xc0(%rip),%xmm0        # 7fd5 <pdsp_fault_init+0x3e>
    7f15:	77 02                	ja     7f19 <pdsp_sfra_process+0x1d6>
    7f17:	eb 77                	jmp    7f90 <pdsp_sfra_process+0x24d>
    7f19:	48 8b 45 f8          	mov    -0x8(%rbp),%rax
    7f1d:	66 0f ef c0          	pxor   %xmm0,%xmm0
    7f21:	f3 0f 11 40 10       	movss  %xmm0,0x10(%rax)
    7f26:	48 8b 45 f8          	mov    -0x8(%rbp),%rax
    7f2a:	0f b7 40 18          	movzwl 0x18(%rax),%eax
    7f2e:	8d 50 01             	lea    0x1(%rax),%edx
    7f31:	48 8b 45 f8          	mov    -0x8(%rbp),%rax
    7f35:	66 89 50 18          	mov    %dx,0x18(%rax)
    7f39:	48 8b 45 f8          	mov    -0x8(%rbp),%rax
    7f3d:	0f b7 40 18          	movzwl 0x18(%rax),%eax
    7f41:	0f b7 c0             	movzwl %ax,%eax
    7f44:	66 0f ef c0          	pxor   %xmm0,%xmm0
    7f48:	f3 0f 2a c0          	cvtsi2ss %eax,%xmm0
    7f4c:	48 8b 45 10          	mov    0x10(%rbp),%rax
    7f50:	f3 0f 10 48 28       	movss  0x28(%rax),%xmm1
    7f55:	0f 2f c1             	comiss %xmm1,%xmm0
    7f58:	76 13                	jbe    7f6d <pdsp_sfra_process+0x22a>
    7f5a:	48 8b 45 f8          	mov    -0x8(%rbp),%rax
    7f5e:	0f b7 40 1a          	movzwl 0x1a(%rax),%eax
    7f62:	8d 50 01             	lea    0x1(%rax),%edx
    7f65:	48 8b 45 f8          	mov    -0x8(%rbp),%rax
    7f69:	66 89 50 1a          	mov    %dx,0x1a(%rax)
    7f6d:	48 8b 45 f8          	mov    -0x8(%rbp),%rax
    7f71:	0f b7 50 1a          	movzwl 0x1a(%rax),%edx
    7f75:	48 8b 45 10          	mov    0x10(%rbp),%rax
    7f79:	48 8b 40 08          	mov    0x8(%rax),%rax
    7f7d:	0f b7 40 18          	movzwl 0x18(%rax),%eax
    7f81:	66 39 c2             	cmp    %ax,%dx
    7f84:	72 0a                	jb     7f90 <pdsp_sfra_process+0x24d>
    7f86:	48 8b 45 10          	mov    0x10(%rbp),%rax
    7f8a:	48 8b 00             	mov    (%rax),%rax
    7f8d:	c6 00 00             	movb   $0x0,(%rax)
    7f90:	90                   	nop
    7f91:	48 83 c4 30          	add    $0x30,%rsp
    7f95:	5d                   	pop    %rbp
    7f96:	c3                   	ret

0000000000007f97 <pdsp_fault_init>:
    7f97:	55                   	push   %rbp
    7f98:	48 89 e5             	mov    %rsp,%rbp
    7f9b:	48 83 ec 20          	sub    $0x20,%rsp
    7f9f:	48 89 4d 10          	mov    %rcx,0x10(%rbp)
    7fa3:	48 83 7d 10 00       	cmpq   $0x0,0x10(%rbp)
    7fa8:	74 26                	je     7fd0 <pdsp_fault_init+0x39>
    7faa:	48 8b 45 10          	mov    0x10(%rbp),%rax
    7fae:	48 8b 00             	mov    (%rax),%rax
    7fb1:	48 85 c0             	test   %rax,%rax
    7fb4:	74 1a                	je     7fd0 <pdsp_fault_init+0x39>
    7fb6:	48 8b 45 10          	mov    0x10(%rbp),%rax
    7fba:	48 8b 40 20          	mov    0x20(%rax),%rax
    7fbe:	48 85 c0             	test   %rax,%rax
    7fc1:	74 0d                	je     7fd0 <pdsp_fault_init+0x39>
    7fc3:	48 8b 45 10          	mov    0x10(%rbp),%rax
    7fc7:	48 8b 40 30          	mov    0x30(%rax),%rax
    7fcb:	48 85 c0             	test   %rax,%rax
    7fce:	75 1f                	jne    7fef <pdsp_fault_init+0x58>
    7fd0:	41 b8 0e 0a 00 00    	mov    $0xa0e,%r8d
    7fd6:	48 8d 05 20 00 00 00 	lea    0x20(%rip),%rax        # 7ffd <pdsp_fault_init+0x66>
    7fdd:	48 89 c2             	mov    %rax,%rdx
    7fe0:	48 8d 05 27 00 00 00 	lea    0x27(%rip),%rax        # 800e <pdsp_fault_init+0x77>
    7fe7:	48 89 c1             	mov    %rax,%rcx
    7fea:	e8 11 80 ff ff       	call   0 <printf>
    7fef:	48 8b 45 10          	mov    0x10(%rbp),%rax
    7ff3:	48 8b 00             	mov    (%rax),%rax
    7ff6:	c6 00 00             	movb   $0x0,(%rax)
    7ff9:	48 8b 45 10          	mov    0x10(%rbp),%rax
    7ffd:	48 8b 00             	mov    (%rax),%rax
    8000:	66 0f ef c0          	pxor   %xmm0,%xmm0
    8004:	f3 0f 11 40 04       	movss  %xmm0,0x4(%rax)
    8009:	48 8b 45 10          	mov    0x10(%rbp),%rax
    800d:	48 8b 00             	mov    (%rax),%rax
    8010:	c7 40 08 00 00 00 00 	movl   $0x0,0x8(%rax)
    8017:	90                   	nop
    8018:	48 83 c4 20          	add    $0x20,%rsp
    801c:	5d                   	pop    %rbp
    801d:	c3                   	ret

000000000000801e <pdsp_fault_check>:
    801e:	55                   	push   %rbp
    801f:	48 89 e5             	mov    %rsp,%rbp
    8022:	48 83 ec 20          	sub    $0x20,%rsp
    8026:	48 89 4d 10          	mov    %rcx,0x10(%rbp)
    802a:	f3 0f 11 4d 18       	movss  %xmm1,0x18(%rbp)
    802f:	48 83 7d 10 00       	cmpq   $0x0,0x10(%rbp)
    8034:	74 26                	je     805c <pdsp_fault_check+0x3e>
    8036:	48 8b 45 10          	mov    0x10(%rbp),%rax
    803a:	48 8b 00             	mov    (%rax),%rax
    803d:	48 85 c0             	test   %rax,%rax
    8040:	74 1a                	je     805c <pdsp_fault_check+0x3e>
    8042:	48 8b 45 10          	mov    0x10(%rbp),%rax
    8046:	48 8b 40 20          	mov    0x20(%rax),%rax
    804a:	48 85 c0             	test   %rax,%rax
    804d:	74 0d                	je     805c <pdsp_fault_check+0x3e>
    804f:	48 8b 45 10          	mov    0x10(%rbp),%rax
    8053:	48 8b 40 30          	mov    0x30(%rax),%rax
    8057:	48 85 c0             	test   %rax,%rax
    805a:	75 1f                	jne    807b <pdsp_fault_check+0x5d>
    805c:	41 b8 19 0a 00 00    	mov    $0xa19,%r8d
    8062:	48 8d 05 20 00 00 00 	lea    0x20(%rip),%rax        # 8089 <pdsp_fault_check+0x6b>
    8069:	48 89 c2             	mov    %rax,%rdx
    806c:	48 8d 05 27 00 00 00 	lea    0x27(%rip),%rax        # 809a <pdsp_fault_check+0x7c>
    8073:	48 89 c1             	mov    %rax,%rcx
    8076:	e8 85 7f ff ff       	call   0 <printf>
    807b:	48 8b 45 10          	mov    0x10(%rbp),%rax
    807f:	48 8b 00             	mov    (%rax),%rax
    8082:	48 89 05 90 00 00 00 	mov    %rax,0x90(%rip)        # 8119 <pdsp_fault_check+0xfb>
    8089:	48 8b 45 10          	mov    0x10(%rbp),%rax
    808d:	f3 0f 10 48 14       	movss  0x14(%rax),%xmm1
    8092:	f3 0f 10 45 18       	movss  0x18(%rbp),%xmm0
    8097:	0f 2f c1             	comiss %xmm1,%xmm0
    809a:	0f 86 ab 00 00 00    	jbe    814b <pdsp_fault_check+0x12d>
    80a0:	48 8b 05 90 00 00 00 	mov    0x90(%rip),%rax        # 8137 <pdsp_fault_check+0x119>
    80a7:	0f b6 00             	movzbl (%rax),%eax
    80aa:	83 f0 01             	xor    $0x1,%eax
    80ad:	84 c0                	test   %al,%al
    80af:	0f 84 96 00 00 00    	je     814b <pdsp_fault_check+0x12d>
    80b5:	48 8b 45 10          	mov    0x10(%rbp),%rax
    80b9:	48 8b 40 30          	mov    0x30(%rax),%rax
    80bd:	8b 10                	mov    (%rax),%edx
    80bf:	48 8b 45 10          	mov    0x10(%rbp),%rax
    80c3:	8b 40 38             	mov    0x38(%rax),%eax
    80c6:	21 d0                	and    %edx,%eax
    80c8:	85 c0                	test   %eax,%eax
    80ca:	74 7f                	je     814b <pdsp_fault_check+0x12d>
    80cc:	48 8b 05 90 00 00 00 	mov    0x90(%rip),%rax        # 8163 <pdsp_fault_check+0x145>
    80d3:	f3 0f 10 48 04       	movss  0x4(%rax),%xmm1
    80d8:	48 8b 45 10          	mov    0x10(%rbp),%rax
    80dc:	f3 0f 10 40 08       	movss  0x8(%rax),%xmm0
    80e1:	48 8b 05 90 00 00 00 	mov    0x90(%rip),%rax        # 8178 <pdsp_fault_check+0x15a>
    80e8:	f3 0f 58 c1          	addss  %xmm1,%xmm0
    80ec:	f3 0f 11 40 04       	movss  %xmm0,0x4(%rax)
    80f1:	48 8b 05 90 00 00 00 	mov    0x90(%rip),%rax        # 8188 <pdsp_fault_check+0x16a>
    80f8:	f3 0f 10 40 04       	movss  0x4(%rax),%xmm0
    80fd:	48 8b 45 10          	mov    0x10(%rbp),%rax
    8101:	f3 0f 10 48 0c       	movss  0xc(%rax),%xmm1
    8106:	0f 2f c1             	comiss %xmm1,%xmm0
    8109:	0f 86 1d 01 00 00    	jbe    822c <pdsp_fault_check+0x20e>
    810f:	48 8b 05 90 00 00 00 	mov    0x90(%rip),%rax        # 81a6 <pdsp_fault_check+0x188>
    8116:	c6 00 01             	movb   $0x1,(%rax)
    8119:	48 8b 45 10          	mov    0x10(%rbp),%rax
    811d:	48 8b 40 20          	mov    0x20(%rax),%rax
    8121:	8b 08                	mov    (%rax),%ecx
    8123:	48 8b 45 10          	mov    0x10(%rbp),%rax
    8127:	8b 50 28             	mov    0x28(%rax),%edx
    812a:	48 8b 45 10          	mov    0x10(%rbp),%rax
    812e:	48 8b 40 20          	mov    0x20(%rax),%rax
    8132:	09 ca                	or     %ecx,%edx
    8134:	89 10                	mov    %edx,(%rax)
    8136:	48 8b 05 90 00 00 00 	mov    0x90(%rip),%rax        # 81cd <pdsp_fault_check+0x1af>
    813d:	66 0f ef c0          	pxor   %xmm0,%xmm0
    8141:	f3 0f 11 40 04       	movss  %xmm0,0x4(%rax)
    8146:	e9 e1 00 00 00       	jmp    822c <pdsp_fault_check+0x20e>
    814b:	48 8b 45 10          	mov    0x10(%rbp),%rax
    814f:	f3 0f 10 40 18       	movss  0x18(%rax),%xmm0
    8154:	0f 2f 45 18          	comiss 0x18(%rbp),%xmm0
    8158:	0f 86 be 00 00 00    	jbe    821c <pdsp_fault_check+0x1fe>
    815e:	48 8b 05 90 00 00 00 	mov    0x90(%rip),%rax        # 81f5 <pdsp_fault_check+0x1d7>
    8165:	0f b6 00             	movzbl (%rax),%eax
    8168:	84 c0                	test   %al,%al
    816a:	0f 84 ac 00 00 00    	je     821c <pdsp_fault_check+0x1fe>
    8170:	48 8b 05 90 00 00 00 	mov    0x90(%rip),%rax        # 8207 <pdsp_fault_check+0x1e9>
    8177:	8b 50 08             	mov    0x8(%rax),%edx
    817a:	48 8b 45 10          	mov    0x10(%rbp),%rax
    817e:	8b 40 1c             	mov    0x1c(%rax),%eax
    8181:	39 c2                	cmp    %eax,%edx
    8183:	0f 83 93 00 00 00    	jae    821c <pdsp_fault_check+0x1fe>
    8189:	48 8b 05 90 00 00 00 	mov    0x90(%rip),%rax        # 8220 <pdsp_fault_check+0x202>
    8190:	f3 0f 10 48 04       	movss  0x4(%rax),%xmm1
    8195:	48 8b 45 10          	mov    0x10(%rbp),%rax
    8199:	f3 0f 10 40 08       	movss  0x8(%rax),%xmm0
    819e:	48 8b 05 90 00 00 00 	mov    0x90(%rip),%rax        # 8235 <pdsp_fault_check+0x217>
    81a5:	f3 0f 58 c1          	addss  %xmm1,%xmm0
    81a9:	f3 0f 11 40 04       	movss  %xmm0,0x4(%rax)
    81ae:	48 8b 05 90 00 00 00 	mov    0x90(%rip),%rax        # 8245 <pdsp_aout+0x9>
    81b5:	f3 0f 10 40 04       	movss  0x4(%rax),%xmm0
    81ba:	48 8b 45 10          	mov    0x10(%rbp),%rax
    81be:	f3 0f 10 48 10       	movss  0x10(%rax),%xmm1
    81c3:	0f 2f c1             	comiss %xmm1,%xmm0
    81c6:	76 64                	jbe    822c <pdsp_fault_check+0x20e>
    81c8:	48 8b 05 90 00 00 00 	mov    0x90(%rip),%rax        # 825f <pdsp_aout+0x23>
    81cf:	c6 00 00             	movb   $0x0,(%rax)
    81d2:	48 8b 05 90 00 00 00 	mov    0x90(%rip),%rax        # 8269 <pdsp_aout+0x2d>
    81d9:	8b 50 08             	mov    0x8(%rax),%edx
    81dc:	48 8b 05 90 00 00 00 	mov    0x90(%rip),%rax        # 8273 <pdsp_aout+0x37>
    81e3:	83 c2 01             	add    $0x1,%edx
    81e6:	89 50 08             	mov    %edx,0x8(%rax)
    81e9:	48 8b 45 10          	mov    0x10(%rbp),%rax
    81ed:	48 8b 40 20          	mov    0x20(%rax),%rax
    81f1:	8b 10                	mov    (%rax),%edx
    81f3:	48 8b 45 10          	mov    0x10(%rbp),%rax
    81f7:	8b 40 28             	mov    0x28(%rax),%eax
    81fa:	f7 d0                	not    %eax
    81fc:	89 c1                	mov    %eax,%ecx
    81fe:	48 8b 45 10          	mov    0x10(%rbp),%rax
    8202:	48 8b 40 20          	mov    0x20(%rax),%rax
    8206:	21 ca                	and    %ecx,%edx
    8208:	89 10                	mov    %edx,(%rax)
    820a:	48 8b 05 90 00 00 00 	mov    0x90(%rip),%rax        # 82a1 <pdsp_aout+0x65>
    8211:	66 0f ef c0          	pxor   %xmm0,%xmm0
    8215:	f3 0f 11 40 04       	movss  %xmm0,0x4(%rax)
    821a:	eb 10                	jmp    822c <pdsp_fault_check+0x20e>
    821c:	48 8b 05 90 00 00 00 	mov    0x90(%rip),%rax        # 82b3 <pdsp_aout+0x77>
    8223:	66 0f ef c0          	pxor   %xmm0,%xmm0
    8227:	f3 0f 11 40 04       	movss  %xmm0,0x4(%rax)
    822c:	48 8b 05 90 00 00 00 	mov    0x90(%rip),%rax        # 82c3 <pdsp_aout+0x87>
    8233:	0f b6 00             	movzbl (%rax),%eax
    8236:	48 83 c4 20          	add    $0x20,%rsp
    823a:	5d                   	pop    %rbp
    823b:	c3                   	ret

000000000000823c <pdsp_aout>:
    823c:	55                   	push   %rbp
    823d:	48 89 e5             	mov    %rsp,%rbp
    8240:	48 83 ec 20          	sub    $0x20,%rsp
    8244:	48 89 4d 10          	mov    %rcx,0x10(%rbp)
    8248:	48 83 7d 10 00       	cmpq   $0x0,0x10(%rbp)
    824d:	74 0c                	je     825b <pdsp_aout+0x1f>
    824f:	48 8b 45 10          	mov    0x10(%rbp),%rax
    8253:	48 8b 00             	mov    (%rax),%rax
    8256:	48 85 c0             	test   %rax,%rax
    8259:	75 1f                	jne    827a <pdsp_aout+0x3e>
    825b:	41 b8 83 0a 00 00    	mov    $0xa83,%r8d
    8261:	48 8d 05 20 00 00 00 	lea    0x20(%rip),%rax        # 8288 <pdsp_aout+0x4c>
    8268:	48 89 c2             	mov    %rax,%rdx
    826b:	48 8d 05 27 00 00 00 	lea    0x27(%rip),%rax        # 8299 <pdsp_aout+0x5d>
    8272:	48 89 c1             	mov    %rax,%rcx
    8275:	e8 86 7d ff ff       	call   0 <printf>
    827a:	48 8b 45 10          	mov    0x10(%rbp),%rax
    827e:	8b 40 08             	mov    0x8(%rax),%eax
    8281:	85 c0                	test   %eax,%eax
    8283:	75 2e                	jne    82b3 <pdsp_aout+0x77>
    8285:	48 8b 45 10          	mov    0x10(%rbp),%rax
    8289:	48 8b 00             	mov    (%rax),%rax
    828c:	f3 0f 10 08          	movss  (%rax),%xmm1
    8290:	48 8b 45 10          	mov    0x10(%rbp),%rax
    8294:	f3 0f 10 40 0c       	movss  0xc(%rax),%xmm0
    8299:	f3 0f 59 c8          	mulss  %xmm0,%xmm1
    829d:	48 8b 45 10          	mov    0x10(%rbp),%rax
    82a1:	f3 0f 10 40 10       	movss  0x10(%rax),%xmm0
    82a6:	f3 0f 58 c1          	addss  %xmm1,%xmm0
    82aa:	f3 0f 2c c0          	cvttss2si %xmm0,%eax
    82ae:	e9 85 00 00 00       	jmp    8338 <pdsp_aout+0xfc>
    82b3:	48 8b 45 10          	mov    0x10(%rbp),%rax
    82b7:	8b 40 08             	mov    0x8(%rax),%eax
    82ba:	83 f8 01             	cmp    $0x1,%eax
    82bd:	75 33                	jne    82f2 <pdsp_aout+0xb6>
    82bf:	48 8b 45 10          	mov    0x10(%rbp),%rax
    82c3:	48 8b 00             	mov    (%rax),%rax
    82c6:	0f b7 00             	movzwl (%rax),%eax
    82c9:	98                   	cwtl
    82ca:	66 0f ef c9          	pxor   %xmm1,%xmm1
    82ce:	f3 0f 2a c8          	cvtsi2ss %eax,%xmm1
    82d2:	48 8b 45 10          	mov    0x10(%rbp),%rax
    82d6:	f3 0f 10 40 0c       	movss  0xc(%rax),%xmm0
    82db:	f3 0f 59 c8          	mulss  %xmm0,%xmm1
    82df:	48 8b 45 10          	mov    0x10(%rbp),%rax
    82e3:	f3 0f 10 40 10       	movss  0x10(%rax),%xmm0
    82e8:	f3 0f 58 c1          	addss  %xmm1,%xmm0
    82ec:	f3 0f 2c c0          	cvttss2si %xmm0,%eax
    82f0:	eb 46                	jmp    8338 <pdsp_aout+0xfc>
    82f2:	48 8b 45 10          	mov    0x10(%rbp),%rax
    82f6:	8b 40 08             	mov    0x8(%rax),%eax
    82f9:	83 f8 02             	cmp    $0x2,%eax
    82fc:	75 35                	jne    8333 <pdsp_aout+0xf7>
    82fe:	48 8b 45 10          	mov    0x10(%rbp),%rax
    8302:	48 8b 00             	mov    (%rax),%rax
    8305:	0f b7 00             	movzwl (%rax),%eax
    8308:	0f b7 c0             	movzwl %ax,%eax
    830b:	66 0f ef c9          	pxor   %xmm1,%xmm1
    830f:	f3 0f 2a c8          	cvtsi2ss %eax,%xmm1
    8313:	48 8b 45 10          	mov    0x10(%rbp),%rax
    8317:	f3 0f 10 40 0c       	movss  0xc(%rax),%xmm0
    831c:	f3 0f 59 c8          	mulss  %xmm0,%xmm1
    8320:	48 8b 45 10          	mov    0x10(%rbp),%rax
    8324:	f3 0f 10 40 10       	movss  0x10(%rax),%xmm0
    8329:	f3 0f 58 c1          	addss  %xmm1,%xmm0
    832d:	f3 0f 2c c0          	cvttss2si %xmm0,%eax
    8331:	eb 05                	jmp    8338 <pdsp_aout+0xfc>
    8333:	b8 00 00 00 00       	mov    $0x0,%eax
    8338:	48 83 c4 20          	add    $0x20,%rsp
    833c:	5d                   	pop    %rbp
    833d:	c3                   	ret
    833e:	90                   	nop
    833f:	90                   	nop
